(dp0
VisHistoricallyInteresting
p1
(dp2
S'isArray'
p3
I00
sS'isMulti'
p4
I00
sS'attrType'
p5
Vbyte
p6
sS'isSimple'
p7
I00
sS'attrChildrenLongNames'
p8
(lp9
ssVnodeState
p10
(dp11
g3
I00
sg5
Venum
p12
sg4
I00
sS'isCompound'
p13
I00
sg7
I01
sg8
(lp14
ssVmatrixIn
p15
(dp16
g3
I01
sg4
I01
sg7
I00
sg5
VTdataCompound
p17
ssVfrozen
p18
(dp19
g3
I00
sg5
Vbool
p20
sg4
I00
sg13
I00
sg7
I01
sg8
(lp21
ssVmatrixIn[1]
p22
(dp23
g3
I00
sg8
(lp24
ssVbinMembership
p25
(dp26
g3
I00
sg5
Vstring
p27
sg4
I00
sg13
I00
sg7
I01
sg8
(lp28
ssVmatrixSum
p29
(dp30
g3
I00
sg4
I00
sg5
Vmatrix
p31
sg7
I00
sg8
(lp32
ssVcaching
p33
(dp34
g3
I00
sg5
Vbool
p35
sg4
I00
sg13
I00
sg7
I01
sg8
(lp36
ssVmatrixIn[0]
p37
(dp38
g3
I00
sg8
(lp39
ss.