(dp0
VaxisAngle.axis
p1
(dp2
S'isArray'
p3
I00
sS'attrParentLongName'
p4
VaxisAngle
p5
sS'attrChildrenNames'
p6
(lp7
VaxisAngle.axis.axisX
p8
aVaxisAngle.axis.axisY
p9
aVaxisAngle.axis.axisZ
p10
asS'attrType'
p11
Vdouble3
p12
sS'isMulti'
p13
I00
sS'isCompound'
p14
I01
sS'isSimple'
p15
I01
sS'attrChildrenLongNames'
p16
(lp17
VaxisAngle.axis.axisX
p18
aVaxisAngle.axis.axisY
p19
aVaxisAngle.axis.axisZ
p20
asS'isElement'
p21
I00
ssVaxisAngle.angle
p22
(dp23
S'isArray'
p24
I00
sS'attrParentLongName'
p25
VaxisAngle
p26
sS'attrChildrenNames'
p27
(lp28
sg11
VdoubleAngle
p29
sS'isMulti'
p30
I00
sS'isCompound'
p31
I00
sg15
I01
sg16
(lp32
sS'isElement'
p33
I00
ssVisHistoricallyInteresting
p34
(dp35
S'isArray'
p36
I00
sg11
Vbyte
p37
sS'attrChildrenNames'
p38
(lp39
sS'isMulti'
p40
I00
sS'isCompound'
p41
I00
sg15
I00
sg16
(lp42
sS'isElement'
p43
I00
ssVvector1
p44
(dp45
S'isArray'
p46
I00
sg11
Vdouble3
p47
sS'attrChildrenNames'
p48
(lp49
Vvector1.vector1X
p50
aVvector1.vector1Y
p51
aVvector1.vector1Z
p52
asS'isMulti'
p53
I00
sS'isCompound'
p54
I01
sg15
I01
sg16
(lp55
Vvector1.vector1X
p56
aVvector1.vector1Y
p57
aVvector1.vector1Z
p58
asS'isElement'
p59
I00
ssVvector2
p60
(dp61
S'isArray'
p62
I00
sg11
Vdouble3
p63
sS'attrChildrenNames'
p64
(lp65
Vvector2.vector2X
p66
aVvector2.vector2Y
p67
aVvector2.vector2Z
p68
asS'isMulti'
p69
I00
sS'isCompound'
p70
I01
sg15
I01
sg16
(lp71
Vvector2.vector2X
p72
aVvector2.vector2Y
p73
aVvector2.vector2Z
p74
asS'isElement'
p75
I00
ssVbinMembership
p76
(dp77
S'isArray'
p78
I00
sg11
Vstring
p79
sS'isMulti'
p80
I00
sS'isCompound'
p81
I00
sg15
I01
sg16
(lp82
ssVvector2.vector2Z
p83
(dp84
S'isArray'
p85
I00
sS'attrParentLongName'
p86
Vvector2
p87
sS'attrChildrenNames'
p88
(lp89
sg11
VdoubleLinear
p90
sS'isMulti'
p91
I00
sS'isCompound'
p92
I00
sg15
I01
sg16
(lp93
sS'isElement'
p94
I00
ssVaxisAngle.axis.axisX
p95
(dp96
S'isArray'
p97
I00
sS'attrParentLongName'
p98
VaxisAngle.axis
p99
sS'attrChildrenNames'
p100
(lp101
sg11
VdoubleLinear
p102
sS'isMulti'
p103
I00
sS'isCompound'
p104
I00
sg15
I01
sg16
(lp105
sS'isElement'
p106
I00
ssVaxisAngle.axis.axisY
p107
(dp108
S'isArray'
p109
I00
sS'attrParentLongName'
p110
VaxisAngle.axis
p111
sS'attrChildrenNames'
p112
(lp113
sg11
VdoubleLinear
p114
sS'isMulti'
p115
I00
sS'isCompound'
p116
I00
sg15
I01
sg16
(lp117
sS'isElement'
p118
I00
ssVaxisAngle.axis.axisZ
p119
(dp120
S'isArray'
p121
I00
sS'attrParentLongName'
p122
VaxisAngle.axis
p123
sS'attrChildrenNames'
p124
(lp125
sg11
VdoubleLinear
p126
sS'isMulti'
p127
I00
sS'isCompound'
p128
I00
sg15
I01
sg16
(lp129
sS'isElement'
p130
I00
ssVeuler.eulerZ
p131
(dp132
S'isArray'
p133
I00
sS'attrParentLongName'
p134
Veuler
p135
sS'attrChildrenNames'
p136
(lp137
sg11
VdoubleAngle
p138
sS'isMulti'
p139
I00
sS'isCompound'
p140
I00
sg15
I01
sg16
(lp141
sS'isElement'
p142
I00
ssVeuler
p143
(dp144
S'isArray'
p145
I00
sg11
Vdouble3
p146
sS'attrChildrenNames'
p147
(lp148
Veuler.eulerX
p149
aVeuler.eulerY
p150
aVeuler.eulerZ
p151
asS'isMulti'
p152
I00
sS'isCompound'
p153
I01
sg15
I01
sg16
(lp154
Veuler.eulerX
p155
aVeuler.eulerY
p156
aVeuler.eulerZ
p157
asS'isElement'
p158
I00
ssVeuler.eulerY
p159
(dp160
S'isArray'
p161
I00
sS'attrParentLongName'
p162
Veuler
p163
sS'attrChildrenNames'
p164
(lp165
sg11
VdoubleAngle
p166
sS'isMulti'
p167
I00
sS'isCompound'
p168
I00
sg15
I01
sg16
(lp169
sS'isElement'
p170
I00
ssVnodeState
p171
(dp172
S'isArray'
p173
I00
sg11
Venum
p174
sS'attrChildrenNames'
p175
(lp176
sS'isMulti'
p177
I00
sS'isCompound'
p178
I00
sg15
I01
sg16
(lp179
sS'isElement'
p180
I00
ssVvector1.vector1Z
p181
(dp182
S'isArray'
p183
I00
sS'attrParentLongName'
p184
Vvector1
p185
sS'attrChildrenNames'
p186
(lp187
sg11
VdoubleLinear
p188
sS'isMulti'
p189
I00
sS'isCompound'
p190
I00
sg15
I01
sg16
(lp191
sS'isElement'
p192
I00
ssVvector2.vector2X
p193
(dp194
S'isArray'
p195
I00
sS'attrParentLongName'
p196
Vvector2
p197
sS'attrChildrenNames'
p198
(lp199
sg11
VdoubleLinear
p200
sS'isMulti'
p201
I00
sS'isCompound'
p202
I00
sg15
I01
sg16
(lp203
sS'isElement'
p204
I00
ssVvector1.vector1X
p205
(dp206
S'isArray'
p207
I00
sS'attrParentLongName'
p208
Vvector1
p209
sS'attrChildrenNames'
p210
(lp211
sg11
VdoubleLinear
p212
sS'isMulti'
p213
I00
sS'isCompound'
p214
I00
sg15
I01
sg16
(lp215
sS'isElement'
p216
I00
ssVvector1.vector1Y
p217
(dp218
S'isArray'
p219
I00
sS'attrParentLongName'
p220
Vvector1
p221
sS'attrChildrenNames'
p222
(lp223
sg11
VdoubleLinear
p224
sS'isMulti'
p225
I00
sS'isCompound'
p226
I00
sg15
I01
sg16
(lp227
sS'isElement'
p228
I00
ssVvector2.vector2Y
p229
(dp230
S'isArray'
p231
I00
sS'attrParentLongName'
p232
Vvector2
p233
sS'attrChildrenNames'
p234
(lp235
sg11
VdoubleLinear
p236
sS'isMulti'
p237
I00
sS'isCompound'
p238
I00
sg15
I01
sg16
(lp239
sS'isElement'
p240
I00
ssVeuler.eulerX
p241
(dp242
S'isArray'
p243
I00
sS'attrParentLongName'
p244
Veuler
p245
sS'attrChildrenNames'
p246
(lp247
sg11
VdoubleAngle
p248
sS'isMulti'
p249
I00
sS'isCompound'
p250
I00
sg15
I01
sg16
(lp251
sS'isElement'
p252
I00
ssVcaching
p253
(dp254
S'isArray'
p255
I00
sg11
Vbool
p256
sS'attrChildrenNames'
p257
(lp258
sS'isMulti'
p259
I00
sS'isCompound'
p260
I00
sg15
I01
sg16
(lp261
sS'isElement'
p262
I00
ssVaxisAngle
p263
(dp264
S'isArray'
p265
I00
sg11
VTdataCompound
p266
sS'attrChildrenNames'
p267
(lp268
VaxisAngle.axis
p269
aVaxisAngle.angle
p270
asS'isMulti'
p271
I00
sS'isCompound'
p272
I01
sg15
I00
sg16
(lp273
VaxisAngle.axis
p274
aVaxisAngle.angle
p275
asS'isElement'
p276
I00
ss.