(dp0
VnodeState
p1
(dp2
S'isArray'
p3
I00
sS'attrType'
p4
Venum
p5
sS'isSimple'
p6
I01
sS'attrChildrenLongNames'
p7
(lp8
ssVkeyTimeValue[1].keyValue
p9
(dp10
g3
I00
sg4
Vdouble
p11
sS'isMulti'
p12
I00
sS'isCompound'
p13
I00
sg6
I01
sg7
(lp14
ssVapply
p15
(dp16
g3
I00
sg4
Vfunction
p17
sg6
I00
sg7
(lp18
ssVkeyTimeValue[2].keyValue
p19
(dp20
g3
I00
sg4
Vdouble
p21
sg6
I01
sg7
(lp22
ssVkeyTimeValue[1].keyTime
p23
(dp24
g3
I00
sg4
Vdouble
p25
sg12
I00
sg13
I00
sg6
I01
sg7
(lp26
ssS'keyTimeValue.keyValue'
p27
(dp28
S'attrParentLongName'
p29
VkeyTimeValue
p30
ssVkeyTimeValue[1]
p31
(dp32
g3
I00
sg4
VTdataCompound
p33
sg6
I00
sg7
(lp34
g23
ag9
assVstippleReverse
p35
(dp36
g3
I00
sg4
Vbool
p37
sg6
I01
sg7
(lp38
ssVkeyTimeValue[3]
p39
(dp40
g3
I00
sg4
VTdataCompound
p41
sg6
I00
sg7
(lp42
VkeyTimeValue[3].keyTime
p43
aVkeyTimeValue[3].keyValue
p44
assVinStippleRange
p45
(dp46
g3
I00
sg4
Nsg6
I00
sg7
(lp47
ssVcurveColor
p48
(dp49
g3
I00
sg4
Vfloat3
p50
sg6
I00
sg7
(lp51
VcurveColor.curveColorR
p52
aVcurveColor.curveColorG
p53
aVcurveColor.curveColorB
p54
assVkeyTimeValue[0].keyValue
p55
(dp56
g3
I00
sg4
Vdouble
p57
sg12
I00
sg13
I00
sg6
I01
sg7
(lp58
ssVoutStippleRange
p59
(dp60
g3
I00
sg4
VdoubleArray
p61
sg6
I00
sg7
(lp62
ssVkeyTimeValue
p63
(dp64
g3
I01
sg4
VTdataCompound
p65
sg6
I00
ssVstipplePattern
p66
(dp67
g3
I00
sg4
Venum
p68
sg6
I01
sg7
(lp69
ssg52
(dp70
g3
I00
sg4
Vfloat
p71
sg6
I01
sg7
(lp72
ssVkeyTimeValue[0].keyTime
p73
(dp74
g3
I00
sg4
Vdouble
p75
sg12
I00
sg13
I00
sg6
I01
sg7
(lp76
ssg53
(dp77
g3
I00
sg4
Vfloat
p78
sg6
I01
sg7
(lp79
ssS'keyTimeValue.keyTime'
p80
(dp81
g29
VkeyTimeValue
p82
ssg43
(dp83
g3
I00
sg4
Vdouble
p84
sg6
I01
sg7
(lp85
ssVinput
p86
(dp87
g3
I00
sg4
Vdouble
p88
sg6
I01
sg7
(lp89
ssVkeyTimeValue[0]
p90
(dp91
g3
I00
sg4
VTdataCompound
p92
sg6
I00
sg7
(lp93
g73
ag55
assVoutStippleThreshold
p94
(dp95
g3
I00
sg4
Vdouble
p96
sg6
I01
sg7
(lp97
ssVfrozen
p98
(dp99
g3
I00
sg4
Vbool
p100
sg6
I01
sg7
(lp101
ssg54
(dp102
g3
I00
sg4
Vfloat
p103
sg6
I01
sg7
(lp104
ssg44
(dp105
g3
I00
sg4
Vdouble
p106
sg6
I01
sg7
(lp107
ssVkeyTimeValue[2]
p108
(dp109
g3
I00
sg4
VTdataCompound
p110
sg6
I00
sg7
(lp111
VkeyTimeValue[2].keyTime
p112
ag19
assVcaching
p113
(dp114
g3
I00
sg4
Vbool
p115
sg6
I01
sg7
(lp116
ssVoutput
p117
(dp118
g3
I00
sg4
Vdouble
p119
sg6
I01
sg7
(lp120
ssVuseCurveColor
p121
(dp122
g3
I00
sg4
Vbool
p123
sg6
I01
sg7
(lp124
ssg112
(dp125
g3
I00
sg4
Vdouble
p126
sg6
I01
sg7
(lp127
ss.