(dp0
VisHistoricallyInteresting
p1
(dp2
S'isArray'
p3
I00
sS'attrType'
p4
Vbyte
p5
sS'attrChildrenNames'
p6
(lp7
sS'isMulti'
p8
I00
sS'isCompound'
p9
I00
sS'isSimple'
p10
I00
sS'attrChildrenLongNames'
p11
(lp12
sS'isElement'
p13
I00
ssVnodeState
p14
(dp15
S'isArray'
p16
I00
sg4
Venum
p17
sS'attrChildrenNames'
p18
(lp19
sS'isMulti'
p20
I00
sS'isCompound'
p21
I00
sg10
I01
sg11
(lp22
sS'isElement'
p23
I00
ssVbinMembership
p24
(dp25
S'isArray'
p26
I00
sg4
Vstring
p27
sS'isMulti'
p28
I00
sS'isCompound'
p29
I00
sg10
I01
sg11
(lp30
ssVcomputeNodeColor.computeNodeColorG
p31
(dp32
S'isArray'
p33
I00
sS'attrParentLongName'
p34
VcomputeNodeColor
p35
sS'attrChildrenNames'
p36
(lp37
sg4
Vdouble
p38
sS'isMulti'
p39
I00
sS'isCompound'
p40
I00
sg10
I01
sg11
(lp41
sS'isElement'
p42
I00
ssVoutColorPP
p43
(dp44
S'isArray'
p45
I00
sg4
VvectorArray
p46
sS'attrChildrenNames'
p47
(lp48
sS'isMulti'
p49
I00
sS'isCompound'
p50
I00
sg10
I00
sg11
(lp51
sS'isElement'
p52
I00
ssVcomputeNodeColor
p53
(dp54
S'isArray'
p55
I00
sg4
Vdouble3
p56
sS'attrChildrenNames'
p57
(lp58
VcomputeNodeColor.computeNodeColorR
p59
aVcomputeNodeColor.computeNodeColorG
p60
aVcomputeNodeColor.computeNodeColorB
p61
asS'isMulti'
p62
I00
sS'isCompound'
p63
I01
sg10
I01
sg11
(lp64
VcomputeNodeColor.computeNodeColorR
p65
aVcomputeNodeColor.computeNodeColorG
p66
aVcomputeNodeColor.computeNodeColorB
p67
asS'isElement'
p68
I00
ssVcomputeNodeColor.computeNodeColorB
p69
(dp70
S'isArray'
p71
I00
sS'attrParentLongName'
p72
VcomputeNodeColor
p73
sS'attrChildrenNames'
p74
(lp75
sg4
Vdouble
p76
sS'isMulti'
p77
I00
sS'isCompound'
p78
I00
sg10
I01
sg11
(lp79
sS'isElement'
p80
I00
ssVvCoordPP
p81
(dp82
S'isArray'
p83
I00
sg4
NsS'attrChildrenNames'
p84
(lp85
sS'isMulti'
p86
I00
sS'isCompound'
p87
I00
sg10
I00
sg11
(lp88
sS'isElement'
p89
I00
ssVcomputeNodeColor.computeNodeColorR
p90
(dp91
S'isArray'
p92
I00
sS'attrParentLongName'
p93
VcomputeNodeColor
p94
sS'attrChildrenNames'
p95
(lp96
sg4
Vdouble
p97
sS'isMulti'
p98
I00
sS'isCompound'
p99
I00
sg10
I01
sg11
(lp100
sS'isElement'
p101
I00
ssVuCoordPP
p102
(dp103
S'isArray'
p104
I00
sg4
NsS'attrChildrenNames'
p105
(lp106
sS'isMulti'
p107
I00
sS'isCompound'
p108
I00
sg10
I00
sg11
(lp109
sS'isElement'
p110
I00
ssVtime
p111
(dp112
S'isArray'
p113
I00
sg4
Vtime
p114
sS'attrChildrenNames'
p115
(lp116
sS'isMulti'
p117
I00
sS'isCompound'
p118
I00
sg10
I01
sg11
(lp119
sS'isElement'
p120
I00
ssVcaching
p121
(dp122
S'isArray'
p123
I00
sg4
Vbool
p124
sS'attrChildrenNames'
p125
(lp126
sS'isMulti'
p127
I00
sS'isCompound'
p128
I00
sg10
I01
sg11
(lp129
sS'isElement'
p130
I00
ssVmaxValue
p131
(dp132
S'isArray'
p133
I00
sg4
Vdouble
p134
sS'attrChildrenNames'
p135
(lp136
sS'isMulti'
p137
I00
sS'isCompound'
p138
I00
sg10
I01
sg11
(lp139
sS'isElement'
p140
I00
ssVminValue
p141
(dp142
S'isArray'
p143
I00
sg4
Vdouble
p144
sS'attrChildrenNames'
p145
(lp146
sS'isMulti'
p147
I00
sS'isCompound'
p148
I00
sg10
I01
sg11
(lp149
sS'isElement'
p150
I00
ssVoutValuePP
p151
(dp152
S'isArray'
p153
I00
sg4
VdoubleArray
p154
sS'attrChildrenNames'
p155
(lp156
sS'isMulti'
p157
I00
sS'isCompound'
p158
I00
sg10
I00
sg11
(lp159
sS'isElement'
p160
I00
ss.