(dp0
VisHistoricallyInteresting
p1
(dp2
S'isArray'
p3
I00
sS'attrType'
p4
Vbyte
p5
sS'attrChildrenNames'
p6
(lp7
sS'isMulti'
p8
I00
sS'isCompound'
p9
I00
sS'isSimple'
p10
I00
sS'attrChildrenLongNames'
p11
(lp12
sS'isElement'
p13
I00
ssVattributesBlender
p14
(dp15
S'isArray'
p16
I00
sg4
Vfloat
p17
sS'attrChildrenNames'
p18
(lp19
sS'isMulti'
p20
I00
sS'isCompound'
p21
I00
sg10
I01
sg11
(lp22
sS'isElement'
p23
I00
ssVnodeState
p24
(dp25
S'isArray'
p26
I00
sg4
Venum
p27
sS'attrChildrenNames'
p28
(lp29
sS'isMulti'
p30
I00
sS'isCompound'
p31
I00
sg10
I01
sg11
(lp32
sS'isElement'
p33
I00
ssVinput[1]
p34
(dp35
S'isArray'
p36
I00
sg11
(lp37
ssVinput[0]
p38
(dp39
g36
I00
sg11
(lp40
ssVcurrent
p41
(dp42
g36
I00
sg4
Vlong
p43
sS'isMulti'
p44
I00
sS'isCompound'
p45
I00
sg10
I01
sg11
(lp46
ssVbinMembership
p47
(dp48
g36
I00
sg4
Vstring
p49
sg44
I00
sg45
I00
sg10
I01
sg11
(lp50
ssVoutput
p51
(dp52
S'isArray'
p53
I00
sg4
Vdouble
p54
sS'attrChildrenNames'
p55
(lp56
sS'isMulti'
p57
I00
sS'isCompound'
p58
I00
sg10
I01
sg11
(lp59
sS'isElement'
p60
I00
ssVcaching
p61
(dp62
S'isArray'
p63
I00
sg4
Vbool
p64
sS'attrChildrenNames'
p65
(lp66
sS'isMulti'
p67
I00
sS'isCompound'
p68
I00
sg10
I01
sg11
(lp69
sS'isElement'
p70
I00
ssVinput
p71
(dp72
S'isArray'
p73
I01
sS'isElement'
p74
I00
sg4
VTdataCompound
p75
sg10
I00
sS'isMulti'
p76
I01
ss.