(dp0
VisHistoricallyInteresting
p1
(dp2
S'isArray'
p3
I00
sS'attrType'
p4
Vbyte
p5
sS'attrChildrenNames'
p6
(lp7
sS'isMulti'
p8
I00
sS'isCompound'
p9
I00
sS'isSimple'
p10
I00
sS'attrChildrenLongNames'
p11
(lp12
sS'isElement'
p13
I00
ssVnodeState
p14
(dp15
S'isArray'
p16
I00
sg4
Venum
p17
sS'attrChildrenNames'
p18
(lp19
sS'isMulti'
p20
I00
sS'isCompound'
p21
I00
sg10
I01
sg11
(lp22
sS'isElement'
p23
I00
ssVcolor2.color2R
p24
(dp25
S'isArray'
p26
I00
sS'attrParentLongName'
p27
Vcolor2
p28
sS'attrChildrenNames'
p29
(lp30
sS'attrType'
p31
Vfloat
p32
sS'isMulti'
p33
I00
sS'isCompound'
p34
I00
sS'isSimple'
p35
I01
sS'attrChildrenLongNames'
p36
(lp37
sS'isElement'
p38
I00
ssVcolor1.color1B
p39
(dp40
S'isArray'
p41
I00
sS'attrParentLongName'
p42
Vcolor1
p43
sS'attrChildrenNames'
p44
(lp45
sg31
Vfloat
p46
sS'isMulti'
p47
I00
sS'isWritable'
p48
NsS'isCompound'
p49
I00
sg35
I01
sg36
(lp50
sS'isElement'
p51
I00
ssVcolor2.color2G
p52
(dp53
S'isArray'
p54
I00
sS'attrParentLongName'
p55
Vcolor2
p56
sS'attrChildrenNames'
p57
(lp58
sg31
Vfloat
p59
sS'isMulti'
p60
I00
sS'isCompound'
p61
I00
sg35
I01
sg36
(lp62
sS'isElement'
p63
I00
ssVoutput.outputG
p64
(dp65
S'isArray'
p66
I00
sS'attrParentLongName'
p67
Voutput
p68
sS'attrChildrenNames'
p69
(lp70
sg31
Vfloat
p71
sS'isMulti'
p72
I00
sg48
NsS'isCompound'
p73
I00
sg35
I01
sg36
(lp74
sS'isElement'
p75
I00
ssVcolor2.color2B
p76
(dp77
S'isArray'
p78
I00
sS'attrParentLongName'
p79
Vcolor2
p80
sS'attrChildrenNames'
p81
(lp82
sg31
Vfloat
p83
sS'isMulti'
p84
I00
sg48
NsS'isCompound'
p85
I00
sg35
I01
sg36
(lp86
sS'isElement'
p87
I00
ssVcolor1.color1R
p88
(dp89
S'isArray'
p90
I00
sS'attrParentLongName'
p91
Vcolor1
p92
sS'attrChildrenNames'
p93
(lp94
sg31
Vfloat
p95
sS'isMulti'
p96
I00
sg48
NsS'isCompound'
p97
I00
sg35
I01
sg36
(lp98
sS'isElement'
p99
I00
ssVcolor1
p100
(dp101
S'isArray'
p102
I00
sg31
Vfloat3
p103
sS'attrChildrenNames'
p104
(lp105
Vcolor1.color1R
p106
aVcolor1.color1G
p107
aVcolor1.color1B
p108
asS'isMulti'
p109
I00
sS'isCompound'
p110
I01
sg35
I00
sg36
(lp111
Vcolor1.color1R
p112
aVcolor1.color1G
p113
aVcolor1.color1B
p114
asS'isElement'
p115
I00
ssVbinMembership
p116
(dp117
S'isArray'
p118
I00
sg4
Vstring
p119
sS'isMulti'
p120
I00
sS'isCompound'
p121
I00
sg10
I01
sg11
(lp122
ssVcolor2
p123
(dp124
S'isArray'
p125
I00
sg31
Vfloat3
p126
sS'attrChildrenNames'
p127
(lp128
Vcolor2.color2R
p129
aVcolor2.color2G
p130
aVcolor2.color2B
p131
asS'isMulti'
p132
I00
sS'isCompound'
p133
I01
sg35
I00
sg36
(lp134
Vcolor2.color2R
p135
aVcolor2.color2G
p136
aVcolor2.color2B
p137
asS'isElement'
p138
I00
ssVcolor1.color1G
p139
(dp140
S'isArray'
p141
I00
sS'attrParentLongName'
p142
Vcolor1
p143
sS'attrChildrenNames'
p144
(lp145
sg31
Vfloat
p146
sS'isMulti'
p147
I00
sg48
NsS'isCompound'
p148
I00
sg35
I01
sg36
(lp149
sS'isElement'
p150
I00
ssVcaching
p151
(dp152
S'isArray'
p153
I00
sg4
Vbool
p154
sS'attrChildrenNames'
p155
(lp156
sS'isMulti'
p157
I00
sS'isCompound'
p158
I00
sg10
I01
sg11
(lp159
sS'isElement'
p160
I00
ssVoutput
p161
(dp162
S'isArray'
p163
I00
sg31
Vfloat3
p164
sS'attrChildrenNames'
p165
(lp166
Voutput.outputR
p167
aVoutput.outputG
p168
aVoutput.outputB
p169
asS'isMulti'
p170
I00
sS'isCompound'
p171
I01
sg35
I00
sg36
(lp172
Voutput.outputR
p173
aVoutput.outputG
p174
aVoutput.outputB
p175
asS'isElement'
p176
I00
ssVoutput.outputB
p177
(dp178
S'isArray'
p179
I00
sS'attrParentLongName'
p180
Voutput
p181
sS'attrChildrenNames'
p182
(lp183
sg31
Vfloat
p184
sS'isMulti'
p185
I00
sg48
NsS'isCompound'
p186
I00
sg35
I01
sg36
(lp187
sS'isElement'
p188
I00
ssVblender
p189
(dp190
S'isArray'
p191
I00
sg31
Vfloat
p192
sS'attrChildrenNames'
p193
(lp194
sS'isMulti'
p195
I00
sS'isCompound'
p196
I00
sg35
I01
sg36
(lp197
sS'isElement'
p198
I00
ssVrenderPassMode
p199
(dp200
S'isArray'
p201
I00
sg4
Venum
p202
sS'attrChildrenNames'
p203
(lp204
sS'isMulti'
p205
I00
sS'isCompound'
p206
I00
sg10
I01
sg11
(lp207
sS'isElement'
p208
I00
ssVoutput.outputR
p209
(dp210
S'isArray'
p211
I00
sS'attrParentLongName'
p212
Voutput
p213
sS'attrChildrenNames'
p214
(lp215
sg31
Vfloat
p216
sS'isMulti'
p217
I00
sg48
NsS'isCompound'
p218
I00
sg35
I01
sg36
(lp219
sS'isElement'
p220
I00
ss.