(dp0
VinputTarget[0].inputTargetGroup[2]
p1
(dp2
S'isArray'
p3
I00
sS'attrChildrenLongNames'
p4
(lp5
VinputTarget[0].inputTargetGroup[2].inputTargetItem
p6
aVinputTarget[0].inputTargetGroup[2].targetWeights
p7
aVinputTarget[0].inputTargetGroup[2].normalizationId
p8
assVinputTarget[0].inputTargetGroup[0].inputTargetItem[6000].inputPointsTarget
p9
(dp10
g3
I00
sS'isMulti'
p11
I00
sS'attrType'
p12
VpointArray
p13
sS'isSimple'
p14
I00
sg4
(lp15
ssVinputTarget[0].inputTargetGroup[1].inputTargetItem
p16
(dp17
g3
I01
ssVinputTarget[1].paintTargetIndex
p18
(dp19
g3
I00
sg4
(lp20
ssVinputTarget[0].inputTargetGroup[0].inputTargetItem[0]
p21
(dp22
g3
I00
sg4
(lp23
VinputTarget[0].inputTargetGroup[0].inputTargetItem[0].inputGeomTarget
p24
aVinputTarget[0].inputTargetGroup[0].inputTargetItem[0].inputPointsTarget
p25
aVinputTarget[0].inputTargetGroup[0].inputTargetItem[0].inputComponentsTarget
p26
assVinputTarget.inputTargetGroup
p27
(dp28
S'attrParentLongName'
p29
VinputTarget
p30
ssVinputTarget.normalizationGroup.normalizationUseWeights
p31
(dp32
g29
VinputTarget.normalizationGroup
p33
ssVinput[0]
p34
(dp35
g3
I00
sg11
I00
sg12
VTdataCompound
p36
sg14
I00
sg4
(lp37
Vinput[0].inputGeometry
p38
aVinput[0].groupId
p39
assVinputTarget[0].inputTargetGroup[0].inputTargetItem[6002].inputGeomTarget
p40
(dp41
g3
I00
sg4
(lp42
ssVinputTarget[0].baseWeights[0]
p43
(dp44
g3
I00
sg4
(lp45
ssVinputTarget[1].paintTargetWeights
p46
(dp47
g3
I01
ssVinput
p48
(dp49
g3
I01
sg11
I01
sg14
I00
sg12
VTdataCompound
p50
ssVweight[4]
p51
(dp52
S'isArray'
p53
I00
sS'attrChildrenLongNames'
p54
(lp55
ssVbaseOrigin
p56
(dp57
g3
I00
sg12
Vdouble3
p58
sg11
I00
sS'isCompound'
p59
I01
sg14
I01
sg4
(lp60
VbaseOrigin.baseOriginX
p61
aVbaseOrigin.baseOriginY
p62
aVbaseOrigin.baseOriginZ
p63
assVtopologyCheck
p64
(dp65
g3
I00
sg12
Vbool
p66
sg11
I00
sg59
I00
sg14
I01
sg4
(lp67
ssVinputTarget[0].inputTargetGroup[0].inputTargetItem[6001].inputGeomTarget
p68
(dp69
g3
I00
sg4
(lp70
ssVinputTarget[2].normalizationGroup
p71
(dp72
g3
I01
ssVinputTarget.normalizationGroup
p73
(dp74
g29
VinputTarget
p75
ssVinputTarget[0].inputTargetGroup[0].inputTargetItem[1].inputComponentsTarget
p76
(dp77
g3
I00
sg4
(lp78
ssVinputTarget[0].paintTargetWeights[1]
p79
(dp80
g3
I00
sg4
(lp81
ssVinputTarget[0].inputTargetGroup[0].inputTargetItem
p82
(dp83
g3
I01
sg11
I01
sg14
I00
sg12
VTdataCompound
p84
ssVinputTarget[0].inputTargetGroup[0].inputTargetItem[6002].inputComponentsTarget
p85
(dp86
g3
I00
sg4
(lp87
ssVinput[1]
p88
(dp89
g3
I00
sg4
(lp90
Vinput[1].inputGeometry
p91
aVinput[1].groupId
p92
assVinputTarget[2].paintTargetWeights
p93
(dp94
g3
I01
ssVmap64BitIndices
p95
(dp96
g3
I00
sg11
I00
sg12
Nsg14
I00
sg4
(lp97
ssVinputTarget.inputTargetGroup.targetWeights
p98
(dp99
g29
VinputTarget.inputTargetGroup
p100
ssg7
(dp101
g3
I01
ssVweight[5]
p102
(dp103
g53
I00
sg54
(lp104
ssVinputTarget[0].baseWeights
p105
(dp106
g3
I01
sg11
I01
sg14
I00
sg12
VTdataCompound
p107
ssg24
(dp108
g3
I00
sg4
(lp109
ssVsupportNegativeWeights
p110
(dp111
g3
I00
sg12
Vbool
p112
sg11
I00
sg59
I00
sg14
I01
sg4
(lp113
ssVweight
p114
(dp115
S'isArray'
p116
I01
sg11
I01
sg14
I00
sg12
VTdataCompound
p117
ssg92
(dp118
g3
I00
sg4
(lp119
ssVinputTarget[2].inputTargetGroup
p120
(dp121
g3
I01
ssVinputTarget.paintTargetIndex
p122
(dp123
g29
VinputTarget
p124
ssVinput[2].inputGeometry
p125
(dp126
g3
I00
sg4
(lp127
ssg63
(dp128
g3
I00
sg12
VdoubleLinear
p129
sg11
I00
sg59
I00
sg14
I01
sg4
(lp130
ssVtargetOrigin
p131
(dp132
g3
I00
sg12
Vdouble3
p133
sg11
I00
sg59
I01
sg14
I01
sg4
(lp134
VtargetOrigin.targetOriginX
p135
aVtargetOrigin.targetOriginY
p136
aVtargetOrigin.targetOriginZ
p137
assg61
(dp138
g3
I00
sg12
VdoubleLinear
p139
sg11
I00
sg59
I00
sg14
I01
sg4
(lp140
ssg62
(dp141
g3
I00
sg12
VdoubleLinear
p142
sg11
I00
sg59
I00
sg14
I01
sg4
(lp143
ssVinputTarget.normalizationGroup.normalizationWeights
p144
(dp145
g29
VinputTarget.normalizationGroup
p146
ssVinputTarget[0].normalizationGroup[1].normalizationUseWeights
p147
(dp148
g3
I00
sg4
(lp149
ssVinputTarget[0].inputTargetGroup[0].inputTargetItem[6000].inputComponentsTarget
p150
(dp151
g3
I00
sg11
I00
sg12
VcomponentList
p152
sg14
I00
sg4
(lp153
ssVinput[2]
p154
(dp155
g3
I00
sg4
(lp156
g125
aVinput[2].groupId
p157
assg38
(dp158
g3
I00
sg11
I00
sg12
Vmesh
p159
sg14
I00
sg4
(lp160
ssVoutputGeometry
p161
(dp162
g3
I01
sg11
I01
sg14
I00
sg12
VTdataCompound
p163
ssVinputTarget[0].inputTargetGroup[0].inputTargetItem[6000]
p164
(dp165
g3
I00
sg11
I00
sg12
VTdataCompound
p166
sg14
I00
sg4
(lp167
VinputTarget[0].inputTargetGroup[0].inputTargetItem[6000].inputGeomTarget
p168
ag9
ag150
assVfunction.fchild2
p169
(dp170
g29
Vfunction
p171
sg3
I00
sg12
Vlong
p172
sg11
I00
sg59
I00
sg14
I01
sg4
(lp173
ssg25
(dp174
g3
I00
sg4
(lp175
ssVinputTarget[0].inputTargetGroup[0].normalizationId
p176
(dp177
g3
I00
sg12
Vlong
p178
sg11
I00
sg59
I00
sg14
I01
sg4
(lp179
ssVinputTarget.paintTargetWeights
p180
(dp181
g29
VinputTarget
p182
ssVinputTarget[0].paintTargetIndex
p183
(dp184
g3
I00
sg12
Vlong
p185
sg11
I00
sg59
I00
sg14
I01
sg4
(lp186
ssVinputTarget[0].inputTargetGroup[0].inputTargetItem[1]
p187
(dp188
g3
I00
sg4
(lp189
VinputTarget[0].inputTargetGroup[0].inputTargetItem[1].inputGeomTarget
p190
aVinputTarget[0].inputTargetGroup[0].inputTargetItem[1].inputPointsTarget
p191
ag76
assVuseTargetCompWeights
p192
(dp193
g3
I00
sg12
Vbool
p194
sg11
I00
sg59
I00
sg14
I01
sg4
(lp195
ssg190
(dp196
g3
I00
sg4
(lp197
ssVinputTarget[0].inputTargetGroup[0].inputTargetItem[6001].inputComponentsTarget
p198
(dp199
g3
I00
sg4
(lp200
ssVparallelBlender
p201
(dp202
g3
I00
sg12
Vbool
p203
sg11
I00
sg59
I00
sg14
I01
sg4
(lp204
ssVinputTarget[0].inputTargetGroup[1].normalizationId
p205
(dp206
g3
I00
sg4
(lp207
ssVinputTarget[2]
p208
(dp209
g3
I00
sg4
(lp210
g120
aVinputTarget[2].baseWeights
p211
ag71
ag93
aVinputTarget[2].paintTargetIndex
p212
assVinputTarget[0].baseWeights[1]
p213
(dp214
g3
I00
sg4
(lp215
ssg191
(dp216
g3
I00
sg4
(lp217
ssVorigin
p218
(dp219
g3
I00
sg12
Venum
p220
sg11
I00
sg59
I00
sg14
I01
sg4
(lp221
ssg8
(dp222
g3
I00
sg4
(lp223
ssVinputTarget[0].normalizationGroup[0].normalizationWeights[1]
p224
(dp225
g3
I00
sg4
(lp226
ssVinputTarget.baseWeights
p227
(dp228
g29
VinputTarget
p229
ssg168
(dp230
g3
I00
sg11
I00
sg12
Vmesh
p231
sg14
I00
sg4
(lp232
ssVinputTarget[0].inputTargetGroup[0].targetWeights
p233
(dp234
g3
I01
sg11
I01
sg14
I00
sg12
VTdataCompound
p235
ssVisHistoricallyInteresting
p236
(dp237
g3
I00
sg11
I00
sg12
Vbyte
p238
sg14
I00
sg4
(lp239
ssVinputTarget[1].inputTargetGroup
p240
(dp241
g3
I01
ssVinputTarget[0].inputTargetGroup[0].inputTargetItem[6001].inputPointsTarget
p242
(dp243
g3
I00
sg4
(lp244
ssVbinMembership
p245
(dp246
g3
I00
sg12
Vstring
p247
sg11
I00
sg59
I00
sg14
I01
sg4
(lp248
ssVinputTarget[0].inputTargetGroup[0].inputTargetItem[6002]
p249
(dp250
g3
I00
sg4
(lp251
g40
aVinputTarget[0].inputTargetGroup[0].inputTargetItem[6002].inputPointsTarget
p252
ag85
assVweight[0]
p253
(dp254
g116
I00
sg12
Vfloat
p255
sg11
I00
sg59
I00
sg14
I01
sS'attrChildrenLongNames'
p256
(lp257
ssVinputTarget[0].inputTargetGroup[0].targetWeights[0]
p258
(dp259
g3
I00
sg4
(lp260
ssVinputTarget[0].inputTargetGroup[1]
p261
(dp262
g3
I00
sg4
(lp263
g16
aVinputTarget[0].inputTargetGroup[1].targetWeights
p264
ag205
assVinputTarget[0].normalizationGroup[1].normalizationWeights
p265
(dp266
g3
I01
ssVfunction
p267
(dp268
g3
I00
sg12
Vlong3
p269
sg11
I00
sg59
I01
sg14
I01
sg4
(lp270
Vfunction.fchild1
p271
aVfunction.fchild2
p272
aVfunction.fchild3
p273
assVinputTarget[0].normalizationGroup[0]
p274
(dp275
g3
I00
sg4
(lp276
VinputTarget[0].normalizationGroup[0].normalizationUseWeights
p277
aVinputTarget[0].normalizationGroup[0].normalizationWeights
p278
assVinputTarget[0].normalizationGroup[0].normalizationWeights[0]
p279
(dp280
g3
I00
sg4
(lp281
ssVenvelope
p282
(dp283
g116
I00
sg12
Vfloat
p284
sg11
I00
sg59
I00
sg14
I01
sg256
(lp285
ssVpaintWeights
p286
(dp287
g3
I00
sg11
I00
sg12
Nsg14
I00
sg4
(lp288
ssVinputTarget[1]
p289
(dp290
g3
I00
sg4
(lp291
g240
aVinputTarget[1].baseWeights
p292
aVinputTarget[1].normalizationGroup
p293
ag46
ag18
assg39
(dp294
g3
I00
sg12
Vlong
p295
sg11
I00
sg59
I00
sg14
I01
sg4
(lp296
ssVoutputGeometry[2]
p297
(dp298
g3
I00
sg4
(lp299
ssg26
(dp300
g3
I00
sg4
(lp301
ssVinputTarget.inputTargetGroup.inputTargetItem.inputPointsTarget
p302
(dp303
g29
VinputTarget.inputTargetGroup.inputTargetItem
p304
ssg212
(dp305
g3
I00
sg4
(lp306
ssVinputTarget.inputTargetGroup.normalizationId
p307
(dp308
g29
VinputTarget.inputTargetGroup
p309
ssVweight[1]
p310
(dp311
g116
I00
sg256
(lp312
ssVinputTarget[0]
p313
(dp314
g3
I00
sg11
I00
sg12
VTdataCompound
p315
sg14
I00
sg4
(lp316
VinputTarget[0].inputTargetGroup
p317
ag105
aVinputTarget[0].normalizationGroup
p318
aVinputTarget[0].paintTargetWeights
p319
ag183
assVinputTarget[0].inputTargetGroup[0].inputTargetItem[6001]
p320
(dp321
g3
I00
sg4
(lp322
g68
ag242
ag198
assVinputTarget
p323
(dp324
g3
I01
sg11
I01
sg14
I00
sg12
VTdataCompound
p325
ssVinputTarget.inputTargetGroup.inputTargetItem.inputComponentsTarget
p326
(dp327
g29
VinputTarget.inputTargetGroup.inputTargetItem
p328
ssVinputTarget[0].inputTargetGroup[0]
p329
(dp330
g3
I00
sg11
I00
sg12
VTdataCompound
p331
sg14
I00
sg4
(lp332
g82
ag233
ag176
assg252
(dp333
g3
I00
sg4
(lp334
ssVinputTarget.inputTargetGroup.inputTargetItem
p335
(dp336
g29
VinputTarget.inputTargetGroup
p337
ssg317
(dp338
g3
I01
sg11
I01
sg14
I00
sg12
VTdataCompound
p339
ssVinputTarget[0].paintTargetWeights[0]
p340
(dp341
g3
I00
sg4
(lp342
ssVicon[1]
p343
(dp344
g3
I00
sg4
(lp345
ssg157
(dp346
g3
I00
sg4
(lp347
ssg264
(dp348
g3
I01
ssg277
(dp349
g3
I00
sg4
(lp350
ssg211
(dp351
g3
I01
ssVoutputGeometry[1]
p352
(dp353
g3
I00
sg4
(lp354
ssVweight[2]
p355
(dp356
g116
I00
sg256
(lp357
ssg6
(dp358
g3
I01
ssVnodeState
p359
(dp360
g3
I00
sg12
Venum
p361
sg11
I00
sg59
I00
sg14
I01
sg4
(lp362
ssg91
(dp363
g3
I00
sg4
(lp364
ssg293
(dp365
g3
I01
ssVicon[0]
p366
(dp367
g3
I00
sg4
(lp368
ssVcaching
p369
(dp370
g3
I00
sg12
Vbool
p371
sg11
I00
sg59
I00
sg14
I01
sg4
(lp372
ssVinputTarget[0].normalizationGroup[1]
p373
(dp374
g3
I00
sg4
(lp375
g147
ag265
assg319
(dp376
g3
I01
sg11
I01
sg14
I00
sg12
VTdataCompound
p377
ssg292
(dp378
g3
I01
ssVicon
p379
(dp380
g3
I01
sg11
I01
sg14
I00
sg12
VTdataCompound
p381
ssg137
(dp382
g3
I00
sg12
VdoubleLinear
p383
sg11
I00
sg59
I00
sg14
I01
sg4
(lp384
ssg135
(dp385
g3
I00
sg12
VdoubleLinear
p386
sg11
I00
sg59
I00
sg14
I01
sg4
(lp387
ssg136
(dp388
g3
I00
sg12
VdoubleLinear
p389
sg11
I00
sg59
I00
sg14
I01
sg4
(lp390
ssVweight[3]
p391
(dp392
S'isArray'
p393
I00
sS'attrChildrenLongNames'
p394
(lp395
ssg318
(dp396
g3
I01
sg11
I01
sg14
I00
sg12
VTdataCompound
p397
ssVinputTarget[0].inputTargetGroup[0].targetWeights[1]
p398
(dp399
g3
I00
sg4
(lp400
ssg278
(dp401
g3
I01
ssVfunction.fchild3
p402
(dp403
g29
Vfunction
p404
sg3
I00
sg12
Vlong
p405
sg11
I00
sg59
I00
sg14
I01
sg4
(lp406
ssVfunction.fchild1
p407
(dp408
g29
Vfunction
p409
sg3
I00
sg12
Vlong
p410
sg11
I00
sg59
I00
sg14
I01
sg4
(lp411
ssVoutputGeometry[0]
p412
(dp413
g3
I00
sg11
I00
sg12
Vmesh
p414
sg14
I00
sg4
(lp415
ss.