(dp0
VvertexCameraTwo.vertexCameraTwoZ
p1
(dp2
S'isArray'
p3
I00
sS'attrParentLongName'
p4
VvertexCameraTwo
p5
sS'attrChildrenNames'
p6
(lp7
sS'isMulti'
p8
I00
sS'isCompound'
p9
I00
sS'isElement'
p10
I00
ssVvertexCameraTwo.vertexCameraTwoX
p11
(dp12
S'isArray'
p13
I00
sS'attrParentLongName'
p14
VvertexCameraTwo
p15
sS'attrChildrenNames'
p16
(lp17
sS'isMulti'
p18
I00
sS'isCompound'
p19
I00
sS'isElement'
p20
I00
ssVvertexCameraTwo.vertexCameraTwoY
p21
(dp22
S'isArray'
p23
I00
sS'attrParentLongName'
p24
VvertexCameraTwo
p25
sS'attrChildrenNames'
p26
(lp27
sS'isMulti'
p28
I00
sS'isCompound'
p29
I00
sS'isElement'
p30
I00
ssVuvFilterSize.uvFilterSizeX
p31
(dp32
S'isArray'
p33
I00
sS'attrParentLongName'
p34
VuvFilterSize
p35
sS'attrChildrenNames'
p36
(lp37
sS'isMulti'
p38
I00
sS'isCompound'
p39
I00
sS'isElement'
p40
I00
ssVuvFilterSize.uvFilterSizeY
p41
(dp42
S'isArray'
p43
I00
sS'attrParentLongName'
p44
VuvFilterSize
p45
sS'attrChildrenNames'
p46
(lp47
sS'isMulti'
p48
I00
sS'isCompound'
p49
I00
sS'isElement'
p50
I00
ssVrefPointObj.refPointObjZ
p51
(dp52
S'isArray'
p53
I00
sS'attrParentLongName'
p54
VrefPointObj
p55
sS'attrChildrenNames'
p56
(lp57
sS'isMulti'
p58
I00
sS'isCompound'
p59
I00
sS'isElement'
p60
I00
ssVprovide3dInfo
p61
(dp62
S'isArray'
p63
I00
sS'isElement'
p64
I00
sS'isMulti'
p65
I00
sS'isCompound'
p66
I00
sS'attrChildrenNames'
p67
(lp68
ssVtangentVCamera.tangentVy
p69
(dp70
S'isArray'
p71
I00
sS'attrParentLongName'
p72
VtangentVCamera
p73
sS'attrChildrenNames'
p74
(lp75
sS'isMulti'
p76
I00
sS'isCompound'
p77
I00
sS'isElement'
p78
I00
ssVtangentVCamera.tangentVx
p79
(dp80
S'isArray'
p81
I00
sS'attrParentLongName'
p82
VtangentVCamera
p83
sS'attrChildrenNames'
p84
(lp85
sS'isMulti'
p86
I00
sS'isCompound'
p87
I00
sS'isElement'
p88
I00
ssVtangentVCamera.tangentVz
p89
(dp90
S'isArray'
p91
I00
sS'attrParentLongName'
p92
VtangentVCamera
p93
sS'attrChildrenNames'
p94
(lp95
sS'isMulti'
p96
I00
sS'isCompound'
p97
I00
sS'isElement'
p98
I00
ssVrefPointCamera.refPointCameraX
p99
(dp100
S'isArray'
p101
I00
sS'attrParentLongName'
p102
VrefPointCamera
p103
sS'attrChildrenNames'
p104
(lp105
sS'isMulti'
p106
I00
sS'isCompound'
p107
I00
sS'isElement'
p108
I00
ssVrefPointCamera.refPointCameraY
p109
(dp110
S'isArray'
p111
I00
sS'attrParentLongName'
p112
VrefPointCamera
p113
sS'attrChildrenNames'
p114
(lp115
sS'isMulti'
p116
I00
sS'isCompound'
p117
I00
sS'isElement'
p118
I00
ssVrefPointCamera.refPointCameraZ
p119
(dp120
S'isArray'
p121
I00
sS'attrParentLongName'
p122
VrefPointCamera
p123
sS'attrChildrenNames'
p124
(lp125
sS'isMulti'
p126
I00
sS'isCompound'
p127
I00
sS'isElement'
p128
I00
ssVbumpFilterOffset
p129
(dp130
S'isArray'
p131
I00
sS'isElement'
p132
I00
sS'isMulti'
p133
I00
sS'isCompound'
p134
I00
sS'attrChildrenNames'
p135
(lp136
ssVisHistoricallyInteresting
p137
(dp138
S'isArray'
p139
I00
sS'isElement'
p140
I00
sS'isMulti'
p141
I00
sS'isCompound'
p142
I00
sS'attrChildrenNames'
p143
(lp144
ssVnormalCamera.normalCameraX
p145
(dp146
S'isArray'
p147
I00
sS'attrParentLongName'
p148
VnormalCamera
p149
sS'attrChildrenNames'
p150
(lp151
sS'isMulti'
p152
I00
sS'isCompound'
p153
I00
sS'isElement'
p154
I00
ssVnormalCamera.normalCameraY
p155
(dp156
S'isArray'
p157
I00
sS'attrParentLongName'
p158
VnormalCamera
p159
sS'attrChildrenNames'
p160
(lp161
sS'isMulti'
p162
I00
sS'isCompound'
p163
I00
sS'isElement'
p164
I00
ssVnormalCamera.normalCameraZ
p165
(dp166
S'isArray'
p167
I00
sS'attrParentLongName'
p168
VnormalCamera
p169
sS'attrChildrenNames'
p170
(lp171
sS'isMulti'
p172
I00
sS'isCompound'
p173
I00
sS'isElement'
p174
I00
ssVvertexCameraOne.vertexCameraOneY
p175
(dp176
S'isArray'
p177
I00
sS'attrParentLongName'
p178
VvertexCameraOne
p179
sS'attrChildrenNames'
p180
(lp181
sS'isMulti'
p182
I00
sS'isCompound'
p183
I00
sS'isElement'
p184
I00
ssVrefPointCamera
p185
(dp186
S'isArray'
p187
I00
sS'isElement'
p188
I00
sS'isCompound'
p189
I01
sS'attrChildrenNames'
p190
(lp191
VrefPointCamera.refPointCameraX
p192
aVrefPointCamera.refPointCameraY
p193
aVrefPointCamera.refPointCameraZ
p194
asS'isMulti'
p195
I00
ssVinfoBits
p196
(dp197
S'isArray'
p198
I00
sS'isElement'
p199
I00
sS'isCompound'
p200
I00
sS'attrChildrenNames'
p201
(lp202
sS'isMulti'
p203
I00
ssVrefPointObj.refPointObjX
p204
(dp205
S'isArray'
p206
I00
sS'attrParentLongName'
p207
VrefPointObj
p208
sS'attrChildrenNames'
p209
(lp210
sS'isMulti'
p211
I00
sS'isCompound'
p212
I00
sS'isElement'
p213
I00
ssVrefPointObj.refPointObjY
p214
(dp215
S'isArray'
p216
I00
sS'attrParentLongName'
p217
VrefPointObj
p218
sS'attrChildrenNames'
p219
(lp220
sS'isMulti'
p221
I00
sS'isCompound'
p222
I00
sS'isElement'
p223
I00
ssVrayOrigin
p224
(dp225
S'isArray'
p226
I00
sS'isElement'
p227
I00
sS'isMulti'
p228
I00
sS'isCompound'
p229
I01
sS'attrChildrenNames'
p230
(lp231
VrayOrigin.rayOriginX
p232
aVrayOrigin.rayOriginY
p233
aVrayOrigin.rayOriginZ
p234
assVvertexUvOne.vertexUvOneV
p235
(dp236
S'isArray'
p237
I00
sS'attrParentLongName'
p238
VvertexUvOne
p239
sS'attrChildrenNames'
p240
(lp241
sS'isMulti'
p242
I00
sS'isCompound'
p243
I00
sS'isElement'
p244
I00
ssVuvCoord
p245
(dp246
S'isArray'
p247
I00
sS'isElement'
p248
I00
sS'isCompound'
p249
I01
sS'attrChildrenNames'
p250
(lp251
VuvCoord.uCoord
p252
aVuvCoord.vCoord
p253
asS'isMulti'
p254
I00
ssVbumpFilter
p255
(dp256
S'isArray'
p257
I00
sS'isElement'
p258
I00
sS'isMulti'
p259
I00
sS'attrChildrenNames'
p260
(lp261
sS'isCompound'
p262
I00
ssVxPixelAngle
p263
(dp264
S'isArray'
p265
I00
sS'isElement'
p266
I00
sS'attrChildrenNames'
p267
(lp268
sS'isCompound'
p269
I00
sS'isMulti'
p270
I00
ssVuvCoord.vCoord
p271
(dp272
S'isArray'
p273
I00
sS'attrParentLongName'
p274
VuvCoord
p275
sS'attrChildrenNames'
p276
(lp277
sS'isMulti'
p278
I00
sS'isCompound'
p279
I00
sS'isElement'
p280
I00
ssVpointObj.pointObjX
p281
(dp282
S'isArray'
p283
I00
sS'attrParentLongName'
p284
VpointObj
p285
sS'attrChildrenNames'
p286
(lp287
sS'isMulti'
p288
I00
sS'isCompound'
p289
I00
sS'isElement'
p290
I00
ssVpointObj.pointObjY
p291
(dp292
S'isArray'
p293
I00
sS'attrParentLongName'
p294
VpointObj
p295
sS'attrChildrenNames'
p296
(lp297
sS'isMulti'
p298
I00
sS'isCompound'
p299
I00
sS'isElement'
p300
I00
ssVbumpInterp
p301
(dp302
S'isArray'
p303
I00
sS'isElement'
p304
I00
sS'isMulti'
p305
I00
sS'isCompound'
p306
I00
sS'attrChildrenNames'
p307
(lp308
ssVnodeState
p309
(dp310
S'isArray'
p311
I00
sS'isElement'
p312
I00
sS'isMulti'
p313
I00
sS'attrChildrenNames'
p314
(lp315
sS'isCompound'
p316
I00
ssVoutNormal.outNormalZ
p317
(dp318
S'isArray'
p319
I00
sS'attrParentLongName'
p320
VoutNormal
p321
sS'attrChildrenNames'
p322
(lp323
sS'isMulti'
p324
I00
sS'isCompound'
p325
I00
sS'isElement'
p326
I00
ssVoutNormal.outNormalX
p327
(dp328
S'isArray'
p329
I00
sS'attrParentLongName'
p330
VoutNormal
p331
sS'attrChildrenNames'
p332
(lp333
sS'isMulti'
p334
I00
sS'isCompound'
p335
I00
sS'isElement'
p336
I00
ssVoutNormal.outNormalY
p337
(dp338
S'isArray'
p339
I00
sS'attrParentLongName'
p340
VoutNormal
p341
sS'attrChildrenNames'
p342
(lp343
sS'isMulti'
p344
I00
sS'isCompound'
p345
I00
sS'isElement'
p346
I00
ssVuvFilterSize
p347
(dp348
S'isArray'
p349
I00
sS'isElement'
p350
I00
sS'isCompound'
p351
I01
sS'attrChildrenNames'
p352
(lp353
VuvFilterSize.uvFilterSizeX
p354
aVuvFilterSize.uvFilterSizeY
p355
asS'isMulti'
p356
I00
ssVpointObj
p357
(dp358
S'isArray'
p359
I00
sS'isElement'
p360
I00
sS'attrChildrenNames'
p361
(lp362
VpointObj.pointObjX
p363
aVpointObj.pointObjY
p364
aVpointObj.pointObjZ
p365
asS'isCompound'
p366
I01
sS'isMulti'
p367
I00
ssVvertexUvOne.vertexUvOneU
p368
(dp369
S'isArray'
p370
I00
sS'attrParentLongName'
p371
VvertexUvOne
p372
sS'attrChildrenNames'
p373
(lp374
sS'isMulti'
p375
I00
sS'isCompound'
p376
I00
sS'isElement'
p377
I00
ssVvertexCameraOne
p378
(dp379
S'isArray'
p380
I00
sS'isElement'
p381
I00
sS'isCompound'
p382
I01
sS'attrChildrenNames'
p383
(lp384
VvertexCameraOne.vertexCameraOneX
p385
aVvertexCameraOne.vertexCameraOneY
p386
aVvertexCameraOne.vertexCameraOneZ
p387
asS'isMulti'
p388
I00
ssVrefPointObj
p389
(dp390
S'isArray'
p391
I00
sS'isElement'
p392
I00
sS'isMulti'
p393
I00
sS'attrChildrenNames'
p394
(lp395
VrefPointObj.refPointObjX
p396
aVrefPointObj.refPointObjY
p397
aVrefPointObj.refPointObjZ
p398
asS'isCompound'
p399
I01
ssVpointCamera.pointCameraZ
p400
(dp401
S'isArray'
p402
I00
sS'attrParentLongName'
p403
VpointCamera
p404
sS'attrChildrenNames'
p405
(lp406
sS'isMulti'
p407
I00
sS'isCompound'
p408
I00
sS'isElement'
p409
I00
ssVpointCamera.pointCameraX
p410
(dp411
S'isArray'
p412
I00
sS'attrParentLongName'
p413
VpointCamera
p414
sS'attrChildrenNames'
p415
(lp416
sS'isMulti'
p417
I00
sS'isCompound'
p418
I00
sS'isElement'
p419
I00
ssVpointCamera.pointCameraY
p420
(dp421
S'isArray'
p422
I00
sS'attrParentLongName'
p423
VpointCamera
p424
sS'attrChildrenNames'
p425
(lp426
sS'isMulti'
p427
I00
sS'isCompound'
p428
I00
sS'isElement'
p429
I00
ssVvertexCameraOne.vertexCameraOneZ
p430
(dp431
S'isArray'
p432
I00
sS'attrParentLongName'
p433
VvertexCameraOne
p434
sS'attrChildrenNames'
p435
(lp436
sS'isMulti'
p437
I00
sS'isCompound'
p438
I00
sS'isElement'
p439
I00
ssVtangentUCamera
p440
(dp441
S'isArray'
p442
I00
sS'isElement'
p443
I00
sS'isMulti'
p444
I00
sS'attrChildrenNames'
p445
(lp446
VtangentUCamera.tangentUx
p447
aVtangentUCamera.tangentUy
p448
aVtangentUCamera.tangentUz
p449
asS'isCompound'
p450
I01
ssVrayOrigin.rayOriginZ
p451
(dp452
S'isArray'
p453
I00
sS'attrParentLongName'
p454
VrayOrigin
p455
sS'attrChildrenNames'
p456
(lp457
sS'isMulti'
p458
I00
sS'isCompound'
p459
I00
sS'isElement'
p460
I00
ssVrayOrigin.rayOriginX
p461
(dp462
S'isArray'
p463
I00
sS'attrParentLongName'
p464
VrayOrigin
p465
sS'attrChildrenNames'
p466
(lp467
sS'isMulti'
p468
I00
sS'isCompound'
p469
I00
sS'isElement'
p470
I00
ssVrayOrigin.rayOriginY
p471
(dp472
S'isArray'
p473
I00
sS'attrParentLongName'
p474
VrayOrigin
p475
sS'attrChildrenNames'
p476
(lp477
sS'isMulti'
p478
I00
sS'isCompound'
p479
I00
sS'isElement'
p480
I00
ssVvertexCameraTwo
p481
(dp482
S'isArray'
p483
I00
sS'isElement'
p484
I00
sS'isMulti'
p485
I00
sS'isCompound'
p486
I01
sS'attrChildrenNames'
p487
(lp488
VvertexCameraTwo.vertexCameraTwoX
p489
aVvertexCameraTwo.vertexCameraTwoY
p490
aVvertexCameraTwo.vertexCameraTwoZ
p491
assVvertexCameraOne.vertexCameraOneX
p492
(dp493
S'isArray'
p494
I00
sS'attrParentLongName'
p495
VvertexCameraOne
p496
sS'attrChildrenNames'
p497
(lp498
sS'isMulti'
p499
I00
sS'isCompound'
p500
I00
sS'isElement'
p501
I00
ssVbumpValue
p502
(dp503
S'isArray'
p504
I00
sS'isElement'
p505
I00
sS'isMulti'
p506
I00
sS'attrChildrenNames'
p507
(lp508
sS'isCompound'
p509
I00
ssVvertexUvTwo.vertexUvTwoU
p510
(dp511
S'isArray'
p512
I00
sS'attrParentLongName'
p513
VvertexUvTwo
p514
sS'attrChildrenNames'
p515
(lp516
sS'isMulti'
p517
I00
sS'isCompound'
p518
I00
sS'isElement'
p519
I00
ssVpointObj.pointObjZ
p520
(dp521
S'isArray'
p522
I00
sS'attrParentLongName'
p523
VpointObj
p524
sS'attrChildrenNames'
p525
(lp526
sS'isMulti'
p527
I00
sS'isCompound'
p528
I00
sS'isElement'
p529
I00
ssVtangentUCamera.tangentUy
p530
(dp531
S'isArray'
p532
I00
sS'attrParentLongName'
p533
VtangentUCamera
p534
sS'attrChildrenNames'
p535
(lp536
sS'isMulti'
p537
I00
sS'isCompound'
p538
I00
sS'isElement'
p539
I00
ssVtangentUCamera.tangentUx
p540
(dp541
S'isArray'
p542
I00
sS'attrParentLongName'
p543
VtangentUCamera
p544
sS'attrChildrenNames'
p545
(lp546
sS'isMulti'
p547
I00
sS'isCompound'
p548
I00
sS'isElement'
p549
I00
ssVpointCamera
p550
(dp551
S'isArray'
p552
I00
sS'isElement'
p553
I00
sS'isMulti'
p554
I00
sS'isCompound'
p555
I01
sS'attrChildrenNames'
p556
(lp557
VpointCamera.pointCameraX
p558
aVpointCamera.pointCameraY
p559
aVpointCamera.pointCameraZ
p560
assVnormalCamera
p561
(dp562
S'isArray'
p563
I00
sS'isElement'
p564
I00
sS'attrChildrenNames'
p565
(lp566
VnormalCamera.normalCameraX
p567
aVnormalCamera.normalCameraY
p568
aVnormalCamera.normalCameraZ
p569
asS'isCompound'
p570
I01
sS'isMulti'
p571
I00
ssVvertexUvTwo
p572
(dp573
S'isArray'
p574
I00
sS'isElement'
p575
I00
sS'isCompound'
p576
I01
sS'attrChildrenNames'
p577
(lp578
VvertexUvTwo.vertexUvTwoU
p579
aVvertexUvTwo.vertexUvTwoV
p580
asS'isMulti'
p581
I00
ssVadjustEdges
p582
(dp583
S'isArray'
p584
I00
sS'isElement'
p585
I00
sS'isMulti'
p586
I00
sS'isCompound'
p587
I00
sS'attrChildrenNames'
p588
(lp589
ssVvertexUvTwo.vertexUvTwoV
p590
(dp591
S'isArray'
p592
I00
sS'attrParentLongName'
p593
VvertexUvTwo
p594
sS'attrChildrenNames'
p595
(lp596
sS'isMulti'
p597
I00
sS'isCompound'
p598
I00
sS'isElement'
p599
I00
ssVtangentUCamera.tangentUz
p600
(dp601
S'isArray'
p602
I00
sS'attrParentLongName'
p603
VtangentUCamera
p604
sS'attrChildrenNames'
p605
(lp606
sS'isMulti'
p607
I00
sS'isCompound'
p608
I00
sS'isElement'
p609
I00
ssVcaching
p610
(dp611
S'isArray'
p612
I00
sS'isElement'
p613
I00
sS'isMulti'
p614
I00
sS'attrChildrenNames'
p615
(lp616
sS'isCompound'
p617
I00
ssVoutNormal
p618
(dp619
S'isArray'
p620
I00
sS'isElement'
p621
I00
sS'isMulti'
p622
I00
sS'attrChildrenNames'
p623
(lp624
VoutNormal.outNormalX
p625
aVoutNormal.outNormalY
p626
aVoutNormal.outNormalZ
p627
asS'isCompound'
p628
I01
ssVbumpDepth
p629
(dp630
S'isArray'
p631
I00
sS'isElement'
p632
I00
sS'isMulti'
p633
I00
sS'attrChildrenNames'
p634
(lp635
sS'isCompound'
p636
I00
ssVuvCoord.uCoord
p637
(dp638
S'isArray'
p639
I00
sS'attrParentLongName'
p640
VuvCoord
p641
sS'attrChildrenNames'
p642
(lp643
sS'isMulti'
p644
I00
sS'isCompound'
p645
I00
sS'isElement'
p646
I00
ssVtangentVCamera
p647
(dp648
S'isArray'
p649
I00
sS'isElement'
p650
I00
sS'isCompound'
p651
I01
sS'attrChildrenNames'
p652
(lp653
VtangentVCamera.tangentVx
p654
aVtangentVCamera.tangentVy
p655
aVtangentVCamera.tangentVz
p656
asS'isMulti'
p657
I00
ssVvertexUvOne
p658
(dp659
S'isArray'
p660
I00
sS'isElement'
p661
I00
sS'isCompound'
p662
I01
sS'attrChildrenNames'
p663
(lp664
VvertexUvOne.vertexUvOneU
p665
aVvertexUvOne.vertexUvOneV
p666
asS'isMulti'
p667
I00
ss.