(dp0
VinfoBits
p1
(dp2
S'isArray'
p3
I00
sS'isElement'
p4
I00
sS'isCompound'
p5
I00
sS'attrChildrenNames'
p6
(lp7
sS'isMulti'
p8
I00
ssVtangentVCamera.tangentVy
p9
(dp10
S'isArray'
p11
I00
sS'attrParentLongName'
p12
VtangentVCamera
p13
sS'attrChildrenNames'
p14
(lp15
sS'isMulti'
p16
I00
sS'isCompound'
p17
I00
sS'isElement'
p18
I00
ssVtangentVCamera.tangentVx
p19
(dp20
S'isArray'
p21
I00
sS'attrParentLongName'
p22
VtangentVCamera
p23
sS'attrChildrenNames'
p24
(lp25
sS'isMulti'
p26
I00
sS'isCompound'
p27
I00
sS'isElement'
p28
I00
ssVtangentVCamera.tangentVz
p29
(dp30
S'isArray'
p31
I00
sS'attrParentLongName'
p32
VtangentVCamera
p33
sS'attrChildrenNames'
p34
(lp35
sS'isMulti'
p36
I00
sS'isCompound'
p37
I00
sS'isElement'
p38
I00
ssVrefPointCamera.refPointCameraX
p39
(dp40
S'isArray'
p41
I00
sS'attrParentLongName'
p42
VrefPointCamera
p43
sS'attrChildrenNames'
p44
(lp45
sS'isMulti'
p46
I00
sS'isCompound'
p47
I00
sS'isElement'
p48
I00
ssVrefPointCamera.refPointCameraY
p49
(dp50
S'isArray'
p51
I00
sS'attrParentLongName'
p52
VrefPointCamera
p53
sS'attrChildrenNames'
p54
(lp55
sS'isMulti'
p56
I00
sS'isCompound'
p57
I00
sS'isElement'
p58
I00
ssVrefPointCamera.refPointCameraZ
p59
(dp60
S'isArray'
p61
I00
sS'attrParentLongName'
p62
VrefPointCamera
p63
sS'attrChildrenNames'
p64
(lp65
sS'isMulti'
p66
I00
sS'isCompound'
p67
I00
sS'isElement'
p68
I00
ssVbumpFilterOffset
p69
(dp70
S'isArray'
p71
I00
sS'isElement'
p72
I00
sS'isMulti'
p73
I00
sS'isCompound'
p74
I00
sS'attrChildrenNames'
p75
(lp76
ssVisHistoricallyInteresting
p77
(dp78
S'isArray'
p79
I00
sS'isElement'
p80
I00
sS'isMulti'
p81
I00
sS'isCompound'
p82
I00
sS'attrChildrenNames'
p83
(lp84
ssVnormalCamera.normalCameraX
p85
(dp86
S'isArray'
p87
I00
sS'attrParentLongName'
p88
VnormalCamera
p89
sS'attrChildrenNames'
p90
(lp91
sS'isMulti'
p92
I00
sS'isCompound'
p93
I00
sS'isElement'
p94
I00
ssVnormalCamera.normalCameraY
p95
(dp96
S'isArray'
p97
I00
sS'attrParentLongName'
p98
VnormalCamera
p99
sS'attrChildrenNames'
p100
(lp101
sS'isMulti'
p102
I00
sS'isCompound'
p103
I00
sS'isElement'
p104
I00
ssVnormalCamera.normalCameraZ
p105
(dp106
S'isArray'
p107
I00
sS'attrParentLongName'
p108
VnormalCamera
p109
sS'attrChildrenNames'
p110
(lp111
sS'isMulti'
p112
I00
sS'isCompound'
p113
I00
sS'isElement'
p114
I00
ssVrefPointCamera
p115
(dp116
S'isArray'
p117
I00
sS'isElement'
p118
I00
sS'isCompound'
p119
I01
sS'attrChildrenNames'
p120
(lp121
VrefPointCamera.refPointCameraX
p122
aVrefPointCamera.refPointCameraY
p123
aVrefPointCamera.refPointCameraZ
p124
asS'isMulti'
p125
I00
ssVrefPointObj.refPointObjZ
p126
(dp127
S'isArray'
p128
I00
sS'attrParentLongName'
p129
VrefPointObj
p130
sS'attrChildrenNames'
p131
(lp132
sS'isMulti'
p133
I00
sS'isCompound'
p134
I00
sS'isElement'
p135
I00
ssVrefPointObj.refPointObjX
p136
(dp137
S'isArray'
p138
I00
sS'attrParentLongName'
p139
VrefPointObj
p140
sS'attrChildrenNames'
p141
(lp142
sS'isMulti'
p143
I00
sS'isCompound'
p144
I00
sS'isElement'
p145
I00
ssVrefPointObj.refPointObjY
p146
(dp147
S'isArray'
p148
I00
sS'attrParentLongName'
p149
VrefPointObj
p150
sS'attrChildrenNames'
p151
(lp152
sS'isMulti'
p153
I00
sS'isCompound'
p154
I00
sS'isElement'
p155
I00
ssVrayOrigin
p156
(dp157
S'isArray'
p158
I00
sS'isElement'
p159
I00
sS'isMulti'
p160
I00
sS'isCompound'
p161
I01
sS'attrChildrenNames'
p162
(lp163
VrayOrigin.rayOriginX
p164
aVrayOrigin.rayOriginY
p165
aVrayOrigin.rayOriginZ
p166
assVbumpFilter
p167
(dp168
S'isArray'
p169
I00
sS'isElement'
p170
I00
sS'isMulti'
p171
I00
sS'attrChildrenNames'
p172
(lp173
sS'isCompound'
p174
I00
ssVxPixelAngle
p175
(dp176
S'isArray'
p177
I00
sS'isElement'
p178
I00
sS'attrChildrenNames'
p179
(lp180
sS'isCompound'
p181
I00
sS'isMulti'
p182
I00
ssVpointObj.pointObjZ
p183
(dp184
S'isArray'
p185
I00
sS'attrParentLongName'
p186
VpointObj
p187
sS'attrChildrenNames'
p188
(lp189
sS'isMulti'
p190
I00
sS'isCompound'
p191
I00
sS'isElement'
p192
I00
ssVpointObj.pointObjX
p193
(dp194
S'isArray'
p195
I00
sS'attrParentLongName'
p196
VpointObj
p197
sS'attrChildrenNames'
p198
(lp199
sS'isMulti'
p200
I00
sS'isCompound'
p201
I00
sS'isElement'
p202
I00
ssVpointObj.pointObjY
p203
(dp204
S'isArray'
p205
I00
sS'attrParentLongName'
p206
VpointObj
p207
sS'attrChildrenNames'
p208
(lp209
sS'isMulti'
p210
I00
sS'isCompound'
p211
I00
sS'isElement'
p212
I00
ssVnodeState
p213
(dp214
S'isArray'
p215
I00
sS'isElement'
p216
I00
sS'isMulti'
p217
I00
sS'attrChildrenNames'
p218
(lp219
sS'isCompound'
p220
I00
ssVoutNormal.outNormalZ
p221
(dp222
S'isArray'
p223
I00
sS'attrParentLongName'
p224
VoutNormal
p225
sS'attrChildrenNames'
p226
(lp227
sS'isMulti'
p228
I00
sS'isCompound'
p229
I00
sS'isElement'
p230
I00
ssVoutNormal.outNormalX
p231
(dp232
S'isArray'
p233
I00
sS'attrParentLongName'
p234
VoutNormal
p235
sS'attrChildrenNames'
p236
(lp237
sS'isMulti'
p238
I00
sS'isCompound'
p239
I00
sS'isElement'
p240
I00
ssVoutNormal.outNormalY
p241
(dp242
S'isArray'
p243
I00
sS'attrParentLongName'
p244
VoutNormal
p245
sS'attrChildrenNames'
p246
(lp247
sS'isMulti'
p248
I00
sS'isCompound'
p249
I00
sS'isElement'
p250
I00
ssVpointObj
p251
(dp252
S'isArray'
p253
I00
sS'isElement'
p254
I00
sS'attrChildrenNames'
p255
(lp256
VpointObj.pointObjX
p257
aVpointObj.pointObjY
p258
aVpointObj.pointObjZ
p259
asS'isCompound'
p260
I01
sS'isMulti'
p261
I00
ssVrefPointObj
p262
(dp263
S'isArray'
p264
I00
sS'isElement'
p265
I00
sS'isMulti'
p266
I00
sS'attrChildrenNames'
p267
(lp268
VrefPointObj.refPointObjX
p269
aVrefPointObj.refPointObjY
p270
aVrefPointObj.refPointObjZ
p271
asS'isCompound'
p272
I01
ssVpointCamera.pointCameraZ
p273
(dp274
S'isArray'
p275
I00
sS'attrParentLongName'
p276
VpointCamera
p277
sS'attrChildrenNames'
p278
(lp279
sS'isMulti'
p280
I00
sS'isCompound'
p281
I00
sS'isElement'
p282
I00
ssVpointCamera.pointCameraX
p283
(dp284
S'isArray'
p285
I00
sS'attrParentLongName'
p286
VpointCamera
p287
sS'attrChildrenNames'
p288
(lp289
sS'isMulti'
p290
I00
sS'isCompound'
p291
I00
sS'isElement'
p292
I00
ssVpointCamera.pointCameraY
p293
(dp294
S'isArray'
p295
I00
sS'attrParentLongName'
p296
VpointCamera
p297
sS'attrChildrenNames'
p298
(lp299
sS'isMulti'
p300
I00
sS'isCompound'
p301
I00
sS'isElement'
p302
I00
ssVtangentUCamera
p303
(dp304
S'isArray'
p305
I00
sS'isElement'
p306
I00
sS'isMulti'
p307
I00
sS'attrChildrenNames'
p308
(lp309
VtangentUCamera.tangentUx
p310
aVtangentUCamera.tangentUy
p311
aVtangentUCamera.tangentUz
p312
asS'isCompound'
p313
I01
ssVrayOrigin.rayOriginZ
p314
(dp315
S'isArray'
p316
I00
sS'attrParentLongName'
p317
VrayOrigin
p318
sS'attrChildrenNames'
p319
(lp320
sS'isMulti'
p321
I00
sS'isCompound'
p322
I00
sS'isElement'
p323
I00
ssVrayOrigin.rayOriginX
p324
(dp325
S'isArray'
p326
I00
sS'attrParentLongName'
p327
VrayOrigin
p328
sS'attrChildrenNames'
p329
(lp330
sS'isMulti'
p331
I00
sS'isCompound'
p332
I00
sS'isElement'
p333
I00
ssVrayOrigin.rayOriginY
p334
(dp335
S'isArray'
p336
I00
sS'attrParentLongName'
p337
VrayOrigin
p338
sS'attrChildrenNames'
p339
(lp340
sS'isMulti'
p341
I00
sS'isCompound'
p342
I00
sS'isElement'
p343
I00
ssVbumpValue
p344
(dp345
S'isArray'
p346
I00
sS'isElement'
p347
I00
sS'isMulti'
p348
I00
sS'attrChildrenNames'
p349
(lp350
sS'isCompound'
p351
I00
ssVtangentUCamera.tangentUz
p352
(dp353
S'isArray'
p354
I00
sS'attrParentLongName'
p355
VtangentUCamera
p356
sS'attrChildrenNames'
p357
(lp358
sS'isMulti'
p359
I00
sS'isCompound'
p360
I00
sS'isElement'
p361
I00
ssVtangentUCamera.tangentUy
p362
(dp363
S'isArray'
p364
I00
sS'attrParentLongName'
p365
VtangentUCamera
p366
sS'attrChildrenNames'
p367
(lp368
sS'isMulti'
p369
I00
sS'isCompound'
p370
I00
sS'isElement'
p371
I00
ssVtangentUCamera.tangentUx
p372
(dp373
S'isArray'
p374
I00
sS'attrParentLongName'
p375
VtangentUCamera
p376
sS'attrChildrenNames'
p377
(lp378
sS'isMulti'
p379
I00
sS'isCompound'
p380
I00
sS'isElement'
p381
I00
ssVpointCamera
p382
(dp383
S'isArray'
p384
I00
sS'isElement'
p385
I00
sS'isMulti'
p386
I00
sS'isCompound'
p387
I01
sS'attrChildrenNames'
p388
(lp389
VpointCamera.pointCameraX
p390
aVpointCamera.pointCameraY
p391
aVpointCamera.pointCameraZ
p392
assVnormalCamera
p393
(dp394
S'isArray'
p395
I00
sS'isElement'
p396
I00
sS'attrChildrenNames'
p397
(lp398
VnormalCamera.normalCameraX
p399
aVnormalCamera.normalCameraY
p400
aVnormalCamera.normalCameraZ
p401
asS'isCompound'
p402
I01
sS'isMulti'
p403
I00
ssVcaching
p404
(dp405
S'isArray'
p406
I00
sS'isElement'
p407
I00
sS'isMulti'
p408
I00
sS'attrChildrenNames'
p409
(lp410
sS'isCompound'
p411
I00
ssVoutNormal
p412
(dp413
S'isArray'
p414
I00
sS'isElement'
p415
I00
sS'isMulti'
p416
I00
sS'isCompound'
p417
I01
sS'attrChildrenNames'
p418
(lp419
VoutNormal.outNormalX
p420
aVoutNormal.outNormalY
p421
aVoutNormal.outNormalZ
p422
assVbumpDepth
p423
(dp424
S'isArray'
p425
I00
sS'isElement'
p426
I00
sS'isMulti'
p427
I00
sS'isCompound'
p428
I00
sS'attrChildrenNames'
p429
(lp430
ssVtangentVCamera
p431
(dp432
S'isArray'
p433
I00
sS'isElement'
p434
I00
sS'isCompound'
p435
I01
sS'attrChildrenNames'
p436
(lp437
VtangentVCamera.tangentVx
p438
aVtangentVCamera.tangentVy
p439
aVtangentVCamera.tangentVz
p440
asS'isMulti'
p441
I00
ss.