(dp0
VisHistoricallyInteresting
p1
(dp2
S'isArray'
p3
I00
sS'attrChildrenNames'
p4
(lp5
sS'isMulti'
p6
I00
sS'isCompound'
p7
I00
sS'attrChildrenLongNames'
p8
(lp9
sS'isElement'
p10
I00
ssVinPosition.inPositionX
p11
(dp12
S'isArray'
p13
I00
sS'attrParentLongName'
p14
VinPosition
p15
sS'attrChildrenNames'
p16
(lp17
sS'attrType'
p18
VdoubleLinear
p19
sS'isMulti'
p20
I00
sS'isCompound'
p21
I00
sS'isSimple'
p22
I01
sg8
(lp23
sS'isElement'
p24
I00
ssVnodeState
p25
(dp26
S'isArray'
p27
I00
sS'attrChildrenNames'
p28
(lp29
sS'isMulti'
p30
I00
sS'isCompound'
p31
I00
sg8
(lp32
sS'isElement'
p33
I00
ssVinPosition.inPositionY
p34
(dp35
S'isArray'
p36
I00
sS'attrParentLongName'
p37
VinPosition
p38
sS'attrChildrenNames'
p39
(lp40
sg18
VdoubleLinear
p41
sS'isMulti'
p42
I00
sS'isCompound'
p43
I00
sg22
I01
sg8
(lp44
sS'isElement'
p45
I00
ssVresult.position.positionZ
p46
(dp47
S'isArray'
p48
I00
sS'attrParentLongName'
p49
Vresult.position
p50
sS'attrChildrenNames'
p51
(lp52
sg18
VdoubleLinear
p53
sS'isMulti'
p54
I00
sS'isCompound'
p55
I00
sg22
I01
sg8
(lp56
sS'isElement'
p57
I00
ssVinPosition.inPositionZ
p58
(dp59
S'isArray'
p60
I00
sS'attrParentLongName'
p61
VinPosition
p62
sS'attrChildrenNames'
p63
(lp64
sg18
VdoubleLinear
p65
sS'isMulti'
p66
I00
sS'isCompound'
p67
I00
sg22
I01
sg8
(lp68
sS'isElement'
p69
I00
ssVresult.position.positionX
p70
(dp71
S'isArray'
p72
I00
sS'attrParentLongName'
p73
Vresult.position
p74
sS'attrChildrenNames'
p75
(lp76
sg18
VdoubleLinear
p77
sS'isMulti'
p78
I00
sS'isCompound'
p79
I00
sg22
I01
sg8
(lp80
sS'isElement'
p81
I00
ssVresult.position.positionY
p82
(dp83
S'isArray'
p84
I00
sS'attrParentLongName'
p85
Vresult.position
p86
sS'attrChildrenNames'
p87
(lp88
sg18
VdoubleLinear
p89
sS'isMulti'
p90
I00
sS'isCompound'
p91
I00
sg22
I01
sg8
(lp92
sS'isElement'
p93
I00
ssVresult.position
p94
(dp95
S'isArray'
p96
I00
sS'attrParentLongName'
p97
Vresult
p98
sS'attrChildrenNames'
p99
(lp100
Vresult.position.positionX
p101
aVresult.position.positionY
p102
aVresult.position.positionZ
p103
asg18
Vdouble3
p104
sS'isMulti'
p105
I00
sS'isCompound'
p106
I01
sg22
I01
sg8
(lp107
Vresult.position.positionX
p108
aVresult.position.positionY
p109
aVresult.position.positionZ
p110
asS'isElement'
p111
I00
ssVbinMembership
p112
(dp113
S'isArray'
p114
I00
sg8
(lp115
ssVresult.parameterU
p116
(dp117
S'isArray'
p118
I00
sS'attrParentLongName'
p119
Vresult
p120
sS'attrChildrenNames'
p121
(lp122
sg18
Vdouble
p123
sS'isMulti'
p124
I00
sS'isCompound'
p125
I00
sg22
I01
sg8
(lp126
sS'isElement'
p127
I00
ssVinPosition
p128
(dp129
S'isArray'
p130
I00
sg18
Vdouble3
p131
sS'attrChildrenNames'
p132
(lp133
VinPosition.inPositionX
p134
aVinPosition.inPositionY
p135
aVinPosition.inPositionZ
p136
asS'isMulti'
p137
I00
sS'isCompound'
p138
I01
sg22
I01
sg8
(lp139
VinPosition.inPositionX
p140
aVinPosition.inPositionY
p141
aVinPosition.inPositionZ
p142
asS'isElement'
p143
I00
ssVresult.parameterV
p144
(dp145
S'isArray'
p146
I00
sS'attrParentLongName'
p147
Vresult
p148
sS'attrChildrenNames'
p149
(lp150
sg18
Vdouble
p151
sS'isMulti'
p152
I00
sS'isCompound'
p153
I00
sg22
I01
sg8
(lp154
sS'isElement'
p155
I00
ssVcaching
p156
(dp157
S'isArray'
p158
I00
sS'attrChildrenNames'
p159
(lp160
sS'isMulti'
p161
I00
sS'isCompound'
p162
I00
sg8
(lp163
sS'isElement'
p164
I00
ssVinputSurface
p165
(dp166
S'isArray'
p167
I00
sg18
VnurbsSurface
p168
sS'attrChildrenNames'
p169
(lp170
sS'isMulti'
p171
I00
sS'isCompound'
p172
I00
sg22
I00
sg8
(lp173
sS'isElement'
p174
I00
ssVresult
p175
(dp176
S'isArray'
p177
I00
sg18
VTdataCompound
p178
sS'attrChildrenNames'
p179
(lp180
Vresult.position
p181
aVresult.parameterU
p182
aVresult.parameterV
p183
asS'isMulti'
p184
I00
sS'isCompound'
p185
I01
sg22
I00
sg8
(lp186
Vresult.position
p187
aVresult.parameterU
p188
aVresult.parameterV
p189
asS'isElement'
p190
I00
ss.