(dp0
VisHistoricallyInteresting
p1
(dp2
S'isArray'
p3
I00
sS'attrType'
p4
Vbyte
p5
sS'attrChildrenNames'
p6
(lp7
sS'isMulti'
p8
I00
sS'isCompound'
p9
I00
sS'isSimple'
p10
I00
sS'attrChildrenLongNames'
p11
(lp12
sS'isElement'
p13
I00
ssVcolorIfFalse
p14
(dp15
S'isArray'
p16
I00
sS'attrType'
p17
Vfloat3
p18
sS'attrChildrenNames'
p19
(lp20
VcolorIfFalse.colorIfFalseR
p21
aVcolorIfFalse.colorIfFalseG
p22
aVcolorIfFalse.colorIfFalseB
p23
asS'isMulti'
p24
I00
sS'isWritable'
p25
I01
sS'isCompound'
p26
I01
sS'isSimple'
p27
I00
sS'attrShortName'
p28
Vcf
p29
sS'attrChildrenLongNames'
p30
(lp31
VcolorIfFalse.colorIfFalseR
p32
aVcolorIfFalse.colorIfFalseG
p33
aVcolorIfFalse.colorIfFalseB
p34
asS'isElement'
p35
I00
ssVnodeState
p36
(dp37
S'isArray'
p38
I00
sg4
Venum
p39
sS'attrChildrenNames'
p40
(lp41
sS'isMulti'
p42
I00
sS'isCompound'
p43
I00
sg10
I01
sg11
(lp44
sS'isElement'
p45
I00
ssVoutColor.outColorR
p46
(dp47
S'isArray'
p48
I00
sS'attrParentLongName'
p49
VoutColor
p50
sS'attrChildrenNames'
p51
(lp52
sg17
Vfloat
p53
sS'isMulti'
p54
I00
sS'isWritable'
p55
I00
sS'isCompound'
p56
I00
sg27
I01
sg28
Vocr
p57
sg30
(lp58
sS'isElement'
p59
I00
ssVcaching
p60
(dp61
S'isArray'
p62
I00
sg4
Vbool
p63
sS'attrChildrenNames'
p64
(lp65
sS'isMulti'
p66
I00
sS'isCompound'
p67
I00
sg10
I01
sg11
(lp68
sS'isElement'
p69
I00
ssVoutColor.outColorG
p70
(dp71
S'isArray'
p72
I00
sS'attrParentLongName'
p73
VoutColor
p74
sS'attrChildrenNames'
p75
(lp76
sg17
Vfloat
p77
sS'isMulti'
p78
I00
sg55
NsS'isCompound'
p79
I00
sg27
I01
sg28
Vocg
p80
sg30
(lp81
sS'isElement'
p82
I00
ssVsecondTerm
p83
(dp84
S'isArray'
p85
I00
sg17
Vfloat
p86
sS'attrChildrenNames'
p87
(lp88
sS'isMulti'
p89
I00
sS'isCompound'
p90
I00
sg27
I01
sg28
Vst
p91
sg30
(lp92
sS'isElement'
p93
I00
ssVcolorIfTrue.colorIfTrueG
p94
(dp95
S'isArray'
p96
I00
sS'attrParentLongName'
p97
VcolorIfTrue
p98
sS'attrChildrenNames'
p99
(lp100
sg17
Vfloat
p101
sS'isMulti'
p102
I00
sS'isCompound'
p103
I00
sg27
I01
sg28
Vctg
p104
sg30
(lp105
sS'isElement'
p106
I00
ssVcolorIfTrue.colorIfTrueB
p107
(dp108
S'isArray'
p109
I00
sS'attrParentLongName'
p110
VcolorIfTrue
p111
sS'attrChildrenNames'
p112
(lp113
sg17
Vfloat
p114
sS'isMulti'
p115
I00
sS'isCompound'
p116
I00
sg27
I01
sg28
Vctb
p117
sg30
(lp118
sS'isElement'
p119
I00
ssVcolorIfFalse.colorIfFalseG
p120
(dp121
S'isArray'
p122
I00
sS'attrParentLongName'
p123
VcolorIfFalse
p124
sS'attrChildrenNames'
p125
(lp126
sg17
Vfloat
p127
sS'isMulti'
p128
I00
sS'isCompound'
p129
I00
sg27
I01
sg28
Vcfg
p130
sg30
(lp131
sS'isElement'
p132
I00
ssVoutColor
p133
(dp134
S'isArray'
p135
I00
sg17
Vfloat3
p136
sS'attrChildrenNames'
p137
(lp138
VoutColor.outColorR
p139
aVoutColor.outColorG
p140
aVoutColor.outColorB
p141
asS'isMulti'
p142
I00
sS'isCompound'
p143
I01
sg27
I00
sg28
Voc
p144
sg30
(lp145
VoutColor.outColorR
p146
aVoutColor.outColorG
p147
aVoutColor.outColorB
p148
asS'isElement'
p149
I00
ssVbinMembership
p150
(dp151
S'isArray'
p152
I00
sg4
Vstring
p153
sS'isMulti'
p154
I00
sS'isCompound'
p155
I00
sg10
I01
sg11
(lp156
ssVoutColor.outColorB
p157
(dp158
S'isArray'
p159
I00
sS'attrParentLongName'
p160
VoutColor
p161
sS'attrChildrenNames'
p162
(lp163
sg17
Vfloat
p164
sS'isMulti'
p165
I00
sg55
NsS'isCompound'
p166
I00
sg27
I01
sg28
Vocb
p167
sg30
(lp168
sS'isElement'
p169
I00
ssVcolorIfFalse.colorIfFalseB
p170
(dp171
S'isArray'
p172
I00
sS'attrParentLongName'
p173
VcolorIfFalse
p174
sS'attrChildrenNames'
p175
(lp176
sg17
Vfloat
p177
sS'isMulti'
p178
I00
sS'isCompound'
p179
I00
sg27
I01
sg28
Vcfb
p180
sg30
(lp181
sS'isElement'
p182
I00
ssVcolorIfTrue
p183
(dp184
S'isArray'
p185
I00
sg17
Vfloat3
p186
sS'attrChildrenNames'
p187
(lp188
VcolorIfTrue.colorIfTrueR
p189
aVcolorIfTrue.colorIfTrueG
p190
aVcolorIfTrue.colorIfTrueB
p191
asS'isMulti'
p192
I00
sS'isCompound'
p193
I01
sg27
I00
sg28
Vct
p194
sg30
(lp195
VcolorIfTrue.colorIfTrueR
p196
aVcolorIfTrue.colorIfTrueG
p197
aVcolorIfTrue.colorIfTrueB
p198
asS'isElement'
p199
I00
ssVcolorIfFalse.colorIfFalseR
p200
(dp201
S'isArray'
p202
I00
sS'attrParentLongName'
p203
VcolorIfFalse
p204
sS'attrChildrenNames'
p205
(lp206
sg17
Vfloat
p207
sS'isMulti'
p208
I00
sg55
NsS'isCompound'
p209
I00
sg27
I01
sg28
Vcfr
p210
sg30
(lp211
sS'isElement'
p212
I00
ssVoperation
p213
(dp214
S'isArray'
p215
I00
sg4
Venum
p216
sS'attrChildrenNames'
p217
(lp218
sS'isMulti'
p219
I00
sS'isCompound'
p220
I00
sg10
I01
sg11
(lp221
sS'isElement'
p222
I00
ssVcolorIfTrue.colorIfTrueR
p223
(dp224
S'isArray'
p225
I00
sS'attrParentLongName'
p226
VcolorIfTrue
p227
sS'attrChildrenNames'
p228
(lp229
sg17
Vfloat
p230
sS'isMulti'
p231
I00
sg55
NsS'isCompound'
p232
I00
sg27
I01
sg28
Vctr
p233
sg30
(lp234
sS'isElement'
p235
I00
ssVfirstTerm
p236
(dp237
S'isArray'
p238
I00
sg17
Vfloat
p239
sS'attrChildrenNames'
p240
(lp241
sS'isMulti'
p242
I00
sS'isCompound'
p243
I00
sg27
I01
sg28
Vft
p244
sg30
(lp245
sS'isElement'
p246
I00
ss.