(dp0
Vtranslate.translateZ
p1
(dp2
S'isArray'
p3
I00
sS'attrParentLongName'
p4
Vtranslate
p5
sS'attrChildrenNames'
p6
(lp7
sS'attrType'
p8
VdoubleLinear
p9
sS'isMulti'
p10
I00
sS'isCompound'
p11
I00
sS'isSimple'
p12
I01
sS'isElement'
p13
I00
ssVrotateOrder
p14
(dp15
S'isArray'
p16
I00
sg8
Venum
p17
sS'attrChildrenNames'
p18
(lp19
sS'isMulti'
p20
I00
sS'isCompound'
p21
I00
sg12
I01
sS'isElement'
p22
I00
ssVtranslate.translateX
p23
(dp24
S'isArray'
p25
I00
sS'attrParentLongName'
p26
Vtranslate
p27
sS'attrChildrenNames'
p28
(lp29
sg8
VdoubleLinear
p30
sS'isMulti'
p31
I00
sS'isCompound'
p32
I00
sg12
I01
sS'isElement'
p33
I00
ssVdrawOverride.overrideColor
p34
(dp35
S'isArray'
p36
I00
sS'attrParentLongName'
p37
VdrawOverride
p38
sS'attrChildrenNames'
p39
(lp40
sg8
Vbyte
p41
sS'isMulti'
p42
I00
sS'isCompound'
p43
I00
sg12
I00
sS'isElement'
p44
I00
ssVintermediateObject
p45
(dp46
S'isArray'
p47
I00
sS'isElement'
p48
I00
sS'attrChildrenNames'
p49
(lp50
sS'isCompound'
p51
I00
sS'isMulti'
p52
I00
ssVselectHandle.selectHandleX
p53
(dp54
S'isArray'
p55
I00
sS'attrParentLongName'
p56
VselectHandle
p57
sS'attrChildrenNames'
p58
(lp59
sS'isMulti'
p60
I00
sS'isCompound'
p61
I00
sS'isElement'
p62
I00
ssVmentalRayControls.miVisible
p63
(dp64
S'isArray'
p65
I00
sS'attrParentLongName'
p66
VmentalRayControls
p67
sS'attrChildrenNames'
p68
(lp69
sS'isMulti'
p70
I00
sS'isCompound'
p71
I00
sS'isElement'
p72
I00
ssVuseObjectColor
p73
(dp74
S'isArray'
p75
I00
sS'isElement'
p76
I00
sS'isCompound'
p77
I00
sS'attrChildrenNames'
p78
(lp79
sS'isMulti'
p80
I00
ssVdrawOverride.overrideLevelOfDetail
p81
(dp82
S'isArray'
p83
I00
sS'attrParentLongName'
p84
VdrawOverride
p85
sS'attrChildrenNames'
p86
(lp87
sg8
Venum
p88
sS'isMulti'
p89
I00
sS'isCompound'
p90
I00
sg12
I01
sS'isElement'
p91
I00
ssVselectHandle.selectHandleY
p92
(dp93
S'isArray'
p94
I00
sS'attrParentLongName'
p95
VselectHandle
p96
sS'attrChildrenNames'
p97
(lp98
sS'isMulti'
p99
I00
sS'isCompound'
p100
I00
sS'isElement'
p101
I00
ssVtranslate.translateY
p102
(dp103
S'isArray'
p104
I00
sS'attrParentLongName'
p105
Vtranslate
p106
sS'attrChildrenNames'
p107
(lp108
sg8
VdoubleLinear
p109
sS'isMulti'
p110
I00
sS'isCompound'
p111
I00
sg12
I01
sS'isElement'
p112
I00
ssVcreationDate
p113
(dp114
S'isArray'
p115
I00
sS'isElement'
p116
I00
sS'isMulti'
p117
I00
sS'isCompound'
p118
I00
sS'attrChildrenNames'
p119
(lp120
ssVtransMinusRotatePivot
p121
(dp122
S'isArray'
p123
I00
sS'isElement'
p124
I00
sS'isMulti'
p125
I00
sS'isCompound'
p126
I01
sS'attrChildrenNames'
p127
(lp128
VtransMinusRotatePivot.transMinusRotatePivotX
p129
aVtransMinusRotatePivot.transMinusRotatePivotY
p130
aVtransMinusRotatePivot.transMinusRotatePivotZ
p131
assVcustomTreatment
p132
(dp133
S'isArray'
p134
I00
sS'isElement'
p135
I00
sS'isMulti'
p136
I00
sS'isCompound'
p137
I00
sS'attrChildrenNames'
p138
(lp139
ssVrotatePivotTranslate.rotatePivotTranslateY
p140
(dp141
S'isArray'
p142
I00
sS'attrParentLongName'
p143
VrotatePivotTranslate
p144
sS'attrChildrenNames'
p145
(lp146
sg8
VdoubleLinear
p147
sS'isMulti'
p148
I00
sS'isCompound'
p149
I00
sg12
I01
sS'isElement'
p150
I00
ssVshear
p151
(dp152
S'isArray'
p153
I00
sg8
Vdouble3
p154
sS'attrChildrenNames'
p155
(lp156
Vshear.shearXY
p157
aVshear.shearXZ
p158
aVshear.shearYZ
p159
asS'isMulti'
p160
I00
sS'isCompound'
p161
I01
sg12
I01
sS'isElement'
p162
I00
ssVboundingBox.boundingBoxMin.boundingBoxMinY
p163
(dp164
S'isArray'
p165
I00
sS'attrParentLongName'
p166
VboundingBox.boundingBoxMin
p167
sS'attrChildrenNames'
p168
(lp169
sS'isMulti'
p170
I00
sS'isCompound'
p171
I00
sS'isElement'
p172
I00
ssVboundingBox.boundingBoxMin.boundingBoxMinX
p173
(dp174
S'isArray'
p175
I00
sS'attrParentLongName'
p176
VboundingBox.boundingBoxMin
p177
sS'attrChildrenNames'
p178
(lp179
sS'isMulti'
p180
I00
sS'isCompound'
p181
I00
sS'isElement'
p182
I00
ssVboundingBox.boundingBoxMin.boundingBoxMinZ
p183
(dp184
S'isArray'
p185
I00
sS'attrParentLongName'
p186
VboundingBox.boundingBoxMin
p187
sS'attrChildrenNames'
p188
(lp189
sS'isMulti'
p190
I00
sS'isCompound'
p191
I00
sS'isElement'
p192
I00
ssVselectHandle
p193
(dp194
S'isArray'
p195
I00
sS'isElement'
p196
I00
sS'attrChildrenNames'
p197
(lp198
VselectHandle.selectHandleX
p199
aVselectHandle.selectHandleY
p200
aVselectHandle.selectHandleZ
p201
asS'isCompound'
p202
I01
sS'isMulti'
p203
I00
ssVrotateQuaternion.rotateQuaternionZ
p204
(dp205
S'isArray'
p206
I00
sS'attrParentLongName'
p207
VrotateQuaternion
p208
sS'attrChildrenNames'
p209
(lp210
sS'isMulti'
p211
I00
sS'isCompound'
p212
I00
sS'isElement'
p213
I00
ssVrotateQuaternion.rotateQuaternionX
p214
(dp215
S'isArray'
p216
I00
sS'attrParentLongName'
p217
VrotateQuaternion
p218
sS'attrChildrenNames'
p219
(lp220
sS'isMulti'
p221
I00
sS'isCompound'
p222
I00
sS'isElement'
p223
I00
ssVrotateQuaternion.rotateQuaternionY
p224
(dp225
S'isArray'
p226
I00
sS'attrParentLongName'
p227
VrotateQuaternion
p228
sS'attrChildrenNames'
p229
(lp230
sS'isMulti'
p231
I00
sS'isCompound'
p232
I00
sS'isElement'
p233
I00
ssVscalePivotTranslate
p234
(dp235
S'isArray'
p236
I00
sg8
Vdouble3
p237
sS'attrChildrenNames'
p238
(lp239
VscalePivotTranslate.scalePivotTranslateX
p240
aVscalePivotTranslate.scalePivotTranslateY
p241
aVscalePivotTranslate.scalePivotTranslateZ
p242
asS'isMulti'
p243
I00
sS'isCompound'
p244
I01
sg12
I01
sS'isElement'
p245
I00
ssVrotatePivotTranslate.rotatePivotTranslateZ
p246
(dp247
S'isArray'
p248
I00
sS'attrParentLongName'
p249
VrotatePivotTranslate
p250
sS'attrChildrenNames'
p251
(lp252
sg8
VdoubleLinear
p253
sS'isMulti'
p254
I00
sS'isCompound'
p255
I00
sg12
I01
sS'isElement'
p256
I00
ssVrotateQuaternion.rotateQuaternionW
p257
(dp258
S'isArray'
p259
I00
sS'attrParentLongName'
p260
VrotateQuaternion
p261
sS'attrChildrenNames'
p262
(lp263
sS'isMulti'
p264
I00
sS'isCompound'
p265
I00
sS'isElement'
p266
I00
ssVrotatePivotTranslate.rotatePivotTranslateX
p267
(dp268
S'isArray'
p269
I00
sS'attrParentLongName'
p270
VrotatePivotTranslate
p271
sS'attrChildrenNames'
p272
(lp273
sg8
VdoubleLinear
p274
sS'isMulti'
p275
I00
sS'isCompound'
p276
I00
sg12
I01
sS'isElement'
p277
I00
ssVtemplatePath
p278
(dp279
S'isArray'
p280
I00
sS'isElement'
p281
I00
sS'isMulti'
p282
I00
sS'isCompound'
p283
I00
sS'attrChildrenNames'
p284
(lp285
ssVrotate
p286
(dp287
S'isArray'
p288
I00
sg8
Vdouble3
p289
sS'attrChildrenNames'
p290
(lp291
Vrotate.rotateX
p292
aVrotate.rotateY
p293
aVrotate.rotateZ
p294
asS'isMulti'
p295
I00
sS'isCompound'
p296
I01
sg12
I01
sS'isElement'
p297
I00
ssVobjectColor
p298
(dp299
S'isArray'
p300
I00
sS'isElement'
p301
I00
sS'attrChildrenNames'
p302
(lp303
sS'isCompound'
p304
I00
sS'isMulti'
p305
I00
ssVdrawOverride.overrideEnabled
p306
(dp307
S'isArray'
p308
I00
sS'attrParentLongName'
p309
VdrawOverride
p310
sS'attrChildrenNames'
p311
(lp312
sg8
Vbool
p313
sS'isMulti'
p314
I00
sS'isCompound'
p315
I00
sg12
I01
sS'isElement'
p316
I00
ssVrotatePivot.rotatePivotZ
p317
(dp318
S'isArray'
p319
I00
sS'attrParentLongName'
p320
VrotatePivot
p321
sS'attrChildrenNames'
p322
(lp323
sg8
VdoubleLinear
p324
sS'isMulti'
p325
I00
sS'isCompound'
p326
I00
sg12
I01
sS'isElement'
p327
I00
ssVboundingBox.boundingBoxMax
p328
(dp329
S'isArray'
p330
I00
sS'attrParentLongName'
p331
VboundingBox
p332
sS'attrChildrenNames'
p333
(lp334
VboundingBox.boundingBoxMax.boundingBoxMaxX
p335
aVboundingBox.boundingBoxMax.boundingBoxMaxY
p336
aVboundingBox.boundingBoxMax.boundingBoxMaxZ
p337
asS'isMulti'
p338
I00
sS'isCompound'
p339
I01
sS'isElement'
p340
I00
ssVrotatePivot.rotatePivotY
p341
(dp342
S'isArray'
p343
I00
sS'attrParentLongName'
p344
VrotatePivot
p345
sS'attrChildrenNames'
p346
(lp347
sg8
VdoubleLinear
p348
sS'isMulti'
p349
I00
sS'isCompound'
p350
I00
sg12
I01
sS'isElement'
p351
I00
ssVrotateAxis
p352
(dp353
S'isArray'
p354
I00
sg8
Vdouble3
p355
sS'attrChildrenNames'
p356
(lp357
VrotateAxis.rotateAxisX
p358
aVrotateAxis.rotateAxisY
p359
aVrotateAxis.rotateAxisZ
p360
asS'isMulti'
p361
I00
sS'isCompound'
p362
I01
sg12
I01
sS'isElement'
p363
I00
ssVcreator
p364
(dp365
S'isArray'
p366
I00
sS'isElement'
p367
I00
sS'isMulti'
p368
I00
sS'attrChildrenNames'
p369
(lp370
sS'isCompound'
p371
I00
ssVrotateAxis.rotateAxisX
p372
(dp373
S'isArray'
p374
I00
sS'attrParentLongName'
p375
VrotateAxis
p376
sS'attrChildrenNames'
p377
(lp378
sg8
VdoubleAngle
p379
sS'isMulti'
p380
I00
sS'isCompound'
p381
I00
sg12
I01
sS'isElement'
p382
I00
ssVrotateAxis.rotateAxisY
p383
(dp384
S'isArray'
p385
I00
sS'attrParentLongName'
p386
VrotateAxis
p387
sS'attrChildrenNames'
p388
(lp389
sg8
VdoubleAngle
p390
sS'isMulti'
p391
I00
sS'isCompound'
p392
I00
sg12
I01
sS'isElement'
p393
I00
ssVrotateAxis.rotateAxisZ
p394
(dp395
S'isArray'
p396
I00
sS'attrParentLongName'
p397
VrotateAxis
p398
sS'attrChildrenNames'
p399
(lp400
sg8
VdoubleAngle
p401
sS'isMulti'
p402
I00
sS'isCompound'
p403
I00
sg12
I01
sS'isElement'
p404
I00
ssVghostRangeEnd
p405
(dp406
S'isArray'
p407
I00
sS'isElement'
p408
I00
sS'isCompound'
p409
I00
sS'attrChildrenNames'
p410
(lp411
sS'isMulti'
p412
I00
ssVdynamics
p413
(dp414
S'isArray'
p415
I00
sS'isElement'
p416
I00
sS'isMulti'
p417
I00
sS'isCompound'
p418
I00
sS'attrChildrenNames'
p419
(lp420
ssVtemplateVersion
p421
(dp422
S'isArray'
p423
I00
sS'isElement'
p424
I00
sS'isMulti'
p425
I00
sS'isCompound'
p426
I00
sS'attrChildrenNames'
p427
(lp428
ssVscale
p429
(dp430
S'isArray'
p431
I00
sg8
Vdouble3
p432
sS'attrChildrenNames'
p433
(lp434
Vscale.scaleX
p435
aVscale.scaleY
p436
aVscale.scaleZ
p437
asS'isMulti'
p438
I00
sS'isCompound'
p439
I01
sg12
I01
sS'isElement'
p440
I00
ssVmatrix
p441
(dp442
S'isArray'
p443
I00
sS'isElement'
p444
I00
sS'isCompound'
p445
I00
sS'attrChildrenNames'
p446
(lp447
sS'isMulti'
p448
I00
ssVtransMinusRotatePivot.transMinusRotatePivotZ
p449
(dp450
S'isArray'
p451
I00
sS'attrParentLongName'
p452
VtransMinusRotatePivot
p453
sS'attrChildrenNames'
p454
(lp455
sS'isMulti'
p456
I00
sS'isCompound'
p457
I00
sS'isElement'
p458
I00
ssVrotatePivot
p459
(dp460
S'isArray'
p461
I00
sg8
Vdouble3
p462
sS'attrChildrenNames'
p463
(lp464
VrotatePivot.rotatePivotX
p465
aVrotatePivot.rotatePivotY
p466
aVrotatePivot.rotatePivotZ
p467
asS'isMulti'
p468
I00
sS'isCompound'
p469
I01
sg12
I01
sS'isElement'
p470
I00
ssVghostCustomSteps
p471
(dp472
S'isArray'
p473
I00
sS'isElement'
p474
I00
sS'isMulti'
p475
I00
sS'attrChildrenNames'
p476
(lp477
VghostCustomSteps.ghostPreSteps
p478
aVghostCustomSteps.ghostPostSteps
p479
aVghostCustomSteps.ghostStepSize
p480
asS'isCompound'
p481
I01
ssVselectHandle.selectHandleZ
p482
(dp483
S'isArray'
p484
I00
sS'attrParentLongName'
p485
VselectHandle
p486
sS'attrChildrenNames'
p487
(lp488
sS'isMulti'
p489
I00
sS'isCompound'
p490
I00
sS'isElement'
p491
I00
ssVtemplate
p492
(dp493
S'isArray'
p494
I00
sS'isElement'
p495
I00
sS'isCompound'
p496
I00
sS'attrChildrenNames'
p497
(lp498
sS'isMulti'
p499
I00
ssVcontainerType
p500
(dp501
S'isArray'
p502
I00
sS'isElement'
p503
I00
sS'isMulti'
p504
I00
sS'attrChildrenNames'
p505
(lp506
sS'isCompound'
p507
I00
ssVscalePivot.scalePivotX
p508
(dp509
S'isArray'
p510
I00
sS'attrParentLongName'
p511
VscalePivot
p512
sS'attrChildrenNames'
p513
(lp514
sg8
VdoubleLinear
p515
sS'isMulti'
p516
I00
sS'isCompound'
p517
I00
sg12
I01
sS'isElement'
p518
I00
ssVscalePivot.scalePivotY
p519
(dp520
S'isArray'
p521
I00
sS'attrParentLongName'
p522
VscalePivot
p523
sS'attrChildrenNames'
p524
(lp525
sg8
VdoubleLinear
p526
sS'isMulti'
p527
I00
sS'isCompound'
p528
I00
sg12
I01
sS'isElement'
p529
I00
ssVscalePivot.scalePivotZ
p530
(dp531
S'isArray'
p532
I00
sS'attrParentLongName'
p533
VscalePivot
p534
sS'attrChildrenNames'
p535
(lp536
sg8
VdoubleLinear
p537
sS'isMulti'
p538
I00
sS'isCompound'
p539
I00
sg12
I01
sS'isElement'
p540
I00
ssVviewName
p541
(dp542
S'isArray'
p543
I00
sS'isElement'
p544
I00
sS'isMulti'
p545
I00
sS'attrChildrenNames'
p546
(lp547
sS'isCompound'
p548
I00
ssVdisplayScalePivot
p549
(dp550
S'isArray'
p551
I00
sS'isElement'
p552
I00
sS'isMulti'
p553
I00
sS'attrChildrenNames'
p554
(lp555
sS'isCompound'
p556
I00
ssVrenderInfo.layerRenderable
p557
(dp558
S'isArray'
p559
I00
sS'attrParentLongName'
p560
VrenderInfo
p561
sS'attrChildrenNames'
p562
(lp563
sS'isMulti'
p564
I00
sS'isCompound'
p565
I00
sS'isElement'
p566
I00
ssVmentalRayControls.miHide
p567
(dp568
S'isArray'
p569
I00
sS'attrParentLongName'
p570
VmentalRayControls
p571
sS'attrChildrenNames'
p572
(lp573
sS'isMulti'
p574
I00
sS'isCompound'
p575
I00
sS'isElement'
p576
I00
ssVghostCustomSteps.ghostPreSteps
p577
(dp578
S'isArray'
p579
I00
sS'attrParentLongName'
p580
VghostCustomSteps
p581
sS'attrChildrenNames'
p582
(lp583
sS'isMulti'
p584
I00
sS'isCompound'
p585
I00
sS'isElement'
p586
I00
ssVdrawOverride.overrideTexturing
p587
(dp588
S'isArray'
p589
I00
sS'attrParentLongName'
p590
VdrawOverride
p591
sS'attrChildrenNames'
p592
(lp593
sg8
Vbool
p594
sS'isMulti'
p595
I00
sS'isCompound'
p596
I00
sg12
I01
sS'isElement'
p597
I00
ssVscale.scaleZ
p598
(dp599
S'isArray'
p600
I00
sS'attrParentLongName'
p601
Vscale
p602
sS'attrChildrenNames'
p603
(lp604
sg8
Vdouble
p605
sS'isMulti'
p606
I00
sS'isCompound'
p607
I00
sg12
I01
sS'isElement'
p608
I00
ssVscale.scaleX
p609
(dp610
S'isArray'
p611
I00
sS'attrParentLongName'
p612
Vscale
p613
sS'attrChildrenNames'
p614
(lp615
sg8
Vdouble
p616
sS'isMulti'
p617
I00
sS'isCompound'
p618
I00
sg12
I01
sS'isElement'
p619
I00
ssVscale.scaleY
p620
(dp621
S'isArray'
p622
I00
sS'attrParentLongName'
p623
Vscale
p624
sS'attrChildrenNames'
p625
(lp626
sg8
Vdouble
p627
sS'isMulti'
p628
I00
sS'isCompound'
p629
I00
sg12
I01
sS'isElement'
p630
I00
ssVrotatePivot.rotatePivotX
p631
(dp632
S'isArray'
p633
I00
sS'attrParentLongName'
p634
VrotatePivot
p635
sS'attrChildrenNames'
p636
(lp637
sg8
VdoubleLinear
p638
sS'isMulti'
p639
I00
sS'isCompound'
p640
I00
sg12
I01
sS'isElement'
p641
I00
ssVghostRangeStart
p642
(dp643
S'isArray'
p644
I00
sS'isElement'
p645
I00
sS'attrChildrenNames'
p646
(lp647
sS'isCompound'
p648
I00
sS'isMulti'
p649
I00
ssVmentalRayControls.miTrace
p650
(dp651
S'isArray'
p652
I00
sS'attrParentLongName'
p653
VmentalRayControls
p654
sS'attrChildrenNames'
p655
(lp656
sS'isMulti'
p657
I00
sS'isCompound'
p658
I00
sS'isElement'
p659
I00
ssVshear.shearYZ
p660
(dp661
S'isArray'
p662
I00
sS'attrParentLongName'
p663
Vshear
p664
sS'attrChildrenNames'
p665
(lp666
sg8
Vdouble
p667
sS'isMulti'
p668
I00
sS'isCompound'
p669
I00
sg12
I01
sS'isElement'
p670
I00
ssVdisplayHandle
p671
(dp672
S'isArray'
p673
I00
sS'isElement'
p674
I00
sS'isMulti'
p675
I00
sS'isCompound'
p676
I00
sS'attrChildrenNames'
p677
(lp678
ssVrotateQuaternion
p679
(dp680
S'isArray'
p681
I00
sS'isElement'
p682
I00
sS'isMulti'
p683
I00
sS'attrChildrenNames'
p684
(lp685
VrotateQuaternion.rotateQuaternionX
p686
aVrotateQuaternion.rotateQuaternionY
p687
aVrotateQuaternion.rotateQuaternionZ
p688
aVrotateQuaternion.rotateQuaternionW
p689
asS'isCompound'
p690
I01
ssVdrawOverride.overrideVisibility
p691
(dp692
S'isArray'
p693
I00
sS'attrParentLongName'
p694
VdrawOverride
p695
sS'attrChildrenNames'
p696
(lp697
sg8
Vbool
p698
sS'isMulti'
p699
I00
sS'isCompound'
p700
I00
sg12
I01
sS'isElement'
p701
I00
ssVghosting
p702
(dp703
S'isArray'
p704
I00
sS'isElement'
p705
I00
sS'attrChildrenNames'
p706
(lp707
sS'isCompound'
p708
I00
sS'isMulti'
p709
I00
ssVdisplayLocalAxis
p710
(dp711
S'isArray'
p712
I00
sS'isElement'
p713
I00
sS'isMulti'
p714
I00
sS'attrChildrenNames'
p715
(lp716
sS'isCompound'
p717
I00
ssVinheritsTransform
p718
(dp719
S'isArray'
p720
I00
sg8
Vbool
p721
sS'attrChildrenNames'
p722
(lp723
sS'isMulti'
p724
I00
sS'isCompound'
p725
I00
sg12
I01
sS'isElement'
p726
I00
ssVtransMinusRotatePivot.transMinusRotatePivotX
p727
(dp728
S'isArray'
p729
I00
sS'attrParentLongName'
p730
VtransMinusRotatePivot
p731
sS'attrChildrenNames'
p732
(lp733
sS'isMulti'
p734
I00
sS'isCompound'
p735
I00
sS'isElement'
p736
I00
ssVtransMinusRotatePivot.transMinusRotatePivotY
p737
(dp738
S'isArray'
p739
I00
sS'attrParentLongName'
p740
VtransMinusRotatePivot
p741
sS'attrChildrenNames'
p742
(lp743
sS'isMulti'
p744
I00
sS'isCompound'
p745
I00
sS'isElement'
p746
I00
ssVisHistoricallyInteresting
p747
(dp748
S'isArray'
p749
I00
sS'isElement'
p750
I00
sS'isMulti'
p751
I00
sS'attrChildrenNames'
p752
(lp753
sS'isCompound'
p754
I00
ssVrotationInterpolation
p755
(dp756
S'isArray'
p757
I00
sS'isElement'
p758
I00
sS'isMulti'
p759
I00
sS'isCompound'
p760
I00
sS'attrChildrenNames'
p761
(lp762
ssVxformMatrix
p763
(dp764
S'isArray'
p765
I00
sS'isElement'
p766
I00
sS'isCompound'
p767
I00
sS'attrChildrenNames'
p768
(lp769
sS'isMulti'
p770
I00
ssVtranslate
p771
(dp772
S'isArray'
p773
I00
sg8
Vdouble3
p774
sS'attrChildrenNames'
p775
(lp776
Vtranslate.translateX
p777
aVtranslate.translateY
p778
aVtranslate.translateZ
p779
asS'isMulti'
p780
I00
sS'isCompound'
p781
I01
sg12
I01
sS'isElement'
p782
I00
ssVdrawOverride
p783
(dp784
S'isArray'
p785
I00
sg8
VTdataCompound
p786
sS'attrChildrenNames'
p787
(lp788
VdrawOverride.overrideDisplayType
p789
aVdrawOverride.overrideLevelOfDetail
p790
aVdrawOverride.overrideShading
p791
aVdrawOverride.overrideTexturing
p792
aVdrawOverride.overridePlayback
p793
aVdrawOverride.overrideEnabled
p794
aVdrawOverride.overrideVisibility
p795
aVdrawOverride.overrideColor
p796
asS'isMulti'
p797
I00
sS'isCompound'
p798
I01
sg12
I00
sS'isElement'
p799
I00
ssVshear.shearXZ
p800
(dp801
S'isArray'
p802
I00
sS'attrParentLongName'
p803
Vshear
p804
sS'attrChildrenNames'
p805
(lp806
sg8
Vdouble
p807
sS'isMulti'
p808
I00
sS'isCompound'
p809
I00
sg12
I01
sS'isElement'
p810
I00
ssVshear.shearXY
p811
(dp812
S'isArray'
p813
I00
sS'attrParentLongName'
p814
Vshear
p815
sS'attrChildrenNames'
p816
(lp817
sg8
Vdouble
p818
sS'isMulti'
p819
I00
sS'isCompound'
p820
I00
sg12
I01
sS'isElement'
p821
I00
ssVrenderInfo
p822
(dp823
S'isArray'
p824
I00
sS'isElement'
p825
I00
sS'isCompound'
p826
I01
sS'attrChildrenNames'
p827
(lp828
VrenderInfo.identification
p829
aVrenderInfo.layerRenderable
p830
aVrenderInfo.layerOverrideColor
p831
asS'isMulti'
p832
I00
ssVghostCustomSteps.ghostPostSteps
p833
(dp834
S'isArray'
p835
I00
sS'attrParentLongName'
p836
VghostCustomSteps
p837
sS'attrChildrenNames'
p838
(lp839
sS'isMulti'
p840
I00
sS'isCompound'
p841
I00
sS'isElement'
p842
I00
ssVboundingBox
p843
(dp844
S'isArray'
p845
I00
sS'isElement'
p846
I00
sS'isMulti'
p847
I00
sS'isCompound'
p848
I01
sS'attrChildrenNames'
p849
(lp850
VboundingBox.boundingBoxMin
p851
aVboundingBox.boundingBoxMax
p852
aVboundingBox.boundingBoxSize
p853
assVcenter
p854
(dp855
S'isArray'
p856
I00
sS'isElement'
p857
I00
sS'isMulti'
p858
I00
sS'attrChildrenNames'
p859
(lp860
Vcenter.boundingBoxCenterX
p861
aVcenter.boundingBoxCenterY
p862
aVcenter.boundingBoxCenterZ
p863
asS'isCompound'
p864
I01
ssViconName
p865
(dp866
S'isArray'
p867
I00
sS'isElement'
p868
I00
sS'isMulti'
p869
I00
sS'isCompound'
p870
I00
sS'attrChildrenNames'
p871
(lp872
ssVboundingBox.boundingBoxSize
p873
(dp874
S'isArray'
p875
I00
sS'attrParentLongName'
p876
VboundingBox
p877
sS'attrChildrenNames'
p878
(lp879
VboundingBox.boundingBoxSize.boundingBoxSizeX
p880
aVboundingBox.boundingBoxSize.boundingBoxSizeY
p881
aVboundingBox.boundingBoxSize.boundingBoxSizeZ
p882
asS'isMulti'
p883
I00
sS'isCompound'
p884
I01
sS'isElement'
p885
I00
ssVrenderInfo.layerOverrideColor
p886
(dp887
S'isArray'
p888
I00
sS'attrParentLongName'
p889
VrenderInfo
p890
sS'attrChildrenNames'
p891
(lp892
sS'isMulti'
p893
I00
sS'isCompound'
p894
I00
sS'isElement'
p895
I00
ssVgeometry
p896
(dp897
S'isArray'
p898
I00
sS'isElement'
p899
I00
sS'attrChildrenNames'
p900
(lp901
sS'isCompound'
p902
I00
sS'isMulti'
p903
I00
ssVdisplayRotatePivot
p904
(dp905
S'isArray'
p906
I00
sS'isElement'
p907
I00
sS'isMulti'
p908
I00
sS'isCompound'
p909
I00
sS'attrChildrenNames'
p910
(lp911
ssVmentalRayControls.miGeoShader
p912
(dp913
S'isArray'
p914
I00
sS'attrParentLongName'
p915
VmentalRayControls
p916
sS'attrChildrenNames'
p917
(lp918
sS'isMulti'
p919
I00
sS'isCompound'
p920
I00
sS'isElement'
p921
I00
ssVboundingBox.boundingBoxMin
p922
(dp923
S'isArray'
p924
I00
sS'attrParentLongName'
p925
VboundingBox
p926
sS'attrChildrenNames'
p927
(lp928
VboundingBox.boundingBoxMin.boundingBoxMinX
p929
aVboundingBox.boundingBoxMin.boundingBoxMinY
p930
aVboundingBox.boundingBoxMin.boundingBoxMinZ
p931
asS'isMulti'
p932
I00
sS'isCompound'
p933
I01
sS'isElement'
p934
I00
ssVscalePivot
p935
(dp936
S'isArray'
p937
I00
sg8
Vdouble3
p938
sS'attrChildrenNames'
p939
(lp940
VscalePivot.scalePivotX
p941
aVscalePivot.scalePivotY
p942
aVscalePivot.scalePivotZ
p943
asS'isMulti'
p944
I00
sS'isCompound'
p945
I01
sg12
I01
sS'isElement'
p946
I00
ssVspecifiedManipLocation
p947
(dp948
S'isArray'
p949
I00
sS'isElement'
p950
I00
sS'isMulti'
p951
I00
sS'isCompound'
p952
I00
sS'attrChildrenNames'
p953
(lp954
ssVmentalRayControls.miCaustic
p955
(dp956
S'isArray'
p957
I00
sS'attrParentLongName'
p958
VmentalRayControls
p959
sS'attrChildrenNames'
p960
(lp961
sS'isMulti'
p962
I00
sS'isCompound'
p963
I00
sS'isElement'
p964
I00
ssVmentalRayControls
p965
(dp966
S'isArray'
p967
I00
sS'isElement'
p968
I00
sS'isMulti'
p969
I00
sS'attrChildrenNames'
p970
(lp971
VmentalRayControls.miDeriveFromMaya
p972
aVmentalRayControls.miHide
p973
aVmentalRayControls.miVisible
p974
aVmentalRayControls.miTrace
p975
aVmentalRayControls.miShadow
p976
aVmentalRayControls.miCaustic
p977
aVmentalRayControls.miGlobillum
p978
aVmentalRayControls.miExportGeoShader
p979
aVmentalRayControls.miGeoShader
p980
aVmentalRayControls.miProxyRenderable
p981
asS'isCompound'
p982
I01
ssVboundingBox.boundingBoxMax.boundingBoxMaxY
p983
(dp984
S'isArray'
p985
I00
sS'attrParentLongName'
p986
VboundingBox.boundingBoxMax
p987
sS'attrChildrenNames'
p988
(lp989
sS'isMulti'
p990
I00
sS'isCompound'
p991
I00
sS'isElement'
p992
I00
ssVboundingBox.boundingBoxMax.boundingBoxMaxX
p993
(dp994
S'isArray'
p995
I00
sS'attrParentLongName'
p996
VboundingBox.boundingBoxMax
p997
sS'attrChildrenNames'
p998
(lp999
sS'isMulti'
p1000
I00
sS'isCompound'
p1001
I00
sS'isElement'
p1002
I00
ssVboundingBox.boundingBoxMax.boundingBoxMaxZ
p1003
(dp1004
S'isArray'
p1005
I00
sS'attrParentLongName'
p1006
VboundingBox.boundingBoxMax
p1007
sS'attrChildrenNames'
p1008
(lp1009
sS'isMulti'
p1010
I00
sS'isCompound'
p1011
I00
sS'isElement'
p1012
I00
ssVboundingBox.boundingBoxSize.boundingBoxSizeY
p1013
(dp1014
S'isArray'
p1015
I00
sS'attrParentLongName'
p1016
VboundingBox.boundingBoxSize
p1017
sS'attrChildrenNames'
p1018
(lp1019
sS'isMulti'
p1020
I00
sS'isCompound'
p1021
I00
sS'isElement'
p1022
I00
ssVboundingBox.boundingBoxSize.boundingBoxSizeX
p1023
(dp1024
S'isArray'
p1025
I00
sS'attrParentLongName'
p1026
VboundingBox.boundingBoxSize
p1027
sS'attrChildrenNames'
p1028
(lp1029
sS'isMulti'
p1030
I00
sS'isCompound'
p1031
I00
sS'isElement'
p1032
I00
ssVmentalRayControls.miExportGeoShader
p1033
(dp1034
S'isArray'
p1035
I00
sS'attrParentLongName'
p1036
VmentalRayControls
p1037
sS'attrChildrenNames'
p1038
(lp1039
sS'isMulti'
p1040
I00
sS'isCompound'
p1041
I00
sS'isElement'
p1042
I00
ssVboundingBox.boundingBoxSize.boundingBoxSizeZ
p1043
(dp1044
S'isArray'
p1045
I00
sS'attrParentLongName'
p1046
VboundingBox.boundingBoxSize
p1047
sS'attrChildrenNames'
p1048
(lp1049
sS'isMulti'
p1050
I00
sS'isCompound'
p1051
I00
sS'isElement'
p1052
I00
ssVblackBox
p1053
(dp1054
S'isArray'
p1055
I00
sg8
Vbool
p1056
sS'attrChildrenNames'
p1057
(lp1058
sS'isMulti'
p1059
I00
sS'isCompound'
p1060
I00
sg12
I01
sS'isElement'
p1061
I00
ssVtemplateName
p1062
(dp1063
S'isArray'
p1064
I00
sS'isElement'
p1065
I00
sS'isMulti'
p1066
I00
sS'attrChildrenNames'
p1067
(lp1068
sS'isCompound'
p1069
I00
ssVghostingControl
p1070
(dp1071
S'isArray'
p1072
I00
sS'isElement'
p1073
I00
sS'isMulti'
p1074
I00
sS'isCompound'
p1075
I00
sS'attrChildrenNames'
p1076
(lp1077
ssVshowManipDefault
p1078
(dp1079
S'isArray'
p1080
I00
sS'isElement'
p1081
I00
sS'isMulti'
p1082
I00
sS'attrChildrenNames'
p1083
(lp1084
sS'isCompound'
p1085
I00
ssVmentalRayControls.miDeriveFromMaya
p1086
(dp1087
S'isArray'
p1088
I00
sS'attrParentLongName'
p1089
VmentalRayControls
p1090
sS'attrChildrenNames'
p1091
(lp1092
sS'isMulti'
p1093
I00
sS'isCompound'
p1094
I00
sS'isElement'
p1095
I00
ssVdrawOverride.overrideDisplayType
p1096
(dp1097
S'isArray'
p1098
I00
sS'attrParentLongName'
p1099
VdrawOverride
p1100
sS'attrChildrenNames'
p1101
(lp1102
sg8
Venum
p1103
sS'isMulti'
p1104
I00
sS'isCompound'
p1105
I00
sg12
I01
sS'isElement'
p1106
I00
ssVisCollapsed
p1107
(dp1108
S'isArray'
p1109
I00
sS'isElement'
p1110
I00
sS'isMulti'
p1111
I00
sS'attrChildrenNames'
p1112
(lp1113
sS'isCompound'
p1114
I00
ssVnodeState
p1115
(dp1116
S'isArray'
p1117
I00
sS'isElement'
p1118
I00
sS'isMulti'
p1119
I00
sS'isCompound'
p1120
I00
sS'attrChildrenNames'
p1121
(lp1122
ssVrenderInfo.identification
p1123
(dp1124
S'isArray'
p1125
I00
sS'attrParentLongName'
p1126
VrenderInfo
p1127
sS'attrChildrenNames'
p1128
(lp1129
sS'isMulti'
p1130
I00
sS'isCompound'
p1131
I00
sS'isElement'
p1132
I00
ssVghostCustomSteps.ghostStepSize
p1133
(dp1134
S'isArray'
p1135
I00
sS'attrParentLongName'
p1136
VghostCustomSteps
p1137
sS'attrChildrenNames'
p1138
(lp1139
sS'isMulti'
p1140
I00
sS'isCompound'
p1141
I00
sS'isElement'
p1142
I00
ssVdrawOverride.overridePlayback
p1143
(dp1144
S'isArray'
p1145
I00
sS'attrParentLongName'
p1146
VdrawOverride
p1147
sS'attrChildrenNames'
p1148
(lp1149
sg8
Vbool
p1150
sS'isMulti'
p1151
I00
sS'isCompound'
p1152
I00
sg12
I01
sS'isElement'
p1153
I00
ssVvisibility
p1154
(dp1155
S'isArray'
p1156
I00
sg8
Vbool
p1157
sS'attrChildrenNames'
p1158
(lp1159
sS'isMulti'
p1160
I00
sS'isCompound'
p1161
I00
sg12
I01
sS'isElement'
p1162
I00
ssVlodVisibility
p1163
(dp1164
S'isArray'
p1165
I00
sS'isElement'
p1166
I00
sS'attrChildrenNames'
p1167
(lp1168
sS'isCompound'
p1169
I00
sS'isMulti'
p1170
I00
ssVscalePivotTranslate.scalePivotTranslateZ
p1171
(dp1172
S'isArray'
p1173
I00
sS'attrParentLongName'
p1174
VscalePivotTranslate
p1175
sS'attrChildrenNames'
p1176
(lp1177
sg8
VdoubleLinear
p1178
sS'isMulti'
p1179
I00
sS'isCompound'
p1180
I00
sg12
I01
sS'isElement'
p1181
I00
ssVscalePivotTranslate.scalePivotTranslateX
p1182
(dp1183
S'isArray'
p1184
I00
sS'attrParentLongName'
p1185
VscalePivotTranslate
p1186
sS'attrChildrenNames'
p1187
(lp1188
sg8
VdoubleLinear
p1189
sS'isMulti'
p1190
I00
sS'isCompound'
p1191
I00
sg12
I01
sS'isElement'
p1192
I00
ssVscalePivotTranslate.scalePivotTranslateY
p1193
(dp1194
S'isArray'
p1195
I00
sS'attrParentLongName'
p1196
VscalePivotTranslate
p1197
sS'attrChildrenNames'
p1198
(lp1199
sg8
VdoubleLinear
p1200
sS'isMulti'
p1201
I00
sS'isCompound'
p1202
I00
sg12
I01
sS'isElement'
p1203
I00
ssVuiTreatment
p1204
(dp1205
S'isArray'
p1206
I00
sS'isElement'
p1207
I00
sS'isMulti'
p1208
I00
sS'attrChildrenNames'
p1209
(lp1210
sS'isCompound'
p1211
I00
ssVdrawOverride.overrideShading
p1212
(dp1213
S'isArray'
p1214
I00
sS'attrParentLongName'
p1215
VdrawOverride
p1216
sS'attrChildrenNames'
p1217
(lp1218
sg8
Vbool
p1219
sS'isMulti'
p1220
I00
sS'isCompound'
p1221
I00
sg12
I01
sS'isElement'
p1222
I00
ssVmentalRayControls.miProxyRenderable
p1223
(dp1224
S'isArray'
p1225
I00
sS'attrParentLongName'
p1226
VmentalRayControls
p1227
sS'attrChildrenNames'
p1228
(lp1229
sS'isMulti'
p1230
I00
sS'isCompound'
p1231
I00
sS'isElement'
p1232
I00
ssVcenter.boundingBoxCenterZ
p1233
(dp1234
S'isArray'
p1235
I00
sS'attrParentLongName'
p1236
Vcenter
p1237
sS'attrChildrenNames'
p1238
(lp1239
sS'isMulti'
p1240
I00
sS'isCompound'
p1241
I00
sS'isElement'
p1242
I00
ssVmentalRayControls.miShadow
p1243
(dp1244
S'isArray'
p1245
I00
sS'attrParentLongName'
p1246
VmentalRayControls
p1247
sS'attrChildrenNames'
p1248
(lp1249
sS'isMulti'
p1250
I00
sS'isCompound'
p1251
I00
sS'isElement'
p1252
I00
ssVviewMode
p1253
(dp1254
S'isArray'
p1255
I00
sS'isElement'
p1256
I00
sS'isMulti'
p1257
I00
sS'attrChildrenNames'
p1258
(lp1259
sS'isCompound'
p1260
I00
ssVrotatePivotTranslate
p1261
(dp1262
S'isArray'
p1263
I00
sg8
Vdouble3
p1264
sS'attrChildrenNames'
p1265
(lp1266
VrotatePivotTranslate.rotatePivotTranslateX
p1267
aVrotatePivotTranslate.rotatePivotTranslateY
p1268
aVrotatePivotTranslate.rotatePivotTranslateZ
p1269
asS'isMulti'
p1270
I00
sS'isCompound'
p1271
I01
sg12
I01
sS'isElement'
p1272
I00
ssVrotate.rotateZ
p1273
(dp1274
S'isArray'
p1275
I00
sS'attrParentLongName'
p1276
Vrotate
p1277
sS'attrChildrenNames'
p1278
(lp1279
sg8
VdoubleAngle
p1280
sS'isMulti'
p1281
I00
sS'isCompound'
p1282
I00
sg12
I01
sS'isElement'
p1283
I00
ssVrotate.rotateX
p1284
(dp1285
S'isArray'
p1286
I00
sS'attrParentLongName'
p1287
Vrotate
p1288
sS'attrChildrenNames'
p1289
(lp1290
sg8
VdoubleAngle
p1291
sS'isMulti'
p1292
I00
sS'isCompound'
p1293
I00
sg12
I01
sS'isElement'
p1294
I00
ssVrotate.rotateY
p1295
(dp1296
S'isArray'
p1297
I00
sS'attrParentLongName'
p1298
Vrotate
p1299
sS'attrChildrenNames'
p1300
(lp1301
sg8
VdoubleAngle
p1302
sS'isMulti'
p1303
I00
sS'isCompound'
p1304
I00
sg12
I01
sS'isElement'
p1305
I00
ssVcaching
p1306
(dp1307
S'isArray'
p1308
I00
sS'isElement'
p1309
I00
sS'isMulti'
p1310
I00
sS'isCompound'
p1311
I00
sS'attrChildrenNames'
p1312
(lp1313
ssVinverseMatrix
p1314
(dp1315
S'isArray'
p1316
I00
sS'isElement'
p1317
I00
sS'attrChildrenNames'
p1318
(lp1319
sS'isCompound'
p1320
I00
sS'isMulti'
p1321
I00
ssVmentalRayControls.miGlobillum
p1322
(dp1323
S'isArray'
p1324
I00
sS'attrParentLongName'
p1325
VmentalRayControls
p1326
sS'attrChildrenNames'
p1327
(lp1328
sS'isMulti'
p1329
I00
sS'isCompound'
p1330
I00
sS'isElement'
p1331
I00
ssVghostFrames
p1332
(dp1333
S'isArray'
p1334
I00
sS'isElement'
p1335
I00
sS'isCompound'
p1336
I00
sS'attrChildrenNames'
p1337
(lp1338
sS'isMulti'
p1339
I00
ssVcenter.boundingBoxCenterX
p1340
(dp1341
S'isArray'
p1342
I00
sS'attrParentLongName'
p1343
Vcenter
p1344
sS'attrChildrenNames'
p1345
(lp1346
sS'isMulti'
p1347
I00
sS'isCompound'
p1348
I00
sS'isElement'
p1349
I00
ssVcenter.boundingBoxCenterY
p1350
(dp1351
S'isArray'
p1352
I00
sS'attrParentLongName'
p1353
Vcenter
p1354
sS'attrChildrenNames'
p1355
(lp1356
sS'isMulti'
p1357
I00
sS'isCompound'
p1358
I00
sS'isElement'
p1359
I00
ss.