(dp0
VworldMatrix[504]
p1
(dp2
S'isArray'
p3
I00
sS'attrType'
p4
Vmatrix
p5
sS'isSimple'
p6
I00
sS'attrChildrenLongNames'
p7
(lp8
ssVworldMatrix[4]
p9
(dp10
S'isArray'
p11
I00
sg4
Vmatrix
p12
sS'attrChildrenNames'
p13
(lp14
sg6
I00
sg7
(lp15
ssVworldMatrix[179]
p16
(dp17
g3
I00
sg4
Vmatrix
p18
sg6
I00
sg7
(lp19
ssVworldMatrix[102]
p20
(dp21
g3
I00
sg4
Vmatrix
p22
sg6
I00
sg7
(lp23
ssVworldMatrix[723]
p24
(dp25
g3
I00
sg4
Vmatrix
p26
sg6
I00
sg7
(lp27
ssVworldMatrix[234]
p28
(dp29
g3
I00
sg4
Vmatrix
p30
sg6
I00
sg7
(lp31
ssVworldMatrix[604]
p32
(dp33
g3
I00
sg4
Vmatrix
p34
sg6
I00
sg7
(lp35
ssVworldMatrix[138]
p36
(dp37
g3
I00
sg4
Vmatrix
p38
sg6
I00
sg7
(lp39
ssVworldMatrix[513]
p40
(dp41
g3
I00
sg4
Vmatrix
p42
sg6
I00
sg7
(lp43
ssVworldMatrix[114]
p44
(dp45
g3
I00
sg4
Vmatrix
p46
sg6
I00
sg7
(lp47
ssVworldMatrix[141]
p48
(dp49
g3
I00
sg4
Vmatrix
p50
sg6
I00
sg7
(lp51
ssVworldMatrix[481]
p52
(dp53
g3
I00
sg4
Vmatrix
p54
sg6
I00
sg7
(lp55
ssVworldMatrix[320]
p56
(dp57
g3
I00
sg4
Vmatrix
p58
sg6
I00
sg7
(lp59
ssVworldMatrix[437]
p60
(dp61
g3
I00
sg4
Vmatrix
p62
sg6
I00
sg7
(lp63
ssVworldMatrix[87]
p64
(dp65
g3
I00
sg4
Vmatrix
p66
sg6
I00
sg7
(lp67
ssVworldMatrix[316]
p68
(dp69
g3
I00
sg4
Vmatrix
p70
sg6
I00
sg7
(lp71
ssVworldMatrix[70]
p72
(dp73
g3
I00
sg4
Vmatrix
p74
sg6
I00
sg7
(lp75
ssVworldMatrix[812]
p76
(dp77
g3
I00
sg4
Vmatrix
p78
sg6
I00
sg7
(lp79
ssVworldMatrix[276]
p80
(dp81
g3
I00
sg4
Vmatrix
p82
sg6
I00
sg7
(lp83
ssVworldMatrix[791]
p84
(dp85
g3
I00
sg4
Vmatrix
p86
sg6
I00
sg7
(lp87
ssVworldMatrix[109]
p88
(dp89
g3
I00
sg4
Vmatrix
p90
sg6
I00
sg7
(lp91
ssVworldMatrix[288]
p92
(dp93
g3
I00
sg4
Vmatrix
p94
sg6
I00
sg7
(lp95
ssVworldMatrix[336]
p96
(dp97
g3
I00
sg4
Vmatrix
p98
sg6
I00
sg7
(lp99
ssVworldMatrix[613]
p100
(dp101
g3
I00
sg4
Vmatrix
p102
sg6
I00
sg7
(lp103
ssVworldMatrix[384]
p104
(dp105
g3
I00
sg4
Vmatrix
p106
sg6
I00
sg7
(lp107
ssVworldMatrix[642]
p108
(dp109
g3
I00
sg4
Vmatrix
p110
sg6
I00
sg7
(lp111
ssVworldMatrix[31]
p112
(dp113
g3
I00
sg4
Vmatrix
p114
sg6
I00
sg7
(lp115
ssVworldMatrix[318]
p116
(dp117
g3
I00
sg4
Vmatrix
p118
sg6
I00
sg7
(lp119
ssVworldMatrix[795]
p120
(dp121
g3
I00
sg4
Vmatrix
p122
sg6
I00
sg7
(lp123
ssVworldMatrix[681]
p124
(dp125
g3
I00
sg4
Vmatrix
p126
sg6
I00
sg7
(lp127
ssVworldMatrix[440]
p128
(dp129
g3
I00
sg4
Vmatrix
p130
sg6
I00
sg7
(lp131
ssVworldMatrix[302]
p132
(dp133
g3
I00
sg4
Vmatrix
p134
sg6
I00
sg7
(lp135
ssVworldMatrix[25]
p136
(dp137
g3
I00
sg4
Vmatrix
p138
sg6
I00
sg7
(lp139
ssVworldMatrix[740]
p140
(dp141
g3
I00
sg4
Vmatrix
p142
sg6
I00
sg7
(lp143
ssVworldMatrix[170]
p144
(dp145
g3
I00
sg4
Vmatrix
p146
sg6
I00
sg7
(lp147
ssVworldMatrix[286]
p148
(dp149
g3
I00
sg4
Vmatrix
p150
sg6
I00
sg7
(lp151
ssVworldMatrix[603]
p152
(dp153
g3
I00
sg4
Vmatrix
p154
sg6
I00
sg7
(lp155
ssVworldMatrix[133]
p156
(dp157
g3
I00
sg4
Vmatrix
p158
sg6
I00
sg7
(lp159
ssVworldMatrix[290]
p160
(dp161
g3
I00
sg4
Vmatrix
p162
sg6
I00
sg7
(lp163
ssVworldMatrix[330]
p164
(dp165
g3
I00
sg4
Vmatrix
p166
sg6
I00
sg7
(lp167
ssVworldMatrix[497]
p168
(dp169
g3
I00
sg4
Vmatrix
p170
sg6
I00
sg7
(lp171
ssVworldMatrix[356]
p172
(dp173
g3
I00
sg4
Vmatrix
p174
sg6
I00
sg7
(lp175
ssVworldMatrix[329]
p176
(dp177
g3
I00
sg4
Vmatrix
p178
sg6
I00
sg7
(lp179
ssVworldMatrix[258]
p180
(dp181
g3
I00
sg4
Vmatrix
p182
sg6
I00
sg7
(lp183
ssVworldMatrix[792]
p184
(dp185
g3
I00
sg4
Vmatrix
p186
sg6
I00
sg7
(lp187
ssVworldMatrix[344]
p188
(dp189
g3
I00
sg4
Vmatrix
p190
sg6
I00
sg7
(lp191
ssVworldMatrix[536]
p192
(dp193
g3
I00
sg4
Vmatrix
p194
sg6
I00
sg7
(lp195
ssVworldMatrix[394]
p196
(dp197
g3
I00
sg4
Vmatrix
p198
sg6
I00
sg7
(lp199
ssVworldMatrix[719]
p200
(dp201
g3
I00
sg4
Vmatrix
p202
sg6
I00
sg7
(lp203
ssVworldMatrix[762]
p204
(dp205
g3
I00
sg4
Vmatrix
p206
sg6
I00
sg7
(lp207
ssVworldMatrix[478]
p208
(dp209
g3
I00
sg4
Vmatrix
p210
sg6
I00
sg7
(lp211
ssVworldMatrix[68]
p212
(dp213
g3
I00
sg4
Vmatrix
p214
sg6
I00
sg7
(lp215
ssVworldMatrix[758]
p216
(dp217
g3
I00
sg4
Vmatrix
p218
sg6
I00
sg7
(lp219
ssVworldMatrix[661]
p220
(dp221
g3
I00
sg4
Vmatrix
p222
sg6
I00
sg7
(lp223
ssVworldMatrix[591]
p224
(dp225
g3
I00
sg4
Vmatrix
p226
sg6
I00
sg7
(lp227
ssVworldMatrix[238]
p228
(dp229
g3
I00
sg4
Vmatrix
p230
sg6
I00
sg7
(lp231
ssVworldMatrix[634]
p232
(dp233
g3
I00
sg4
Vmatrix
p234
sg6
I00
sg7
(lp235
ssVworldMatrix[503]
p236
(dp237
g3
I00
sg4
Vmatrix
p238
sg6
I00
sg7
(lp239
ssVworldMatrix[774]
p240
(dp241
g3
I00
sg4
Vmatrix
p242
sg6
I00
sg7
(lp243
ssVworldMatrix[99]
p244
(dp245
g3
I00
sg4
Vmatrix
p246
sg6
I00
sg7
(lp247
ssVworldMatrix[585]
p248
(dp249
g3
I00
sg4
Vmatrix
p250
sg6
I00
sg7
(lp251
ssVworldMatrix[788]
p252
(dp253
g3
I00
sg4
Vmatrix
p254
sg6
I00
sg7
(lp255
ssVworldMatrix[721]
p256
(dp257
g3
I00
sg4
Vmatrix
p258
sg6
I00
sg7
(lp259
ssVworldMatrix[618]
p260
(dp261
g3
I00
sg4
Vmatrix
p262
sg6
I00
sg7
(lp263
ssVworldMatrix[90]
p264
(dp265
g3
I00
sg4
Vmatrix
p266
sg6
I00
sg7
(lp267
ssVworldMatrix[180]
p268
(dp269
g3
I00
sg4
Vmatrix
p270
sg6
I00
sg7
(lp271
ssVworldMatrix[465]
p272
(dp273
g3
I00
sg4
Vmatrix
p274
sg6
I00
sg7
(lp275
ssVworldMatrix[45]
p276
(dp277
g3
I00
sg4
Vmatrix
p278
sg6
I00
sg7
(lp279
ssVworldMatrix[626]
p280
(dp281
g3
I00
sg4
Vmatrix
p282
sg6
I00
sg7
(lp283
ssVworldMatrix[340]
p284
(dp285
g3
I00
sg4
Vmatrix
p286
sg6
I00
sg7
(lp287
ssVworldMatrix[201]
p288
(dp289
g3
I00
sg4
Vmatrix
p290
sg6
I00
sg7
(lp291
ssVworldMatrix[540]
p292
(dp293
g3
I00
sg4
Vmatrix
p294
sg6
I00
sg7
(lp295
ssVworldMatrix[366]
p296
(dp297
g3
I00
sg4
Vmatrix
p298
sg6
I00
sg7
(lp299
ssVworldMatrix[769]
p300
(dp301
g3
I00
sg4
Vmatrix
p302
sg6
I00
sg7
(lp303
ssVworldMatrix[576]
p304
(dp305
g3
I00
sg4
Vmatrix
p306
sg6
I00
sg7
(lp307
ssVworldMatrix[51]
p308
(dp309
g3
I00
sg4
Vmatrix
p310
sg6
I00
sg7
(lp311
ssVworldMatrix[196]
p312
(dp313
g3
I00
sg4
Vmatrix
p314
sg6
I00
sg7
(lp315
ssVworldMatrix[124]
p316
(dp317
g3
I00
sg4
Vmatrix
p318
sg6
I00
sg7
(lp319
ssVworldMatrix[514]
p320
(dp321
g3
I00
sg4
Vmatrix
p322
sg6
I00
sg7
(lp323
ssVworldMatrix[247]
p324
(dp325
g3
I00
sg4
Vmatrix
p326
sg6
I00
sg7
(lp327
ssVworldMatrix[156]
p328
(dp329
g3
I00
sg4
Vmatrix
p330
sg6
I00
sg7
(lp331
ssVworldMatrix[264]
p332
(dp333
g3
I00
sg4
Vmatrix
p334
sg6
I00
sg7
(lp335
ssVworldMatrix[710]
p336
(dp337
g3
I00
sg4
Vmatrix
p338
sg6
I00
sg7
(lp339
ssVworldMatrix[486]
p340
(dp341
g3
I00
sg4
Vmatrix
p342
sg6
I00
sg7
(lp343
ssVworldMatrix[471]
p344
(dp345
g3
I00
sg4
Vmatrix
p346
sg6
I00
sg7
(lp347
ssVworldMatrix[753]
p348
(dp349
g3
I00
sg4
Vmatrix
p350
sg6
I00
sg7
(lp351
ssVworldMatrix[479]
p352
(dp353
g3
I00
sg4
Vmatrix
p354
sg6
I00
sg7
(lp355
ssVworldMatrix[562]
p356
(dp357
g3
I00
sg4
Vmatrix
p358
sg6
I00
sg7
(lp359
ssVworldMatrix[168]
p360
(dp361
g3
I00
sg4
Vmatrix
p362
sg6
I00
sg7
(lp363
ssVworldMatrix[216]
p364
(dp365
g3
I00
sg4
Vmatrix
p366
sg6
I00
sg7
(lp367
ssVworldMatrix[67]
p368
(dp369
g3
I00
sg4
Vmatrix
p370
sg6
I00
sg7
(lp371
ssVworldMatrix[815]
p372
(dp373
g3
I00
sg4
Vmatrix
p374
sg6
I00
sg7
(lp375
ssVworldMatrix[17]
p376
(dp377
g3
I00
sg4
Vmatrix
p378
sg6
I00
sg7
(lp379
ssVworldMatrix[224]
p380
(dp381
g3
I00
sg4
Vmatrix
p382
sg6
I00
sg7
(lp383
ssVworldMatrix[539]
p384
(dp385
g3
I00
sg4
Vmatrix
p386
sg6
I00
sg7
(lp387
ssVworldMatrix[189]
p388
(dp389
g3
I00
sg4
Vmatrix
p390
sg6
I00
sg7
(lp391
ssVworldMatrix[208]
p392
(dp393
g3
I00
sg4
Vmatrix
p394
sg6
I00
sg7
(lp395
ssVworldMatrix[598]
p396
(dp397
g3
I00
sg4
Vmatrix
p398
sg6
I00
sg7
(lp399
ssVworldMatrix[77]
p400
(dp401
g3
I00
sg4
Vmatrix
p402
sg6
I00
sg7
(lp403
ssVworldMatrix[369]
p404
(dp405
g3
I00
sg4
Vmatrix
p406
sg6
I00
sg7
(lp407
ssVworldMatrix[801]
p408
(dp409
g3
I00
sg4
Vmatrix
p410
sg6
I00
sg7
(lp411
ssVworldMatrix[601]
p412
(dp413
g3
I00
sg4
Vmatrix
p414
sg6
I00
sg7
(lp415
ssVworldMatrix[169]
p416
(dp417
g3
I00
sg4
Vmatrix
p418
sg6
I00
sg7
(lp419
ssVworldMatrix[134]
p420
(dp421
g3
I00
sg4
Vmatrix
p422
sg6
I00
sg7
(lp423
ssVworldMatrix[22]
p424
(dp425
g3
I00
sg4
Vmatrix
p426
sg6
I00
sg7
(lp427
ssVworldMatrix[293]
p428
(dp429
g3
I00
sg4
Vmatrix
p430
sg6
I00
sg7
(lp431
ssVworldMatrix[242]
p432
(dp433
g3
I00
sg4
Vmatrix
p434
sg6
I00
sg7
(lp435
ssVworldMatrix[806]
p436
(dp437
g3
I00
sg4
Vmatrix
p438
sg6
I00
sg7
(lp439
ssVworldMatrix[383]
p440
(dp441
g3
I00
sg4
Vmatrix
p442
sg6
I00
sg7
(lp443
ssVworldMatrix[254]
p444
(dp445
g3
I00
sg4
Vmatrix
p446
sg6
I00
sg7
(lp447
ssVworldMatrix[8]
p448
(dp449
g3
I00
sg4
Vmatrix
p450
sg6
I00
sg7
(lp451
ssVworldMatrix[616]
p452
(dp453
g3
I00
sg4
Vmatrix
p454
sg6
I00
sg7
(lp455
ssVworldMatrix[358]
p456
(dp457
g3
I00
sg4
Vmatrix
p458
sg6
I00
sg7
(lp459
ssVworldMatrix[492]
p460
(dp461
g3
I00
sg4
Vmatrix
p462
sg6
I00
sg7
(lp463
ssVworldMatrix[676]
p464
(dp465
g3
I00
sg4
Vmatrix
p466
sg6
I00
sg7
(lp467
ssVworldMatrix[106]
p468
(dp469
g3
I00
sg4
Vmatrix
p470
sg6
I00
sg7
(lp471
ssVworldMatrix[283]
p472
(dp473
g3
I00
sg4
Vmatrix
p474
sg6
I00
sg7
(lp475
ssVworldMatrix[502]
p476
(dp477
g3
I00
sg4
Vmatrix
p478
sg6
I00
sg7
(lp479
ssVworldMatrix[312]
p480
(dp481
g3
I00
sg4
Vmatrix
p482
sg6
I00
sg7
(lp483
ssVworldMatrix[159]
p484
(dp485
g3
I00
sg4
Vmatrix
p486
sg6
I00
sg7
(lp487
ssVworldMatrix[308]
p488
(dp489
g3
I00
sg4
Vmatrix
p490
sg6
I00
sg7
(lp491
ssVworldMatrix[434]
p492
(dp493
g3
I00
sg4
Vmatrix
p494
sg6
I00
sg7
(lp495
ssVworldMatrix[233]
p496
(dp497
g3
I00
sg4
Vmatrix
p498
sg6
I00
sg7
(lp499
ssVworldMatrix[324]
p500
(dp501
g3
I00
sg4
Vmatrix
p502
sg6
I00
sg7
(lp503
ssVworldMatrix[648]
p504
(dp505
g3
I00
sg4
Vmatrix
p506
sg6
I00
sg7
(lp507
ssVworldMatrix[353]
p508
(dp509
g3
I00
sg4
Vmatrix
p510
sg6
I00
sg7
(lp511
ssVworldMatrix[306]
p512
(dp513
g3
I00
sg4
Vmatrix
p514
sg6
I00
sg7
(lp515
ssVworldMatrix[19]
p516
(dp517
g3
I00
sg4
Vmatrix
p518
sg6
I00
sg7
(lp519
ssVworldMatrix[456]
p520
(dp521
g3
I00
sg4
Vmatrix
p522
sg6
I00
sg7
(lp523
ssVworldMatrix[666]
p524
(dp525
g3
I00
sg4
Vmatrix
p526
sg6
I00
sg7
(lp527
ssVworldMatrix[327]
p528
(dp529
g3
I00
sg4
Vmatrix
p530
sg6
I00
sg7
(lp531
ssVworldMatrix[370]
p532
(dp533
g3
I00
sg4
Vmatrix
p534
sg6
I00
sg7
(lp535
ssVworldMatrix[736]
p536
(dp537
g3
I00
sg4
Vmatrix
p538
sg6
I00
sg7
(lp539
ssVworldMatrix[91]
p540
(dp541
g3
I00
sg4
Vmatrix
p542
sg6
I00
sg7
(lp543
ssVworldMatrix[556]
p544
(dp545
g3
I00
sg4
Vmatrix
p546
sg6
I00
sg7
(lp547
ssVworldMatrix[294]
p548
(dp549
g3
I00
sg4
Vmatrix
p550
sg6
I00
sg7
(lp551
ssVworldMatrix[443]
p552
(dp553
g3
I00
sg4
Vmatrix
p554
sg6
I00
sg7
(lp555
ssVworldMatrix[388]
p556
(dp557
g3
I00
sg4
Vmatrix
p558
sg6
I00
sg7
(lp559
ssVworldMatrix[646]
p560
(dp561
g3
I00
sg4
Vmatrix
p562
sg6
I00
sg7
(lp563
ssVworldMatrix[349]
p564
(dp565
g3
I00
sg4
Vmatrix
p566
sg6
I00
sg7
(lp567
ssVworldMatrix[251]
p568
(dp569
g3
I00
sg4
Vmatrix
p570
sg6
I00
sg7
(lp571
ssVworldMatrix[650]
p572
(dp573
g3
I00
sg4
Vmatrix
p574
sg6
I00
sg7
(lp575
ssVworldMatrix[444]
p576
(dp577
g3
I00
sg4
Vmatrix
p578
sg6
I00
sg7
(lp579
ssVworldMatrix[379]
p580
(dp581
g3
I00
sg4
Vmatrix
p582
sg6
I00
sg7
(lp583
ssVworldMatrix[174]
p584
(dp585
g3
I00
sg4
Vmatrix
p586
sg6
I00
sg7
(lp587
ssVworldMatrix[166]
p588
(dp589
g3
I00
sg4
Vmatrix
p590
sg6
I00
sg7
(lp591
ssVworldMatrix[35]
p592
(dp593
g3
I00
sg4
Vmatrix
p594
sg6
I00
sg7
(lp595
ssVworldMatrix[796]
p596
(dp597
g3
I00
sg4
Vmatrix
p598
sg6
I00
sg7
(lp599
ssVworldMatrix[42]
p600
(dp601
g3
I00
sg4
Vmatrix
p602
sg6
I00
sg7
(lp603
ssVworldMatrix[686]
p604
(dp605
g3
I00
sg4
Vmatrix
p606
sg6
I00
sg7
(lp607
ssVworldMatrix[301]
p608
(dp609
g3
I00
sg4
Vmatrix
p610
sg6
I00
sg7
(lp611
ssVworldMatrix[698]
p612
(dp613
g3
I00
sg4
Vmatrix
p614
sg6
I00
sg7
(lp615
ssVworldMatrix[29]
p616
(dp617
g3
I00
sg4
Vmatrix
p618
sg6
I00
sg7
(lp619
ssVworldMatrix[404]
p620
(dp621
g3
I00
sg4
Vmatrix
p622
sg6
I00
sg7
(lp623
ssVworldMatrix[784]
p624
(dp625
g3
I00
sg4
Vmatrix
p626
sg6
I00
sg7
(lp627
ssVworldMatrix[709]
p628
(dp629
g3
I00
sg4
Vmatrix
p630
sg6
I00
sg7
(lp631
ssVworldMatrix[520]
p632
(dp633
g3
I00
sg4
Vmatrix
p634
sg6
I00
sg7
(lp635
ssVworldMatrix[754]
p636
(dp637
g3
I00
sg4
Vmatrix
p638
sg6
I00
sg7
(lp639
ssVworldMatrix[561]
p640
(dp641
g3
I00
sg4
Vmatrix
p642
sg6
I00
sg7
(lp643
ssVworldMatrix[123]
p644
(dp645
g3
I00
sg4
Vmatrix
p646
sg6
I00
sg7
(lp647
ssVworldMatrix[818]
p648
(dp649
g3
I00
sg4
Vmatrix
p650
sg6
I00
sg7
(lp651
ssVworldMatrix[390]
p652
(dp653
g3
I00
sg4
Vmatrix
p654
sg6
I00
sg7
(lp655
ssVworldMatrix[766]
p656
(dp657
g3
I00
sg4
Vmatrix
p658
sg6
I00
sg7
(lp659
ssVworldMatrix[474]
p660
(dp661
g3
I00
sg4
Vmatrix
p662
sg6
I00
sg7
(lp663
ssVworldMatrix[205]
p664
(dp665
g3
I00
sg4
Vmatrix
p666
sg6
I00
sg7
(lp667
ssVworldMatrix[12]
p668
(dp669
g3
I00
sg4
Vmatrix
p670
sg6
I00
sg7
(lp671
ssVworldMatrix[802]
p672
(dp673
g3
I00
sg4
Vmatrix
p674
sg6
I00
sg7
(lp675
ssVworldMatrix[630]
p676
(dp677
g3
I00
sg4
Vmatrix
p678
sg6
I00
sg7
(lp679
ssVworldMatrix[211]
p680
(dp681
g3
I00
sg4
Vmatrix
p682
sg6
I00
sg7
(lp683
ssVworldMatrix[94]
p684
(dp685
g3
I00
sg4
Vmatrix
p686
sg6
I00
sg7
(lp687
ssVworldMatrix[581]
p688
(dp689
g3
I00
sg4
Vmatrix
p690
sg6
I00
sg7
(lp691
ssVworldMatrix[673]
p692
(dp693
g3
I00
sg4
Vmatrix
p694
sg6
I00
sg7
(lp695
ssVworldMatrix[572]
p696
(dp697
g3
I00
sg4
Vmatrix
p698
sg6
I00
sg7
(lp699
ssVworldMatrix[184]
p700
(dp701
g3
I00
sg4
Vmatrix
p702
sg6
I00
sg7
(lp703
ssVworldMatrix[64]
p704
(dp705
g3
I00
sg4
Vmatrix
p706
sg6
I00
sg7
(lp707
ssVworldMatrix[568]
p708
(dp709
g3
I00
sg4
Vmatrix
p710
sg6
I00
sg7
(lp711
ssVworldMatrix[739]
p712
(dp713
g3
I00
sg4
Vmatrix
p714
sg6
I00
sg7
(lp715
ssVnodeState
p716
(dp717
g11
I00
sg4
Venum
p718
sg13
(lp719
sg6
I01
sg7
(lp720
ssVworldMatrix[268]
p721
(dp722
g3
I00
sg4
Vmatrix
p723
sg6
I00
sg7
(lp724
ssVworldMatrix[144]
p725
(dp726
g3
I00
sg4
Vmatrix
p727
sg6
I00
sg7
(lp728
ssVworldMatrix[111]
p729
(dp730
g3
I00
sg4
Vmatrix
p731
sg6
I00
sg7
(lp732
ssVworldMatrix[272]
p733
(dp734
g3
I00
sg4
Vmatrix
p735
sg6
I00
sg7
(lp736
ssVworldMatrix[671]
p737
(dp738
g3
I00
sg4
Vmatrix
p739
sg6
I00
sg7
(lp740
ssVworldMatrix[566]
p741
(dp742
g3
I00
sg4
Vmatrix
p743
sg6
I00
sg7
(lp744
ssVworldMatrix[83]
p745
(dp746
g3
I00
sg4
Vmatrix
p747
sg6
I00
sg7
(lp748
ssVworldMatrix[128]
p749
(dp750
g3
I00
sg4
Vmatrix
p751
sg6
I00
sg7
(lp752
ssVworldMatrix[742]
p753
(dp754
g3
I00
sg4
Vmatrix
p755
sg6
I00
sg7
(lp756
ssVworldMatrix[510]
p757
(dp758
g3
I00
sg4
Vmatrix
p759
sg6
I00
sg7
(lp760
ssVworldMatrix[1]
p761
(dp762
g11
I00
sg4
Vmatrix
p763
sg13
(lp764
sg6
I00
sg7
(lp765
ssVworldMatrix[152]
p766
(dp767
g3
I00
sg4
Vmatrix
p768
sg6
I00
sg7
(lp769
ssVworldMatrix[88]
p770
(dp771
g3
I00
sg4
Vmatrix
p772
sg6
I00
sg7
(lp773
ssVworldMatrix[463]
p774
(dp775
g3
I00
sg4
Vmatrix
p776
sg6
I00
sg7
(lp777
ssVworldMatrix[541]
p778
(dp779
g3
I00
sg4
Vmatrix
p780
sg6
I00
sg7
(lp781
ssVworldMatrix[333]
p782
(dp783
g3
I00
sg4
Vmatrix
p784
sg6
I00
sg7
(lp785
ssVworldMatrix[73]
p786
(dp787
g3
I00
sg4
Vmatrix
p788
sg6
I00
sg7
(lp789
ssVworldMatrix[714]
p790
(dp791
g3
I00
sg4
Vmatrix
p792
sg6
I00
sg7
(lp793
ssVworldMatrix[482]
p794
(dp795
g3
I00
sg4
Vmatrix
p796
sg6
I00
sg7
(lp797
ssVworldMatrix[706]
p798
(dp799
g3
I00
sg4
Vmatrix
p800
sg6
I00
sg7
(lp801
ssVworldMatrix[323]
p802
(dp803
g3
I00
sg4
Vmatrix
p804
sg6
I00
sg7
(lp805
ssVworldMatrix[63]
p806
(dp807
g3
I00
sg4
Vmatrix
p808
sg6
I00
sg7
(lp809
ssVworldMatrix[805]
p810
(dp811
g3
I00
sg4
Vmatrix
p812
sg6
I00
sg7
(lp813
ssVworldMatrix[519]
p814
(dp815
g3
I00
sg4
Vmatrix
p816
sg6
I00
sg7
(lp817
ssVworldMatrix[261]
p818
(dp819
g3
I00
sg4
Vmatrix
p820
sg6
I00
sg7
(lp821
ssVworldMatrix[811]
p822
(dp823
g3
I00
sg4
Nsg6
I00
sg7
(lp824
ssVworldMatrix[275]
p825
(dp826
g3
I00
sg4
Vmatrix
p827
sg6
I00
sg7
(lp828
ssVworldMatrix[220]
p829
(dp830
g3
I00
sg4
Vmatrix
p831
sg6
I00
sg7
(lp832
ssVworldMatrix[250]
p833
(dp834
g3
I00
sg4
Vmatrix
p835
sg6
I00
sg7
(lp836
ssVworldMatrix[612]
p837
(dp838
g3
I00
sg4
Vmatrix
p839
sg6
I00
sg7
(lp840
ssVworldMatrix[441]
p841
(dp842
g3
I00
sg4
Vmatrix
p843
sg6
I00
sg7
(lp844
ssVworldMatrix[653]
p845
(dp846
g3
I00
sg4
Vmatrix
p847
sg6
I00
sg7
(lp848
ssVworldMatrix[451]
p849
(dp850
g3
I00
sg4
Vmatrix
p851
sg6
I00
sg7
(lp852
ssVworldMatrix[305]
p853
(dp854
g3
I00
sg4
Vmatrix
p855
sg6
I00
sg7
(lp856
ssVworldMatrix[30]
p857
(dp858
g3
I00
sg4
Vmatrix
p859
sg6
I00
sg7
(lp860
ssVworldMatrix[694]
p861
(dp862
g3
I00
sg4
Vmatrix
p863
sg6
I00
sg7
(lp864
ssVworldMatrix[455]
p865
(dp866
g3
I00
sg4
Vmatrix
p867
sg6
I00
sg7
(lp868
ssVworldMatrix[400]
p869
(dp870
g3
I00
sg4
Vmatrix
p871
sg6
I00
sg7
(lp872
ssVworldMatrix[287]
p873
(dp874
g3
I00
sg4
Vmatrix
p875
sg6
I00
sg7
(lp876
ssVworldMatrix[165]
p877
(dp878
g3
I00
sg4
Vmatrix
p879
sg6
I00
sg7
(lp880
ssVworldMatrix[130]
p881
(dp882
g3
I00
sg4
Vmatrix
p883
sg6
I00
sg7
(lp884
ssVworldMatrix[297]
p885
(dp886
g3
I00
sg4
Vmatrix
p887
sg6
I00
sg7
(lp888
ssVworldMatrix[643]
p889
(dp890
g3
I00
sg4
Vmatrix
p891
sg6
I00
sg7
(lp892
ssVworldMatrix[387]
p893
(dp894
g3
I00
sg4
Vmatrix
p895
sg6
I00
sg7
(lp896
ssVworldMatrix[149]
p897
(dp898
g3
I00
sg4
Vmatrix
p899
sg6
I00
sg7
(lp900
ssVworldMatrix[496]
p901
(dp902
g3
I00
sg4
Vmatrix
p903
sg6
I00
sg7
(lp904
ssVworldMatrix[359]
p905
(dp906
g3
I00
sg4
Vmatrix
p907
sg6
I00
sg7
(lp908
ssVworldMatrix[817]
p909
(dp910
g3
I00
sg4
Vmatrix
p911
sg6
I00
sg7
(lp912
ssVworldMatrix[171]
p913
(dp914
g3
I00
sg4
Vmatrix
p915
sg6
I00
sg7
(lp916
ssVworldMatrix[672]
p917
(dp918
g3
I00
sg4
Vmatrix
p919
sg6
I00
sg7
(lp920
ssVworldMatrix[26]
p921
(dp922
g3
I00
sg4
Vmatrix
p923
sg6
I00
sg7
(lp924
ssVworldMatrix[357]
p925
(dp926
g3
I00
sg4
Vmatrix
p927
sg6
I00
sg7
(lp928
ssVworldMatrix[257]
p929
(dp930
g3
I00
sg4
Vmatrix
p931
sg6
I00
sg7
(lp932
ssVworldMatrix[749]
p933
(dp934
g3
I00
sg4
Vmatrix
p935
sg6
I00
sg7
(lp936
ssVworldMatrix[351]
p937
(dp938
g3
I00
sg4
Vmatrix
p939
sg6
I00
sg7
(lp940
ssVworldMatrix[347]
p941
(dp942
g3
I00
sg4
Vmatrix
p943
sg6
I00
sg7
(lp944
ssVworldMatrix[793]
p945
(dp946
g3
I00
sg4
Vmatrix
p947
sg6
I00
sg7
(lp948
ssVworldMatrix[413]
p949
(dp950
g3
I00
sg4
Vmatrix
p951
sg6
I00
sg7
(lp952
ssVworldMatrix[724]
p953
(dp954
g3
I00
sg4
Vmatrix
p955
sg6
I00
sg7
(lp956
ssVworldMatrix[771]
p957
(dp958
g3
I00
sg4
Vmatrix
p959
sg6
I00
sg7
(lp960
ssVworldMatrix[399]
p961
(dp962
g3
I00
sg4
Vmatrix
p963
sg6
I00
sg7
(lp964
ssVworldMatrix[362]
p965
(dp966
g3
I00
sg4
Vmatrix
p967
sg6
I00
sg7
(lp968
ssVworldMatrix[533]
p969
(dp970
g3
I00
sg4
Vmatrix
p971
sg6
I00
sg7
(lp972
ssVworldMatrix[727]
p973
(dp974
g3
I00
sg4
Vmatrix
p975
sg6
I00
sg7
(lp976
ssVworldMatrix[654]
p977
(dp978
g3
I00
sg4
Vmatrix
p979
sg6
I00
sg7
(lp980
ssVworldMatrix[49]
p981
(dp982
g3
I00
sg4
Vmatrix
p983
sg6
I00
sg7
(lp984
ssVworldMatrix[623]
p985
(dp986
g3
I00
sg4
Vmatrix
p987
sg6
I00
sg7
(lp988
ssVworldMatrix[452]
p989
(dp990
g3
I00
sg4
Vmatrix
p991
sg6
I00
sg7
(lp992
ssVworldMatrix[662]
p993
(dp994
g3
I00
sg4
Vmatrix
p995
sg6
I00
sg7
(lp996
ssVworldMatrix[596]
p997
(dp998
g3
I00
sg4
Vmatrix
p999
sg6
I00
sg7
(lp1000
ssVworldMatrix[732]
p1001
(dp1002
g3
I00
sg4
Vmatrix
p1003
sg6
I00
sg7
(lp1004
ssVworldMatrix[162]
p1005
(dp1006
g3
I00
sg4
Vmatrix
p1007
sg6
I00
sg7
(lp1008
ssVworldMatrix[193]
p1009
(dp1010
g3
I00
sg4
Vmatrix
p1011
sg6
I00
sg7
(lp1012
ssVworldMatrix[803]
p1013
(dp1014
g3
I00
sg4
Vmatrix
p1015
sg6
I00
sg7
(lp1016
ssVworldMatrix[183]
p1017
(dp1018
g3
I00
sg4
Vmatrix
p1019
sg6
I00
sg7
(lp1020
ssVworldMatrix[433]
p1021
(dp1022
g3
I00
sg4
Vmatrix
p1023
sg6
I00
sg7
(lp1024
ssVworldMatrix[54]
p1025
(dp1026
g3
I00
sg4
Vmatrix
p1027
sg6
I00
sg7
(lp1028
ssVworldMatrix[780]
p1029
(dp1030
g3
I00
sg4
Vmatrix
p1031
sg6
I00
sg7
(lp1032
ssVworldMatrix[553]
p1033
(dp1034
g3
I00
sg4
Vmatrix
p1035
sg6
I00
sg7
(lp1036
ssVworldMatrix[375]
p1037
(dp1038
g3
I00
sg4
Vmatrix
p1039
sg6
I00
sg7
(lp1040
ssVworldMatrix[310]
p1041
(dp1042
g3
I00
sg4
Vmatrix
p1043
sg6
I00
sg7
(lp1044
ssVworldMatrix[39]
p1045
(dp1046
g3
I00
sg4
Vmatrix
p1047
sg6
I00
sg7
(lp1048
ssVworldMatrix[543]
p1049
(dp1050
g3
I00
sg4
Vmatrix
p1051
sg6
I00
sg7
(lp1052
ssVworldMatrix[46]
p1053
(dp1054
g3
I00
sg4
Vmatrix
p1055
sg6
I00
sg7
(lp1056
ssVworldMatrix[129]
p1057
(dp1058
g3
I00
sg4
Vmatrix
p1059
sg6
I00
sg7
(lp1060
ssVworldMatrix[157]
p1061
(dp1062
g3
I00
sg4
Vmatrix
p1063
sg6
I00
sg7
(lp1064
ssVworldMatrix[515]
p1065
(dp1066
g3
I00
sg4
Vmatrix
p1067
sg6
I00
sg7
(lp1068
ssVworldMatrix[730]
p1069
(dp1070
g3
I00
sg4
Vmatrix
p1071
sg6
I00
sg7
(lp1072
ssVworldMatrix[265]
p1073
(dp1074
g3
I00
sg4
Vmatrix
p1075
sg6
I00
sg7
(lp1076
ssVworldMatrix[147]
p1077
(dp1078
g3
I00
sg4
Vmatrix
p1079
sg6
I00
sg7
(lp1080
ssVworldMatrix[509]
p1081
(dp1082
g3
I00
sg4
Vmatrix
p1083
sg6
I00
sg7
(lp1084
ssVworldMatrix[470]
p1085
(dp1086
g3
I00
sg4
Vmatrix
p1087
sg6
I00
sg7
(lp1088
ssVworldMatrix[2]
p1089
(dp1090
g11
I00
sg4
Vmatrix
p1091
sg13
(lp1092
sg6
I00
sg7
(lp1093
ssVworldMatrix[705]
p1094
(dp1095
g3
I00
sg4
Vmatrix
p1096
sg6
I00
sg7
(lp1097
ssVworldMatrix[487]
p1098
(dp1099
g3
I00
sg4
Vmatrix
p1100
sg6
I00
sg7
(lp1101
ssVworldMatrix[750]
p1102
(dp1103
g3
I00
sg4
Vmatrix
p1104
sg6
I00
sg7
(lp1105
ssVworldMatrix[565]
p1106
(dp1107
g3
I00
sg4
Vmatrix
p1108
sg6
I00
sg7
(lp1109
ssVworldMatrix[127]
p1110
(dp1111
g3
I00
sg4
Vmatrix
p1112
sg6
I00
sg7
(lp1113
ssVworldMatrix[225]
p1114
(dp1115
g3
I00
sg4
Vmatrix
p1116
sg6
I00
sg7
(lp1117
ssVworldMatrix[506]
p1118
(dp1119
g3
I00
sg4
Vmatrix
p1120
sg6
I00
sg7
(lp1121
ssVworldMatrix[60]
p1122
(dp1123
g3
I00
sg4
Vmatrix
p1124
sg6
I00
sg7
(lp1125
ssVworldMatrix[424]
p1126
(dp1127
g3
I00
sg4
Vmatrix
p1128
sg6
I00
sg7
(lp1129
ssVworldMatrix[711]
p1130
(dp1131
g3
I00
sg4
Vmatrix
p1132
sg6
I00
sg7
(lp1133
ssVworldMatrix[239]
p1134
(dp1135
g3
I00
sg4
Vmatrix
p1136
sg6
I00
sg7
(lp1137
ssVworldMatrix[703]
p1138
(dp1139
g3
I00
sg4
Vmatrix
p1140
sg6
I00
sg7
(lp1141
ssVworldMatrix[16]
p1142
(dp1143
g3
I00
sg4
Vmatrix
p1144
sg6
I00
sg7
(lp1145
ssVworldMatrix[246]
p1146
(dp1147
g3
I00
sg4
Vmatrix
p1148
sg6
I00
sg7
(lp1149
ssVworldMatrix
p1150
(dp1151
g11
I01
sg4
VTdataCompound
p1152
sg6
I00
ssVworldMatrix[209]
p1153
(dp1154
g3
I00
sg4
Vmatrix
p1155
sg6
I00
sg7
(lp1156
ssVworldMatrix[678]
p1157
(dp1158
g3
I00
sg4
Vmatrix
p1159
sg6
I00
sg7
(lp1160
ssVworldMatrix[76]
p1161
(dp1162
g3
I00
sg4
Vmatrix
p1163
sg6
I00
sg7
(lp1164
ssVworldMatrix[599]
p1165
(dp1166
g3
I00
sg4
Vmatrix
p1167
sg6
I00
sg7
(lp1168
ssVworldMatrix[262]
p1169
(dp1170
g3
I00
sg4
Vmatrix
p1171
sg6
I00
sg7
(lp1172
ssVworldMatrix[215]
p1173
(dp1174
g3
I00
sg4
Vmatrix
p1175
sg6
I00
sg7
(lp1176
ssVworldMatrix[675]
p1177
(dp1178
g3
I00
sg4
Vmatrix
p1179
sg6
I00
sg7
(lp1180
ssVworldMatrix[101]
p1181
(dp1182
g3
I00
sg4
Vmatrix
p1183
sg6
I00
sg7
(lp1184
ssVworldMatrix[462]
p1185
(dp1186
g3
I00
sg4
Vmatrix
p1187
sg6
I00
sg7
(lp1188
ssVworldMatrix[280]
p1189
(dp1190
g3
I00
sg4
Vmatrix
p1191
sg6
I00
sg7
(lp1192
ssVworldMatrix[5]
p1193
(dp1194
g11
I00
sg4
Vmatrix
p1195
sg13
(lp1196
sg6
I00
sg7
(lp1197
ssVworldMatrix[237]
p1198
(dp1199
g3
I00
sg4
Vmatrix
p1200
sg6
I00
sg7
(lp1201
ssVworldMatrix[139]
p1202
(dp1203
g3
I00
sg4
Vmatrix
p1204
sg6
I00
sg7
(lp1205
ssVworldMatrix[328]
p1206
(dp1207
g3
I00
sg4
Vmatrix
p1208
sg6
I00
sg7
(lp1209
ssVworldMatrix[605]
p1210
(dp1211
g3
I00
sg4
Vmatrix
p1212
sg6
I00
sg7
(lp1213
ssVworldMatrix[311]
p1214
(dp1215
g3
I00
sg4
Vmatrix
p1216
sg6
I00
sg7
(lp1217
ssVworldMatrix[140]
p1218
(dp1219
g3
I00
sg4
Vmatrix
p1220
sg6
I00
sg7
(lp1221
ssVworldMatrix[115]
p1222
(dp1223
g3
I00
sg4
Vmatrix
p1224
sg6
I00
sg7
(lp1225
ssVworldMatrix[491]
p1226
(dp1227
g3
I00
sg4
Vmatrix
p1228
sg6
I00
sg7
(lp1229
ssVworldMatrix[702]
p1230
(dp1231
g3
I00
sg4
Vmatrix
p1232
sg6
I00
sg7
(lp1233
ssVworldMatrix[248]
p1234
(dp1235
g3
I00
sg4
Vmatrix
p1236
sg6
I00
sg7
(lp1237
ssVworldMatrix[84]
p1238
(dp1239
g3
I00
sg4
Vmatrix
p1240
sg6
I00
sg7
(lp1241
ssVworldMatrix[317]
p1242
(dp1243
g3
I00
sg4
Vmatrix
p1244
sg6
I00
sg7
(lp1245
ssVworldMatrix[271]
p1246
(dp1247
g3
I00
sg4
Vmatrix
p1248
sg6
I00
sg7
(lp1249
ssVworldMatrix[108]
p1250
(dp1251
g3
I00
sg4
Vmatrix
p1252
sg6
I00
sg7
(lp1253
ssVworldMatrix[432]
p1254
(dp1255
g3
I00
sg4
Vmatrix
p1256
sg6
I00
sg7
(lp1257
ssVworldMatrix[608]
p1258
(dp1259
g3
I00
sg4
Vmatrix
p1260
sg6
I00
sg7
(lp1261
ssVworldMatrix[337]
p1262
(dp1263
g3
I00
sg4
Vmatrix
p1264
sg6
I00
sg7
(lp1265
ssVworldMatrix[289]
p1266
(dp1267
g3
I00
sg4
Vmatrix
p1268
sg6
I00
sg7
(lp1269
ssVworldMatrix[690]
p1270
(dp1271
g3
I00
sg4
Vmatrix
p1272
sg6
I00
sg7
(lp1273
ssVworldMatrix[18]
p1274
(dp1275
g3
I00
sg4
Vmatrix
p1276
sg6
I00
sg7
(lp1277
ssVworldMatrix[737]
p1278
(dp1279
g3
I00
sg4
Vmatrix
p1280
sg6
I00
sg7
(lp1281
ssVworldMatrix[667]
p1282
(dp1283
g3
I00
sg4
Vmatrix
p1284
sg6
I00
sg7
(lp1285
ssVworldMatrix[557]
p1286
(dp1287
g3
I00
sg4
Vmatrix
p1288
sg6
I00
sg7
(lp1289
ssVworldMatrix[371]
p1290
(dp1291
g3
I00
sg4
Vmatrix
p1292
sg6
I00
sg7
(lp1293
ssVworldMatrix[674]
p1294
(dp1295
g3
I00
sg4
Vmatrix
p1296
sg6
I00
sg7
(lp1297
ssVworldMatrix[647]
p1298
(dp1299
g3
I00
sg4
Vmatrix
p1300
sg6
I00
sg7
(lp1301
ssVworldMatrix[820]
p1302
(dp1303
g3
I00
sg6
I00
sg7
(lp1304
ssVworldMatrix[466]
p1305
(dp1306
g3
I00
sg4
Vmatrix
p1307
sg6
I00
sg7
(lp1308
ssVworldMatrix[445]
p1309
(dp1310
g3
I00
sg4
Vmatrix
p1311
sg6
I00
sg7
(lp1312
ssVworldMatrix[657]
p1313
(dp1314
g3
I00
sg4
Vmatrix
p1315
sg6
I00
sg7
(lp1316
ssVworldMatrix[348]
p1317
(dp1318
g3
I00
sg4
Vmatrix
p1319
sg6
I00
sg7
(lp1320
ssVworldMatrix[747]
p1321
(dp1322
g3
I00
sg4
Vmatrix
p1323
sg6
I00
sg7
(lp1324
ssVworldMatrix[175]
p1325
(dp1326
g3
I00
sg4
Vmatrix
p1327
sg6
I00
sg7
(lp1328
ssVworldMatrix[548]
p1329
(dp1330
g3
I00
sg4
Vmatrix
p1331
sg6
I00
sg7
(lp1332
ssVworldMatrix[161]
p1333
(dp1334
g3
I00
sg4
Vmatrix
p1335
sg6
I00
sg7
(lp1336
ssVworldMatrix[190]
p1337
(dp1338
g3
I00
sg4
Vmatrix
p1339
sg6
I00
sg7
(lp1340
ssVworldMatrix[43]
p1341
(dp1342
g3
I00
sg4
Vmatrix
p1343
sg6
I00
sg7
(lp1344
ssVworldMatrix[797]
p1345
(dp1346
g3
I00
sg4
Vmatrix
p1347
sg6
I00
sg7
(lp1348
ssVworldMatrix[405]
p1349
(dp1350
g3
I00
sg4
Vmatrix
p1351
sg6
I00
sg7
(lp1352
ssVworldMatrix[697]
p1353
(dp1354
g3
I00
sg4
Vmatrix
p1355
sg6
I00
sg7
(lp1356
ssVworldMatrix[300]
p1357
(dp1358
g3
I00
sg4
Vmatrix
p1359
sg6
I00
sg7
(lp1360
ssVworldMatrix[34]
p1361
(dp1362
g3
I00
sg4
Vmatrix
p1363
sg6
I00
sg7
(lp1364
ssVworldMatrix[787]
p1365
(dp1366
g3
I00
sg4
Vmatrix
p1367
sg6
I00
sg7
(lp1368
ssVworldMatrix[419]
p1369
(dp1370
g3
I00
sg4
Vmatrix
p1371
sg6
I00
sg7
(lp1372
ssVworldMatrix[537]
p1373
(dp1374
g3
I00
sg4
Vmatrix
p1375
sg6
I00
sg7
(lp1376
ssVworldMatrix[606]
p1377
(dp1378
g3
I00
sg4
Vmatrix
p1379
sg6
I00
sg7
(lp1380
ssVworldMatrix[477]
p1381
(dp1382
g3
I00
sg4
Vmatrix
p1383
sg6
I00
sg7
(lp1384
ssVworldMatrix[759]
p1385
(dp1386
g3
I00
sg4
Vmatrix
p1387
sg6
I00
sg7
(lp1388
ssVworldMatrix[527]
p1389
(dp1390
g3
I00
sg4
Vmatrix
p1391
sg6
I00
sg7
(lp1392
ssVworldMatrix[188]
p1393
(dp1394
g3
I00
sg4
Vmatrix
p1395
sg6
I00
sg7
(lp1396
ssVworldMatrix[69]
p1397
(dp1398
g3
I00
sg4
Vmatrix
p1399
sg6
I00
sg7
(lp1400
ssVworldMatrix[637]
p1401
(dp1402
g3
I00
sg4
Vmatrix
p1403
sg6
I00
sg7
(lp1404
ssVworldMatrix[584]
p1405
(dp1406
g3
I00
sg4
Vmatrix
p1407
sg6
I00
sg7
(lp1408
ssVworldMatrix[524]
p1409
(dp1410
g3
I00
sg4
Vmatrix
p1411
sg6
I00
sg7
(lp1412
ssVworldMatrix[59]
p1413
(dp1414
g3
I00
sg4
Vmatrix
p1415
sg6
I00
sg7
(lp1416
ssVworldMatrix[417]
p1417
(dp1418
g3
I00
sg4
Vmatrix
p1419
sg6
I00
sg7
(lp1420
ssVworldMatrix[720]
p1421
(dp1422
g3
I00
sg4
Vmatrix
p1423
sg6
I00
sg7
(lp1424
ssVworldMatrix[98]
p1425
(dp1426
g3
I00
sg4
Vmatrix
p1427
sg6
I00
sg7
(lp1428
ssVworldMatrix[775]
p1429
(dp1430
g3
I00
sg4
Vmatrix
p1431
sg6
I00
sg7
(lp1432
ssVworldMatrix[426]
p1433
(dp1434
g3
I00
sg4
Vmatrix
p1435
sg6
I00
sg7
(lp1436
ssVworldMatrix[395]
p1437
(dp1438
g3
I00
sg4
Vmatrix
p1439
sg6
I00
sg7
(lp1440
ssVworldMatrix[187]
p1441
(dp1442
g3
I00
sg4
Vmatrix
p1443
sg6
I00
sg7
(lp1444
ssVworldMatrix[93]
p1445
(dp1446
g3
I00
sg4
Vmatrix
p1447
sg6
I00
sg7
(lp1448
ssVworldMatrix[816]
p1449
(dp1450
g3
I00
sg4
Vmatrix
p1451
sg6
I00
sg7
(lp1452
ssVworldMatrix[627]
p1453
(dp1454
g3
I00
sg4
Vmatrix
p1455
sg6
I00
sg7
(lp1456
ssVworldMatrix[202]
p1457
(dp1458
g3
I00
sg4
Vmatrix
p1459
sg6
I00
sg7
(lp1460
ssVworldMatrix[550]
p1461
(dp1462
g3
I00
sg4
Vmatrix
p1463
sg6
I00
sg7
(lp1464
ssVworldMatrix[468]
p1465
(dp1466
g3
I00
sg4
Vmatrix
p1467
sg6
I00
sg7
(lp1468
ssVworldMatrix[365]
p1469
(dp1470
g3
I00
sg4
Vmatrix
p1471
sg6
I00
sg7
(lp1472
ssVworldMatrix[768]
p1473
(dp1474
g3
I00
sg4
Vmatrix
p1475
sg6
I00
sg7
(lp1476
ssVworldMatrix[529]
p1477
(dp1478
g3
I00
sg4
Vmatrix
p1479
sg6
I00
sg7
(lp1480
ssVworldMatrix[197]
p1481
(dp1482
g3
I00
sg4
Vmatrix
p1483
sg6
I00
sg7
(lp1484
ssVworldMatrix[11]
p1485
(dp1486
g3
I00
sg4
Vmatrix
p1487
sg6
I00
sg7
(lp1488
ssVworldMatrix[50]
p1489
(dp1490
g3
I00
sg4
Vmatrix
p1491
sg6
I00
sg7
(lp1492
ssVworldMatrix[577]
p1493
(dp1494
g3
I00
sg4
Vmatrix
p1495
sg6
I00
sg7
(lp1496
ssVworldMatrix[143]
p1497
(dp1498
g3
I00
sg4
Vmatrix
p1499
sg6
I00
sg7
(lp1500
ssVworldMatrix[112]
p1501
(dp1502
g3
I00
sg4
Vmatrix
p1503
sg6
I00
sg7
(lp1504
ssVworldMatrix[228]
p1505
(dp1506
g3
I00
sg4
Vmatrix
p1507
sg6
I00
sg7
(lp1508
ssVworldMatrix[501]
p1509
(dp1510
g3
I00
sg4
Vmatrix
p1511
sg6
I00
sg7
(lp1512
ssVworldMatrix[232]
p1513
(dp1514
g3
I00
sg4
Vmatrix
p1515
sg6
I00
sg7
(lp1516
ssVworldMatrix[670]
p1517
(dp1518
g3
I00
sg4
Vmatrix
p1519
sg6
I00
sg7
(lp1520
ssVworldMatrix[761]
p1521
(dp1522
g3
I00
sg4
Vmatrix
p1523
sg6
I00
sg7
(lp1524
ssVworldMatrix[153]
p1525
(dp1526
g3
I00
sg4
Vmatrix
p1527
sg6
I00
sg7
(lp1528
ssVworldMatrix[511]
p1529
(dp1530
g3
I00
sg4
Vmatrix
p1531
sg6
I00
sg7
(lp1532
ssVworldMatrix[269]
p1533
(dp1534
g3
I00
sg4
Vmatrix
p1535
sg6
I00
sg7
(lp1536
ssVworldMatrix[414]
p1537
(dp1538
g3
I00
sg4
Vmatrix
p1539
sg6
I00
sg7
(lp1540
ssVworldMatrix[6]
p1541
(dp1542
g11
I00
sg4
Vmatrix
p1543
sg13
(lp1544
sg6
I00
sg7
(lp1545
ssVworldMatrix[715]
p1546
(dp1547
g3
I00
sg4
Vmatrix
p1548
sg6
I00
sg7
(lp1549
ssVworldMatrix[334]
p1550
(dp1551
g3
I00
sg4
Vmatrix
p1552
sg6
I00
sg7
(lp1553
ssVworldMatrix[549]
p1554
(dp1555
g3
I00
sg4
Vmatrix
p1556
sg6
I00
sg7
(lp1557
ssVworldMatrix[72]
p1558
(dp1559
g3
I00
sg4
Vmatrix
p1560
sg6
I00
sg7
(lp1561
ssVworldMatrix[89]
p1562
(dp1563
g3
I00
sg4
Vmatrix
p1564
sg6
I00
sg7
(lp1565
ssVworldMatrix[701]
p1566
(dp1567
g3
I00
sg4
Vmatrix
p1568
sg6
I00
sg7
(lp1569
ssVworldMatrix[483]
p1570
(dp1571
g3
I00
sg4
Vmatrix
p1572
sg6
I00
sg7
(lp1573
ssVworldMatrix[322]
p1574
(dp1575
g3
I00
sg4
Vmatrix
p1576
sg6
I00
sg7
(lp1577
ssVworldMatrix[266]
p1578
(dp1579
g3
I00
sg4
Vmatrix
p1580
sg6
I00
sg7
(lp1581
ssVworldMatrix[219]
p1582
(dp1583
g3
I00
sg4
Vmatrix
p1584
sg6
I00
sg7
(lp1585
ssVworldMatrix[589]
p1586
(dp1587
g3
I00
sg4
Vmatrix
p1588
sg6
I00
sg7
(lp1589
ssVworldMatrix[221]
p1590
(dp1591
g3
I00
sg4
Vmatrix
p1592
sg6
I00
sg7
(lp1593
ssVworldMatrix[786]
p1594
(dp1595
g3
I00
sg4
Vmatrix
p1596
sg6
I00
sg7
(lp1597
ssVworldMatrix[810]
p1598
(dp1599
g3
I00
sg4
Vmatrix
p1600
sg6
I00
sg7
(lp1601
ssVworldMatrix[274]
p1602
(dp1603
g3
I00
sg4
Vmatrix
p1604
sg6
I00
sg7
(lp1605
ssVworldMatrix[243]
p1606
(dp1607
g3
I00
sg4
Vmatrix
p1608
sg6
I00
sg7
(lp1609
ssVworldMatrix[33]
p1610
(dp1611
g3
I00
sg4
Vmatrix
p1612
sg6
I00
sg7
(lp1613
ssVworldMatrix[382]
p1614
(dp1615
g3
I00
sg4
Vmatrix
p1616
sg6
I00
sg7
(lp1617
ssVworldMatrix[640]
p1618
(dp1619
g3
I00
sg4
Vmatrix
p1620
sg6
I00
sg7
(lp1621
ssVworldMatrix[292]
p1622
(dp1623
g3
I00
sg4
Vmatrix
p1624
sg6
I00
sg7
(lp1625
ssVworldMatrix[253]
p1626
(dp1627
g3
I00
sg4
Vmatrix
p1628
sg6
I00
sg7
(lp1629
ssVworldMatrix[23]
p1630
(dp1631
g3
I00
sg4
Vmatrix
p1632
sg6
I00
sg7
(lp1633
ssVworldMatrix[687]
p1634
(dp1635
g3
I00
sg4
Vmatrix
p1636
sg6
I00
sg7
(lp1637
ssVworldMatrix[326]
p1638
(dp1639
g3
I00
sg4
Vmatrix
p1640
sg6
I00
sg7
(lp1641
ssVworldMatrix[343]
p1642
(dp1643
g3
I00
sg4
Vmatrix
p1644
sg6
I00
sg7
(lp1645
ssVworldMatrix[495]
p1646
(dp1647
g3
I00
sg4
Vmatrix
p1648
sg6
I00
sg7
(lp1649
ssVworldMatrix[172]
p1650
(dp1651
g3
I00
sg4
Vmatrix
p1652
sg6
I00
sg7
(lp1653
ssVworldMatrix[105]
p1654
(dp1655
g3
I00
sg4
Vmatrix
p1656
sg6
I00
sg7
(lp1657
ssVworldMatrix[284]
p1658
(dp1659
g3
I00
sg4
Vmatrix
p1660
sg6
I00
sg7
(lp1661
ssVworldMatrix[135]
p1662
(dp1663
g3
I00
sg4
Vmatrix
p1664
sg6
I00
sg7
(lp1665
ssVworldMatrix[500]
p1666
(dp1667
g3
I00
sg4
Vmatrix
p1668
sg6
I00
sg7
(lp1669
ssVworldMatrix[313]
p1670
(dp1671
g3
I00
sg4
Vmatrix
p1672
sg6
I00
sg7
(lp1673
ssVworldMatrix[778]
p1674
(dp1675
g3
I00
sg4
Vmatrix
p1676
sg6
I00
sg7
(lp1677
ssVworldMatrix[9]
p1678
(dp1679
g3
I00
sg4
Vmatrix
p1680
sg6
I00
sg7
(lp1681
ssVworldMatrix[244]
p1682
(dp1683
g3
I00
sg4
Vmatrix
p1684
sg6
I00
sg7
(lp1685
ssVcaching
p1686
(dp1687
g11
I00
sg4
Vbool
p1688
sg13
(lp1689
sg6
I01
sg7
(lp1690
ssVworldMatrix[299]
p1691
(dp1692
g3
I00
sg4
Vmatrix
p1693
sg6
I00
sg7
(lp1694
ssVworldMatrix[649]
p1695
(dp1696
g3
I00
sg4
Vmatrix
p1697
sg6
I00
sg7
(lp1698
ssVworldMatrix[319]
p1699
(dp1700
g3
I00
sg4
Vmatrix
p1701
sg6
I00
sg7
(lp1702
ssVworldMatrix[772]
p1703
(dp1704
g3
I00
sg4
Vmatrix
p1705
sg6
I00
sg7
(lp1706
ssVworldMatrix[396]
p1707
(dp1708
g3
I00
sg4
Vmatrix
p1709
sg6
I00
sg7
(lp1710
ssVworldMatrix[361]
p1711
(dp1712
g3
I00
sg4
Vmatrix
p1713
sg6
I00
sg7
(lp1714
ssVworldMatrix[530]
p1715
(dp1716
g3
I00
sg4
Vmatrix
p1717
sg6
I00
sg7
(lp1718
ssVworldMatrix[97]
p1719
(dp1720
g3
I00
sg4
Vmatrix
p1721
sg6
I00
sg7
(lp1722
ssVworldMatrix[620]
p1723
(dp1724
g3
I00
sg4
Vmatrix
p1725
sg6
I00
sg7
(lp1726
ssVworldMatrix[597]
p1727
(dp1728
g3
I00
sg4
Vmatrix
p1729
sg6
I00
sg7
(lp1730
ssVworldMatrix[408]
p1731
(dp1732
g3
I00
sg4
Vmatrix
p1733
sg6
I00
sg7
(lp1734
ssVworldMatrix[733]
p1735
(dp1736
g3
I00
sg4
Vmatrix
p1737
sg6
I00
sg7
(lp1738
ssVworldMatrix[663]
p1739
(dp1740
g3
I00
sg4
Vmatrix
p1741
sg6
I00
sg7
(lp1742
ssVworldMatrix[808]
p1743
(dp1744
g3
I00
sg4
Vmatrix
p1745
sg6
I00
sg7
(lp1746
ssVworldMatrix[412]
p1747
(dp1748
g3
I00
sg4
Vmatrix
p1749
sg6
I00
sg7
(lp1750
ssVworldMatrix[587]
p1751
(dp1752
g3
I00
sg4
Vmatrix
p1753
sg6
I00
sg7
(lp1754
ssVworldMatrix[194]
p1755
(dp1756
g3
I00
sg4
Vmatrix
p1757
sg6
I00
sg7
(lp1758
ssVworldMatrix[38]
p1759
(dp1760
g3
I00
sg4
Vmatrix
p1761
sg6
I00
sg7
(lp1762
ssVworldMatrix[467]
p1763
(dp1764
g3
I00
sg4
Vmatrix
p1765
sg6
I00
sg7
(lp1766
ssVworldMatrix[682]
p1767
(dp1768
g3
I00
sg4
Vmatrix
p1769
sg6
I00
sg7
(lp1770
ssVworldMatrix[449]
p1771
(dp1772
g3
I00
sg4
Vmatrix
p1773
sg6
I00
sg7
(lp1774
ssVworldMatrix[182]
p1775
(dp1776
g3
I00
sg4
Vmatrix
p1777
sg6
I00
sg7
(lp1778
ssVworldMatrix[427]
p1779
(dp1780
g3
I00
sg4
Vmatrix
p1781
sg6
I00
sg7
(lp1782
ssVworldMatrix[554]
p1783
(dp1784
g3
I00
sg4
Vmatrix
p1785
sg6
I00
sg7
(lp1786
ssVworldMatrix[376]
p1787
(dp1788
g3
I00
sg4
Vmatrix
p1789
sg6
I00
sg7
(lp1790
ssVworldMatrix[57]
p1791
(dp1792
g3
I00
sg4
Vmatrix
p1793
sg6
I00
sg7
(lp1794
ssVworldMatrix[368]
p1795
(dp1796
g3
I00
sg4
Vmatrix
p1797
sg6
I00
sg7
(lp1798
ssVworldMatrix[47]
p1799
(dp1800
g3
I00
sg4
Vmatrix
p1801
sg6
I00
sg7
(lp1802
ssVworldMatrix[542]
p1803
(dp1804
g3
I00
sg4
Vmatrix
p1805
sg6
I00
sg7
(lp1806
ssVworldMatrix[338]
p1807
(dp1808
g3
I00
sg4
Vmatrix
p1809
sg6
I00
sg7
(lp1810
ssVworldMatrix[708]
p1811
(dp1812
g3
I00
sg4
Vmatrix
p1813
sg6
I00
sg7
(lp1814
ssVworldMatrix[628]
p1815
(dp1816
g3
I00
sg4
Vmatrix
p1817
sg6
I00
sg7
(lp1818
ssVworldMatrix[122]
p1819
(dp1820
g3
I00
sg4
Vmatrix
p1821
sg6
I00
sg7
(lp1822
ssVworldMatrix[560]
p1823
(dp1824
g3
I00
sg4
Vmatrix
p1825
sg6
I00
sg7
(lp1826
ssVworldMatrix[154]
p1827
(dp1828
g3
I00
sg4
Vmatrix
p1829
sg6
I00
sg7
(lp1830
ssVworldMatrix[391]
p1831
(dp1832
g3
I00
sg4
Vmatrix
p1833
sg6
I00
sg7
(lp1834
ssVworldMatrix[712]
p1835
(dp1836
g3
I00
sg4
Vmatrix
p1837
sg6
I00
sg7
(lp1838
ssVworldMatrix[765]
p1839
(dp1840
g3
I00
sg4
Vmatrix
p1841
sg6
I00
sg7
(lp1842
ssVworldMatrix[473]
p1843
(dp1844
g3
I00
sg4
Vmatrix
p1845
sg6
I00
sg7
(lp1846
ssVworldMatrix[755]
p1847
(dp1848
g3
I00
sg4
Vmatrix
p1849
sg6
I00
sg7
(lp1850
ssVworldMatrix[488]
p1851
(dp1852
g3
I00
sg4
Vmatrix
p1853
sg6
I00
sg7
(lp1854
ssVworldMatrix[210]
p1855
(dp1856
g3
I00
sg4
Vmatrix
p1857
sg6
I00
sg7
(lp1858
ssVworldMatrix[15]
p1859
(dp1860
g3
I00
sg4
Vmatrix
p1861
sg6
I00
sg7
(lp1862
ssVworldMatrix[633]
p1863
(dp1864
g3
I00
sg4
Vmatrix
p1865
sg6
I00
sg7
(lp1866
ssVworldMatrix[580]
p1867
(dp1868
g3
I00
sg4
Vmatrix
p1869
sg6
I00
sg7
(lp1870
ssVworldMatrix[442]
p1871
(dp1872
g3
I00
sg4
Vmatrix
p1873
sg6
I00
sg7
(lp1874
ssVworldMatrix[226]
p1875
(dp1876
g3
I00
sg4
Vmatrix
p1877
sg6
I00
sg7
(lp1878
ssVworldMatrix[79]
p1879
(dp1880
g3
I00
sg4
Vmatrix
p1881
sg6
I00
sg7
(lp1882
ssVworldMatrix[573]
p1883
(dp1884
g3
I00
sg4
Vmatrix
p1885
sg6
I00
sg7
(lp1886
ssVworldMatrix[65]
p1887
(dp1888
g3
I00
sg4
Vmatrix
p1889
sg6
I00
sg7
(lp1890
ssVworldMatrix[206]
p1891
(dp1892
g3
I00
sg4
Vmatrix
p1893
sg6
I00
sg7
(lp1894
ssVworldMatrix[236]
p1895
(dp1896
g3
I00
sg4
Vmatrix
p1897
sg6
I00
sg7
(lp1898
ssVworldMatrix[20]
p1899
(dp1900
g3
I00
sg4
Vmatrix
p1901
sg6
I00
sg7
(lp1902
ssVworldMatrix[136]
p1903
(dp1904
g3
I00
sg4
Vmatrix
p1905
sg6
I00
sg7
(lp1906
ssVworldMatrix[281]
p1907
(dp1908
g3
I00
sg4
Vmatrix
p1909
sg6
I00
sg7
(lp1910
ssVworldMatrix[240]
p1911
(dp1912
g3
I00
sg4
Vmatrix
p1913
sg6
I00
sg7
(lp1914
ssVworldMatrix[423]
p1915
(dp1916
g3
I00
sg4
Vmatrix
p1917
sg6
I00
sg7
(lp1918
ssVworldMatrix[381]
p1919
(dp1920
g3
I00
sg4
Vmatrix
p1921
sg6
I00
sg7
(lp1922
ssVworldMatrix[354]
p1923
(dp1924
g3
I00
sg4
Vmatrix
p1925
sg6
I00
sg7
(lp1926
ssVworldMatrix[522]
p1927
(dp1928
g3
I00
sg4
Vmatrix
p1929
sg6
I00
sg7
(lp1930
ssVworldMatrix[116]
p1931
(dp1932
g3
I00
sg4
Vmatrix
p1933
sg6
I00
sg7
(lp1934
ssVworldMatrix[279]
p1935
(dp1936
g3
I00
sg4
Vmatrix
p1937
sg6
I00
sg7
(lp1938
ssVworldMatrix[592]
p1939
(dp1940
g3
I00
sg4
Vmatrix
p1941
sg6
I00
sg7
(lp1942
ssVworldMatrix[100]
p1943
(dp1944
g3
I00
sg4
Vmatrix
p1945
sg6
I00
sg7
(lp1946
ssVworldMatrix[490]
p1947
(dp1948
g3
I00
sg4
Vmatrix
p1949
sg6
I00
sg7
(lp1950
ssVworldMatrix[249]
p1951
(dp1952
g3
I00
sg4
Vmatrix
p1953
sg6
I00
sg7
(lp1954
ssVworldMatrix[547]
p1955
(dp1956
g3
I00
sg4
Vmatrix
p1957
sg6
I00
sg7
(lp1958
ssVworldMatrix[314]
p1959
(dp1960
g3
I00
sg4
Vmatrix
p1961
sg6
I00
sg7
(lp1962
ssVworldMatrix[270]
p1963
(dp1964
g3
I00
sg4
Vmatrix
p1965
sg6
I00
sg7
(lp1966
ssVworldMatrix[231]
p1967
(dp1968
g3
I00
sg4
Vmatrix
p1969
sg6
I00
sg7
(lp1970
ssVworldMatrix[571]
p1971
(dp1972
g3
I00
sg4
Vmatrix
p1973
sg6
I00
sg7
(lp1974
ssVworldMatrix[683]
p1975
(dp1976
g3
I00
sg4
Vmatrix
p1977
sg6
I00
sg7
(lp1978
ssVworldMatrix[446]
p1979
(dp1980
g3
I00
sg4
Vmatrix
p1981
sg6
I00
sg7
(lp1982
ssVworldMatrix[439]
p1983
(dp1984
g3
I00
sg4
Vmatrix
p1985
sg6
I00
sg7
(lp1986
ssVworldMatrix[629]
p1987
(dp1988
g3
I00
sg4
Vmatrix
p1989
sg6
I00
sg7
(lp1990
ssVworldMatrix[339]
p1991
(dp1992
g3
I00
sg4
Vmatrix
p1993
sg6
I00
sg7
(lp1994
ssVworldMatrix[652]
p1995
(dp1996
g3
I00
sg4
Vmatrix
p1997
sg6
I00
sg7
(lp1998
ssVworldMatrix[401]
p1999
(dp2000
g3
I00
sg4
Vmatrix
p2001
sg6
I00
sg7
(lp2002
ssVworldMatrix[693]
p2003
(dp2004
g3
I00
sg4
Vmatrix
p2005
sg6
I00
sg7
(lp2006
ssVworldMatrix[304]
p2007
(dp2008
g3
I00
sg4
Vmatrix
p2009
sg6
I00
sg7
(lp2010
ssVworldMatrix[734]
p2011
(dp2012
g3
I00
sg4
Vmatrix
p2013
sg6
I00
sg7
(lp2014
ssVworldMatrix[37]
p2015
(dp2016
g3
I00
sg4
Vmatrix
p2017
sg6
I00
sg7
(lp2018
ssVworldMatrix[668]
p2019
(dp2020
g3
I00
sg4
Vmatrix
p2021
sg6
I00
sg7
(lp2022
ssVworldMatrix[131]
p2023
(dp2024
g3
I00
sg4
Vmatrix
p2025
sg6
I00
sg7
(lp2026
ssVworldMatrix[448]
p2027
(dp2028
g3
I00
sg4
Vmatrix
p2029
sg6
I00
sg7
(lp2030
ssVworldMatrix[454]
p2031
(dp2032
g3
I00
sg4
Vmatrix
p2033
sg6
I00
sg7
(lp2034
ssVworldMatrix[164]
p2035
(dp2036
g3
I00
sg4
Vmatrix
p2037
sg6
I00
sg7
(lp2038
ssVworldMatrix[386]
p2039
(dp2040
g3
I00
sg4
Vmatrix
p2041
sg6
I00
sg7
(lp2042
ssVworldMatrix[644]
p2043
(dp2044
g3
I00
sg4
Vmatrix
p2045
sg6
I00
sg7
(lp2046
ssVworldMatrix[296]
p2047
(dp2048
g3
I00
sg4
Vmatrix
p2049
sg6
I00
sg7
(lp2050
ssVworldMatrix[783]
p2051
(dp2052
g3
I00
sg4
Vmatrix
p2053
sg6
I00
sg7
(lp2054
ssVworldMatrix[611]
p2055
(dp2056
g3
I00
sg4
Vmatrix
p2057
sg6
I00
sg7
(lp2058
ssVworldMatrix[148]
p2059
(dp2060
g3
I00
sg4
Vmatrix
p2061
sg6
I00
sg7
(lp2062
ssVworldMatrix[499]
p2063
(dp2064
g3
I00
sg4
Vmatrix
p2065
sg6
I00
sg7
(lp2066
ssVworldMatrix[176]
p2067
(dp2068
g3
I00
sg4
Vmatrix
p2069
sg6
I00
sg7
(lp2070
ssVworldMatrix[420]
p2071
(dp2072
g3
I00
sg4
Vmatrix
p2073
sg6
I00
sg7
(lp2074
ssVworldMatrix[346]
p2075
(dp2076
g3
I00
sg4
Vmatrix
p2077
sg6
I00
sg7
(lp2078
ssVworldMatrix[684]
p2079
(dp2080
g3
I00
sg4
Vmatrix
p2081
sg6
I00
sg7
(lp2082
ssVworldMatrix[256]
p2083
(dp2084
g3
I00
sg4
Vmatrix
p2085
sg6
I00
sg7
(lp2086
ssVworldMatrix[27]
p2087
(dp2088
g3
I00
sg4
Vmatrix
p2089
sg6
I00
sg7
(lp2090
ssVworldMatrix[659]
p2091
(dp2092
g3
I00
sg4
Vmatrix
p2093
sg6
I00
sg7
(lp2094
ssVworldMatrix[406]
p2095
(dp2096
g3
I00
sg4
Vmatrix
p2097
sg6
I00
sg7
(lp2098
ssVworldMatrix[526]
p2099
(dp2100
g3
I00
sg4
Vmatrix
p2101
sg6
I00
sg7
(lp2102
ssVworldMatrix[756]
p2103
(dp2104
g3
I00
sg4
Vmatrix
p2105
sg6
I00
sg7
(lp2106
ssVworldMatrix[476]
p2107
(dp2108
g3
I00
sg4
Vmatrix
p2109
sg6
I00
sg7
(lp2110
ssVworldMatrix[578]
p2111
(dp2112
g3
I00
sg4
Vmatrix
p2113
sg6
I00
sg7
(lp2114
ssVworldMatrix[121]
p2115
(dp2116
g3
I00
sg4
Vmatrix
p2117
sg6
I00
sg7
(lp2118
ssVworldMatrix[385]
p2119
(dp2120
g3
I00
sg4
Vmatrix
p2121
sg6
I00
sg7
(lp2122
ssVworldMatrix[583]
p2123
(dp2124
g3
I00
sg4
Vmatrix
p2125
sg6
I00
sg7
(lp2126
ssVworldMatrix[505]
p2127
(dp2128
g3
I00
sg4
Vmatrix
p2129
sg6
I00
sg7
(lp2130
ssVworldMatrix[58]
p2131
(dp2132
g3
I00
sg4
Vmatrix
p2133
sg6
I00
sg7
(lp2134
ssVworldMatrix[776]
p2135
(dp2136
g3
I00
sg4
Vmatrix
p2137
sg6
I00
sg7
(lp2138
ssVworldMatrix[392]
p2139
(dp2140
g3
I00
sg4
Vmatrix
p2141
sg6
I00
sg7
(lp2142
ssVworldMatrix[760]
p2143
(dp2144
g3
I00
sg4
Vmatrix
p2145
sg6
I00
sg7
(lp2146
ssVworldMatrix[534]
p2147
(dp2148
g3
I00
sg4
Vmatrix
p2149
sg6
I00
sg7
(lp2150
ssVworldMatrix[53]
p2151
(dp2152
g3
I00
sg4
Vmatrix
p2153
sg6
I00
sg7
(lp2154
ssVworldMatrix[186]
p2155
(dp2156
g3
I00
sg4
Vmatrix
p2157
sg6
I00
sg7
(lp2158
ssVworldMatrix[203]
p2159
(dp2160
g3
I00
sg4
Vmatrix
p2161
sg6
I00
sg7
(lp2162
ssVworldMatrix[559]
p2163
(dp2164
g3
I00
sg4
Vmatrix
p2165
sg6
I00
sg7
(lp2166
ssVworldMatrix[624]
p2167
(dp2168
g3
I00
sg4
Vmatrix
p2169
sg6
I00
sg7
(lp2170
ssVworldMatrix[593]
p2171
(dp2172
g3
I00
sg4
Vmatrix
p2173
sg6
I00
sg7
(lp2174
ssVworldMatrix[459]
p2175
(dp2176
g3
I00
sg4
Vmatrix
p2177
sg6
I00
sg7
(lp2178
ssVworldMatrix[92]
p2179
(dp2180
g3
I00
sg4
Vmatrix
p2181
sg6
I00
sg7
(lp2182
ssVworldMatrix[636]
p2183
(dp2184
g3
I00
sg4
Vmatrix
p2185
sg6
I00
sg7
(lp2186
ssVworldMatrix[213]
p2187
(dp2188
g3
I00
sg4
Vmatrix
p2189
sg6
I00
sg7
(lp2190
ssVworldMatrix[660]
p2191
(dp2192
g3
I00
sg4
Vmatrix
p2193
sg6
I00
sg7
(lp2194
ssVworldMatrix[469]
p2195
(dp2196
g3
I00
sg4
Vmatrix
p2197
sg6
I00
sg7
(lp2198
ssVworldMatrix[198]
p2199
(dp2200
g3
I00
sg4
Vmatrix
p2201
sg6
I00
sg7
(lp2202
ssVworldMatrix[10]
p2203
(dp2204
g3
I00
sg4
Vmatrix
p2205
sg6
I00
sg7
(lp2206
ssVworldMatrix[574]
p2207
(dp2208
g3
I00
sg4
Vmatrix
p2209
sg6
I00
sg7
(lp2210
ssVworldMatrix[150]
p2211
(dp2212
g3
I00
sg4
Vmatrix
p2213
sg6
I00
sg7
(lp2214
ssVworldMatrix[516]
p2215
(dp2216
g3
I00
sg4
Vmatrix
p2217
sg6
I00
sg7
(lp2218
ssVworldMatrix[508]
p2219
(dp2220
g3
I00
sg4
Vmatrix
p2221
sg6
I00
sg7
(lp2222
ssVworldMatrix[146]
p2223
(dp2224
g3
I00
sg4
Vmatrix
p2225
sg6
I00
sg7
(lp2226
ssVworldMatrix[3]
p2227
(dp2228
g11
I00
sg4
Vmatrix
p2229
sg13
(lp2230
sg6
I00
sg7
(lp2231
ssVworldMatrix[85]
p2232
(dp2233
g3
I00
sg4
Vmatrix
p2234
sg6
I00
sg7
(lp2235
ssVworldMatrix[704]
p2236
(dp2237
g3
I00
sg4
Vmatrix
p2238
sg6
I00
sg7
(lp2239
ssVworldMatrix[126]
p2240
(dp2241
g3
I00
sg4
Vmatrix
p2242
sg6
I00
sg7
(lp2243
ssVworldMatrix[564]
p2244
(dp2245
g3
I00
sg4
Vmatrix
p2246
sg6
I00
sg7
(lp2247
ssVworldMatrix[545]
p2248
(dp2249
g3
I00
sg4
Vmatrix
p2250
sg6
I00
sg7
(lp2251
ssVworldMatrix[728]
p2252
(dp2253
g3
I00
sg4
Vmatrix
p2254
sg6
I00
sg7
(lp2255
ssVworldMatrix[222]
p2256
(dp2257
g3
I00
sg4
Vmatrix
p2258
sg6
I00
sg7
(lp2259
ssVworldMatrix[431]
p2260
(dp2261
g3
I00
sg4
Vmatrix
p2262
sg6
I00
sg7
(lp2263
ssVworldMatrix[61]
p2264
(dp2265
g3
I00
sg4
Vmatrix
p2266
sg6
I00
sg7
(lp2267
ssVworldMatrix[716]
p2268
(dp2269
g3
I00
sg4
Vmatrix
p2270
sg6
I00
sg7
(lp2271
ssVworldMatrix[331]
p2272
(dp2273
g3
I00
sg4
Vmatrix
p2274
sg6
I00
sg7
(lp2275
ssVworldMatrix[214]
p2276
(dp2277
g3
I00
sg4
Vmatrix
p2278
sg6
I00
sg7
(lp2279
ssVworldMatrix[807]
p2280
(dp2281
g3
I00
sg4
Vmatrix
p2282
sg6
I00
sg7
(lp2283
ssVworldMatrix[75]
p2284
(dp2285
g3
I00
sg4
Vmatrix
p2286
sg6
I00
sg7
(lp2287
ssVworldMatrix[118]
p2288
(dp2289
g3
I00
sg4
Vmatrix
p2290
sg6
I00
sg7
(lp2291
ssVworldMatrix[263]
p2292
(dp2293
g3
I00
sg4
Vmatrix
p2294
sg6
I00
sg7
(lp2295
ssVworldMatrix[622]
p2296
(dp2297
g3
I00
sg4
Vmatrix
p2298
sg6
I00
sg7
(lp2299
ssVworldMatrix[32]
p2300
(dp2301
g3
I00
sg4
Vmatrix
p2302
sg6
I00
sg7
(lp2303
ssVworldMatrix[291]
p2304
(dp2305
g3
I00
sg4
Vmatrix
p2306
sg6
I00
sg7
(lp2307
ssVworldMatrix[614]
p2308
(dp2309
g3
I00
sg4
Vmatrix
p2310
sg6
I00
sg7
(lp2311
ssVworldMatrix[641]
p2312
(dp2313
g3
I00
sg4
Vmatrix
p2314
sg6
I00
sg7
(lp2315
ssVworldMatrix[342]
p2316
(dp2317
g3
I00
sg4
Vmatrix
p2318
sg6
I00
sg7
(lp2319
ssVworldMatrix[680]
p2320
(dp2321
g3
I00
sg4
Vmatrix
p2322
sg6
I00
sg7
(lp2323
ssVworldMatrix[252]
p2324
(dp2325
g3
I00
sg4
Vmatrix
p2326
sg6
I00
sg7
(lp2327
ssVworldMatrix[741]
p2328
(dp2329
g3
I00
sg4
Vmatrix
p2330
sg6
I00
sg7
(lp2331
ssVworldMatrix[24]
p2332
(dp2333
g3
I00
sg4
Vmatrix
p2334
sg6
I00
sg7
(lp2335
ssVworldMatrix[794]
p2336
(dp2337
g3
I00
sg4
Vmatrix
p2338
sg6
I00
sg7
(lp2339
ssVworldMatrix[104]
p2340
(dp2341
g3
I00
sg4
Vmatrix
p2342
sg6
I00
sg7
(lp2343
ssVworldMatrix[80]
p2344
(dp2345
g3
I00
sg4
Vmatrix
p2346
sg6
I00
sg7
(lp2347
ssVworldMatrix[494]
p2348
(dp2349
g3
I00
sg4
Vmatrix
p2350
sg6
I00
sg7
(lp2351
ssVworldMatrix[507]
p2352
(dp2353
g3
I00
sg4
Vmatrix
p2354
sg6
I00
sg7
(lp2355
ssVworldMatrix[173]
p2356
(dp2357
g3
I00
sg4
Vmatrix
p2358
sg6
I00
sg7
(lp2359
ssVworldMatrix[132]
p2360
(dp2361
g3
I00
sg4
Vmatrix
p2362
sg6
I00
sg7
(lp2363
ssVworldMatrix[285]
p2364
(dp2365
g3
I00
sg4
Vmatrix
p2366
sg6
I00
sg7
(lp2367
ssVworldMatrix[602]
p2368
(dp2369
g3
I00
sg4
Vmatrix
p2370
sg6
I00
sg7
(lp2371
ssVworldMatrix[689]
p2372
(dp2373
g3
I00
sg4
Vmatrix
p2374
sg6
I00
sg7
(lp2375
ssVworldMatrix[544]
p2376
(dp2377
g3
I00
sg4
Vmatrix
p2378
sg6
I00
sg7
(lp2379
ssVworldMatrix[298]
p2380
(dp2381
g3
I00
sg4
Vmatrix
p2382
sg6
I00
sg7
(lp2383
ssVworldMatrix[245]
p2384
(dp2385
g3
I00
sg4
Vmatrix
p2386
sg6
I00
sg7
(lp2387
ssVworldMatrix[430]
p2388
(dp2389
g3
I00
sg4
Vmatrix
p2390
sg6
I00
sg7
(lp2391
ssVworldMatrix[345]
p2392
(dp2393
g3
I00
sg4
Vmatrix
p2394
sg6
I00
sg7
(lp2395
ssVworldMatrix[259]
p2396
(dp2397
g3
I00
sg4
Vmatrix
p2398
sg6
I00
sg7
(lp2399
ssVworldMatrix[639]
p2400
(dp2401
g3
I00
sg4
Vmatrix
p2402
sg6
I00
sg7
(lp2403
ssVworldMatrix[450]
p2404
(dp2405
g3
I00
sg4
Vmatrix
p2406
sg6
I00
sg7
(lp2407
ssVworldMatrix[664]
p2408
(dp2409
g3
I00
sg4
Vmatrix
p2410
sg6
I00
sg7
(lp2411
ssVworldMatrix[411]
p2412
(dp2413
g3
I00
sg4
Vmatrix
p2414
sg6
I00
sg7
(lp2415
ssVworldMatrix[372]
p2416
(dp2417
g3
I00
sg4
Vmatrix
p2418
sg6
I00
sg7
(lp2419
ssVworldMatrix[364]
p2420
(dp2421
g3
I00
sg4
Vmatrix
p2422
sg6
I00
sg7
(lp2423
ssVworldMatrix[726]
p2424
(dp2425
g3
I00
sg4
Vmatrix
p2426
sg6
I00
sg7
(lp2427
ssVworldMatrix[821]
p2428
(dp2429
g3
I00
sg6
I00
sg7
(lp2430
ssVworldMatrix[798]
p2431
(dp2432
g3
I00
sg4
Vmatrix
p2433
sg6
I00
sg7
(lp2434
ssVworldMatrix[746]
p2435
(dp2436
g3
I00
sg4
Vmatrix
p2437
sg6
I00
sg7
(lp2438
ssVworldMatrix[656]
p2439
(dp2440
g3
I00
sg4
Vmatrix
p2441
sg6
I00
sg7
(lp2442
ssVworldMatrix[594]
p2443
(dp2444
g3
I00
sg4
Vmatrix
p2445
sg6
I00
sg7
(lp2446
ssVworldMatrix[691]
p2447
(dp2448
g3
I00
sg4
Vmatrix
p2449
sg6
I00
sg7
(lp2450
ssVworldMatrix[790]
p2451
(dp2452
g3
I00
sg4
Vmatrix
p2453
sg6
I00
sg7
(lp2454
ssVworldMatrix[160]
p2455
(dp2456
g3
I00
sg4
Vmatrix
p2457
sg6
I00
sg7
(lp2458
ssVworldMatrix[191]
p2459
(dp2460
g3
I00
sg4
Vmatrix
p2461
sg6
I00
sg7
(lp2462
ssVworldMatrix[402]
p2463
(dp2464
g3
I00
sg4
Vmatrix
p2465
sg6
I00
sg7
(lp2466
ssVworldMatrix[303]
p2467
(dp2468
g3
I00
sg4
Vmatrix
p2469
sg6
I00
sg7
(lp2470
ssVworldMatrix[40]
p2471
(dp2472
g3
I00
sg4
Vmatrix
p2473
sg6
I00
sg7
(lp2474
ssVworldMatrix[696]
p2475
(dp2476
g3
I00
sg4
Vmatrix
p2477
sg6
I00
sg7
(lp2478
ssVworldMatrix[528]
p2479
(dp2480
g3
I00
sg4
Vmatrix
p2481
sg6
I00
sg7
(lp2482
ssVworldMatrix[418]
p2483
(dp2484
g3
I00
sg4
Vmatrix
p2485
sg6
I00
sg7
(lp2486
ssVworldMatrix[125]
p2487
(dp2488
g3
I00
sg4
Vmatrix
p2489
sg6
I00
sg7
(lp2490
ssVworldMatrix[563]
p2491
(dp2492
g3
I00
sg4
Vmatrix
p2493
sg6
I00
sg7
(lp2494
ssVworldMatrix[748]
p2495
(dp2496
g3
I00
sg4
Vmatrix
p2497
sg6
I00
sg7
(lp2498
ssVworldMatrix[600]
p2499
(dp2500
g3
I00
sg4
Vmatrix
p2501
sg6
I00
sg7
(lp2502
ssVworldMatrix[218]
p2503
(dp2504
g3
I00
sg4
Vmatrix
p2505
sg6
I00
sg7
(lp2506
ssVworldMatrix[155]
p2507
(dp2508
g3
I00
sg4
Vmatrix
p2509
sg6
I00
sg7
(lp2510
ssVworldMatrix[764]
p2511
(dp2512
g3
I00
sg4
Vmatrix
p2513
sg6
I00
sg7
(lp2514
ssVworldMatrix[538]
p2515
(dp2516
g3
I00
sg4
Vmatrix
p2517
sg6
I00
sg7
(lp2518
ssVworldMatrix[713]
p2519
(dp2520
g3
I00
sg4
Vmatrix
p2521
sg6
I00
sg7
(lp2522
ssVworldMatrix[789]
p2523
(dp2524
g3
I00
sg4
Vmatrix
p2525
sg6
I00
sg7
(lp2526
ssVworldMatrix[489]
p2527
(dp2528
g3
I00
sg4
Vmatrix
p2529
sg6
I00
sg7
(lp2530
ssVworldMatrix[752]
p2531
(dp2532
g3
I00
sg4
Vmatrix
p2533
sg6
I00
sg7
(lp2534
ssVworldMatrix[472]
p2535
(dp2536
g3
I00
sg4
Vmatrix
p2537
sg6
I00
sg7
(lp2538
ssVworldMatrix[428]
p2539
(dp2540
g3
I00
sg4
Vmatrix
p2541
sg6
I00
sg7
(lp2542
ssVworldMatrix[632]
p2543
(dp2544
g3
I00
sg4
Vmatrix
p2545
sg6
I00
sg7
(lp2546
ssVworldMatrix[217]
p2547
(dp2548
g3
I00
sg4
Vmatrix
p2549
sg6
I00
sg7
(lp2550
ssVworldMatrix[800]
p2551
(dp2552
g3
I00
sg4
Vmatrix
p2553
sg6
I00
sg7
(lp2554
ssVworldMatrix[14]
p2555
(dp2556
g3
I00
sg4
Vmatrix
p2557
sg6
I00
sg7
(lp2558
ssVworldMatrix[113]
p2559
(dp2560
g3
I00
sg4
Vmatrix
p2561
sg6
I00
sg7
(lp2562
ssVworldMatrix[403]
p2563
(dp2564
g3
I00
sg4
Vmatrix
p2565
sg6
I00
sg7
(lp2566
ssVworldMatrix[227]
p2567
(dp2568
g3
I00
sg4
Vmatrix
p2569
sg6
I00
sg7
(lp2570
ssVworldMatrix[78]
p2571
(dp2572
g3
I00
sg4
Vmatrix
p2573
sg6
I00
sg7
(lp2574
ssVworldMatrix[207]
p2575
(dp2576
g3
I00
sg4
Vmatrix
p2577
sg6
I00
sg7
(lp2578
ssVworldMatrix[66]
p2579
(dp2580
g3
I00
sg4
Vmatrix
p2581
sg6
I00
sg7
(lp2582
ssVworldMatrix[229]
p2583
(dp2584
g3
I00
sg4
Vmatrix
p2585
sg6
I00
sg7
(lp2586
ssVworldMatrix[142]
p2587
(dp2588
g3
I00
sg4
Vmatrix
p2589
sg6
I00
sg7
(lp2590
ssVworldMatrix[103]
p2591
(dp2592
g3
I00
sg4
Vmatrix
p2593
sg6
I00
sg7
(lp2594
ssVworldMatrix[235]
p2595
(dp2596
g3
I00
sg4
Vmatrix
p2597
sg6
I00
sg7
(lp2598
ssVworldMatrix[523]
p2599
(dp2600
g3
I00
sg4
Vmatrix
p2601
sg6
I00
sg7
(lp2602
ssVworldMatrix[178]
p2603
(dp2604
g3
I00
sg4
Vmatrix
p2605
sg6
I00
sg7
(lp2606
ssVworldMatrix[744]
p2607
(dp2608
g3
I00
sg4
Vmatrix
p2609
sg6
I00
sg7
(lp2610
ssVworldMatrix[512]
p2611
(dp2612
g3
I00
sg4
Vmatrix
p2613
sg6
I00
sg7
(lp2614
ssVworldMatrix[7]
p2615
(dp2616
g3
I00
sg4
Vmatrix
p2617
sg6
I00
sg7
(lp2618
ssVworldMatrix[81]
p2619
(dp2620
g3
I00
sg4
Vmatrix
p2621
sg6
I00
sg7
(lp2622
ssVworldMatrix[416]
p2623
(dp2624
g3
I00
sg4
Vmatrix
p2625
sg6
I00
sg7
(lp2626
ssVworldMatrix[335]
p2627
(dp2628
g3
I00
sg4
Vmatrix
p2629
sg6
I00
sg7
(lp2630
ssVworldMatrix[552]
p2631
(dp2632
g3
I00
sg4
Vmatrix
p2633
sg6
I00
sg7
(lp2634
ssVworldMatrix[480]
p2635
(dp2636
g3
I00
sg4
Vmatrix
p2637
sg6
I00
sg7
(lp2638
ssVworldMatrix[71]
p2639
(dp2640
g3
I00
sg4
Vmatrix
p2641
sg6
I00
sg7
(lp2642
ssVworldMatrix[86]
p2643
(dp2644
g3
I00
sg4
Vmatrix
p2645
sg6
I00
sg7
(lp2646
ssVworldMatrix[321]
p2647
(dp2648
g3
I00
sg4
Vmatrix
p2649
sg6
I00
sg7
(lp2650
ssVworldMatrix[588]
p2651
(dp2652
g3
I00
sg4
Vmatrix
p2653
sg6
I00
sg7
(lp2654
ssVworldMatrix[267]
p2655
(dp2656
g3
I00
sg4
Vmatrix
p2657
sg6
I00
sg7
(lp2658
ssVworldMatrix[813]
p2659
(dp2660
g3
I00
sg4
Vmatrix
p2661
sg6
I00
sg7
(lp2662
ssVworldMatrix[277]
p2663
(dp2664
g3
I00
sg4
Vmatrix
p2665
sg6
I00
sg7
(lp2666
ssVworldMatrix[700]
p2667
(dp2668
g3
I00
sg4
Vmatrix
p2669
sg6
I00
sg7
(lp2670
ssVworldMatrix[745]
p2671
(dp2672
g3
I00
sg4
Vmatrix
p2673
sg6
I00
sg7
(lp2674
ssVworldMatrix[447]
p2675
(dp2676
g3
I00
sg4
Vmatrix
p2677
sg6
I00
sg7
(lp2678
ssVworldMatrix[651]
p2679
(dp2680
g3
I00
sg4
Vmatrix
p2681
sg6
I00
sg7
(lp2682
ssVworldMatrix[307]
p2683
(dp2684
g3
I00
sg4
Vmatrix
p2685
sg6
I00
sg7
(lp2686
ssVworldMatrix[669]
p2687
(dp2688
g3
I00
sg4
Vmatrix
p2689
sg6
I00
sg7
(lp2690
ssVworldMatrix[558]
p2691
(dp2692
g3
I00
sg4
Vmatrix
p2693
sg6
I00
sg7
(lp2694
ssVworldMatrix[457]
p2695
(dp2696
g3
I00
sg4
Vmatrix
p2697
sg6
I00
sg7
(lp2698
ssVworldMatrix[377]
p2699
(dp2700
g3
I00
sg4
Vmatrix
p2701
sg6
I00
sg7
(lp2702
ssVworldMatrix[36]
p2703
(dp2704
g3
I00
sg4
Vmatrix
p2705
sg6
I00
sg7
(lp2706
ssVworldMatrix[735]
p2707
(dp2708
g3
I00
sg4
Vmatrix
p2709
sg6
I00
sg7
(lp2710
ssVworldMatrix[167]
p2711
(dp2712
g3
I00
sg4
Vmatrix
p2713
sg6
I00
sg7
(lp2714
ssVworldMatrix[389]
p2715
(dp2716
g3
I00
sg4
Vmatrix
p2717
sg6
I00
sg7
(lp2718
ssVworldMatrix[295]
p2719
(dp2720
g3
I00
sg4
Vmatrix
p2721
sg6
I00
sg7
(lp2722
ssVworldMatrix[610]
p2723
(dp2724
g3
I00
sg4
Vmatrix
p2725
sg6
I00
sg7
(lp2726
ssVworldMatrix[645]
p2727
(dp2728
g3
I00
sg4
Vmatrix
p2729
sg6
I00
sg7
(lp2730
ssVworldMatrix[438]
p2731
(dp2732
g3
I00
sg4
Vmatrix
p2733
sg6
I00
sg7
(lp2734
ssVworldMatrix[378]
p2735
(dp2736
g3
I00
sg4
Vmatrix
p2737
sg6
I00
sg7
(lp2738
ssVworldMatrix[429]
p2739
(dp2740
g3
I00
sg4
Vmatrix
p2741
sg6
I00
sg7
(lp2742
ssVworldMatrix[498]
p2743
(dp2744
g3
I00
sg4
Vmatrix
p2745
sg6
I00
sg7
(lp2746
ssVworldMatrix[177]
p2747
(dp2748
g3
I00
sg4
Vmatrix
p2749
sg6
I00
sg7
(lp2750
ssVworldMatrix[341]
p2751
(dp2752
g3
I00
sg4
Vmatrix
p2753
sg6
I00
sg7
(lp2754
ssVworldMatrix[255]
p2755
(dp2756
g3
I00
sg4
Vmatrix
p2757
sg6
I00
sg7
(lp2758
ssVworldMatrix[658]
p2759
(dp2760
g3
I00
sg4
Vmatrix
p2761
sg6
I00
sg7
(lp2762
ssVworldMatrix[685]
p2763
(dp2764
g3
I00
sg4
Vmatrix
p2765
sg6
I00
sg7
(lp2766
ssVworldMatrix[551]
p2767
(dp2768
g3
I00
sg4
Vmatrix
p2769
sg6
I00
sg7
(lp2770
ssVworldMatrix[28]
p2771
(dp2772
g3
I00
sg4
Vmatrix
p2773
sg6
I00
sg7
(lp2774
ssVworldMatrix[785]
p2775
(dp2776
g3
I00
sg4
Vmatrix
p2777
sg6
I00
sg7
(lp2778
ssVworldMatrix[407]
p2779
(dp2780
g3
I00
sg4
Vmatrix
p2781
sg6
I00
sg7
(lp2782
ssVworldMatrix[699]
p2783
(dp2784
g3
I00
sg4
Vmatrix
p2785
sg6
I00
sg7
(lp2786
ssVworldMatrix[360]
p2787
(dp2788
g3
I00
sg4
Vmatrix
p2789
sg6
I00
sg7
(lp2790
ssVisHistoricallyInteresting
p2791
(dp2792
g11
I00
sg4
Vbyte
p2793
sg13
(lp2794
sg6
I00
sg7
(lp2795
ssVworldMatrix[722]
p2796
(dp2797
g3
I00
sg4
Vmatrix
p2798
sg6
I00
sg7
(lp2799
ssVworldMatrix[615]
p2800
(dp2801
g3
I00
sg4
Vmatrix
p2802
sg6
I00
sg7
(lp2803
ssVworldMatrix[531]
p2804
(dp2805
g3
I00
sg4
Vmatrix
p2806
sg6
I00
sg7
(lp2807
ssVworldMatrix[763]
p2808
(dp2809
g3
I00
sg4
Vmatrix
p2810
sg6
I00
sg7
(lp2811
ssVworldMatrix[397]
p2812
(dp2813
g3
I00
sg4
Vmatrix
p2814
sg6
I00
sg7
(lp2815
ssVworldMatrix[718]
p2816
(dp2817
g3
I00
sg4
Vmatrix
p2818
sg6
I00
sg7
(lp2819
ssVworldMatrix[525]
p2820
(dp2821
g3
I00
sg4
Vmatrix
p2822
sg6
I00
sg7
(lp2823
ssVworldMatrix[422]
p2824
(dp2825
g3
I00
sg4
Vmatrix
p2826
sg6
I00
sg7
(lp2827
ssVworldMatrix[409]
p2828
(dp2829
g3
I00
sg4
Vmatrix
p2830
sg6
I00
sg7
(lp2831
ssVworldMatrix[590]
p2832
(dp2833
g3
I00
sg4
Vmatrix
p2834
sg6
I00
sg7
(lp2835
ssVworldMatrix[809]
p2836
(dp2837
g3
I00
sg4
Nsg6
I00
sg7
(lp2838
ssVworldMatrix[635]
p2839
(dp2840
g3
I00
sg4
Vmatrix
p2841
sg6
I00
sg7
(lp2842
ssVworldMatrix[96]
p2843
(dp2844
g3
I00
sg4
Vmatrix
p2845
sg6
I00
sg7
(lp2846
ssVworldMatrix[415]
p2847
(dp2848
g3
I00
sg4
Vmatrix
p2849
sg6
I00
sg7
(lp2850
ssVworldMatrix[609]
p2851
(dp2852
g3
I00
sg4
Vmatrix
p2853
sg6
I00
sg7
(lp2854
ssVworldMatrix[435]
p2855
(dp2856
g3
I00
sg4
Vmatrix
p2857
sg6
I00
sg7
(lp2858
ssVworldMatrix[773]
p2859
(dp2860
g3
I00
sg4
Vmatrix
p2861
sg6
I00
sg7
(lp2862
ssVworldMatrix[586]
p2863
(dp2864
g3
I00
sg4
Vmatrix
p2865
sg6
I00
sg7
(lp2866
ssVworldMatrix[44]
p2867
(dp2868
g3
I00
sg4
Vmatrix
p2869
sg6
I00
sg7
(lp2870
ssVworldMatrix[195]
p2871
(dp2872
g3
I00
sg4
Vmatrix
p2873
sg6
I00
sg7
(lp2874
ssVworldMatrix[619]
p2875
(dp2876
g3
I00
sg4
Vmatrix
p2877
sg6
I00
sg7
(lp2878
ssVworldMatrix[782]
p2879
(dp2880
g3
I00
sg4
Vmatrix
p2881
sg6
I00
sg7
(lp2882
ssVworldMatrix[181]
p2883
(dp2884
g3
I00
sg4
Vmatrix
p2885
sg6
I00
sg7
(lp2886
ssVworldMatrix[621]
p2887
(dp2888
g3
I00
sg4
Vmatrix
p2889
sg6
I00
sg7
(lp2890
ssVworldMatrix[200]
p2891
(dp2892
g3
I00
sg4
Vmatrix
p2893
sg6
I00
sg7
(lp2894
ssVworldMatrix[555]
p2895
(dp2896
g3
I00
sg4
Vmatrix
p2897
sg6
I00
sg7
(lp2898
ssVworldMatrix[367]
p2899
(dp2900
g3
I00
sg4
Vmatrix
p2901
sg6
I00
sg7
(lp2902
ssVworldMatrix[56]
p2903
(dp2904
g3
I00
sg4
Vmatrix
p2905
sg6
I00
sg7
(lp2906
ssVworldMatrix[570]
p2907
(dp2908
g3
I00
sg4
Vmatrix
p2909
sg6
I00
sg7
(lp2910
ssVworldMatrix[679]
p2911
(dp2912
g3
I00
sg4
Vmatrix
p2913
sg6
I00
sg7
(lp2914
ssVworldMatrix[151]
p2915
(dp2916
g3
I00
sg4
Vmatrix
p2917
sg6
I00
sg7
(lp2918
ssVworldMatrix[110]
p2919
(dp2920
g3
I00
sg4
Vmatrix
p2921
sg6
I00
sg7
(lp2922
ssVworldMatrix[145]
p2923
(dp2924
g3
I00
sg4
Vmatrix
p2925
sg6
I00
sg7
(lp2926
ssVworldMatrix[273]
p2927
(dp2928
g3
I00
sg4
Vmatrix
p2929
sg6
I00
sg7
(lp2930
ssVworldMatrix[751]
p2931
(dp2932
g3
I00
sg4
Vmatrix
p2933
sg6
I00
sg7
(lp2934
ssVworldMatrix[707]
p2935
(dp2936
g3
I00
sg4
Vmatrix
p2937
sg6
I00
sg7
(lp2938
ssVworldMatrix[0]
p2939
(dp2940
g11
I00
sg4
Vmatrix
p2941
sg13
(lp2942
sg6
I00
sg7
(lp2943
ssVworldMatrix[82]
p2944
(dp2945
g3
I00
sg4
Vmatrix
p2946
sg6
I00
sg7
(lp2947
ssVworldMatrix[567]
p2948
(dp2949
g3
I00
sg4
Vmatrix
p2950
sg6
I00
sg7
(lp2951
ssVworldMatrix[517]
p2952
(dp2953
g3
I00
sg4
Vmatrix
p2954
sg6
I00
sg7
(lp2955
ssVworldMatrix[461]
p2956
(dp2957
g3
I00
sg4
Vmatrix
p2958
sg6
I00
sg7
(lp2959
ssVworldMatrix[223]
p2960
(dp2961
g3
I00
sg4
Vmatrix
p2962
sg6
I00
sg7
(lp2963
ssVworldMatrix[74]
p2964
(dp2965
g3
I00
sg4
Vmatrix
p2966
sg6
I00
sg7
(lp2967
ssVworldMatrix[62]
p2968
(dp2969
g3
I00
sg4
Vmatrix
p2970
sg6
I00
sg7
(lp2971
ssVworldMatrix[717]
p2972
(dp2973
g3
I00
sg4
Vmatrix
p2974
sg6
I00
sg7
(lp2975
ssVworldMatrix[332]
p2976
(dp2977
g3
I00
sg4
Vmatrix
p2978
sg6
I00
sg7
(lp2979
ssVworldMatrix[485]
p2980
(dp2981
g3
I00
sg4
Vmatrix
p2982
sg6
I00
sg7
(lp2983
ssVworldMatrix[546]
p2984
(dp2985
g3
I00
sg4
Vmatrix
p2986
sg6
I00
sg7
(lp2987
ssVworldMatrix[518]
p2988
(dp2989
g3
I00
sg4
Vmatrix
p2990
sg6
I00
sg7
(lp2991
ssVworldMatrix[804]
p2992
(dp2993
g3
I00
sg4
Vmatrix
p2994
sg6
I00
sg7
(lp2995
ssVworldMatrix[260]
p2996
(dp2997
g3
I00
sg4
Vmatrix
p2998
sg6
I00
sg7
(lp2999
ssVworldMatrix[464]
p3000
(dp3001
g3
I00
sg4
Vmatrix
p3002
sg6
I00
sg7
(lp3003
ssVworldMatrix[692]
p3004
(dp3005
g3
I00
sg4
Vmatrix
p3006
sg6
I00
sg7
(lp3007
ssVworldMatrix[119]
p3008
(dp3009
g3
I00
sg4
Vmatrix
p3010
sg6
I00
sg7
(lp3011
ssVworldMatrix[21]
p3012
(dp3013
g3
I00
sg4
Vmatrix
p3014
sg6
I00
sg7
(lp3015
ssVworldMatrix[282]
p3016
(dp3017
g3
I00
sg4
Vmatrix
p3018
sg6
I00
sg7
(lp3019
ssVworldMatrix[607]
p3020
(dp3021
g3
I00
sg4
Vmatrix
p3022
sg6
I00
sg7
(lp3023
ssVworldMatrix[137]
p3024
(dp3025
g3
I00
sg4
Vmatrix
p3026
sg6
I00
sg7
(lp3027
ssVworldMatrix[688]
p3028
(dp3029
g3
I00
sg4
Vmatrix
p3030
sg6
I00
sg7
(lp3031
ssVworldMatrix[355]
p3032
(dp3033
g3
I00
sg4
Vmatrix
p3034
sg6
I00
sg7
(lp3035
ssVworldMatrix[241]
p3036
(dp3037
g3
I00
sg4
Vmatrix
p3038
sg6
I00
sg7
(lp3039
ssVworldMatrix[617]
p3040
(dp3041
g3
I00
sg4
Vmatrix
p3042
sg6
I00
sg7
(lp3043
ssVworldMatrix[380]
p3044
(dp3045
g3
I00
sg4
Vmatrix
p3046
sg6
I00
sg7
(lp3047
ssVworldMatrix[117]
p3048
(dp3049
g3
I00
sg4
Vmatrix
p3050
sg6
I00
sg7
(lp3051
ssVworldMatrix[107]
p3052
(dp3053
g3
I00
sg4
Vmatrix
p3054
sg6
I00
sg7
(lp3055
ssVworldMatrix[278]
p3056
(dp3057
g3
I00
sg4
Vmatrix
p3058
sg6
I00
sg7
(lp3059
ssVworldMatrix[493]
p3060
(dp3061
g3
I00
sg4
Vmatrix
p3062
sg6
I00
sg7
(lp3063
ssVworldMatrix[677]
p3064
(dp3065
g3
I00
sg4
Vmatrix
p3066
sg6
I00
sg7
(lp3067
ssVworldMatrix[579]
p3068
(dp3069
g3
I00
sg4
Vmatrix
p3070
sg6
I00
sg7
(lp3071
ssVworldMatrix[315]
p3072
(dp3073
g3
I00
sg4
Vmatrix
p3074
sg6
I00
sg7
(lp3075
ssVworldMatrix[158]
p3076
(dp3077
g3
I00
sg4
Vmatrix
p3078
sg6
I00
sg7
(lp3079
ssVworldMatrix[309]
p3080
(dp3081
g3
I00
sg4
Vmatrix
p3082
sg6
I00
sg7
(lp3083
ssVworldMatrix[425]
p3084
(dp3085
g3
I00
sg4
Vmatrix
p3086
sg6
I00
sg7
(lp3087
ssVworldMatrix[421]
p3088
(dp3089
g3
I00
sg4
Vmatrix
p3090
sg6
I00
sg7
(lp3091
ssVworldMatrix[230]
p3092
(dp3093
g3
I00
sg4
Vmatrix
p3094
sg6
I00
sg7
(lp3095
ssVworldMatrix[738]
p3096
(dp3097
g3
I00
sg4
Vmatrix
p3098
sg6
I00
sg7
(lp3099
ssVworldMatrix[352]
p3100
(dp3101
g3
I00
sg4
Vmatrix
p3102
sg6
I00
sg7
(lp3103
ssVworldMatrix[325]
p3104
(dp3105
g3
I00
sg4
Vmatrix
p3106
sg6
I00
sg7
(lp3107
ssVworldMatrix[373]
p3108
(dp3109
g3
I00
sg4
Vmatrix
p3110
sg6
I00
sg7
(lp3111
ssVworldMatrix[638]
p3112
(dp3113
g3
I00
sg4
Vmatrix
p3114
sg6
I00
sg7
(lp3115
ssVworldMatrix[770]
p3116
(dp3117
g3
I00
sg4
Vmatrix
p3118
sg6
I00
sg7
(lp3119
ssVworldMatrix[410]
p3120
(dp3121
g3
I00
sg4
Vmatrix
p3122
sg6
I00
sg7
(lp3123
ssVworldMatrix[363]
p3124
(dp3125
g3
I00
sg4
Vmatrix
p3126
sg6
I00
sg7
(lp3127
ssVworldMatrix[725]
p3128
(dp3129
g3
I00
sg4
Vmatrix
p3130
sg6
I00
sg7
(lp3131
ssVworldMatrix[532]
p3132
(dp3133
g3
I00
sg4
Vmatrix
p3134
sg6
I00
sg7
(lp3135
ssVworldMatrix[398]
p3136
(dp3137
g3
I00
sg4
Vmatrix
p3138
sg6
I00
sg7
(lp3139
ssVworldMatrix[95]
p3140
(dp3141
g3
I00
sg4
Vmatrix
p3142
sg6
I00
sg7
(lp3143
ssVworldMatrix[655]
p3144
(dp3145
g3
I00
sg4
Vmatrix
p3146
sg6
I00
sg7
(lp3147
ssVworldMatrix[665]
p3148
(dp3149
g3
I00
sg4
Vmatrix
p3150
sg6
I00
sg7
(lp3151
ssVworldMatrix[799]
p3152
(dp3153
g3
I00
sg4
Vmatrix
p3154
sg6
I00
sg7
(lp3155
ssVworldMatrix[595]
p3156
(dp3157
g3
I00
sg4
Vmatrix
p3158
sg6
I00
sg7
(lp3159
ssVworldMatrix[453]
p3160
(dp3161
g3
I00
sg4
Vmatrix
p3162
sg6
I00
sg7
(lp3163
ssVworldMatrix[743]
p3164
(dp3165
g3
I00
sg4
Vmatrix
p3166
sg6
I00
sg7
(lp3167
ssVworldMatrix[163]
p3168
(dp3169
g3
I00
sg4
Vmatrix
p3170
sg6
I00
sg7
(lp3171
ssVworldMatrix[192]
p3172
(dp3173
g3
I00
sg4
Vmatrix
p3174
sg6
I00
sg7
(lp3175
ssVworldMatrix[436]
p3176
(dp3177
g3
I00
sg4
Vmatrix
p3178
sg6
I00
sg7
(lp3179
ssVworldMatrix[731]
p3180
(dp3181
g3
I00
sg4
Vmatrix
p3182
sg6
I00
sg7
(lp3183
ssVworldMatrix[781]
p3184
(dp3185
g3
I00
sg4
Vmatrix
p3186
sg6
I00
sg7
(lp3187
ssVworldMatrix[55]
p3188
(dp3189
g3
I00
sg4
Vmatrix
p3190
sg6
I00
sg7
(lp3191
ssVworldMatrix[695]
p3192
(dp3193
g3
I00
sg4
Vmatrix
p3194
sg6
I00
sg7
(lp3195
ssVworldMatrix[374]
p3196
(dp3197
g3
I00
sg4
Vmatrix
p3198
sg6
I00
sg7
(lp3199
ssVworldMatrix[41]
p3200
(dp3201
g3
I00
sg4
Vmatrix
p3202
sg6
I00
sg7
(lp3203
ssVworldMatrix[779]
p3204
(dp3205
g3
I00
sg4
Vmatrix
p3206
sg6
I00
sg7
(lp3207
ssVworldMatrix[521]
p3208
(dp3209
g3
I00
sg4
Vmatrix
p3210
sg6
I00
sg7
(lp3211
ssVworldMatrix[475]
p3212
(dp3213
g3
I00
sg4
Vmatrix
p3214
sg6
I00
sg7
(lp3215
ssVworldMatrix[757]
p3216
(dp3217
g3
I00
sg4
Vmatrix
p3218
sg6
I00
sg7
(lp3219
ssVworldMatrix[120]
p3220
(dp3221
g3
I00
sg4
Vmatrix
p3222
sg6
I00
sg7
(lp3223
ssVworldMatrix[777]
p3224
(dp3225
g3
I00
sg4
Vmatrix
p3226
sg6
I00
sg7
(lp3227
ssVworldMatrix[819]
p3228
(dp3229
g3
I00
sg4
Vmatrix
p3230
sg6
I00
sg7
(lp3231
ssVworldMatrix[582]
p3232
(dp3233
g3
I00
sg4
Vmatrix
p3234
sg6
I00
sg7
(lp3235
ssVworldMatrix[535]
p3236
(dp3237
g3
I00
sg4
Vmatrix
p3238
sg6
I00
sg7
(lp3239
ssVworldMatrix[767]
p3240
(dp3241
g3
I00
sg4
Vmatrix
p3242
sg6
I00
sg7
(lp3243
ssVworldMatrix[393]
p3244
(dp3245
g3
I00
sg4
Vmatrix
p3246
sg6
I00
sg7
(lp3247
ssVworldMatrix[460]
p3248
(dp3249
g3
I00
sg4
Vmatrix
p3250
sg6
I00
sg7
(lp3251
ssVworldMatrix[625]
p3252
(dp3253
g3
I00
sg4
Vmatrix
p3254
sg6
I00
sg7
(lp3255
ssVworldMatrix[204]
p3256
(dp3257
g3
I00
sg4
Vmatrix
p3258
sg6
I00
sg7
(lp3259
ssVworldMatrix[350]
p3260
(dp3261
g3
I00
sg4
Vmatrix
p3262
sg6
I00
sg7
(lp3263
ssVworldMatrix[814]
p3264
(dp3265
g3
I00
sg4
Vmatrix
p3266
sg6
I00
sg7
(lp3267
ssVworldMatrix[52]
p3268
(dp3269
g3
I00
sg4
Vmatrix
p3270
sg6
I00
sg7
(lp3271
ssVworldMatrix[631]
p3272
(dp3273
g3
I00
sg4
Vmatrix
p3274
sg6
I00
sg7
(lp3275
ssVworldMatrix[458]
p3276
(dp3277
g3
I00
sg4
Vmatrix
p3278
sg6
I00
sg7
(lp3279
ssVworldMatrix[729]
p3280
(dp3281
g3
I00
sg4
Vmatrix
p3282
sg6
I00
sg7
(lp3283
ssVworldMatrix[48]
p3284
(dp3285
g3
I00
sg4
Vmatrix
p3286
sg6
I00
sg7
(lp3287
ssVworldMatrix[212]
p3288
(dp3289
g3
I00
sg4
Vmatrix
p3290
sg6
I00
sg7
(lp3291
ssVworldMatrix[484]
p3292
(dp3293
g3
I00
sg4
Vmatrix
p3294
sg6
I00
sg7
(lp3295
ssVworldMatrix[575]
p3296
(dp3297
g3
I00
sg4
Vmatrix
p3298
sg6
I00
sg7
(lp3299
ssVworldMatrix[199]
p3300
(dp3301
g3
I00
sg4
Vmatrix
p3302
sg6
I00
sg7
(lp3303
ssVworldMatrix[13]
p3304
(dp3305
g3
I00
sg4
Vmatrix
p3306
sg6
I00
sg7
(lp3307
ssVworldMatrix[569]
p3308
(dp3309
g3
I00
sg4
Vmatrix
p3310
sg6
I00
sg7
(lp3311
ssVworldMatrix[185]
p3312
(dp3313
g3
I00
sg4
Vmatrix
p3314
sg6
I00
sg7
(lp3315
ss.