(dp0
VoutputTranslate
p1
(dp2
S'isArray'
p3
I00
sS'attrType'
p4
Vdouble3
p5
sS'isMulti'
p6
I00
sS'isCompound'
p7
I01
sS'isSimple'
p8
I01
sS'attrChildrenLongNames'
p9
(lp10
VoutputTranslate.outputTranslateX
p11
aVoutputTranslate.outputTranslateY
p12
aVoutputTranslate.outputTranslateZ
p13
assVoutputShear
p14
(dp15
g3
I00
sg4
Vdouble3
p16
sg6
I00
sg7
I01
sg8
I01
sg9
(lp17
VoutputShear.outputShearX
p18
aVoutputShear.outputShearY
p19
aVoutputShear.outputShearZ
p20
assVoutputScale.outputScaleZ
p21
(dp22
g3
I00
sg4
Vdouble
p23
sg6
I00
sg7
I00
sg8
I01
sg9
(lp24
ssVoutputScale.outputScaleX
p25
(dp26
g3
I00
sg4
Vdouble
p27
sg6
I00
sg7
I00
sg8
I01
sg9
(lp28
ssVoutputScale.outputScaleY
p29
(dp30
g3
I00
sg4
Vdouble
p31
sg6
I00
sg7
I00
sg8
I01
sg9
(lp32
ssVisHistoricallyInteresting
p33
(dp34
g3
I00
sg6
I00
sg4
Vbyte
p35
sg8
I00
sg9
(lp36
ssg20
(dp37
g3
I00
sg4
Vdouble
p38
sg6
I00
sg7
I00
sg8
I01
sg9
(lp39
ssg18
(dp40
g3
I00
sg4
Vdouble
p41
sg6
I00
sg7
I00
sg8
I01
sg9
(lp42
ssg19
(dp43
g3
I00
sg4
Vdouble
p44
sg6
I00
sg7
I00
sg8
I01
sg9
(lp45
ssVbinMembership
p46
(dp47
g3
I00
sg4
Vstring
p48
sg6
I00
sg7
I00
sg8
I01
sg9
(lp49
ssVnodeState
p50
(dp51
g3
I00
sg4
Venum
p52
sg6
I00
sg7
I00
sg8
I01
sg9
(lp53
ssVinputRotateOrder
p54
(dp55
g3
I00
sg4
Venum
p56
sg6
I00
sg7
I00
sg8
I01
sg9
(lp57
ssVoutputScale
p58
(dp59
g3
I00
sg4
Vdouble3
p60
sg6
I00
sg7
I01
sg8
I01
sg9
(lp61
g25
ag29
ag21
assVinputMatrix
p62
(dp63
g3
I00
sg6
I00
sg4
Vmatrix
p64
sg8
I00
sg9
(lp65
ssVoutputRotate.outputRotateX
p66
(dp67
g3
I00
sg4
VdoubleAngle
p68
sg6
I00
sg7
I00
sg8
I01
sg9
(lp69
ssVoutputRotate.outputRotateY
p70
(dp71
g3
I00
sg4
VdoubleAngle
p72
sg6
I00
sg7
I00
sg8
I01
sg9
(lp73
ssVoutputRotate.outputRotateZ
p74
(dp75
g3
I00
sg4
VdoubleAngle
p76
sg6
I00
sg7
I00
sg8
I01
sg9
(lp77
ssVoutputQuat.outputQuatX
p78
(dp79
g3
I00
sg4
Vdouble
p80
sg6
I00
sg7
I00
sg8
I01
sg9
(lp81
ssVoutputQuat.outputQuatY
p82
(dp83
g3
I00
sg4
Vdouble
p84
sg6
I00
sg7
I00
sg8
I01
sg9
(lp85
ssVoutputQuat.outputQuatZ
p86
(dp87
g3
I00
sg4
Vdouble
p88
sg6
I00
sg7
I00
sg8
I01
sg9
(lp89
ssVoutputQuat
p90
(dp91
g3
I00
sg6
I00
sg4
VTdataCompound
p92
sg8
I00
sg9
(lp93
g78
ag82
ag86
aVoutputQuat.outputQuatW
p94
assg94
(dp95
g3
I00
sg4
Vdouble
p96
sg6
I00
sg7
I00
sg8
I01
sg9
(lp97
ssVcaching
p98
(dp99
g3
I00
sg4
Vbool
p100
sg6
I00
sg7
I00
sg8
I01
sg9
(lp101
ssVoutputRotate
p102
(dp103
g3
I00
sg4
Vdouble3
p104
sg6
I00
sg7
I01
sg8
I01
sg9
(lp105
g66
ag70
ag74
assg13
(dp106
g3
I00
sg4
VdoubleLinear
p107
sg6
I00
sg7
I00
sg8
I01
sg9
(lp108
ssg11
(dp109
g3
I00
sg4
VdoubleLinear
p110
sg6
I00
sg7
I00
sg8
I01
sg9
(lp111
ssg12
(dp112
g3
I00
sg4
VdoubleLinear
p113
sg6
I00
sg7
I00
sg8
I01
sg9
(lp114
ss.