(dp0
VisHistoricallyInteresting
p1
(dp2
S'isArray'
p3
I00
sS'isMulti'
p4
I00
sS'attrType'
p5
Vbyte
p6
sS'isSimple'
p7
I00
sS'attrChildrenLongNames'
p8
(lp9
ssVdistance
p10
(dp11
S'isArray'
p12
I00
sS'attrType'
p13
VdoubleLinear
p14
sS'attrChildrenNames'
p15
(lp16
sS'isMulti'
p17
I00
sS'isCompound'
p18
I00
sS'isSimple'
p19
I01
sS'attrChildrenLongNames'
p20
(lp21
sS'isElement'
p22
I00
ssVnodeState
p23
(dp24
g3
I00
sg5
Venum
p25
sg4
I00
sS'isCompound'
p26
I00
sg7
I01
sg8
(lp27
ssVbinMembership
p28
(dp29
g3
I00
sg5
Vstring
p30
sg4
I00
sg26
I00
sg7
I01
sg8
(lp31
ssVpoint2.point2X
p32
(dp33
S'isArray'
p34
I00
sS'attrParentLongName'
p35
Vpoint2
p36
sS'attrChildrenNames'
p37
(lp38
sg13
VdoubleLinear
p39
sS'isMulti'
p40
I00
sS'isCompound'
p41
I00
sg19
I01
sg20
(lp42
sS'isElement'
p43
I00
ssVinMatrix2
p44
(dp45
S'isArray'
p46
I00
sg13
Vmatrix
p47
sS'attrChildrenNames'
p48
(lp49
sS'isMulti'
p50
I00
sS'isCompound'
p51
I00
sg19
I00
sg20
(lp52
sS'isElement'
p53
I00
ssVinMatrix1
p54
(dp55
S'isArray'
p56
I00
sg13
Vmatrix
p57
sS'attrChildrenNames'
p58
(lp59
sS'isMulti'
p60
I00
sS'isCompound'
p61
I00
sg19
I00
sg20
(lp62
sS'isElement'
p63
I00
ssVpoint2
p64
(dp65
S'isArray'
p66
I00
sg13
Vdouble3
p67
sS'attrChildrenNames'
p68
(lp69
Vpoint2.point2X
p70
aVpoint2.point2Y
p71
aVpoint2.point2Z
p72
asS'isMulti'
p73
I00
sS'isCompound'
p74
I01
sg19
I01
sg20
(lp75
Vpoint2.point2X
p76
aVpoint2.point2Y
p77
aVpoint2.point2Z
p78
asS'isElement'
p79
I00
ssVpoint1.point1Z
p80
(dp81
S'isArray'
p82
I00
sS'attrParentLongName'
p83
Vpoint1
p84
sS'attrChildrenNames'
p85
(lp86
sg13
VdoubleLinear
p87
sS'isMulti'
p88
I00
sS'isCompound'
p89
I00
sg19
I01
sg20
(lp90
sS'isElement'
p91
I00
ssVpoint1
p92
(dp93
S'isArray'
p94
I00
sg13
Vdouble3
p95
sS'attrChildrenNames'
p96
(lp97
Vpoint1.point1X
p98
aVpoint1.point1Y
p99
aVpoint1.point1Z
p100
asS'isMulti'
p101
I00
sS'isCompound'
p102
I01
sg19
I01
sg20
(lp103
Vpoint1.point1X
p104
aVpoint1.point1Y
p105
aVpoint1.point1Z
p106
asS'isElement'
p107
I00
ssVpoint1.point1X
p108
(dp109
S'isArray'
p110
I00
sS'attrParentLongName'
p111
Vpoint1
p112
sS'attrChildrenNames'
p113
(lp114
sg13
VdoubleLinear
p115
sS'isMulti'
p116
I00
sS'isCompound'
p117
I00
sg19
I01
sg20
(lp118
sS'isElement'
p119
I00
ssVpoint1.point1Y
p120
(dp121
S'isArray'
p122
I00
sS'attrParentLongName'
p123
Vpoint1
p124
sS'attrChildrenNames'
p125
(lp126
sg13
VdoubleLinear
p127
sS'isMulti'
p128
I00
sS'isCompound'
p129
I00
sg19
I01
sg20
(lp130
sS'isElement'
p131
I00
ssVpoint2.point2Y
p132
(dp133
S'isArray'
p134
I00
sS'attrParentLongName'
p135
Vpoint2
p136
sS'attrChildrenNames'
p137
(lp138
sg13
VdoubleLinear
p139
sS'isMulti'
p140
I00
sS'isCompound'
p141
I00
sg19
I01
sg20
(lp142
sS'isElement'
p143
I00
ssVcaching
p144
(dp145
g3
I00
sg5
Vbool
p146
sg4
I00
sg26
I00
sg7
I01
sg8
(lp147
ssVpoint2.point2Z
p148
(dp149
S'isArray'
p150
I00
sS'attrParentLongName'
p151
Vpoint2
p152
sS'attrChildrenNames'
p153
(lp154
sg13
VdoubleLinear
p155
sS'isMulti'
p156
I00
sS'isCompound'
p157
I00
sg19
I01
sg20
(lp158
sS'isElement'
p159
I00
ss.