(dp0
VisHistoricallyInteresting
p1
(dp2
S'isArray'
p3
I00
sS'isMulti'
p4
I00
sS'attrType'
p5
Vbyte
p6
sS'isSimple'
p7
I00
sS'attrChildrenLongNames'
p8
(lp9
ssVoutputQuat.outputQuatX
p10
(dp11
g3
I00
sg5
Vdouble
p12
sg4
I00
sS'isCompound'
p13
I00
sg7
I01
sg8
(lp14
ssVnodeState
p15
(dp16
g3
I00
sg5
Venum
p17
sg4
I00
sg13
I00
sg7
I01
sg8
(lp18
ssVinputRotateOrder
p19
(dp20
g3
I00
sg5
Venum
p21
sg4
I00
sg13
I00
sg7
I01
sg8
(lp22
ssVoutputQuat
p23
(dp24
g3
I00
sg4
I00
sg5
VTdataCompound
p25
sg7
I00
sg8
(lp26
g10
aVoutputQuat.outputQuatY
p27
aVoutputQuat.outputQuatZ
p28
aVoutputQuat.outputQuatW
p29
assVinputRotate
p30
(dp31
g3
I00
sg5
Vdouble3
p32
sg4
I00
sg13
I01
sg7
I01
sg8
(lp33
VinputRotate.inputRotateX
p34
aVinputRotate.inputRotateY
p35
aVinputRotate.inputRotateZ
p36
assg27
(dp37
g3
I00
sg5
Vdouble
p38
sg4
I00
sg13
I00
sg7
I01
sg8
(lp39
ssg28
(dp40
g3
I00
sg5
Vdouble
p41
sg4
I00
sg13
I00
sg7
I01
sg8
(lp42
ssg29
(dp43
g3
I00
sg5
Vdouble
p44
sg4
I00
sg13
I00
sg7
I01
sg8
(lp45
ssg36
(dp46
g3
I00
sg5
VdoubleAngle
p47
sg4
I00
sg13
I00
sg7
I01
sg8
(lp48
ssVbinMembership
p49
(dp50
g3
I00
sg5
Vstring
p51
sg4
I00
sg13
I00
sg7
I01
sg8
(lp52
ssVcaching
p53
(dp54
g3
I00
sg5
Vbool
p55
sg4
I00
sg13
I00
sg7
I01
sg8
(lp56
ssg34
(dp57
g3
I00
sg5
VdoubleAngle
p58
sg4
I00
sg13
I00
sg7
I01
sg8
(lp59
ssg35
(dp60
g3
I00
sg5
VdoubleAngle
p61
sg4
I00
sg13
I00
sg7
I01
sg8
(lp62
ss.