(dp0
VisHistoricallyInteresting
p1
(dp2
S'isArray'
p3
I00
sS'isMulti'
p4
I00
sS'attrType'
p5
Vbyte
p6
sS'isSimple'
p7
I00
sS'attrChildrenLongNames'
p8
(lp9
ssVin30
p10
(dp11
g3
I00
sg5
Vdouble
p12
sg4
I00
sS'isCompound'
p13
I00
sg7
I01
sg8
(lp14
ssVnodeState
p15
(dp16
g3
I00
sg5
Venum
p17
sg4
I00
sg13
I00
sg7
I01
sg8
(lp18
ssVin22
p19
(dp20
g3
I00
sg5
Vdouble
p21
sg4
I00
sg13
I00
sg7
I01
sg8
(lp22
ssVin21
p23
(dp24
g3
I00
sg5
Vdouble
p25
sg4
I00
sg13
I00
sg7
I01
sg8
(lp26
ssVin23
p27
(dp28
g3
I00
sg5
Vdouble
p29
sg4
I00
sg13
I00
sg7
I01
sg8
(lp30
ssVin01
p31
(dp32
g3
I00
sg5
Vdouble
p33
sg4
I00
sg13
I00
sg7
I01
sg8
(lp34
ssVbinMembership
p35
(dp36
g3
I00
sg5
Vstring
p37
sg4
I00
sg13
I00
sg7
I01
sg8
(lp38
ssVin20
p39
(dp40
g3
I00
sg5
Vdouble
p41
sg4
I00
sg13
I00
sg7
I01
sg8
(lp42
ssVin32
p43
(dp44
g3
I00
sg5
Vdouble
p45
sg4
I00
sg13
I00
sg7
I01
sg8
(lp46
ssVin33
p47
(dp48
g3
I00
sg5
Vdouble
p49
sg4
I00
sg13
I00
sg7
I01
sg8
(lp50
ssVin31
p51
(dp52
g3
I00
sg5
Vdouble
p53
sg4
I00
sg13
I00
sg7
I01
sg8
(lp54
ssVoutput
p55
(dp56
g3
I00
sg4
I00
sg5
Vmatrix
p57
sg7
I00
sg8
(lp58
ssVcaching
p59
(dp60
g3
I00
sg5
Vbool
p61
sg4
I00
sg13
I00
sg7
I01
sg8
(lp62
ssVin00
p63
(dp64
g3
I00
sg5
Vdouble
p65
sg4
I00
sg13
I00
sg7
I01
sg8
(lp66
ssVin03
p67
(dp68
g3
I00
sg5
Vdouble
p69
sg4
I00
sg13
I00
sg7
I01
sg8
(lp70
ssVin02
p71
(dp72
g3
I00
sg5
Vdouble
p73
sg4
I00
sg13
I00
sg7
I01
sg8
(lp74
ssVin12
p75
(dp76
g3
I00
sg5
Vdouble
p77
sg4
I00
sg13
I00
sg7
I01
sg8
(lp78
ssVin13
p79
(dp80
g3
I00
sg5
Vdouble
p81
sg4
I00
sg13
I00
sg7
I01
sg8
(lp82
ssVin10
p83
(dp84
g3
I00
sg5
Vdouble
p85
sg4
I00
sg13
I00
sg7
I01
sg8
(lp86
ssVin11
p87
(dp88
g3
I00
sg5
Vdouble
p89
sg4
I00
sg13
I00
sg7
I01
sg8
(lp90
ss.