(dp0
VisHistoricallyInteresting
p1
(dp2
S'isArray'
p3
I00
sS'isMulti'
p4
I00
sS'attrType'
p5
Vbyte
p6
sS'isSimple'
p7
I00
sS'attrChildrenLongNames'
p8
(lp9
ssVoutputMatrix
p10
(dp11
g3
I00
sg4
I00
sg5
Vmatrix
p12
sg7
I00
sg8
(lp13
ssVnodeState
p14
(dp15
g3
I00
sg5
Venum
p16
sg4
I00
sS'isCompound'
p17
I00
sg7
I01
sg8
(lp18
ssVbinMembership
p19
(dp20
g3
I00
sg5
Vstring
p21
sg4
I00
sg17
I00
sg7
I01
sg8
(lp22
ssVinputMatrix
p23
(dp24
g3
I00
sg4
I00
sg5
Vmatrix
p25
sg7
I00
sg8
(lp26
ssVcaching
p27
(dp28
g3
I00
sg5
Vbool
p29
sg4
I00
sg17
I00
sg7
I01
sg8
(lp30
ss.