(dp0
VrotateOrder
p1
(dp2
S'isArray'
p3
I00
sS'attrType'
p4
Venum
p5
sS'isMulti'
p6
I00
sS'isCompound'
p7
I00
sS'isSimple'
p8
I01
sS'attrChildrenLongNames'
p9
(lp10
ssVtranslate.translateZ
p11
(dp12
g3
I00
sg4
VdoubleLinear
p13
sg6
I00
sg7
I00
sg8
I01
sg9
(lp14
ssVtranslate.translateX
p15
(dp16
g3
I00
sg4
VdoubleLinear
p17
sS'attrParentLongName'
p18
Vtranslate
p19
sg6
I00
sg7
I00
sg8
I01
sg9
(lp20
ssVtranslate.translateY
p21
(dp22
g3
I00
sg4
VdoubleLinear
p23
sg6
I00
sg7
I00
sg8
I01
sg9
(lp24
ssVintermediateObject
p25
(dp26
S'isArray'
p27
I00
sS'attrType'
p28
Vbool
p29
sS'isMulti'
p30
I00
sS'isCompound'
p31
I00
sS'isSimple'
p32
I01
sS'attrChildrenLongNames'
p33
(lp34
ssVinstObjGroups[0].objectGroups[1].objectGroupId
p35
(dp36
g27
I00
sS'isSimple'
p37
I00
sg33
(lp38
ssVrenderLayerInfo.renderLayerId
p39
(dp40
S'attrParentLongName'
p41
VrenderLayerInfo
p42
ssVselectHandle.selectHandleX
p43
(dp44
g27
I00
sg28
VdoubleLinear
p45
sg30
I00
sg31
I00
sg32
I01
sg33
(lp46
ssVbindPose
p47
(dp48
g27
I00
sg30
I00
sg28
Nsg32
I00
sg33
(lp49
ssVuseObjectColor
p50
(dp51
g27
I00
sg28
Vbool
p52
sg30
I00
sg31
I00
sg32
I01
sg33
(lp53
ssVdrawOverride.overrideLevelOfDetail
p54
(dp55
g27
I00
sg28
Venum
p56
sg30
I00
sg31
I00
sg32
I01
sg33
(lp57
ssVinstObjGroups[0].objectGroups[0].objectGroupId
p58
(dp59
g27
I00
sg37
I00
sg33
(lp60
ssVghostColorPost
p61
(dp62
g27
I00
sg30
I00
sg28
Vfloat3
p63
sg32
I00
sg33
(lp64
VghostColorPost.ghostColorPostR
p65
aVghostColorPost.ghostColorPostG
p66
aVghostColorPost.ghostColorPostB
p67
assVotherType
p68
(dp69
g27
I00
sg28
Vstring
p70
sg30
I00
sg31
I00
sg32
I01
sg33
(lp71
ssVminTransLimitEnable.minTransYLimitEnable
p72
(dp73
g27
I00
sg28
Vbool
p74
sg30
I00
sg31
I00
sg32
I01
sg33
(lp75
ssVdrawOverride.overrideColor
p76
(dp77
g27
I00
sg30
I00
sg28
Vbyte
p78
sg32
I00
sg33
(lp79
ssVrotateQuaternion
p80
(dp81
g27
I00
sg30
I00
sg28
Vdouble4
p82
sg32
I00
sg33
(lp83
VrotateQuaternion.rotateQuaternionX
p84
aVrotateQuaternion.rotateQuaternionY
p85
aVrotateQuaternion.rotateQuaternionZ
p86
aVrotateQuaternion.rotateQuaternionW
p87
assVikRotate.ikRotateY
p88
(dp89
g27
I00
sg28
VdoubleAngle
p90
sg30
I00
sg31
I00
sg32
I01
sg33
(lp91
ssVrenderLayerInfo.renderLayerRenderable
p92
(dp93
g41
VrenderLayerInfo
p94
ssVminRotLimitEnable.minRotZLimitEnable
p95
(dp96
g27
I00
sg28
Vbool
p97
sg30
I00
sg31
I00
sg32
I01
sg33
(lp98
ssVparentMatrix[2]
p99
(dp100
S'isArray'
p101
I00
sS'attrChildrenLongNames'
p102
(lp103
ssVbindRotation
p104
(dp105
g27
I00
sg28
Vdouble3
p106
sg30
I00
sg31
I01
sg32
I01
sg33
(lp107
VbindRotation.bindRotationX
p108
aVbindRotation.bindRotationY
p109
aVbindRotation.bindRotationZ
p110
assVcreationDate
p111
(dp112
g27
I00
sg28
Vstring
p113
sg30
I00
sg31
I00
sg32
I01
sg33
(lp114
ssVinstObjGroups[0].objectGroups[1].objectGrpCompList
p115
(dp116
g27
I00
sg37
I00
sg33
(lp117
ssVmaxRotLimit.maxRotYLimit
p118
(dp119
g27
I00
sg28
VdoubleAngle
p120
sg30
I00
sg31
I00
sg32
I01
sg33
(lp121
ssVtransMinusRotatePivot
p122
(dp123
g27
I00
sg28
Vdouble3
p124
sg30
I00
sg31
I01
sg32
I01
sg33
(lp125
VtransMinusRotatePivot.transMinusRotatePivotX
p126
aVtransMinusRotatePivot.transMinusRotatePivotY
p127
aVtransMinusRotatePivot.transMinusRotatePivotZ
p128
assVrotatePivotTranslate.rotatePivotTranslateZ
p129
(dp130
g3
I00
sg4
VdoubleLinear
p131
sg6
I00
sg7
I00
sg8
I01
sg9
(lp132
ssVtemplatePath
p133
(dp134
g27
I00
sg28
Vstring
p135
sg30
I00
sg31
I00
sg32
I01
sg33
(lp136
ssVmaxRotateDampStrength
p137
(dp138
g27
I00
sg28
Vdouble3
p139
sg30
I00
sg31
I01
sg32
I01
sg33
(lp140
VmaxRotateDampStrength.maxRotateDampStrengthX
p141
aVmaxRotateDampStrength.maxRotateDampStrengthY
p142
aVmaxRotateDampStrength.maxRotateDampStrengthZ
p143
assVbinMembership
p144
(dp145
g27
I00
sg28
Vstring
p146
sg30
I00
sg31
I00
sg32
I01
sg33
(lp147
ssVbindJointOrient.bindJointOrientX
p148
(dp149
g27
I00
sg28
VdoubleAngle
p150
sg30
I00
sg31
I00
sg32
I01
sg33
(lp151
ssVdofMask
p152
(dp153
g27
I00
sg28
Vlong
p154
sg30
I00
sg31
I00
sg32
I01
sg33
(lp155
ssVcustomTreatment
p156
(dp157
g27
I00
sg28
Vstring
p158
sg30
I00
sg31
I00
sg32
I01
sg33
(lp159
ssg110
(dp160
g27
I00
sg28
VdoubleAngle
p161
sg30
I00
sg31
I00
sg32
I01
sg33
(lp162
ssVrenderLayerInfo[0].renderLayerRenderable
p163
(dp164
g27
I00
sg37
I00
sg33
(lp165
ssVbindJointOrient.bindJointOrientY
p166
(dp167
g27
I00
sg28
VdoubleAngle
p168
sg30
I00
sg31
I00
sg32
I01
sg33
(lp169
ssVmentalRayControls.miVisible
p170
(dp171
g27
I00
sg28
Venum
p172
sg30
I00
sg31
I00
sg32
I01
sg33
(lp173
ssVshear
p174
(dp175
g3
I00
sg4
Vdouble3
p176
sg6
I00
sg7
I01
sg8
I01
sg9
(lp177
Vshear.shearXY
p178
aVshear.shearXZ
p179
aVshear.shearYZ
p180
assVshowManipDefault
p181
(dp182
g27
I00
sg28
Venum
p183
sg30
I00
sg31
I00
sg32
I01
sg33
(lp184
ssVboundingBox.boundingBoxMin
p185
(dp186
g41
VboundingBox
p187
ssVboundingBox.boundingBoxMin.boundingBoxMinX
p188
(dp189
g41
VboundingBox.boundingBoxMin
p190
ssVboundingBox.boundingBoxMin.boundingBoxMinZ
p191
(dp192
g41
VboundingBox.boundingBoxMin
p193
ssVdrawStyle
p194
(dp195
g27
I00
sg28
Venum
p196
sg30
I00
sg31
I00
sg32
I01
sg33
(lp197
ssVmaxScaleLimitEnable.maxScaleXLimitEnable
p198
(dp199
g27
I00
sg28
Vbool
p200
sg30
I00
sg31
I00
sg32
I01
sg33
(lp201
ssVselectHandle
p202
(dp203
g27
I00
sg28
Vdouble3
p204
sg30
I00
sg31
I01
sg32
I01
sg33
(lp205
g43
aVselectHandle.selectHandleY
p206
aVselectHandle.selectHandleZ
p207
assVbindJointOrient
p208
(dp209
g27
I00
sg28
Vdouble3
p210
sg30
I00
sg31
I01
sg32
I01
sg33
(lp211
g148
ag166
aVbindJointOrient.bindJointOrientZ
p212
assVinverseScale.inverseScaleX
p213
(dp214
g27
I00
sg28
Vdouble
p215
sg30
I00
sg31
I00
sg32
I01
sg33
(lp216
ssVbindSegmentScaleCompensate
p217
(dp218
g27
I00
sg28
Vbool
p219
sg30
I00
sg31
I00
sg32
I01
sg33
(lp220
ssVghostColorPostA
p221
(dp222
g27
I00
sg28
Vfloat
p223
sg30
I00
sg31
I00
sg32
I01
sg33
(lp224
ssVparentMatrix
p225
(dp226
g3
I01
sg6
I01
sg8
I00
sg4
Vmatrix
p227
ssg86
(dp228
g27
I00
sg28
Vdouble
p229
sg30
I00
sg31
I00
sg32
I01
sg33
(lp230
ssVrenderLayerInfo[0].renderLayerId
p231
(dp232
g27
I00
sg37
I00
sg33
(lp233
ssg84
(dp234
g27
I00
sg28
Vdouble
p235
sg30
I00
sg31
I00
sg32
I01
sg33
(lp236
ssg85
(dp237
g27
I00
sg28
Vdouble
p238
sg30
I00
sg31
I00
sg32
I01
sg33
(lp239
ssVmaxTransLimitEnable.maxTransZLimitEnable
p240
(dp241
g27
I00
sg28
Vbool
p242
sg30
I00
sg31
I00
sg32
I01
sg33
(lp243
ssVworldInverseMatrix[1]
p244
(dp245
g3
I00
sg37
I00
sg9
(lp246
ssVminTransLimitEnable.minTransZLimitEnable
p247
(dp248
g27
I00
sg28
Vbool
p249
sg30
I00
sg31
I00
sg32
I01
sg33
(lp250
ssVscalePivotTranslate
p251
(dp252
g3
I00
sg4
Vdouble3
p253
sg6
I00
sg7
I01
sg8
I01
sg9
(lp254
VscalePivotTranslate.scalePivotTranslateX
p255
aVscalePivotTranslate.scalePivotTranslateY
p256
aVscalePivotTranslate.scalePivotTranslateZ
p257
assg212
(dp258
g27
I00
sg28
VdoubleAngle
p259
sg30
I00
sg31
I00
sg32
I01
sg33
(lp260
ssg87
(dp261
g27
I00
sg28
Vdouble
p262
sg30
I00
sg31
I00
sg32
I01
sg33
(lp263
ssVrotatePivotTranslate.rotatePivotTranslateX
p264
(dp265
g3
I00
sg4
VdoubleLinear
p266
sg6
I00
sg7
I00
sg8
I01
sg9
(lp267
ssVrotatePivotTranslate.rotatePivotTranslateY
p268
(dp269
g3
I00
sg4
VdoubleLinear
p270
sg6
I00
sg7
I00
sg8
I01
sg9
(lp271
ssg142
(dp272
g27
I00
sg28
Vdouble
p273
sg30
I00
sg31
I00
sg32
I01
sg33
(lp274
ssVminTransLimit
p275
(dp276
g27
I00
sg28
Vdouble3
p277
sg30
I00
sg31
I01
sg32
I01
sg33
(lp278
VminTransLimit.minTransXLimit
p279
aVminTransLimit.minTransYLimit
p280
aVminTransLimit.minTransZLimit
p281
assVrotate
p282
(dp283
g3
I00
sg4
Vdouble3
p284
sg6
I00
sg7
I01
sg8
I01
sg9
(lp285
Vrotate.rotateX
p286
aVrotate.rotateY
p287
aVrotate.rotateZ
p288
assVjointTypeZ
p289
(dp290
g27
I00
sg28
Vbool
p291
sg30
I00
sg31
I00
sg32
I01
sg33
(lp292
ssVjointTypeX
p293
(dp294
g27
I00
sg28
Vbool
p295
sg30
I00
sg31
I00
sg32
I01
sg33
(lp296
ssVjointTypeY
p297
(dp298
g27
I00
sg28
Vbool
p299
sg30
I00
sg31
I00
sg32
I01
sg33
(lp300
ssVsegmentScaleCompensate
p301
(dp302
g27
I00
sg28
Vbool
p303
sg30
I00
sg31
I00
sg32
I01
sg33
(lp304
ssVminRotLimit
p305
(dp306
g27
I00
sg28
Vdouble3
p307
sg30
I00
sg31
I01
sg32
I01
sg33
(lp308
VminRotLimit.minRotXLimit
p309
aVminRotLimit.minRotYLimit
p310
aVminRotLimit.minRotZLimit
p311
assVmaxTransLimitEnable.maxTransYLimitEnable
p312
(dp313
g27
I00
sg28
Vbool
p314
sg30
I00
sg31
I00
sg32
I01
sg33
(lp315
ssVisHierarchicalConnection[1]
p316
(dp317
g27
I00
sg37
I00
sg33
(lp318
ssVparentInverseMatrix[0]
p319
(dp320
g3
I00
sg30
I00
sg28
Vmatrix
p321
sg32
I00
sg9
(lp322
ssg311
(dp323
g27
I00
sg28
VdoubleAngle
p324
sg30
I00
sg31
I00
sg32
I01
sg33
(lp325
ssVmaxScaleLimitEnable.maxScaleYLimitEnable
p326
(dp327
g27
I00
sg28
Vbool
p328
sg30
I00
sg31
I00
sg32
I01
sg33
(lp329
ssVdrawOverride.overrideEnabled
p330
(dp331
g27
I00
sg28
Vbool
p332
sg30
I00
sg31
I00
sg32
I01
sg33
(lp333
ssVrotatePivot.rotatePivotZ
p334
(dp335
g3
I00
sg4
VdoubleLinear
p336
sg6
I00
sg7
I00
sg8
I01
sg9
(lp337
ssVside
p338
(dp339
g27
I00
sg28
Venum
p340
sg30
I00
sg31
I00
sg32
I01
sg33
(lp341
ssVboundingBox.boundingBoxMax
p342
(dp343
g41
VboundingBox
p344
ssVrotatePivot.rotatePivotY
p345
(dp346
g3
I00
sg4
VdoubleLinear
p347
sg6
I00
sg7
I00
sg8
I01
sg9
(lp348
ssVparentMatrix[0]
p349
(dp350
g3
I00
sg6
I00
sg4
Vmatrix
p351
sg8
I00
sg9
(lp352
ssVghostColorPre.ghostColorPreR
p353
(dp354
g27
I00
sg28
Vfloat
p355
sg30
I00
sg31
I00
sg32
I01
sg33
(lp356
ssVmaxScaleLimit.maxScaleZLimit
p357
(dp358
g27
I00
sg28
Vdouble
p359
sg30
I00
sg31
I00
sg32
I01
sg33
(lp360
ssVbindInverseScale
p361
(dp362
g27
I00
sg28
Vdouble3
p363
sg30
I00
sg31
I01
sg32
I01
sg33
(lp364
VbindInverseScale.bindInverseScaleX
p365
aVbindInverseScale.bindInverseScaleY
p366
aVbindInverseScale.bindInverseScaleZ
p367
assVrotateAxis.rotateAxisX
p368
(dp369
g27
I00
sg28
VdoubleAngle
p370
sg30
I00
sg31
I00
sg32
I01
sg33
(lp371
ssVrotateAxis.rotateAxisY
p372
(dp373
g27
I00
sg28
VdoubleAngle
p374
sg30
I00
sg31
I00
sg32
I01
sg33
(lp375
ssVrotateAxis.rotateAxisZ
p376
(dp377
g27
I00
sg28
VdoubleAngle
p378
sg30
I00
sg31
I00
sg32
I01
sg33
(lp379
ssVinstObjGroups[0].objectGroups[0]
p380
(dp381
g27
I00
sg37
I00
sg33
(lp382
VinstObjGroups[0].objectGroups[0].objectGrpCompList
p383
ag58
aVinstObjGroups[0].objectGroups[0].objectGrpColor
p384
assVnodeState
p385
(dp386
g27
I00
sg28
Venum
p387
sg30
I00
sg31
I00
sg32
I01
sg33
(lp388
ssVghostRangeEnd
p389
(dp390
g27
I00
sg28
Vtime
p391
sg30
I00
sg31
I00
sg32
I01
sg33
(lp392
ssVobjectColorRGB
p393
(dp394
g27
I00
sg30
I00
sg28
Vfloat3
p395
sg32
I00
sg33
(lp396
VobjectColorRGB.objectColorR
p397
aVobjectColorRGB.objectColorG
p398
aVobjectColorRGB.objectColorB
p399
assVrenderLayerInfo[1].renderLayerRenderable
p400
(dp401
g27
I00
sg37
I00
sg33
(lp402
ssVghostColorPre.ghostColorPreG
p403
(dp404
g27
I00
sg28
Vfloat
p405
sg30
I00
sg31
I00
sg32
I01
sg33
(lp406
ssVworldMatrix[2]
p407
(dp408
g3
I00
sg37
I00
sg9
(lp409
ssVghostColorPre.ghostColorPreB
p410
(dp411
g27
I00
sg28
Vfloat
p412
sg30
I00
sg31
I00
sg32
I01
sg33
(lp413
ssVpublishedNodeInfo[0].publishedNode
p414
(dp415
g27
I00
sg37
I00
sg33
(lp416
ssVdynamics
p417
(dp418
g27
I00
sg28
Vbool
p419
sg30
I00
sg31
I00
sg32
I01
sg33
(lp420
ssVpublishedNodeInfo[1].isHierarchicalNode
p421
(dp422
g27
I00
sg37
I00
sg33
(lp423
ssVtemplateVersion
p424
(dp425
g27
I00
sg28
Vlong
p426
sg30
I00
sg31
I00
sg32
I01
sg33
(lp427
ssVmaxTransLimit.maxTransZLimit
p428
(dp429
g27
I00
sg28
VdoubleLinear
p430
sg30
I00
sg31
I00
sg32
I01
sg33
(lp431
ssg141
(dp432
g27
I00
sg28
Vdouble
p433
sg30
I00
sg31
I00
sg32
I01
sg33
(lp434
ssVinstObjGroups[1].objectGroups
p435
(dp436
g27
I01
sg37
I00
ssVscale
p437
(dp438
g3
I00
sg4
Vdouble3
p439
sg6
I00
sg7
I01
sg8
I01
sg9
(lp440
Vscale.scaleX
p441
aVscale.scaleY
p442
aVscale.scaleZ
p443
assVminRotateDampStrength.minRotateDampStrengthZ
p444
(dp445
g27
I00
sg28
Vdouble
p446
sg30
I00
sg31
I00
sg32
I01
sg33
(lp447
ssVmatrix
p448
(dp449
g3
I00
sg6
I00
sg4
Vmatrix
p450
sg8
I00
sg9
(lp451
ssVminRotateDampStrength.minRotateDampStrengthX
p452
(dp453
g27
I00
sg28
Vdouble
p454
sg30
I00
sg31
I00
sg32
I01
sg33
(lp455
ssVminRotateDampStrength.minRotateDampStrengthY
p456
(dp457
g27
I00
sg28
Vdouble
p458
sg30
I00
sg31
I00
sg32
I01
sg33
(lp459
ssVworldInverseMatrix[2]
p460
(dp461
S'isArray'
p462
I00
sS'attrChildrenLongNames'
p463
(lp464
ssVrotatePivot
p465
(dp466
g3
I00
sg4
Vdouble3
p467
sg6
I00
sg7
I01
sg8
I01
sg9
(lp468
VrotatePivot.rotatePivotX
p469
aVrotatePivot.rotatePivotY
p470
aVrotatePivot.rotatePivotZ
p471
assg206
(dp472
g27
I00
sg28
VdoubleLinear
p473
sg30
I00
sg31
I00
sg32
I01
sg33
(lp474
ssg207
(dp475
g27
I00
sg28
VdoubleLinear
p476
sg30
I00
sg31
I00
sg32
I01
sg33
(lp477
ssVpublishedNodeInfo[1].publishedNode
p478
(dp479
g27
I00
sg37
I00
sg33
(lp480
ssVmaxRotLimitEnable.maxRotZLimitEnable
p481
(dp482
g27
I00
sg28
Vbool
p483
sg30
I00
sg31
I00
sg32
I01
sg33
(lp484
ssVdrawLabel
p485
(dp486
g27
I00
sg28
Vbool
p487
sg30
I00
sg31
I00
sg32
I01
sg33
(lp488
ssVworldMatrix
p489
(dp490
g3
I01
sg6
I01
sg8
I00
sg4
Vmatrix
p491
ssg108
(dp492
g27
I00
sg28
VdoubleAngle
p493
sg30
I00
sg31
I00
sg32
I01
sg33
(lp494
ssg109
(dp495
g27
I00
sg28
VdoubleAngle
p496
sg30
I00
sg31
I00
sg32
I01
sg33
(lp497
ssVcontainerType
p498
(dp499
g27
I00
sg28
Vstring
p500
sg30
I00
sg31
I00
sg32
I01
sg33
(lp501
ssVminScaleLimit.minScaleZLimit
p502
(dp503
g27
I00
sg28
Vdouble
p504
sg30
I00
sg31
I00
sg32
I01
sg33
(lp505
ssVscalePivot.scalePivotX
p506
(dp507
g3
I00
sg4
VdoubleLinear
p508
sg6
I00
sg7
I00
sg8
I01
sg9
(lp509
ssVscalePivot.scalePivotY
p510
(dp511
g3
I00
sg4
VdoubleLinear
p512
sg6
I00
sg7
I00
sg8
I01
sg9
(lp513
ssVscalePivot.scalePivotZ
p514
(dp515
g3
I00
sg4
VdoubleLinear
p516
sg6
I00
sg7
I00
sg8
I01
sg9
(lp517
ssVinstObjGroups.objectGroups.objectGrpCompList
p518
(dp519
g41
VinstObjGroups.objectGroups
p520
ssVparentInverseMatrix
p521
(dp522
g3
I01
sg6
I01
sg8
I00
sg4
Vmatrix
p523
ssVrenderLayerInfo[1].renderLayerId
p524
(dp525
g27
I00
sg37
I00
sg33
(lp526
ssVviewName
p527
(dp528
g27
I00
sg28
Vstring
p529
sg30
I00
sg31
I00
sg32
I01
sg33
(lp530
ssVpublishedNodeInfo.publishedNodeType
p531
(dp532
g41
VpublishedNodeInfo
p533
ssVparentInverseMatrix[1]
p534
(dp535
g3
I00
sg37
I00
sg9
(lp536
ssVpublishedNodeInfo[1]
p537
(dp538
g27
I00
sg37
I00
sg33
(lp539
g478
ag421
aVpublishedNodeInfo[1].publishedNodeType
p540
assVmaxTransLimit
p541
(dp542
g27
I00
sg28
Vdouble3
p543
sg30
I00
sg31
I01
sg32
I01
sg33
(lp544
VmaxTransLimit.maxTransXLimit
p545
aVmaxTransLimit.maxTransYLimit
p546
ag428
assVtemplate
p547
(dp548
g27
I00
sg28
Vbool
p549
sg30
I00
sg31
I00
sg32
I01
sg33
(lp550
ssVminRotateDampRange.minRotateDampRangeX
p551
(dp552
g27
I00
sg28
VdoubleAngle
p553
sg30
I00
sg31
I00
sg32
I01
sg33
(lp554
ssVdisplayScalePivot
p555
(dp556
g27
I00
sg28
Vbool
p557
sg30
I00
sg31
I00
sg32
I01
sg33
(lp558
ssVminRotateDampRange.minRotateDampRangeZ
p559
(dp560
g27
I00
sg28
VdoubleAngle
p561
sg30
I00
sg31
I00
sg32
I01
sg33
(lp562
ssVrenderInfo.layerRenderable
p563
(dp564
g41
VrenderInfo
p565
sg27
I00
sg28
Vbool
p566
sg30
I00
sg31
I00
sg32
I01
sg33
(lp567
ssVjointOrient
p568
(dp569
g3
I00
sg4
Vdouble3
p570
sg6
I00
sg7
I01
sg8
I01
sg9
(lp571
VjointOrient.jointOrientX
p572
aVjointOrient.jointOrientY
p573
aVjointOrient.jointOrientZ
p574
assVobjectColor
p575
(dp576
g27
I00
sg28
Vshort
p577
sg30
I00
sg31
I00
sg32
I01
sg33
(lp578
ssVrmbCommand
p579
(dp580
g27
I00
sg28
Vstring
p581
sg30
I00
sg31
I00
sg32
I01
sg33
(lp582
ssVhikNodeID
p583
(dp584
g27
I00
sg28
Vlong
p585
sg30
I00
sg31
I00
sg32
I01
sg33
(lp586
ssVmentalRayControls.miHide
p587
(dp588
g27
I00
sg28
Vbool
p589
sg30
I00
sg31
I00
sg32
I01
sg33
(lp590
ssVghostCustomSteps.ghostPreSteps
p591
(dp592
g27
I00
sg28
Vlong
p593
sg30
I00
sg31
I00
sg32
I01
sg33
(lp594
ssg540
(dp595
g27
I00
sg37
I00
sg33
(lp596
ssVpublishedNodeInfo
p597
(dp598
g27
I01
sg30
I01
sg32
I00
sg28
VTdataCompound
p599
ssVdrawOverride.overrideTexturing
p600
(dp601
g27
I00
sg28
Vbool
p602
sg30
I00
sg31
I00
sg32
I01
sg33
(lp603
ssVminRotateDampRange.minRotateDampRangeY
p604
(dp605
g27
I00
sg28
VdoubleAngle
p606
sg30
I00
sg31
I00
sg32
I01
sg33
(lp607
ssVminRotateDampRange
p608
(dp609
g27
I00
sg28
Vdouble3
p610
sg30
I00
sg31
I01
sg32
I01
sg33
(lp611
g551
ag604
ag559
assVbindRotateAxis
p612
(dp613
g27
I00
sg28
Vdouble3
p614
sg30
I00
sg31
I01
sg32
I01
sg33
(lp615
VbindRotateAxis.bindRotateAxisX
p616
aVbindRotateAxis.bindRotateAxisY
p617
aVbindRotateAxis.bindRotateAxisZ
p618
assVscale.scaleX
p619
(dp620
g3
I00
sg4
Vdouble
p621
sg6
I00
sg7
I00
sg8
I01
sg9
(lp622
ssVscale.scaleY
p623
(dp624
g3
I00
sg4
Vdouble
p625
sg6
I00
sg7
I00
sg8
I01
sg9
(lp626
ssVbindScale.bindScaleZ
p627
(dp628
g27
I00
sg28
VdoubleAngle
p629
sg30
I00
sg31
I00
sg32
I01
sg33
(lp630
ssVbindScale.bindScaleX
p631
(dp632
g27
I00
sg28
VdoubleAngle
p633
sg30
I00
sg31
I00
sg32
I01
sg33
(lp634
ssVinstObjGroups[0].objectGroups[1]
p635
(dp636
g27
I00
sg37
I00
sg33
(lp637
g115
ag35
aVinstObjGroups[0].objectGroups[1].objectGrpColor
p638
assVrotatePivot.rotatePivotX
p639
(dp640
g3
I00
sg4
VdoubleLinear
p641
sg6
I00
sg7
I00
sg8
I01
sg9
(lp642
ssVstiffness
p643
(dp644
g27
I00
sg28
Vdouble3
p645
sg30
I00
sg31
I01
sg32
I01
sg33
(lp646
Vstiffness.stiffnessX
p647
aVstiffness.stiffnessY
p648
aVstiffness.stiffnessZ
p649
assVrenderLayerInfo[1].renderLayerColor
p650
(dp651
g27
I00
sg37
I00
sg33
(lp652
ssVpublishedNodeInfo[0].publishedNodeType
p653
(dp654
g27
I00
sg37
I00
sg33
(lp655
ssVisHierarchicalConnection
p656
(dp657
g27
I01
sg30
I01
sg32
I00
sg28
VTdataCompound
p658
ssVmentalRayControls.miTrace
p659
(dp660
g27
I00
sg28
Venum
p661
sg30
I00
sg31
I00
sg32
I01
sg33
(lp662
ssVfkRotate
p663
(dp664
g27
I00
sg28
Vdouble3
p665
sg30
I00
sg31
I01
sg32
I01
sg33
(lp666
VfkRotate.fkRotateX
p667
aVfkRotate.fkRotateY
p668
aVfkRotate.fkRotateZ
p669
assVinstObjGroups
p670
(dp671
g27
I01
sg30
I01
sg32
I00
sg28
VTdataCompound
p672
ssg546
(dp673
g27
I00
sg28
VdoubleLinear
p674
sg30
I00
sg31
I00
sg32
I01
sg33
(lp675
ssVinIKSolveFlag
p676
(dp677
g27
I00
sg28
Vbool
p678
sg30
I00
sg31
I00
sg32
I01
sg33
(lp679
ssVselectionChildHighlighting
p680
(dp681
g27
I00
sg28
Vbool
p682
sg30
I00
sg31
I00
sg32
I01
sg33
(lp683
ssVmaxTransLimitEnable
p684
(dp685
g27
I00
sg30
I00
sg28
VTdataCompound
p686
sg32
I00
sg33
(lp687
VmaxTransLimitEnable.maxTransXLimitEnable
p688
ag312
ag240
assVmaxRotLimitEnable.maxRotXLimitEnable
p689
(dp690
g27
I00
sg28
Vbool
p691
sg30
I00
sg31
I00
sg32
I01
sg33
(lp692
ssg280
(dp693
g27
I00
sg28
VdoubleLinear
p694
sg30
I00
sg31
I00
sg32
I01
sg33
(lp695
ssVjointOrient.jointOrientZ
p696
(dp697
g3
I00
sg4
VdoubleAngle
p698
sg6
I00
sg7
I00
sg8
I01
sg9
(lp699
ssVinverseScale.inverseScaleY
p700
(dp701
g27
I00
sg28
Vdouble
p702
sg30
I00
sg31
I00
sg32
I01
sg33
(lp703
ssg647
(dp704
g27
I00
sg28
Vdouble
p705
sg30
I00
sg31
I00
sg32
I01
sg33
(lp706
ssg648
(dp707
g27
I00
sg28
Vdouble
p708
sg30
I00
sg31
I00
sg32
I01
sg33
(lp709
ssVrenderLayerInfo
p710
(dp711
g27
I01
sg30
I01
sg32
I00
sg28
VTdataCompound
p712
ssVdisplayHandle
p713
(dp714
g27
I00
sg28
Vbool
p715
sg30
I00
sg31
I00
sg32
I01
sg33
(lp716
ssVworldMatrix[0]
p717
(dp718
g3
I00
sg6
I00
sg4
Vmatrix
p719
sg8
I00
sg9
(lp720
ssVmentalRayControls.miGlobillum
p721
(dp722
g27
I00
sg28
Venum
p723
sg30
I00
sg31
I00
sg32
I01
sg33
(lp724
ssVdrawOverride.overrideVisibility
p725
(dp726
g27
I00
sg28
Vbool
p727
sg30
I00
sg31
I00
sg32
I01
sg33
(lp728
ssVmaxScaleLimit
p729
(dp730
g27
I00
sg28
Vdouble3
p731
sg30
I00
sg31
I01
sg32
I01
sg33
(lp732
VmaxScaleLimit.maxScaleXLimit
p733
aVmaxScaleLimit.maxScaleYLimit
p734
ag357
assVrotateAxis
p735
(dp736
g27
I00
sg28
Vdouble3
p737
sg30
I00
sg31
I01
sg32
I01
sg33
(lp738
g368
ag372
ag376
assVshear.shearYZ
p739
(dp740
g3
I00
sg4
Vdouble
p741
sg6
I00
sg7
I00
sg8
I01
sg9
(lp742
ssVghosting
p743
(dp744
g27
I00
sg28
Vbool
p745
sg30
I00
sg31
I00
sg32
I01
sg33
(lp746
ssVdisplayLocalAxis
p747
(dp748
g27
I00
sg28
Vbool
p749
sg30
I00
sg31
I00
sg32
I01
sg33
(lp750
ssVinheritsTransform
p751
(dp752
g27
I00
sg28
Vbool
p753
sg30
I00
sg31
I00
sg32
I01
sg33
(lp754
ssg126
(dp755
g27
I00
sg28
VdoubleLinear
p756
sg30
I00
sg31
I00
sg32
I01
sg33
(lp757
ssg127
(dp758
g27
I00
sg28
VdoubleLinear
p759
sg30
I00
sg31
I00
sg32
I01
sg33
(lp760
ssVisHistoricallyInteresting
p761
(dp762
g27
I00
sg30
I00
sg28
Vbyte
p763
sg32
I00
sg33
(lp764
ssVrotationInterpolation
p765
(dp766
g27
I00
sg28
Venum
p767
sg30
I00
sg31
I00
sg32
I01
sg33
(lp768
ssVjointOrient.jointOrientX
p769
(dp770
g3
I00
sg4
VdoubleAngle
p771
sg6
I00
sg7
I00
sg8
I01
sg9
(lp772
ssVminScaleLimit.minScaleYLimit
p773
(dp774
g27
I00
sg28
Vdouble
p775
sg30
I00
sg31
I00
sg32
I01
sg33
(lp776
ssg309
(dp777
g27
I00
sg28
VdoubleAngle
p778
sg30
I00
sg31
I00
sg32
I01
sg33
(lp779
ssVmaxRotLimit
p780
(dp781
g27
I00
sg28
Vdouble3
p782
sg30
I00
sg31
I01
sg32
I01
sg33
(lp783
VmaxRotLimit.maxRotXLimit
p784
ag118
aVmaxRotLimit.maxRotZLimit
p785
assVjointOrientType
p786
(dp787
g27
I00
sg28
Vstring
p788
sg30
I00
sg31
I00
sg32
I01
sg33
(lp789
ssVcreator
p790
(dp791
g27
I00
sg28
Vstring
p792
sg30
I00
sg31
I00
sg32
I01
sg33
(lp793
ssVinstObjGroups[2].objectGroups
p794
(dp795
g27
I01
sg37
I00
ssVrenderLayerInfo[0]
p796
(dp797
g27
I00
sg37
I00
sg33
(lp798
g231
ag163
aVrenderLayerInfo[0].renderLayerColor
p799
assVmaxRotateDampRange.maxRotateDampRangeX
p800
(dp801
g27
I00
sg28
VdoubleAngle
p802
sg30
I00
sg31
I00
sg32
I01
sg33
(lp803
ssVmaxRotateDampRange.maxRotateDampRangeY
p804
(dp805
g27
I00
sg28
VdoubleAngle
p806
sg30
I00
sg31
I00
sg32
I01
sg33
(lp807
ssVmaxRotateDampRange.maxRotateDampRangeZ
p808
(dp809
g27
I00
sg28
VdoubleAngle
p810
sg30
I00
sg31
I00
sg32
I01
sg33
(lp811
ssVinstObjGroups[1]
p812
(dp813
g27
I00
sg37
I00
sg33
(lp814
g435
assVpreferredAngle
p815
(dp816
g27
I00
sg28
Vdouble3
p817
sg30
I00
sg31
I01
sg32
I01
sg33
(lp818
VpreferredAngle.preferredAngleX
p819
aVpreferredAngle.preferredAngleY
p820
aVpreferredAngle.preferredAngleZ
p821
assVpublishedNodeInfo.isHierarchicalNode
p822
(dp823
g41
VpublishedNodeInfo
p824
ssVminRotLimitEnable.minRotXLimitEnable
p825
(dp826
g27
I00
sg28
Vbool
p827
sg30
I00
sg31
I00
sg32
I01
sg33
(lp828
ssVtranslate
p829
(dp830
g3
I00
sg4
Vdouble3
p831
sg6
I00
sg7
I01
sg8
I01
sg9
(lp832
Vtranslate.translateX
p833
aVtranslate.translateY
p834
aVtranslate.translateZ
p835
assVtype
p836
(dp837
g27
I00
sg28
Venum
p838
sg30
I00
sg31
I00
sg32
I01
sg33
(lp839
ssVjointOrient.jointOrientY
p840
(dp841
g3
I00
sg4
VdoubleAngle
p842
sg6
I00
sg7
I00
sg8
I01
sg9
(lp843
ssVinstObjGroups.objectGroups
p844
(dp845
g41
VinstObjGroups
p846
ssVdrawOverride
p847
(dp848
g27
I00
sg30
I00
sg28
VTdataCompound
p849
sg32
I00
sg33
(lp850
VdrawOverride.overrideDisplayType
p851
ag54
aVdrawOverride.overrideShading
p852
ag600
aVdrawOverride.overridePlayback
p853
ag330
ag725
ag76
assVshear.shearXZ
p854
(dp855
g3
I00
sg4
Vdouble
p856
sg6
I00
sg7
I00
sg8
I01
sg9
(lp857
ssVshear.shearXY
p858
(dp859
g3
I00
sg4
Vdouble
p860
sg6
I00
sg7
I00
sg8
I01
sg9
(lp861
ssVparentMatrix[1]
p862
(dp863
g3
I00
sg37
I00
sg9
(lp864
ssVpublishedNodeInfo[0]
p865
(dp866
g27
I00
sg37
I00
sg33
(lp867
g414
aVpublishedNodeInfo[0].isHierarchicalNode
p868
ag653
assg67
(dp869
g27
I00
sg28
Vfloat
p870
sg30
I00
sg31
I00
sg32
I01
sg33
(lp871
ssVvisibility
p872
(dp873
g3
I00
sg4
Vbool
p874
sg6
I00
sg7
I00
sg8
I01
sg9
(lp875
ssVminScaleLimit.minScaleXLimit
p876
(dp877
g27
I00
sg28
Vdouble
p878
sg30
I00
sg31
I00
sg32
I01
sg33
(lp879
ssVmaxRotLimitEnable
p880
(dp881
g27
I00
sg30
I00
sg28
VTdataCompound
p882
sg32
I00
sg33
(lp883
g689
aVmaxRotLimitEnable.maxRotYLimitEnable
p884
ag481
assVrenderLayerInfo.renderLayerColor
p885
(dp886
g41
VrenderLayerInfo
p887
ssVghostCustomSteps.ghostPostSteps
p888
(dp889
g27
I00
sg28
Vlong
p890
sg30
I00
sg31
I00
sg32
I01
sg33
(lp891
ssg784
(dp892
g27
I00
sg28
VdoubleAngle
p893
sg30
I00
sg31
I00
sg32
I01
sg33
(lp894
ssg618
(dp895
g27
I00
sg28
VdoubleAngle
p896
sg30
I00
sg31
I00
sg32
I01
sg33
(lp897
ssg616
(dp898
g27
I00
sg28
VdoubleAngle
p899
sg30
I00
sg31
I00
sg32
I01
sg33
(lp900
ssg617
(dp901
g27
I00
sg28
VdoubleAngle
p902
sg30
I00
sg31
I00
sg32
I01
sg33
(lp903
ssVghostColorPre
p904
(dp905
g27
I00
sg30
I00
sg28
Vfloat3
p906
sg32
I00
sg33
(lp907
g353
ag403
ag410
assVobjectColorRGB.objectColorG
p908
(dp909
g41
VobjectColorRGB
p910
sg27
I00
sg28
Vfloat
p911
sg30
I00
sg31
I00
sg32
I01
sg33
(lp912
ssg281
(dp913
g27
I00
sg28
VdoubleLinear
p914
sg30
I00
sg31
I00
sg32
I01
sg33
(lp915
ssg310
(dp916
g27
I00
sg28
VdoubleAngle
p917
sg30
I00
sg31
I00
sg32
I01
sg33
(lp918
ssVobjectColorRGB.objectColorB
p919
(dp920
g41
VobjectColorRGB
p921
sg27
I00
sg28
Vfloat
p922
sg30
I00
sg31
I00
sg32
I01
sg33
(lp923
ssViconName
p924
(dp925
g27
I00
sg28
Vstring
p926
sg30
I00
sg31
I00
sg32
I01
sg33
(lp927
ssVminScaleLimitEnable.minScaleYLimitEnable
p928
(dp929
g27
I00
sg28
Vbool
p930
sg30
I00
sg31
I00
sg32
I01
sg33
(lp931
ssVboundingBox.boundingBoxSize
p932
(dp933
g41
VboundingBox
p934
ssVrenderInfo.layerOverrideColor
p935
(dp936
g41
VrenderInfo
p937
sg27
I00
sg28
Vbyte
p938
sg30
I00
sg32
I00
sg33
(lp939
ssg279
(dp940
g27
I00
sg28
VdoubleLinear
p941
sg30
I00
sg31
I00
sg32
I01
sg33
(lp942
ssg365
(dp943
g27
I00
sg28
Vdouble
p944
sg30
I00
sg31
I00
sg32
I01
sg33
(lp945
ssVgeometry
p946
(dp947
g27
I00
sg30
I00
sg28
Nsg32
I00
sg33
(lp948
ssg649
(dp949
g27
I00
sg28
Vdouble
p950
sg30
I00
sg31
I00
sg32
I01
sg33
(lp951
ssVobjectColorRGB.objectColorR
p952
(dp953
g41
VobjectColorRGB
p954
sg27
I00
sg28
Vfloat
p955
sg30
I00
sg31
I00
sg32
I01
sg33
(lp956
ssg799
(dp957
g27
I00
sg37
I00
sg33
(lp958
ssVdisplayRotatePivot
p959
(dp960
g27
I00
sg28
Vbool
p961
sg30
I00
sg31
I00
sg32
I01
sg33
(lp962
ssVminScaleLimitEnable.minScaleZLimitEnable
p963
(dp964
g27
I00
sg28
Vbool
p965
sg30
I00
sg31
I00
sg32
I01
sg33
(lp966
ssVminRotateDampStrength
p967
(dp968
g27
I00
sg28
Vdouble3
p969
sg30
I00
sg31
I01
sg32
I01
sg33
(lp970
g452
ag456
ag444
assg688
(dp971
g27
I00
sg28
Vbool
p972
sg30
I00
sg31
I00
sg32
I01
sg33
(lp973
ssVinstObjGroups[0]
p974
(dp975
g27
I00
sg30
I00
sg28
VTdataCompound
p976
sg32
I00
sg33
(lp977
VinstObjGroups[0].objectGroups
p978
assg733
(dp979
g27
I00
sg28
Vdouble
p980
sg30
I00
sg31
I00
sg32
I01
sg33
(lp981
ssVmentalRayControls.miGeoShader
p982
(dp983
g27
I00
sg30
I00
sg28
Nsg32
I00
sg33
(lp984
ssVinverseScale
p985
(dp986
g27
I00
sg28
Vdouble3
p987
sg30
I00
sg31
I01
sg32
I01
sg33
(lp988
g213
ag700
aVinverseScale.inverseScaleZ
p989
assVmaxScaleLimitEnable.maxScaleZLimitEnable
p990
(dp991
g27
I00
sg28
Vbool
p992
sg30
I00
sg31
I00
sg32
I01
sg33
(lp993
ssVboundingBox.boundingBoxMin.boundingBoxMinY
p994
(dp995
g41
VboundingBox.boundingBoxMin
p996
ssVradius
p997
(dp998
g27
I00
sg28
Vdouble
p999
sg30
I00
sg31
I00
sg32
I01
sg33
(lp1000
ssVscalePivot
p1001
(dp1002
g3
I00
sg4
Vdouble3
p1003
sg6
I00
sg7
I01
sg8
I01
sg9
(lp1004
VscalePivot.scalePivotX
p1005
aVscalePivot.scalePivotY
p1006
aVscalePivot.scalePivotZ
p1007
assVspecifiedManipLocation
p1008
(dp1009
g27
I00
sg30
I00
sg28
Nsg32
I00
sg33
(lp1010
ssVmentalRayControls.miCaustic
p1011
(dp1012
g27
I00
sg28
Venum
p1013
sg30
I00
sg31
I00
sg32
I01
sg33
(lp1014
ssg978
(dp1015
g27
I01
sg30
I01
sg32
I00
sg28
VTdataCompound
p1016
ssVmentalRayControls
p1017
(dp1018
g27
I00
sg30
I00
sg28
VTdataCompound
p1019
sg32
I00
sg33
(lp1020
VmentalRayControls.miDeriveFromMaya
p1021
ag587
ag170
ag659
aVmentalRayControls.miShadow
p1022
ag1011
ag721
aVmentalRayControls.miExportGeoShader
p1023
ag982
aVmentalRayControls.miProxyRenderable
p1024
assVrenderInfo
p1025
(dp1026
g27
I00
sg30
I00
sg28
VTdataCompound
p1027
sg32
I00
sg33
(lp1028
VrenderInfo.identification
p1029
aVrenderInfo.layerRenderable
p1030
aVrenderInfo.layerOverrideColor
p1031
assg367
(dp1032
g27
I00
sg28
Vdouble
p1033
sg30
I00
sg31
I00
sg32
I01
sg33
(lp1034
ssVviewMode
p1035
(dp1036
g27
I00
sg28
Venum
p1037
sg30
I00
sg31
I00
sg32
I01
sg33
(lp1038
ssVworldInverseMatrix[0]
p1039
(dp1040
g3
I00
sS'isMulti'
p1041
I00
sg9
(lp1042
sg37
I00
sS'attrType'
p1043
Vmatrix
p1044
ssg366
(dp1045
g27
I00
sg28
Vdouble
p1046
sg30
I00
sg31
I00
sg32
I01
sg33
(lp1047
ssVboundingBox.boundingBoxMax.boundingBoxMaxY
p1048
(dp1049
g41
VboundingBox.boundingBoxMax
p1050
ssVboundingBox.boundingBoxMax.boundingBoxMaxX
p1051
(dp1052
g41
VboundingBox.boundingBoxMax
p1053
ssg868
(dp1054
g27
I00
sg37
I00
sg33
(lp1055
ssVboundingBox.boundingBoxMax.boundingBoxMaxZ
p1056
(dp1057
g41
VboundingBox.boundingBoxMax
p1058
ssg884
(dp1059
g27
I00
sg28
Vbool
p1060
sg30
I00
sg31
I00
sg32
I01
sg33
(lp1061
ssVminScaleLimit
p1062
(dp1063
g27
I00
sg28
Vdouble3
p1064
sg30
I00
sg31
I01
sg32
I01
sg33
(lp1065
g876
ag773
ag502
assVmaxScaleLimitEnable
p1066
(dp1067
g27
I00
sg30
I00
sg28
VTdataCompound
p1068
sg32
I00
sg33
(lp1069
g198
ag326
ag990
assVminRotLimitEnable.minRotYLimitEnable
p1070
(dp1071
g27
I00
sg28
Vbool
p1072
sg30
I00
sg31
I00
sg32
I01
sg33
(lp1073
ssVisCollapsed
p1074
(dp1075
g27
I00
sg28
Vbool
p1076
sg30
I00
sg31
I00
sg32
I01
sg33
(lp1077
ssVboundingBox.boundingBoxSize.boundingBoxSizeX
p1078
(dp1079
g41
VboundingBox.boundingBoxSize
p1080
ssg1023
(dp1081
g27
I00
sg28
Vbool
p1082
sg30
I00
sg31
I00
sg32
I01
sg33
(lp1083
ssVboundingBox.boundingBoxSize.boundingBoxSizeZ
p1084
(dp1085
g41
VboundingBox.boundingBoxSize
p1086
ssVbindScale
p1087
(dp1088
g27
I00
sg28
Vdouble3
p1089
sg30
I00
sg31
I01
sg32
I01
sg33
(lp1090
g631
aVbindScale.bindScaleY
p1091
ag627
assVtemplateName
p1092
(dp1093
g27
I00
sg28
Vstring
p1094
sg30
I00
sg31
I00
sg32
I01
sg33
(lp1095
ssVghostingControl
p1096
(dp1097
g27
I00
sg28
Venum
p1098
sg30
I00
sg31
I00
sg32
I01
sg33
(lp1099
ssg819
(dp1100
g27
I00
sg28
VdoubleAngle
p1101
sg30
I00
sg31
I00
sg32
I01
sg33
(lp1102
ssg820
(dp1103
g27
I00
sg28
VdoubleAngle
p1104
sg30
I00
sg31
I00
sg32
I01
sg33
(lp1105
ssg821
(dp1106
g27
I00
sg28
VdoubleAngle
p1107
sg30
I00
sg31
I00
sg32
I01
sg33
(lp1108
ssVinstObjGroups[2]
p1109
(dp1110
g27
I00
sg37
I00
sg33
(lp1111
g794
assVworldInverseMatrix
p1112
(dp1113
g3
I01
sg6
I01
sg8
I00
sg4
Vmatrix
p1114
ssg989
(dp1115
g27
I00
sg28
Vdouble
p1116
sg30
I00
sg31
I00
sg32
I01
sg33
(lp1117
ssg1091
(dp1118
g27
I00
sg28
VdoubleAngle
p1119
sg30
I00
sg31
I00
sg32
I01
sg33
(lp1120
ssVisHierarchicalConnection[0]
p1121
(dp1122
g27
I00
sg37
I00
sg33
(lp1123
ssVjointType
p1124
(dp1125
g27
I00
sg28
Vstring
p1126
sg30
I00
sg31
I00
sg32
I01
sg33
(lp1127
ssVinstObjGroups.objectGroups.objectGroupId
p1128
(dp1129
g41
VinstObjGroups.objectGroups
p1130
ssVminScaleLimitEnable
p1131
(dp1132
g27
I00
sg30
I00
sg28
VTdataCompound
p1133
sg32
I00
sg33
(lp1134
VminScaleLimitEnable.minScaleXLimitEnable
p1135
ag928
ag963
assg785
(dp1136
g27
I00
sg28
VdoubleAngle
p1137
sg30
I00
sg31
I00
sg32
I01
sg33
(lp1138
ssVxformMatrix
p1139
(dp1140
g27
I00
sg30
I00
sg28
Vmatrix
p1141
sg32
I00
sg33
(lp1142
ssg545
(dp1143
g27
I00
sg28
VdoubleLinear
p1144
sg30
I00
sg31
I00
sg32
I01
sg33
(lp1145
ssg851
(dp1146
g27
I00
sg28
Venum
p1147
sg30
I00
sg31
I00
sg32
I01
sg33
(lp1148
ssVscale.scaleZ
p1149
(dp1150
g3
I00
sg4
Vdouble
p1151
sg6
I00
sg7
I00
sg8
I01
sg9
(lp1152
ssg667
(dp1153
g27
I00
sg28
VdoubleAngle
p1154
sg30
I00
sg31
I00
sg32
I01
sg33
(lp1155
ssVboundingBox.boundingBoxSize.boundingBoxSizeY
p1156
(dp1157
g41
VboundingBox.boundingBoxSize
p1158
ssg669
(dp1159
g27
I00
sg28
VdoubleAngle
p1160
sg30
I00
sg31
I00
sg32
I01
sg33
(lp1161
ssg734
(dp1162
g27
I00
sg28
Vdouble
p1163
sg30
I00
sg31
I00
sg32
I01
sg33
(lp1164
ssVminTransLimitEnable.minTransXLimitEnable
p1165
(dp1166
g27
I00
sg28
Vbool
p1167
sg30
I00
sg31
I00
sg32
I01
sg33
(lp1168
ssVrenderInfo.identification
p1169
(dp1170
g41
VrenderInfo
p1171
sg27
I00
sg28
Vshort
p1172
sg30
I00
sg31
I00
sg32
I01
sg33
(lp1173
ssVghostColorPreA
p1174
(dp1175
g27
I00
sg28
Vfloat
p1176
sg30
I00
sg31
I00
sg32
I01
sg33
(lp1177
ssVghostRangeStart
p1178
(dp1179
g27
I00
sg28
Vtime
p1180
sg30
I00
sg31
I00
sg32
I01
sg33
(lp1181
ssVghostCustomSteps
p1182
(dp1183
g27
I00
sg30
I00
sg28
VTdataCompound
p1184
sg32
I00
sg33
(lp1185
g591
ag888
aVghostCustomSteps.ghostStepSize
p1186
assVrenderLayerInfo[1]
p1187
(dp1188
g27
I00
sg37
I00
sg33
(lp1189
g524
ag400
ag650
assVparentInverseMatrix[2]
p1190
(dp1191
g3
I00
sg9
(lp1192
ssg1186
(dp1193
g27
I00
sg28
Vlong
p1194
sg30
I00
sg31
I00
sg32
I01
sg33
(lp1195
ssg853
(dp1196
g27
I00
sg28
Vbool
p1197
sg30
I00
sg31
I00
sg32
I01
sg33
(lp1198
ssVminRotLimitEnable
p1199
(dp1200
g27
I00
sg30
I00
sg28
VTdataCompound
p1201
sg32
I00
sg33
(lp1202
g825
ag1070
ag95
assVinstObjGroups.objectGroups.objectGrpColor
p1203
(dp1204
g41
VinstObjGroups.objectGroups
p1205
ssg128
(dp1206
g27
I00
sg28
VdoubleLinear
p1207
sg30
I00
sg31
I00
sg32
I01
sg33
(lp1208
ssg1021
(dp1209
g27
I00
sg28
Vbool
p1210
sg30
I00
sg31
I00
sg32
I01
sg33
(lp1211
ssg143
(dp1212
g27
I00
sg28
Vdouble
p1213
sg30
I00
sg31
I00
sg32
I01
sg33
(lp1214
ssVlodVisibility
p1215
(dp1216
g27
I00
sg28
Vbool
p1217
sg30
I00
sg31
I00
sg32
I01
sg33
(lp1218
ssVworldMatrix[1]
p1219
(dp1220
g3
I00
sg37
I00
sg9
(lp1221
ssg383
(dp1222
g27
I00
sg37
I00
sg33
(lp1223
ssg668
(dp1224
g27
I00
sg28
VdoubleAngle
p1225
sg30
I00
sg31
I00
sg32
I01
sg33
(lp1226
ssVscalePivotTranslate.scalePivotTranslateZ
p1227
(dp1228
g3
I00
sg4
VdoubleLinear
p1229
sg6
I00
sg7
I00
sg8
I01
sg9
(lp1230
ssVscalePivotTranslate.scalePivotTranslateX
p1231
(dp1232
g3
I00
sg4
VdoubleLinear
p1233
sg6
I00
sg7
I00
sg8
I01
sg9
(lp1234
ssVscalePivotTranslate.scalePivotTranslateY
p1235
(dp1236
g3
I00
sg4
VdoubleLinear
p1237
sg6
I00
sg7
I00
sg8
I01
sg9
(lp1238
ssVikRotate.ikRotateZ
p1239
(dp1240
g27
I00
sg28
VdoubleAngle
p1241
sg30
I00
sg31
I00
sg32
I01
sg33
(lp1242
ssVuiTreatment
p1243
(dp1244
g27
I00
sg28
Venum
p1245
sg30
I00
sg31
I00
sg32
I01
sg33
(lp1246
ssg852
(dp1247
g27
I00
sg28
Vbool
p1248
sg30
I00
sg31
I00
sg32
I01
sg33
(lp1249
ssg66
(dp1250
g27
I00
sg28
Vfloat
p1251
sg30
I00
sg31
I00
sg32
I01
sg33
(lp1252
ssg1024
(dp1253
g27
I00
sg28
Vbool
p1254
sg30
I00
sg31
I00
sg32
I01
sg33
(lp1255
ssVghostFrames
p1256
(dp1257
g27
I00
sg30
I00
sg28
Nsg32
I00
sg33
(lp1258
ssg1022
(dp1259
g27
I00
sg28
Venum
p1260
sg30
I00
sg31
I00
sg32
I01
sg33
(lp1261
ssVmaxRotateDampRange
p1262
(dp1263
g27
I00
sg28
Vdouble3
p1264
sg30
I00
sg31
I01
sg32
I01
sg33
(lp1265
g800
ag804
ag808
assg1135
(dp1266
g27
I00
sg28
Vbool
p1267
sg30
I00
sg31
I00
sg32
I01
sg33
(lp1268
ssg638
(dp1269
g27
I00
sg37
I00
sg33
(lp1270
ssVminTransLimitEnable
p1271
(dp1272
g27
I00
sg30
I00
sg28
VTdataCompound
p1273
sg32
I00
sg33
(lp1274
g1165
ag72
ag247
assg65
(dp1275
g27
I00
sg28
Vfloat
p1276
sg30
I00
sg31
I00
sg32
I01
sg33
(lp1277
ssVrotatePivotTranslate
p1278
(dp1279
g3
I00
sg4
Vdouble3
p1280
sg6
I00
sg7
I01
sg8
I01
sg9
(lp1281
VrotatePivotTranslate.rotatePivotTranslateX
p1282
aVrotatePivotTranslate.rotatePivotTranslateY
p1283
aVrotatePivotTranslate.rotatePivotTranslateZ
p1284
assVrotate.rotateZ
p1285
(dp1286
g3
I00
sg4
VdoubleAngle
p1287
sg6
I00
sg7
I00
sg8
I01
sg9
(lp1288
ssg384
(dp1289
g27
I00
sg37
I00
sg33
(lp1290
ssVrotate.rotateX
p1291
(dp1292
g3
I00
sg4
VdoubleAngle
p1293
sg6
I00
sg7
I00
sg8
I01
sg9
(lp1294
ssVrotate.rotateY
p1295
(dp1296
g3
I00
sg4
VdoubleAngle
p1297
sg6
I00
sg7
I00
sg8
I01
sg9
(lp1298
ssVcaching
p1299
(dp1300
g27
I00
sg28
Vbool
p1301
sg30
I00
sg31
I00
sg32
I01
sg33
(lp1302
ssVikRotate.ikRotateX
p1303
(dp1304
g27
I00
sg28
VdoubleAngle
p1305
sg30
I00
sg31
I00
sg32
I01
sg33
(lp1306
ssVinverseMatrix
p1307
(dp1308
S'isArray'
p1309
I00
sg6
I00
sg4
Vmatrix
p1310
sg8
I00
sS'attrChildrenLongNames'
p1311
(lp1312
ssVblackBox
p1313
(dp1314
g27
I00
sg28
Vbool
p1315
sg30
I00
sg31
I00
sg32
I01
sg33
(lp1316
ssVcenter.boundingBoxCenterZ
p1317
(dp1318
g41
Vcenter
p1319
ssVikRotate
p1320
(dp1321
g27
I00
sg28
Vdouble3
p1322
sg30
I00
sg31
I01
sg32
I01
sg33
(lp1323
g1303
ag88
ag1239
assVcenter.boundingBoxCenterX
p1324
(dp1325
g41
Vcenter
p1326
ssVcenter.boundingBoxCenterY
p1327
(dp1328
g41
Vcenter
p1329
ss.