(dp0
VlightDataArray[0].lightSpecular
p1
(dp2
S'isArray'
p3
I00
sS'attrChildrenLongNames'
p4
(lp5
ssVlightDataArray.preShadowIntensity
p6
(dp7
S'attrParentLongName'
p8
VlightDataArray
p9
ssVshadowAttenuation
p10
(dp11
g3
I00
sS'attrType'
p12
Vfloat
p13
sS'isMulti'
p14
I00
sS'isCompound'
p15
I00
sS'isSimple'
p16
I01
sg4
(lp17
ssVlightDataArray[1].lightDirection
p18
(dp19
g3
I00
sg4
(lp20
VlightDataArray[1].lightDirection.lightDirectionX
p21
aVlightDataArray[1].lightDirection.lightDirectionY
p22
aVlightDataArray[1].lightDirection.lightDirectionZ
p23
assVmiColor
p24
(dp25
g3
I00
sg14
I00
sg4
(lp26
VmiColor.miColorR
p27
aVmiColor.miColorG
p28
aVmiColor.miColorB
p29
asg16
I00
sg12
Vfloat3
p30
ssVtranslucenceFocus
p31
(dp32
g3
I00
sg12
Vfloat
p33
sg14
I00
sg15
I00
sg16
I01
sg4
(lp34
ssVvrEdgeWeight
p35
(dp36
g3
I00
sg12
Vdouble
p37
sg14
I00
sg15
I00
sg16
I01
sg4
(lp38
ssVrefractiveIndex
p39
(dp40
g3
I00
sg12
Vfloat
p41
sg14
I00
sg15
I00
sg16
I01
sg4
(lp42
ssVambientColor
p43
(dp44
g3
I00
sg14
I00
sg4
(lp45
VambientColor.ambientColorR
p46
aVambientColor.ambientColorG
p47
aVambientColor.ambientColorB
p48
asg16
I00
sg12
Vfloat3
p49
ssVrayDirection.rayDirectionX
p50
(dp51
g3
I00
sg12
Vfloat
p52
sg14
I00
sg15
I00
sg16
I01
sg4
(lp53
ssVtransparency.transparencyB
p54
(dp55
g3
I00
sg12
Vfloat
p56
sg14
I00
sg15
I00
sg16
I01
sg4
(lp57
ssVlightDataArray[0].preShadowIntensity
p58
(dp59
g3
I00
sg4
(lp60
ssVobjectId
p61
(dp62
g3
I00
sg14
I00
sg4
(lp63
sg16
I00
sg12
Vaddr
p64
ssVlightDataArray[0].lightDiffuse
p65
(dp66
g3
I00
sg4
(lp67
ssVlightDataArray.lightIntensityB
p68
(dp69
g8
VlightDataArray.lightIntensity
p70
ssVrayDepth
p71
(dp72
g3
I00
sg12
Vshort
p73
sg14
I00
sg15
I00
sg16
I01
sg4
(lp74
ssVlightDataArray.lightIntensityG
p75
(dp76
g8
VlightDataArray.lightIntensity
p77
ssVbinMembership
p78
(dp79
g3
I00
sg12
Vstring
p80
sg14
I00
sg15
I00
sg16
I01
sg4
(lp81
ssVchromaticAberration
p82
(dp83
g3
I00
sg12
Vbool
p84
sg14
I00
sg15
I00
sg16
I01
sg4
(lp85
ssVvrFillObject
p86
(dp87
g3
I00
sg12
Venum
p88
sg14
I00
sg15
I00
sg16
I01
sg4
(lp89
ssVlightDataArray.lightIntensityR
p90
(dp91
g8
VlightDataArray.lightIntensity
p92
ssVmatteOpacity
p93
(dp94
g3
I00
sg12
Vfloat
p95
sg14
I00
sg15
I00
sg16
I01
sg4
(lp96
ssVlightDataArray[0].lightDirection
p97
(dp98
g3
I00
sg4
(lp99
VlightDataArray[0].lightDirection.lightDirectionX
p100
aVlightDataArray[0].lightDirection.lightDirectionY
p101
aVlightDataArray[0].lightDirection.lightDirectionZ
p102
assVmiRefractionBlur
p103
(dp104
g3
I00
sg12
Vfloat
p105
sg14
I00
sg15
I00
sg16
I01
sg4
(lp106
ssVrefractions
p107
(dp108
g3
I00
sg12
Vbool
p109
sg14
I00
sg15
I00
sg16
I01
sg4
(lp110
ssVvrEdgeColor.vrEdgeColorB
p111
(dp112
g3
I00
sg12
Vfloat
p113
sg14
I00
sg15
I00
sg16
I01
sg4
(lp114
ssg28
(dp115
g3
I00
sg12
Vfloat
p116
sg14
I00
sg15
I00
sg16
I01
sg4
(lp117
ssVpointCamera.pointCameraZ
p118
(dp119
g3
I00
sg12
Vfloat
p120
sg14
I00
sg15
I00
sg16
I01
sg4
(lp121
ssVvrOverwriteDefaults
p122
(dp123
g3
I00
sg12
Vbool
p124
sg14
I00
sg15
I00
sg16
I01
sg4
(lp125
ssVpointCamera.pointCameraX
p126
(dp127
g3
I00
sg12
Vfloat
p128
sg14
I00
sg15
I00
sg16
I01
sg4
(lp129
ssVpointCamera.pointCameraY
p130
(dp131
g3
I00
sg12
Vfloat
p132
sg14
I00
sg15
I00
sg16
I01
sg4
(lp133
ssVmiNormalCamera.miNormalCameraX
p134
(dp135
g3
I00
sg12
Vfloat
p136
sg14
I00
sg15
I00
sg16
I01
sg4
(lp137
ssVmiNormalCamera.miNormalCameraY
p138
(dp139
g3
I00
sg12
Vfloat
p140
sg14
I00
sg15
I00
sg16
I01
sg4
(lp141
ssVmiNormalCamera.miNormalCameraZ
p142
(dp143
g3
I00
sg12
Vfloat
p144
sg14
I00
sg15
I00
sg16
I01
sg4
(lp145
ssg22
(dp146
g3
I00
sg4
(lp147
ssVlightDataArray[1].lightDiffuse
p148
(dp149
g3
I00
sg4
(lp150
ssVmiFrameBufferWriteOperation
p151
(dp152
g3
I00
sg12
Venum
p153
sg14
I00
sg15
I00
sg16
I01
sg4
(lp154
ssVlightDataArray.lightIntensity
p155
(dp156
g8
VlightDataArray
p157
ssVtransparency.transparencyR
p158
(dp159
g3
I00
sg12
Vfloat
p160
sg14
I00
sg15
I00
sg16
I01
sg4
(lp161
ssVmiRefractionBlurLimit
p162
(dp163
g3
I00
sg12
Vshort
p164
sg14
I00
sg15
I00
sg16
I01
sg4
(lp165
ssVmiTransparency.miTransparencyG
p166
(dp167
g3
I00
sg12
Vfloat
p168
sg14
I00
sg15
I00
sg16
I01
sg4
(lp169
ssVpointCamera
p170
(dp171
g3
I00
sg14
I00
sg4
(lp172
g126
ag130
ag118
asg16
I00
sg12
Vfloat3
p173
ssVmiTransparency.miTransparencyB
p174
(dp175
g3
I00
sg12
Vfloat
p176
sg14
I00
sg15
I00
sg16
I01
sg4
(lp177
ssg47
(dp178
g3
I00
sg12
Vfloat
p179
sg14
I00
sg15
I00
sg16
I01
sg4
(lp180
ssVtransparency.transparencyG
p181
(dp182
g3
I00
sg12
Vfloat
p183
sg14
I00
sg15
I00
sg16
I01
sg4
(lp184
ssVlightDataArray[1].lightSpecular
p185
(dp186
g3
I00
sg4
(lp187
ssVtransparencyDepth
p188
(dp189
g3
I00
sg12
Vfloat
p190
sg14
I00
sg15
I00
sg16
I01
sg4
(lp191
ssVmiTransparency.miTransparencyR
p192
(dp193
g3
I00
sg12
Vfloat
p194
sg14
I00
sg15
I00
sg16
I01
sg4
(lp195
ssVsurfaceThickness
p196
(dp197
g3
I00
sg12
Vfloat
p198
sg14
I00
sg15
I00
sg16
I01
sg4
(lp199
ssVmiScatterColor.miScatterColorR
p200
(dp201
g3
I00
sg12
Vfloat
p202
sg14
I00
sg15
I00
sg16
I01
sg4
(lp203
ssVmiIrradiance.miIrradianceG
p204
(dp205
g3
I00
sg12
Vfloat
p206
sg14
I00
sg15
I00
sg16
I01
sg4
(lp207
ssVoutTransparency.outTransparencyG
p208
(dp209
g3
I00
sg12
Vfloat
p210
sg14
I00
sg15
I00
sg16
I01
sg4
(lp211
ssVlightDataArray.lightBlindData
p212
(dp213
g8
VlightDataArray
p214
ssVmiScatterColor.miScatterColorB
p215
(dp216
g3
I00
sg12
Vfloat
p217
sg14
I00
sg15
I00
sg16
I01
sg4
(lp218
ssVprimitiveId
p219
(dp220
g3
I00
sg12
Vlong
p221
sg14
I00
sg15
I00
sg16
I01
sg4
(lp222
ssVoutTransparency
p223
(dp224
g3
I00
sg14
I00
sg4
(lp225
VoutTransparency.outTransparencyR
p226
ag208
aVoutTransparency.outTransparencyB
p227
asg16
I00
sg12
Vfloat3
p228
ssVmiIrradiance
p229
(dp230
g3
I00
sg14
I00
sg4
(lp231
VmiIrradiance.miIrradianceR
p232
ag204
aVmiIrradiance.miIrradianceB
p233
asg16
I00
sg12
Vfloat3
p234
ssVmiDiffuse
p235
(dp236
g3
I00
sg12
Vfloat
p237
sg14
I00
sg15
I00
sg16
I01
sg4
(lp238
ssVcolor.colorR
p239
(dp240
g3
I00
sg12
Vfloat
p241
sg14
I00
sg15
I00
sg16
I01
sg4
(lp242
sS'isNumeric'
p243
I01
ssVnormalCamera.normalCameraY
p244
(dp245
g3
I00
sg12
Vfloat
p246
sg14
I00
sg15
I00
sg16
I01
sg4
(lp247
ssVnormalCamera.normalCameraZ
p248
(dp249
g3
I00
sg12
Vfloat
p250
sg14
I00
sg15
I00
sg16
I01
sg4
(lp251
ssVvrEdgeColor.vrEdgeColorR
p252
(dp253
g3
I00
sg12
Vfloat
p254
sg14
I00
sg15
I00
sg16
I01
sg4
(lp255
ssVlightAbsorbance
p256
(dp257
g3
I00
sg12
Vfloat
p258
sg14
I00
sg15
I00
sg16
I01
sg4
(lp259
ssVoutGlowColor.outGlowColorR
p260
(dp261
g3
I00
sg12
Vfloat
p262
sg14
I00
sg15
I00
sg16
I01
sg4
(lp263
ssVlightDataArray[0].lightIntensity
p264
(dp265
g3
I00
sg4
(lp266
VlightDataArray[0].lightIntensity.lightIntensityR
p267
aVlightDataArray[0].lightIntensity.lightIntensityG
p268
aVlightDataArray[0].lightIntensity.lightIntensityB
p269
assVcolor.colorG
p270
(dp271
g3
I00
sg12
Vfloat
p272
sg14
I00
sg15
I00
sg16
I01
sg4
(lp273
sg243
I01
ssVcolor.colorB
p274
(dp275
g3
I00
sg12
Vfloat
p276
sg14
I00
sg15
I00
sg16
I01
sg4
(lp277
sg243
I01
ssVlightDataArray.lightSpecular
p278
(dp279
g8
VlightDataArray
p280
ssg48
(dp281
g3
I00
sg12
Vfloat
p282
sg14
I00
sg15
I00
sg16
I01
sg4
(lp283
ssVoutGlowColor.outGlowColorB
p284
(dp285
g3
I00
sg12
Vfloat
p286
sg14
I00
sg15
I00
sg16
I01
sg4
(lp287
ssVvrEdgeColor.vrEdgeColorG
p288
(dp289
g3
I00
sg12
Vfloat
p290
sg14
I00
sg15
I00
sg16
I01
sg4
(lp291
ssVoutGlowColor.outGlowColorG
p292
(dp293
g3
I00
sg12
Vfloat
p294
sg14
I00
sg15
I00
sg16
I01
sg4
(lp295
ssg268
(dp296
g3
I00
sg4
(lp297
ssVhardwareShader.hardwareShaderR
p298
(dp299
g3
I00
sg12
Vfloat
p300
sg14
I00
sg15
I00
sg16
I01
sg4
(lp301
ssVincandescence
p302
(dp303
g3
I00
sg14
I00
sg4
(lp304
Vincandescence.incandescenceR
p305
aVincandescence.incandescenceG
p306
aVincandescence.incandescenceB
p307
asg16
I00
sg12
Vfloat3
p308
ssg269
(dp309
g3
I00
sg4
(lp310
ssVmediumRefractiveIndex
p311
(dp312
g3
I00
sg12
Vfloat
p313
sg14
I00
sg15
I00
sg16
I01
sg4
(lp314
ssg267
(dp315
g3
I00
sg4
(lp316
ssVhardwareShader
p317
(dp318
g3
I00
sg14
I00
sg4
(lp319
g298
aVhardwareShader.hardwareShaderG
p320
aVhardwareShader.hardwareShaderB
p321
asg16
I00
sg12
Vfloat3
p322
ssVrayInstance
p323
(dp324
g3
I00
sg12
Vlong
p325
sg14
I00
sg15
I00
sg16
I01
sg4
(lp326
ssg305
(dp327
g3
I00
sg12
Vfloat
p328
sg14
I00
sg15
I00
sg16
I01
sg4
(lp329
ssVlightDataArray[0].lightShadowFraction
p330
(dp331
g3
I00
sg4
(lp332
ssVrefractionLimit
p333
(dp334
g3
I00
sg12
Vshort
p335
sg14
I00
sg15
I00
sg16
I01
sg4
(lp336
ssVmiIrradianceColor
p337
(dp338
g3
I00
sg14
I00
sg4
(lp339
VmiIrradianceColor.miIrradianceColorR
p340
aVmiIrradianceColor.miIrradianceColorG
p341
aVmiIrradianceColor.miIrradianceColorB
p342
asg16
I00
sg12
Vfloat3
p343
ssg307
(dp344
g3
I00
sg12
Vfloat
p345
sg14
I00
sg15
I00
sg16
I01
sg4
(lp346
ssVlightDataArray[1].lightBlindData
p347
(dp348
g3
I00
sg4
(lp349
ssVlightDataArray.lightDirectionZ
p350
(dp351
g8
VlightDataArray.lightDirection
p352
ssg306
(dp353
g3
I00
sg12
Vfloat
p354
sg14
I00
sg15
I00
sg16
I01
sg4
(lp355
ssVlightDataArray.lightDirectionX
p356
(dp357
g8
VlightDataArray.lightDirection
p358
ssVlightDataArray.lightDirectionY
p359
(dp360
g8
VlightDataArray.lightDirection
p361
ssVmiDeriveFromMaya
p362
(dp363
g3
I00
sg12
Vbool
p364
sg14
I00
sg15
I00
sg16
I01
sg4
(lp365
ssVmiScatterFalloff
p366
(dp367
g3
I00
sg12
Venum
p368
sg14
I00
sg15
I00
sg16
I01
sg4
(lp369
ssVmiScatterRadius
p370
(dp371
g3
I00
sg12
Vfloat
p372
sg14
I00
sg15
I00
sg16
I01
sg4
(lp373
ssVraySampler
p374
(dp375
g3
I00
sg14
I00
sg4
(lp376
sg16
I00
sg12
Vaddr
p377
ssVcolor
p378
(dp379
g3
I00
sg14
I00
sg4
(lp380
g239
ag270
ag274
asg16
I00
sg12
Vfloat3
p381
ssVvrHiddenEdgesOnTransparent
p382
(dp383
g3
I00
sg12
Vbool
p384
sg14
I00
sg15
I00
sg16
I01
sg4
(lp385
ssg23
(dp386
g3
I00
sg4
(lp387
ssg102
(dp388
g3
I00
sg4
(lp389
ssg21
(dp390
g3
I00
sg4
(lp391
ssg100
(dp392
g3
I00
sg4
(lp393
ssVlightDataArray[1]
p394
(dp395
g3
I00
sg4
(lp396
g18
aVlightDataArray[1].lightIntensity
p397
aVlightDataArray[1].lightAmbient
p398
ag148
ag185
aVlightDataArray[1].lightShadowFraction
p399
aVlightDataArray[1].preShadowIntensity
p400
ag347
assg226
(dp401
g3
I00
sg12
Vfloat
p402
sg14
I00
sg15
I00
sg16
I01
sg4
(lp403
ssVtranslucenceDepth
p404
(dp405
g3
I00
sg12
Vfloat
p406
sg14
I00
sg15
I00
sg16
I01
sg4
(lp407
ssVmiFrameBufferWriteFlags
p408
(dp409
g3
I00
sg12
Vlong
p410
sg14
I00
sg15
I00
sg16
I01
sg4
(lp411
ssVisHistoricallyInteresting
p412
(dp413
g3
I00
sg14
I00
sg4
(lp414
sg16
I00
sg12
Vbyte
p415
ssVlightDataArray[0].lightAmbient
p416
(dp417
g3
I00
sg4
(lp418
ssg340
(dp419
g3
I00
sg12
Vfloat
p420
sg14
I00
sg15
I00
sg16
I01
sg4
(lp421
ssVvrEdgePriority
p422
(dp423
g3
I00
sg12
Vlong
p424
sg14
I00
sg15
I00
sg16
I01
sg4
(lp425
ssVtranslucence
p426
(dp427
g3
I00
sg12
Vfloat
p428
sg14
I00
sg15
I00
sg16
I01
sg4
(lp429
ssg321
(dp430
g3
I00
sg12
Vfloat
p431
sg14
I00
sg15
I00
sg16
I01
sg4
(lp432
ssg341
(dp433
g3
I00
sg12
Vfloat
p434
sg14
I00
sg15
I00
sg16
I01
sg4
(lp435
ssVmiTranslucenceFocus
p436
(dp437
g3
I00
sg12
Vfloat
p438
sg14
I00
sg15
I00
sg16
I01
sg4
(lp439
ssg320
(dp440
g3
I00
sg12
Vfloat
p441
sg14
I00
sg15
I00
sg16
I01
sg4
(lp442
ssVmiNormalCamera
p443
(dp444
g3
I00
sg14
I00
sg4
(lp445
g134
ag138
ag142
asg16
I00
sg12
Vfloat3
p446
ssg400
(dp447
g3
I00
sg4
(lp448
ssVmiScatterColor
p449
(dp450
g3
I00
sg14
I00
sg4
(lp451
g200
aVmiScatterColor.miScatterColorG
p452
ag215
asg16
I00
sg12
Vfloat3
p453
ssVmiRefractiveIndex
p454
(dp455
g3
I00
sg12
Vfloat
p456
sg14
I00
sg15
I00
sg16
I01
sg4
(lp457
ssVlightDataArray.lightShadowFraction
p458
(dp459
g8
VlightDataArray
p460
ssVmiScatterCache
p461
(dp462
g3
I00
sg12
Vshort
p463
sg14
I00
sg15
I00
sg16
I01
sg4
(lp464
ssVlightDataArray[0]
p465
(dp466
g3
I00
sg4
(lp467
g97
ag264
ag416
ag65
ag1
ag330
ag58
aVlightDataArray[0].lightBlindData
p468
assVmaterialAlphaGain
p469
(dp470
g3
I00
sg12
Vfloat
p471
sg14
I00
sg15
I00
sg16
I01
sg4
(lp472
ssVdiffuse
p473
(dp474
g3
I00
sg12
Vfloat
p475
sg14
I00
sg15
I00
sg16
I01
sg4
(lp476
sS'isNumeric'
p477
I01
ssg342
(dp478
g3
I00
sg12
Vfloat
p479
sg14
I00
sg15
I00
sg16
I01
sg4
(lp480
ssg452
(dp481
g3
I00
sg12
Vfloat
p482
sg14
I00
sg15
I00
sg16
I01
sg4
(lp483
ssg468
(dp484
g3
I00
sg4
(lp485
ssVrayDirection
p486
(dp487
g3
I00
sg14
I00
sg4
(lp488
g50
aVrayDirection.rayDirectionY
p489
aVrayDirection.rayDirectionZ
p490
asg16
I00
sg12
Vfloat3
p491
ssVmatteOpacityMode
p492
(dp493
g3
I00
sg12
Venum
p494
sg14
I00
sg15
I00
sg16
I01
sg4
(lp495
ssVnormalCamera
p496
(dp497
g3
I00
sg14
I00
sg4
(lp498
VnormalCamera.normalCameraX
p499
ag244
ag248
asg16
I00
sg12
Vfloat3
p500
ssVvrEdgeColor
p501
(dp502
g3
I00
sg14
I00
sg4
(lp503
g252
ag288
ag111
asg16
I00
sg12
Vfloat3
p504
ssVtransparency
p505
(dp506
g3
I00
sg14
I00
sg4
(lp507
g158
ag181
ag54
asg16
I00
sg12
Vfloat3
p508
ssVvrEdgeStyle
p509
(dp510
g3
I00
sg12
Venum
p511
sg14
I00
sg15
I00
sg16
I01
sg4
(lp512
ssg398
(dp513
g3
I00
sg4
(lp514
ssg227
(dp515
g3
I00
sg12
Vfloat
p516
sg14
I00
sg15
I00
sg16
I01
sg4
(lp517
ssVmiTranslucence
p518
(dp519
g3
I00
sg12
Vfloat
p520
sg14
I00
sg15
I00
sg16
I01
sg4
(lp521
ssVopacityDepth
p522
(dp523
g3
I00
sg12
Vfloat
p524
sg14
I00
sg15
I00
sg16
I01
sg4
(lp525
ssVoutColor.outColorR
p526
(dp527
g3
I00
sg12
Vfloat
p528
sg14
I00
sg15
I00
sg16
I01
sg4
(lp529
ssVvrHiddenEdges
p530
(dp531
g3
I00
sg12
Vbool
p532
sg14
I00
sg15
I00
sg16
I01
sg4
(lp533
ssVlightDataArray.lightDirection
p534
(dp535
g8
VlightDataArray
p536
ssVglowIntensity
p537
(dp538
g3
I00
sg12
Vfloat
p539
sg14
I00
sg15
I00
sg16
I01
sg4
(lp540
ssVmiRefractionRays
p541
(dp542
g3
I00
sg12
Vshort
p543
sg14
I00
sg15
I00
sg16
I01
sg4
(lp544
ssVoutColor.outColorG
p545
(dp546
g3
I00
sg12
Vfloat
p547
sg14
I00
sg15
I00
sg16
I01
sg4
(lp548
ssVoutColor.outColorB
p549
(dp550
g3
I00
sg12
Vfloat
p551
sg14
I00
sg15
I00
sg16
I01
sg4
(lp552
ssg397
(dp553
g3
I00
sg4
(lp554
VlightDataArray[1].lightIntensity.lightIntensityR
p555
aVlightDataArray[1].lightIntensity.lightIntensityG
p556
aVlightDataArray[1].lightIntensity.lightIntensityB
p557
assVlightDataArray.lightDiffuse
p558
(dp559
g8
VlightDataArray
p560
ssg555
(dp561
g3
I00
sg4
(lp562
ssVoutColor
p563
(dp564
g3
I00
sg14
I00
sg4
(lp565
g526
ag545
ag549
asg16
I00
sg12
Vfloat3
p566
ssg557
(dp567
g3
I00
sg4
(lp568
ssg556
(dp569
g3
I00
sg4
(lp570
ssg101
(dp571
g3
I00
sg4
(lp572
ssVoutMatteOpacity
p573
(dp574
g3
I00
sg12
Vfloat3
p575
sg14
I00
sg16
I00
sg4
(lp576
VoutMatteOpacity.outMatteOpacityR
p577
aVoutMatteOpacity.outMatteOpacityG
p578
aVoutMatteOpacity.outMatteOpacityB
p579
asS'isNumeric'
p580
I01
ssVmiTransparency
p581
(dp582
g3
I00
sg14
I00
sg4
(lp583
g192
ag166
ag174
asg16
I00
sg12
Vfloat3
p584
ssg578
(dp585
g3
I00
sg12
Vfloat
p586
sg14
I00
sg15
I00
sg16
I01
sg4
(lp587
sg243
I01
ssVnodeState
p588
(dp589
g3
I00
sg12
Venum
p590
sg14
I00
sg15
I00
sg16
I01
sg4
(lp591
ssg579
(dp592
g3
I00
sg12
Vfloat
p593
sg14
I00
sg15
I00
sg16
I01
sg4
(lp594
sg243
I01
ssVlightDataArray
p595
(dp596
g3
I01
sg14
I01
sg16
I00
sg12
VTdataCompound
p597
ssVmiRefractions
p598
(dp599
g3
I00
sg12
Vbool
p600
sg14
I00
sg15
I00
sg16
I01
sg4
(lp601
ssg577
(dp602
g3
I00
sg12
Vfloat
p603
sg14
I00
sg15
I00
sg16
I01
sg4
(lp604
sg243
I01
ssg499
(dp605
g3
I00
sg12
Vfloat
p606
sg14
I00
sg15
I00
sg16
I01
sg4
(lp607
ssg490
(dp608
g3
I00
sg12
Vfloat
p609
sg14
I00
sg15
I00
sg16
I01
sg4
(lp610
ssVvrOutlinesAtIntersections
p611
(dp612
g3
I00
sg12
Vbool
p613
sg14
I00
sg15
I00
sg16
I01
sg4
(lp614
ssVmiScatterAccuracy
p615
(dp616
g3
I00
sg12
Vshort
p617
sg14
I00
sg15
I00
sg16
I01
sg4
(lp618
ssg489
(dp619
g3
I00
sg12
Vfloat
p620
sg14
I00
sg15
I00
sg16
I01
sg4
(lp621
ssg233
(dp622
g3
I00
sg12
Vfloat
p623
sg14
I00
sg15
I00
sg16
I01
sg4
(lp624
ssVmiFrameBufferWriteFactor
p625
(dp626
g3
I00
sg12
Vfloat
p627
sg14
I00
sg15
I00
sg16
I01
sg4
(lp628
ssVmiScatterLimit
p629
(dp630
g3
I00
sg12
Vshort
p631
sg14
I00
sg15
I00
sg16
I01
sg4
(lp632
ssVmiAbsorbs
p633
(dp634
g3
I00
sg12
Vbool
p635
sg14
I00
sg15
I00
sg16
I01
sg4
(lp636
ssg29
(dp637
g3
I00
sg12
Vfloat
p638
sg14
I00
sg15
I00
sg16
I01
sg4
(lp639
ssVoutGlowColor
p640
(dp641
g3
I00
sg14
I00
sg4
(lp642
g260
ag292
ag284
asg16
I00
sg12
Vfloat3
p643
ssVlightDataArray.lightAmbient
p644
(dp645
g8
VlightDataArray
p646
ssg46
(dp647
g3
I00
sg12
Vfloat
p648
sg14
I00
sg15
I00
sg16
I01
sg4
(lp649
ssg232
(dp650
g3
I00
sg12
Vfloat
p651
sg14
I00
sg15
I00
sg16
I01
sg4
(lp652
ssVcaching
p653
(dp654
g3
I00
sg12
Vbool
p655
sg14
I00
sg15
I00
sg16
I01
sg4
(lp656
ssg399
(dp657
g3
I00
sg4
(lp658
ssg27
(dp659
g3
I00
sg12
Vfloat
p660
sg14
I00
sg15
I00
sg16
I01
sg4
(lp661
ssVhideSource
p662
(dp663
g3
I00
sg12
Vbool
p664
sg14
I00
sg15
I00
sg16
I01
sg4
(lp665
ss.