(dp0
VisHistoricallyInteresting
p1
(dp2
S'isArray'
p3
I00
sS'isMulti'
p4
I00
sS'attrType'
p5
Vbyte
p6
sS'isSimple'
p7
I00
sS'attrChildrenLongNames'
p8
(lp9
ssVnodeState
p10
(dp11
g3
I00
sg5
Venum
p12
sg4
I00
sS'isCompound'
p13
I00
sg7
I01
sg8
(lp14
ssVmatrixIn
p15
(dp16
g3
I01
sg4
I01
sg7
I00
sg5
VTdataCompound
p17
ssVfrozen
p18
(dp19
g3
I00
sg5
Vbool
p20
sg4
I00
sg13
I00
sg7
I01
sg8
(lp21
ssVmatrixIn[1]
p22
(dp23
g3
I00
sS'isMulti'
p24
I00
sS'attrType'
p25
Vmatrix
p26
sS'isSimple'
p27
I00
sg8
(lp28
ssVbinMembership
p29
(dp30
g3
I00
sg5
Vstring
p31
sg4
I00
sg13
I00
sg7
I01
sg8
(lp32
ssVmatrixSum
p33
(dp34
g3
I00
sg4
I00
sg5
Vmatrix
p35
sg7
I00
sg8
(lp36
ssVmatrixIn[3]
p37
(dp38
S'isArray'
p39
I00
sS'attrChildrenLongNames'
p40
(lp41
ssVcaching
p42
(dp43
g3
I00
sg5
Vbool
p44
sg4
I00
sg13
I00
sg7
I01
sg8
(lp45
ssVmatrixIn[0]
p46
(dp47
g3
I00
sS'isMulti'
p48
I00
sg8
(lp49
sS'isSimple'
p50
I00
sS'attrType'
p51
Vmatrix
p52
ssVmatrixIn[2]
p53
(dp54
S'isArray'
p55
I00
sS'attrChildrenLongNames'
p56
(lp57
ss.