(dp0
VuDivisionsFactor
p1
(dp2
S'isArray'
p3
I00
sS'attrType'
p4
Vdouble
p5
sS'attrChildrenNames'
p6
(lp7
sS'isMulti'
p8
I00
sS'isCompound'
p9
I00
sS'isSimple'
p10
I01
sS'attrChildrenLongNames'
p11
(lp12
sS'isElement'
p13
I00
ssVcolorSet[0].colorSetPoints[1]
p14
(dp15
S'isArray'
p16
I00
sg11
(lp17
VcolorSet[0].colorSetPoints[1].colorSetPointsR
p18
aVcolorSet[0].colorSetPoints[1].colorSetPointsG
p19
aVcolorSet[0].colorSetPoints[1].colorSetPointsB
p20
aVcolorSet[0].colorSetPoints[1].colorSetPointsA
p21
assVcollisionOffsetVelocityMultiplier[2].collisionOffsetVelocityMultiplier_Position
p22
(dp23
g16
I00
sg11
(lp24
ssVcontrolPoints[1]
p25
(dp26
g16
I00
sg11
(lp27
VcontrolPoints[1].xValue
p28
aVcontrolPoints[1].yValue
p29
aVcontrolPoints[1].zValue
p30
assVcontrolPoints[0].xValue
p31
(dp32
S'isArray'
p33
I00
sS'isElement'
p34
I00
sS'attrParentLongName'
p35
VcontrolPoints[0]
p36
sS'attrChildrenNames'
p37
(lp38
sg11
(lp39
ssg28
(dp40
g16
I00
sg11
(lp41
ssVrenderLayerInfo.renderLayerRenderable
p42
(dp43
S'attrParentLongName'
p44
VrenderLayerInfo
p45
ssVuvSet[0].uvSetPoints[1]
p46
(dp47
g16
I00
sg11
(lp48
VuvSet[0].uvSetPoints[1].uvSetPointsU
p49
aVuvSet[0].uvSetPoints[1].uvSetPointsV
p50
assVcollisionOffsetVelocityMultiplier[0].collisionOffsetVelocityMultiplier_FloatValue
p51
(dp52
S'isArray'
p53
I00
sS'attrParentLongName'
p54
VcollisionOffsetVelocityMultiplier[0]
p55
sS'attrChildrenNames'
p56
(lp57
sg4
Vfloat
p58
sS'isMulti'
p59
I00
sS'isCompound'
p60
I00
sg10
I01
sg11
(lp61
sS'isElement'
p62
I00
ssVcollisionOffsetVelocityMultiplier[0].collisionOffsetVelocityMultiplier_Interp
p63
(dp64
S'isArray'
p65
I00
sS'attrParentLongName'
p66
VcollisionOffsetVelocityMultiplier[0]
p67
sS'attrChildrenNames'
p68
(lp69
sg4
Venum
p70
sS'isMulti'
p71
I00
sS'isCompound'
p72
I00
sg10
I01
sg11
(lp73
sS'isElement'
p74
I00
ssVfeatureDisplacement
p75
(dp76
S'isArray'
p77
I00
sg4
Vbool
p78
sS'attrChildrenNames'
p79
(lp80
sS'isMulti'
p81
I00
sS'isCompound'
p82
I00
sg10
I01
sg11
(lp83
sS'isElement'
p84
I00
ssVweights[0]
p85
(dp86
g16
I00
sg11
(lp87
ssVmentalRayControls.miFinalGatherRays
p88
(dp89
S'isArray'
p90
I00
sS'attrParentLongName'
p91
VmentalRayControls
p92
sS'attrChildrenNames'
p93
(lp94
sg4
Vlong
p95
sS'isMulti'
p96
I00
sS'isCompound'
p97
I00
sg10
I01
sg11
(lp98
sS'isElement'
p99
I00
ssVcompInstObjGroups.compObjectGroups
p100
(dp101
g44
VcompInstObjGroups
p102
ssVselCVDisp
p103
(dp104
S'isArray'
p105
I00
sg4
Vbool
p106
sS'attrChildrenNames'
p107
(lp108
sS'isMulti'
p109
I00
sS'isCompound'
p110
I00
sg10
I01
sg11
(lp111
sS'isElement'
p112
I00
ssVboundingBox.boundingBoxMin.boundingBoxMinY
p113
(dp114
S'isArray'
p115
I00
sS'attrParentLongName'
p116
VboundingBox.boundingBoxMin
p117
sS'attrChildrenNames'
p118
(lp119
sg4
VdoubleLinear
p120
sS'isMulti'
p121
I00
sS'isCompound'
p122
I00
sg10
I01
sg11
(lp123
sS'isElement'
p124
I00
ssVboundingBox.boundingBoxMin.boundingBoxMinX
p125
(dp126
S'isArray'
p127
I00
sS'attrParentLongName'
p128
VboundingBox.boundingBoxMin
p129
sS'attrChildrenNames'
p130
(lp131
sg4
VdoubleLinear
p132
sS'isMulti'
p133
I00
sS'isCompound'
p134
I00
sg10
I01
sg11
(lp135
sS'isElement'
p136
I00
ssVcompInstObjGroups[0].compObjectGroups[0].compObjectGrpCompList
p137
(dp138
S'isArray'
p139
I00
sS'isElement'
p140
I00
sS'attrParentLongName'
p141
VcompInstObjGroups[0].compObjectGroups[0]
p142
sS'attrChildrenNames'
p143
(lp144
sg11
(lp145
ssVboundingBox.boundingBoxMin.boundingBoxMinZ
p146
(dp147
S'isArray'
p148
I00
sS'attrParentLongName'
p149
VboundingBox.boundingBoxMin
p150
sS'attrChildrenNames'
p151
(lp152
sg4
VdoubleLinear
p153
sS'isMulti'
p154
I00
sS'isCompound'
p155
I00
sg10
I01
sg11
(lp156
sS'isElement'
p157
I00
ssVshadingSamplesOverride
p158
(dp159
S'isArray'
p160
I00
sg4
Vbool
p161
sS'attrChildrenNames'
p162
(lp163
sS'isMulti'
p164
I00
sS'isCompound'
p165
I00
sg10
I01
sg11
(lp166
sS'isElement'
p167
I00
ssVmentalRayControls.miGlobillumAccuracy
p168
(dp169
S'isArray'
p170
I00
sS'attrParentLongName'
p171
VmentalRayControls
p172
sS'attrChildrenNames'
p173
(lp174
sg4
Vshort
p175
sS'isMulti'
p176
I00
sS'isCompound'
p177
I00
sg10
I01
sg11
(lp178
sS'isElement'
p179
I00
ssVdispEP
p180
(dp181
S'isArray'
p182
I00
sg4
Vbool
p183
sS'attrChildrenNames'
p184
(lp185
sS'isMulti'
p186
I00
sS'isCompound'
p187
I00
sg10
I01
sg11
(lp188
sS'isElement'
p189
I00
ssVvolumeSamplesOverride
p190
(dp191
S'isArray'
p192
I00
sg4
Vbool
p193
sS'attrChildrenNames'
p194
(lp195
sS'isMulti'
p196
I00
sS'isCompound'
p197
I00
sg10
I01
sg11
(lp198
sS'isElement'
p199
I00
ssVrenderLayerInfo[0].renderLayerId
p200
(dp201
S'isArray'
p202
I00
sS'isElement'
p203
I00
sS'attrParentLongName'
p204
VrenderLayerInfo[0]
p205
sS'attrChildrenNames'
p206
(lp207
sg11
(lp208
ssVspansUV
p209
(dp210
S'isArray'
p211
I00
sg4
Vlong2
p212
sS'attrChildrenNames'
p213
(lp214
VspansUV.spansU
p215
aVspansUV.spansV
p216
asS'isMulti'
p217
I00
sS'isCompound'
p218
I01
sg10
I01
sg11
(lp219
VspansUV.spansU
p220
aVspansUV.spansV
p221
asS'isElement'
p222
I00
ssVtemplatePath
p223
(dp224
S'isArray'
p225
I00
sg4
Vstring
p226
sS'attrChildrenNames'
p227
(lp228
sS'isMulti'
p229
I00
sS'isCompound'
p230
I00
sg10
I01
sg11
(lp231
sS'isElement'
p232
I00
ssVinstObjGroups[0].objectGroups[25].objectGroupId
p233
(dp234
S'isArray'
p235
I00
sS'attrType'
p236
Vlong
p237
sS'isMulti'
p238
I00
sS'isCompound'
p239
I00
sS'isSimple'
p240
I01
sS'attrChildrenLongNames'
p241
(lp242
ssVmentalRayControls.miReflectionReceive
p243
(dp244
S'isArray'
p245
I00
sS'attrParentLongName'
p246
VmentalRayControls
p247
sS'attrChildrenNames'
p248
(lp249
sg4
Vbool
p250
sS'isMulti'
p251
I00
sS'isCompound'
p252
I00
sg10
I01
sg11
(lp253
sS'isElement'
p254
I00
ssVcollisionOffsetVelocityMultiplier[0].collisionOffsetVelocityMultiplier_Position
p255
(dp256
S'isArray'
p257
I00
sS'attrParentLongName'
p258
VcollisionOffsetVelocityMultiplier[0]
p259
sS'attrChildrenNames'
p260
(lp261
sg4
Vfloat
p262
sS'isMulti'
p263
I00
sS'isCompound'
p264
I00
sg10
I01
sg11
(lp265
sS'isElement'
p266
I00
ssVcollisionOffsetVelocityIncrement[1]
p267
(dp268
g16
I00
sg11
(lp269
VcollisionOffsetVelocityIncrement[1].collisionOffsetVelocityIncrement_Position
p270
aVcollisionOffsetVelocityIncrement[1].collisionOffsetVelocityIncrement_FloatValue
p271
aVcollisionOffsetVelocityIncrement[1].collisionOffsetVelocityIncrement_Interp
p272
assVparentMatrix[0]
p273
(dp274
g16
I00
sg11
(lp275
ssVcolorSet[1].colorName
p276
(dp277
g16
I00
sg11
(lp278
ssVcollisionOffsetVelocityMultiplier.collisionOffsetVelocityMultiplier_Position
p279
(dp280
g44
VcollisionOffsetVelocityMultiplier
p281
ssVdepthJitter
p282
(dp283
S'isArray'
p284
I00
sg4
Vbool
p285
sS'attrChildrenNames'
p286
(lp287
sS'isMulti'
p288
I00
sS'isCompound'
p289
I00
sg10
I01
sg11
(lp290
sS'isElement'
p291
I00
ssVinstObjGroups[0].objectGroups[0]
p292
(dp293
g16
I00
sS'isMulti'
p294
I00
sg11
(lp295
VinstObjGroups[0].objectGroups[0].objectGrpCompList
p296
aVinstObjGroups[0].objectGroups[0].objectGroupId
p297
aVinstObjGroups[0].objectGroups[0].objectGrpColor
p298
asg10
I00
sg4
VTdataCompound
p299
ssVmentalRayControls.miMinSamples
p300
(dp301
S'isArray'
p302
I00
sS'attrParentLongName'
p303
VmentalRayControls
p304
sS'attrChildrenNames'
p305
(lp306
sg4
Vshort
p307
sS'isMulti'
p308
I00
sS'isCompound'
p309
I00
sg10
I01
sg11
(lp310
sS'isElement'
p311
I00
ssVtrimFace[0]
p312
(dp313
g16
I00
sg11
(lp314
ssVcolorSet[0].colorName
p315
(dp316
S'isArray'
p317
I00
sS'isElement'
p318
I00
sS'attrParentLongName'
p319
VcolorSet[0]
p320
sS'attrChildrenNames'
p321
(lp322
sg11
(lp323
ssVcompInstObjGroups[0].compObjectGroups[0]
p324
(dp325
g16
I00
sg11
(lp326
VcompInstObjGroups[0].compObjectGroups[0].compObjectGrpCompList
p327
aVcompInstObjGroups[0].compObjectGroups[0].compObjectGroupId
p328
assVtemplate
p329
(dp330
S'isArray'
p331
I00
sS'attrType'
p332
Vbool
p333
sS'attrChildrenNames'
p334
(lp335
sS'isMulti'
p336
I00
sS'isCompound'
p337
I00
sS'isSimple'
p338
I01
sS'isReadable'
p339
I01
sg11
(lp340
sS'isElement'
p341
I00
ssVmentalRayControls.miOverrideGlobalIllumination
p342
(dp343
S'isArray'
p344
I00
sS'attrParentLongName'
p345
VmentalRayControls
p346
sS'attrChildrenNames'
p347
(lp348
sg4
Vbool
p349
sS'isMulti'
p350
I00
sS'isCompound'
p351
I00
sg10
I01
sg11
(lp352
sS'isElement'
p353
I00
ssVcollisionDepthVelocityIncrement[1].collisionDepthVelocityIncrement_FloatValue
p354
(dp355
g16
I00
sg11
(lp356
ssVuvSet.uvSetPoints
p357
(dp358
g44
VuvSet
p359
ssVparentInverseMatrix[1]
p360
(dp361
g16
I00
sg11
(lp362
ssVcollisionOffsetVelocityMultiplier[1]
p363
(dp364
g16
I00
sg11
(lp365
VcollisionOffsetVelocityMultiplier[1].collisionOffsetVelocityMultiplier_Position
p366
aVcollisionOffsetVelocityMultiplier[1].collisionOffsetVelocityMultiplier_FloatValue
p367
aVcollisionOffsetVelocityMultiplier[1].collisionOffsetVelocityMultiplier_Interp
p368
assVcollisionOffsetVelocityIncrement.collisionOffsetVelocityIncrement_Interp
p369
(dp370
g44
VcollisionOffsetVelocityIncrement
p371
ssVcollisionDepthVelocityMultiplier[2].collisionDepthVelocityMultiplier_Interp
p372
(dp373
g16
I00
sg11
(lp374
ssVinstObjGroups.objectGroups
p375
(dp376
g44
VinstObjGroups
p377
ssVcollisionOffsetVelocityIncrement[0].collisionOffsetVelocityIncrement_FloatValue
p378
(dp379
S'isArray'
p380
I00
sS'isElement'
p381
I00
sS'attrParentLongName'
p382
VcollisionOffsetVelocityIncrement[0]
p383
sS'attrChildrenNames'
p384
(lp385
sg11
(lp386
ssVpublishedNodeInfo
p387
(dp388
S'isArray'
p389
I01
sS'isElement'
p390
I00
sS'isMulti'
p391
I01
sg10
I00
sg4
VTdataCompound
p392
ssVdrawOverride.overrideTexturing
p393
(dp394
S'isArray'
p395
I00
sS'attrParentLongName'
p396
VdrawOverride
p397
sS'attrChildrenNames'
p398
(lp399
sS'attrType'
p400
Vbool
p401
sS'isMulti'
p402
I00
sS'isCompound'
p403
I00
sg338
I01
sS'isReadable'
p404
I01
sg11
(lp405
sS'isElement'
p406
I00
ssVworldSpace[1]
p407
(dp408
S'isArray'
p409
I00
sS'attrChildrenNames'
p410
(lp411
sg11
(lp412
ssVcollisionDepthVelocityIncrement[1].collisionDepthVelocityIncrement_Position
p413
(dp414
g16
I00
sg11
(lp415
ssVdisplayColorChannel
p416
(dp417
S'isArray'
p418
I00
sg4
Vstring
p419
sS'attrChildrenNames'
p420
(lp421
sS'isMulti'
p422
I00
sS'isCompound'
p423
I00
sg10
I01
sg11
(lp424
sS'isElement'
p425
I00
ssVminMaxRangeV.maxValueV
p426
(dp427
S'isArray'
p428
I00
sS'attrParentLongName'
p429
VminMaxRangeV
p430
sS'attrChildrenNames'
p431
(lp432
sg4
Vdouble
p433
sS'isMulti'
p434
I00
sS'isCompound'
p435
I00
sg10
I01
sg11
(lp436
sS'isElement'
p437
I00
ssVselectionChildHighlighting
p438
(dp439
g16
I00
sg4
Vbool
p440
sg294
I00
sS'isCompound'
p441
I00
sg10
I01
sg11
(lp442
ssVtweak
p443
(dp444
S'isArray'
p445
I00
sg4
Vbool
p446
sS'attrChildrenNames'
p447
(lp448
sS'isMulti'
p449
I00
sS'isCompound'
p450
I00
sg10
I01
sg11
(lp451
sS'isElement'
p452
I00
ssVcollisionOffsetVelocityIncrement.collisionOffsetVelocityIncrement_Position
p453
(dp454
g44
VcollisionOffsetVelocityIncrement
p455
ssVvDivisionsFactor
p456
(dp457
S'isArray'
p458
I00
sg4
Vdouble
p459
sS'attrChildrenNames'
p460
(lp461
sS'isMulti'
p462
I00
sS'isCompound'
p463
I00
sg10
I01
sg11
(lp464
sS'isElement'
p465
I00
ssVcollisionOffsetVelocityMultiplier
p466
(dp467
S'isArray'
p468
I01
sS'isElement'
p469
I00
sS'isMulti'
p470
I01
sg10
I00
sg4
VTdataCompound
p471
ssVcollisionDepthVelocityIncrement.collisionDepthVelocityIncrement_FloatValue
p472
(dp473
g44
VcollisionDepthVelocityIncrement
p474
ssVinstObjGroups[2].objectGroups
p475
(dp476
g16
I01
ssVexplicitTessellationAttributes
p477
(dp478
S'isArray'
p479
I00
sg4
Vbool
p480
sS'attrChildrenNames'
p481
(lp482
sS'isMulti'
p483
I00
sS'isCompound'
p484
I00
sg10
I01
sg11
(lp485
sS'isElement'
p486
I00
ssVcontrolPoints[0].zValue
p487
(dp488
S'isArray'
p489
I00
sS'isElement'
p490
I00
sS'attrParentLongName'
p491
VcontrolPoints[0]
p492
sS'attrChildrenNames'
p493
(lp494
sg11
(lp495
ssVcollisionDepthVelocityMultiplier.collisionDepthVelocityMultiplier_Interp
p496
(dp497
g44
VcollisionDepthVelocityMultiplier
p498
ssVuseChordHeight
p499
(dp500
S'isArray'
p501
I00
sg4
Vbool
p502
sS'attrChildrenNames'
p503
(lp504
sS'isMulti'
p505
I00
sS'isCompound'
p506
I00
sg10
I01
sg11
(lp507
sS'isElement'
p508
I00
ssVvisibility
p509
(dp510
S'isArray'
p511
I00
sS'attrType'
p512
Vbool
p513
sS'attrChildrenNames'
p514
(lp515
sS'isMulti'
p516
I00
sS'isCompound'
p517
I00
sg338
I01
sS'isReadable'
p518
I01
sg11
(lp519
sS'isElement'
p520
I00
ssVinstObjGroups[0].objectGroups[26].objectGroupId
p521
(dp522
g235
I00
sg236
Vlong
p523
sg238
I00
sg239
I00
sg240
I01
sg241
(lp524
ssVmentalRayControls.miGlobillumRadius
p525
(dp526
S'isArray'
p527
I00
sS'attrParentLongName'
p528
VmentalRayControls
p529
sS'attrChildrenNames'
p530
(lp531
sg4
Vfloat
p532
sS'isMulti'
p533
I00
sS'isCompound'
p534
I00
sg10
I01
sg11
(lp535
sS'isElement'
p536
I00
ssVcurvePrecisionShaded
p537
(dp538
S'isArray'
p539
I00
sg4
Vbyte
p540
sS'attrChildrenNames'
p541
(lp542
sS'isMulti'
p543
I00
sS'isCompound'
p544
I00
sg10
I00
sg11
(lp545
sS'isElement'
p546
I00
ssVrenderInfo.layerOverrideColor
p547
(dp548
S'isArray'
p549
I00
sS'attrParentLongName'
p550
VrenderInfo
p551
sS'attrChildrenNames'
p552
(lp553
sg4
Vbyte
p554
sS'isMulti'
p555
I00
sS'isCompound'
p556
I00
sg10
I00
sg11
(lp557
sS'isElement'
p558
I00
ssVuvSet.uvSetName
p559
(dp560
g44
VuvSet
p561
ssVpatchUVIds[0]
p562
(dp563
g16
I00
sg11
(lp564
ssVcollisionDepthVelocityMultiplier[0]
p565
(dp566
g16
I00
sg294
I00
sg11
(lp567
VcollisionDepthVelocityMultiplier[0].collisionDepthVelocityMultiplier_Position
p568
aVcollisionDepthVelocityMultiplier[0].collisionDepthVelocityMultiplier_FloatValue
p569
aVcollisionDepthVelocityMultiplier[0].collisionDepthVelocityMultiplier_Interp
p570
asg10
I00
sg4
VTdataCompound
p571
ssVinstObjGroups[0]
p572
(dp573
g16
I00
sg294
I00
sg11
(lp574
VinstObjGroups[0].objectGroups
p575
asg10
I00
sg4
VTdataCompound
p576
ssVcompInstObjGroups[0].compObjectGroups
p577
(dp578
S'isArray'
p579
I01
sS'isElement'
p580
I00
sS'attrParentLongName'
p581
VcompInstObjGroups[0]
p582
ssVmentalRayControls.miFinalGatherReceive
p583
(dp584
S'isArray'
p585
I00
sS'attrParentLongName'
p586
VmentalRayControls
p587
sS'attrChildrenNames'
p588
(lp589
sg4
Vbool
p590
sS'isMulti'
p591
I00
sS'isCompound'
p592
I00
sg10
I01
sg11
(lp593
sS'isElement'
p594
I00
ssVinstObjGroups[0].objectGroups[3].objectGrpCompList
p595
(dp596
g16
I00
sg11
(lp597
ssVcollisionDepthVelocityIncrement[0].collisionDepthVelocityIncrement_Position
p598
(dp599
S'isArray'
p600
I00
sS'isElement'
p601
I00
sS'attrParentLongName'
p602
VcollisionDepthVelocityIncrement[0]
p603
sS'attrChildrenNames'
p604
(lp605
sg11
(lp606
ssVmaxShadingSamples
p607
(dp608
S'isArray'
p609
I00
sg4
Vlong
p610
sS'attrChildrenNames'
p611
(lp612
sS'isMulti'
p613
I00
sS'isCompound'
p614
I00
sg10
I01
sg11
(lp615
sS'isElement'
p616
I00
ssVcollisionOffsetVelocityIncrement[0].collisionOffsetVelocityIncrement_Interp
p617
(dp618
S'isArray'
p619
I00
sS'isElement'
p620
I00
sS'attrParentLongName'
p621
VcollisionOffsetVelocityIncrement[0]
p622
sS'attrChildrenNames'
p623
(lp624
sg11
(lp625
ssVmentalRayControls.miCausticAccuracy
p626
(dp627
S'isArray'
p628
I00
sS'attrParentLongName'
p629
VmentalRayControls
p630
sS'attrChildrenNames'
p631
(lp632
sg4
Vshort
p633
sS'isMulti'
p634
I00
sS'isCompound'
p635
I00
sg10
I01
sg11
(lp636
sS'isElement'
p637
I00
ssVinstObjGroups[0].objectGroups[27].objectGrpColor
p638
(dp639
g235
I00
sg241
(lp640
ssVpublishedNodeInfo[0].isHierarchicalNode
p641
(dp642
S'isArray'
p643
I00
sS'isElement'
p644
I00
sS'attrParentLongName'
p645
VpublishedNodeInfo[0]
p646
sS'attrChildrenNames'
p647
(lp648
sg11
(lp649
ssVdisplayRenderTessellation
p650
(dp651
S'isArray'
p652
I00
sg4
Vbool
p653
sS'attrChildrenNames'
p654
(lp655
sS'isMulti'
p656
I00
sS'isCompound'
p657
I00
sg10
I01
sg11
(lp658
sS'isElement'
p659
I00
ssVdispSF
p660
(dp661
S'isArray'
p662
I00
sg4
Vbool
p663
sS'attrChildrenNames'
p664
(lp665
sS'isMulti'
p666
I00
sS'isCompound'
p667
I00
sg10
I01
sg11
(lp668
sS'isElement'
p669
I00
ssVboundingBox.boundingBoxSize.boundingBoxSizeY
p670
(dp671
S'isArray'
p672
I00
sS'attrParentLongName'
p673
VboundingBox.boundingBoxSize
p674
sS'attrChildrenNames'
p675
(lp676
sg4
VdoubleLinear
p677
sS'isMulti'
p678
I00
sS'isCompound'
p679
I00
sg10
I01
sg11
(lp680
sS'isElement'
p681
I00
ssVboundingBox.boundingBoxSize.boundingBoxSizeX
p682
(dp683
S'isArray'
p684
I00
sS'attrParentLongName'
p685
VboundingBox.boundingBoxSize
p686
sS'attrChildrenNames'
p687
(lp688
sg4
VdoubleLinear
p689
sS'isMulti'
p690
I00
sS'isCompound'
p691
I00
sg10
I01
sg11
(lp692
sS'isElement'
p693
I00
ssVboundingBox.boundingBoxSize.boundingBoxSizeZ
p694
(dp695
S'isArray'
p696
I00
sS'attrParentLongName'
p697
VboundingBox.boundingBoxSize
p698
sS'attrChildrenNames'
p699
(lp700
sg4
VdoubleLinear
p701
sS'isMulti'
p702
I00
sS'isCompound'
p703
I00
sg10
I01
sg11
(lp704
sS'isElement'
p705
I00
ssVdegreeUV.degreeV
p706
(dp707
S'isArray'
p708
I00
sS'attrParentLongName'
p709
VdegreeUV
p710
sS'attrChildrenNames'
p711
(lp712
sg4
Vshort
p713
sS'isMulti'
p714
I00
sS'isCompound'
p715
I00
sg10
I01
sg11
(lp716
sS'isElement'
p717
I00
ssVdegreeUV.degreeU
p718
(dp719
S'isArray'
p720
I00
sS'attrParentLongName'
p721
VdegreeUV
p722
sS'attrChildrenNames'
p723
(lp724
sg4
Vshort
p725
sS'isMulti'
p726
I00
sS'isCompound'
p727
I00
sg10
I01
sg11
(lp728
sS'isElement'
p729
I00
ssVtemplateName
p730
(dp731
S'isArray'
p732
I00
sg4
Vstring
p733
sS'attrChildrenNames'
p734
(lp735
sS'isMulti'
p736
I00
sS'isCompound'
p737
I00
sg10
I01
sg11
(lp738
sS'isElement'
p739
I00
ssVghostingControl
p740
(dp741
S'isArray'
p742
I00
sg4
Venum
p743
sS'attrChildrenNames'
p744
(lp745
sS'isMulti'
p746
I00
sS'isCompound'
p747
I00
sg10
I01
sg11
(lp748
sS'isElement'
p749
I00
ssVinstObjGroups[0].objectGroups[25].objectGrpCompList
p750
(dp751
g235
I00
sg238
I00
sg236
VcomponentList
p752
sg240
I00
sg241
(lp753
ssVnumberV
p754
(dp755
S'isArray'
p756
I00
sg4
Vlong
p757
sS'attrChildrenNames'
p758
(lp759
sS'isMulti'
p760
I00
sS'isCompound'
p761
I00
sg10
I01
sg11
(lp762
sS'isElement'
p763
I00
ssVdispHull
p764
(dp765
S'isArray'
p766
I00
sg4
Vbool
p767
sS'attrChildrenNames'
p768
(lp769
sS'isMulti'
p770
I00
sS'isCompound'
p771
I00
sg10
I01
sg11
(lp772
sS'isElement'
p773
I00
ssVnumberU
p774
(dp775
S'isArray'
p776
I00
sg4
Vlong
p777
sS'attrChildrenNames'
p778
(lp779
sS'isMulti'
p780
I00
sS'isCompound'
p781
I00
sg10
I01
sg11
(lp782
sS'isElement'
p783
I00
ssVmentalRayControls.miProxyBoundingBox.miProxyBoundingBoxMin
p784
(dp785
S'isArray'
p786
I00
sS'attrParentLongName'
p787
VmentalRayControls.miProxyBoundingBox
p788
sS'attrChildrenNames'
p789
(lp790
VmentalRayControls.miProxyBoundingBox.miProxyBoundingBoxMin.miProxyBoundingBoxMinX
p791
aVmentalRayControls.miProxyBoundingBox.miProxyBoundingBoxMin.miProxyBoundingBoxMinY
p792
aVmentalRayControls.miProxyBoundingBox.miProxyBoundingBoxMin.miProxyBoundingBoxMinZ
p793
asg4
Vdouble3
p794
sS'isMulti'
p795
I00
sS'isCompound'
p796
I01
sg10
I01
sg11
(lp797
VmentalRayControls.miProxyBoundingBox.miProxyBoundingBoxMin.miProxyBoundingBoxMinX
p798
aVmentalRayControls.miProxyBoundingBox.miProxyBoundingBoxMin.miProxyBoundingBoxMinY
p799
aVmentalRayControls.miProxyBoundingBox.miProxyBoundingBoxMin.miProxyBoundingBoxMinZ
p800
asS'isElement'
p801
I00
ssVdrawOverride.overrideDisplayType
p802
(dp803
S'isArray'
p804
I00
sS'attrParentLongName'
p805
VdrawOverride
p806
sS'attrChildrenNames'
p807
(lp808
sS'attrType'
p809
Venum
p810
sS'isMulti'
p811
I00
sS'isCompound'
p812
I00
sg338
I01
sS'isReadable'
p813
I01
sg11
(lp814
sS'isElement'
p815
I00
ssVnodeState
p816
(dp817
S'isArray'
p818
I00
sg4
Venum
p819
sS'attrChildrenNames'
p820
(lp821
sS'isMulti'
p822
I00
sS'isCompound'
p823
I00
sg10
I01
sg11
(lp824
sS'isElement'
p825
I00
ssVmentalRayControls.miShadingSamples
p826
(dp827
g16
I00
sg4
Vfloat
p828
sg294
I00
sg441
I00
sg10
I01
sg11
(lp829
ssVworldMatrix[1]
p830
(dp831
g16
I00
sg11
(lp832
ssVcollisionDepthVelocityMultiplier[1].collisionDepthVelocityMultiplier_Position
p833
(dp834
g16
I00
sg11
(lp835
ssVisHierarchicalConnection
p836
(dp837
g16
I01
sg294
I01
sg10
I00
sg4
VTdataCompound
p838
ssg30
(dp839
g16
I00
sg11
(lp840
ssVuvSet
p841
(dp842
S'isArray'
p843
I01
sS'isElement'
p844
I00
sS'isMulti'
p845
I01
sg10
I00
sg4
VTdataCompound
p846
ssVghostFrames
p847
(dp848
S'isArray'
p849
I00
sg4
NsS'attrChildrenNames'
p850
(lp851
sS'isMulti'
p852
I00
sS'isCompound'
p853
I00
sg10
I00
sg11
(lp854
sS'isElement'
p855
I00
ssVinstObjGroups[0].objectGroups[0].objectGrpColor
p856
(dp857
S'isArray'
p858
I00
sS'attrParentLongName'
p859
VinstObjGroups[0].objectGroups[0]
p860
sS'attrChildrenNames'
p861
(lp862
sg4
Vshort
p863
sS'isMulti'
p864
I00
sS'isCompound'
p865
I00
sg10
I01
sg11
(lp866
sS'isElement'
p867
I00
ssVcompInstObjGroups[0].compObjectGroups[1].compObjectGrpCompList
p868
(dp869
g16
I00
sg11
(lp870
ssVdrawOverride.overrideColor
p871
(dp872
S'isArray'
p873
I00
sS'attrParentLongName'
p874
VdrawOverride
p875
sS'attrChildrenNames'
p876
(lp877
sS'attrType'
p878
Vbyte
p879
sS'isMulti'
p880
I00
sS'isCompound'
p881
I00
sg338
I00
sS'isReadable'
p882
I00
sg11
(lp883
sS'isElement'
p884
I00
ssVrenderLayerInfo.renderLayerId
p885
(dp886
g44
VrenderLayerInfo
p887
ssVminMaxRangeU.minValueU
p888
(dp889
S'isArray'
p890
I00
sS'attrParentLongName'
p891
VminMaxRangeU
p892
sS'attrChildrenNames'
p893
(lp894
sg4
Vdouble
p895
sS'isMulti'
p896
I00
sS'isCompound'
p897
I00
sg10
I01
sg11
(lp898
sS'isElement'
p899
I00
ssVinitialSampleRate
p900
(dp901
S'isArray'
p902
I00
sg4
Vlong
p903
sS'attrChildrenNames'
p904
(lp905
sS'isMulti'
p906
I00
sS'isCompound'
p907
I00
sg10
I01
sg11
(lp908
sS'isElement'
p909
I00
ssVformU
p910
(dp911
S'isArray'
p912
I00
sg4
Venum
p913
sS'attrChildrenNames'
p914
(lp915
sS'isMulti'
p916
I00
sS'isCompound'
p917
I00
sg10
I01
sg11
(lp918
sS'isElement'
p919
I00
ssVdoubleSided
p920
(dp921
S'isArray'
p922
I00
sg4
Vbool
p923
sS'attrChildrenNames'
p924
(lp925
sS'isMulti'
p926
I00
sS'isCompound'
p927
I00
sg10
I01
sg11
(lp928
sS'isElement'
p929
I00
ssVignoreSelfShadowing
p930
(dp931
S'isArray'
p932
I00
sg4
Vbool
p933
sS'attrChildrenNames'
p934
(lp935
sS'isMulti'
p936
I00
sS'isCompound'
p937
I00
sg10
I01
sg11
(lp938
sS'isElement'
p939
I00
ssVcolorSet[0]
p940
(dp941
g16
I00
sg11
(lp942
VcolorSet[0].colorName
p943
aVcolorSet[0].clamped
p944
aVcolorSet[0].representation
p945
aVcolorSet[0].colorSetPoints
p946
assVinstObjGroups[0].objectGroups[1].objectGrpCompList
p947
(dp948
g16
I00
sg294
I00
sg11
(lp949
sg10
I00
sg4
VcomponentList
p950
ssVrenderLayerInfo[1].renderLayerColor
p951
(dp952
g16
I00
sg11
(lp953
ssVcolorSet[1].representation
p954
(dp955
g16
I00
sg11
(lp956
ssVcustomTreatment
p957
(dp958
S'isArray'
p959
I00
sg4
Vstring
p960
sS'attrChildrenNames'
p961
(lp962
sS'isMulti'
p963
I00
sS'isCompound'
p964
I00
sg10
I01
sg11
(lp965
sS'isElement'
p966
I00
ssVmentalRayControls.miProxyBoundingBox.miProxyBoundingBoxMax
p967
(dp968
S'isArray'
p969
I00
sS'attrParentLongName'
p970
VmentalRayControls.miProxyBoundingBox
p971
sS'attrChildrenNames'
p972
(lp973
VmentalRayControls.miProxyBoundingBox.miProxyBoundingBoxMax.miProxyBoundingBoxMaxX
p974
aVmentalRayControls.miProxyBoundingBox.miProxyBoundingBoxMax.miProxyBoundingBoxMaxY
p975
aVmentalRayControls.miProxyBoundingBox.miProxyBoundingBoxMax.miProxyBoundingBoxMaxZ
p976
asg4
Vdouble3
p977
sS'isMulti'
p978
I00
sS'isCompound'
p979
I01
sg10
I01
sg11
(lp980
VmentalRayControls.miProxyBoundingBox.miProxyBoundingBoxMax.miProxyBoundingBoxMaxX
p981
aVmentalRayControls.miProxyBoundingBox.miProxyBoundingBoxMax.miProxyBoundingBoxMaxY
p982
aVmentalRayControls.miProxyBoundingBox.miProxyBoundingBoxMax.miProxyBoundingBoxMaxZ
p983
asS'isElement'
p984
I00
ssVghostColorPostA
p985
(dp986
g16
I00
sg4
Vfloat
p987
sg294
I00
sg441
I00
sg10
I01
sg11
(lp988
ssVmentalRayControls.miMaxDisplaceOverride
p989
(dp990
g16
I00
sg4
Vbool
p991
sg294
I00
sg441
I00
sg10
I01
sg11
(lp992
ssVinstObjGroups[0].objectGroups[3]
p993
(dp994
g16
I00
sg11
(lp995
g595
aVinstObjGroups[0].objectGroups[3].objectGroupId
p996
aVinstObjGroups[0].objectGroups[3].objectGrpColor
p997
assVcompInstObjGroups.compObjectGroups.compObjectGroupId
p998
(dp999
g44
VcompInstObjGroups.compObjectGroups
p1000
ssVcreationDate
p1001
(dp1002
S'isArray'
p1003
I00
sg4
Vstring
p1004
sS'attrChildrenNames'
p1005
(lp1006
sS'isMulti'
p1007
I00
sS'isCompound'
p1008
I00
sg10
I01
sg11
(lp1009
sS'isElement'
p1010
I00
ssVcollisionOffsetVelocityMultiplier[2].collisionOffsetVelocityMultiplier_FloatValue
p1011
(dp1012
g16
I00
sg11
(lp1013
ssVdivisionsV
p1014
(dp1015
S'isArray'
p1016
I00
sg4
Vbyte
p1017
sS'attrChildrenNames'
p1018
(lp1019
sS'isMulti'
p1020
I00
sS'isCompound'
p1021
I00
sg10
I00
sg11
(lp1022
sS'isElement'
p1023
I00
ssVvolumeSamples
p1024
(dp1025
S'isArray'
p1026
I00
sg4
Vlong
p1027
sS'attrChildrenNames'
p1028
(lp1029
sS'isMulti'
p1030
I00
sS'isCompound'
p1031
I00
sg10
I01
sg11
(lp1032
sS'isElement'
p1033
I00
ssVdivisionsU
p1034
(dp1035
S'isArray'
p1036
I00
sg4
Vbyte
p1037
sS'attrChildrenNames'
p1038
(lp1039
sS'isMulti'
p1040
I00
sS'isCompound'
p1041
I00
sg10
I00
sg11
(lp1042
sS'isElement'
p1043
I00
ssVcolorSet[0].colorSetPoints[0].colorSetPointsG
p1044
(dp1045
S'isArray'
p1046
I00
sS'isElement'
p1047
I00
sS'attrParentLongName'
p1048
VcolorSet[0].colorSetPoints[0]
p1049
sS'attrChildrenNames'
p1050
(lp1051
sg11
(lp1052
ssVcolorSet[0].colorSetPoints[0].colorSetPointsA
p1053
(dp1054
S'isArray'
p1055
I00
sS'isElement'
p1056
I00
sS'attrParentLongName'
p1057
VcolorSet[0].colorSetPoints[0]
p1058
sS'attrChildrenNames'
p1059
(lp1060
sg11
(lp1061
ssVcolorSet[0].colorSetPoints[0].colorSetPointsB
p1062
(dp1063
S'isArray'
p1064
I00
sS'isElement'
p1065
I00
sS'attrParentLongName'
p1066
VcolorSet[0].colorSetPoints[0]
p1067
sS'attrChildrenNames'
p1068
(lp1069
sg11
(lp1070
ssVinstObjGroups[0].objectGroups[27]
p1071
(dp1072
g235
I00
sg241
(lp1073
VinstObjGroups[0].objectGroups[27].objectGrpCompList
p1074
aVinstObjGroups[0].objectGroups[27].objectGroupId
p1075
ag638
assVisHierarchicalConnection[1]
p1076
(dp1077
g16
I00
sg11
(lp1078
ssVcollisionDepthVelocityIncrement.collisionDepthVelocityIncrement_Interp
p1079
(dp1080
g44
VcollisionDepthVelocityIncrement
p1081
ssVcolorSet[0].colorSetPoints[0].colorSetPointsR
p1082
(dp1083
S'isArray'
p1084
I00
sS'isElement'
p1085
I00
sS'attrParentLongName'
p1086
VcolorSet[0].colorSetPoints[0]
p1087
sS'attrChildrenNames'
p1088
(lp1089
sg11
(lp1090
ssVcolorSet[0].colorSetPoints
p1091
(dp1092
S'isArray'
p1093
I01
sS'isElement'
p1094
I00
sS'attrParentLongName'
p1095
VcolorSet[0]
p1096
ssVinstObjGroups[0].objectGroups[28].objectGrpColor
p1097
(dp1098
g235
I00
sg241
(lp1099
ssVobjectColorRGB
p1100
(dp1101
g16
I00
sg294
I00
sg11
(lp1102
VobjectColorRGB.objectColorR
p1103
aVobjectColorRGB.objectColorG
p1104
aVobjectColorRGB.objectColorB
p1105
asg10
I00
sg4
Vfloat3
p1106
ssVcompInstObjGroups.compObjectGroups.compObjectGrpCompList
p1107
(dp1108
g44
VcompInstObjGroups.compObjectGroups
p1109
ssVcompInstObjGroups
p1110
(dp1111
S'isArray'
p1112
I01
sS'isElement'
p1113
I00
sS'isMulti'
p1114
I01
sg10
I00
sg4
VTdataCompound
p1115
ssVpublishedNodeInfo.isHierarchicalNode
p1116
(dp1117
g44
VpublishedNodeInfo
p1118
ssVcollisionOffsetVelocityMultiplier[2]
p1119
(dp1120
g16
I00
sg11
(lp1121
g22
ag1011
aVcollisionOffsetVelocityMultiplier[2].collisionOffsetVelocityMultiplier_Interp
p1122
assVinstObjGroups[1].objectGroups
p1123
(dp1124
g16
I01
ssVmatrix
p1125
(dp1126
S'isArray'
p1127
I00
sg4
Vmatrix
p1128
sS'attrChildrenNames'
p1129
(lp1130
sS'isMulti'
p1131
I00
sS'isCompound'
p1132
I00
sg10
I00
sg11
(lp1133
sS'isElement'
p1134
I00
ssVghostCustomSteps
p1135
(dp1136
S'isArray'
p1137
I00
sg4
VTdataCompound
p1138
sS'attrChildrenNames'
p1139
(lp1140
VghostCustomSteps.ghostPreSteps
p1141
aVghostCustomSteps.ghostPostSteps
p1142
aVghostCustomSteps.ghostStepSize
p1143
asS'isMulti'
p1144
I00
sS'isCompound'
p1145
I01
sg10
I00
sg11
(lp1146
VghostCustomSteps.ghostPreSteps
p1147
aVghostCustomSteps.ghostPostSteps
p1148
aVghostCustomSteps.ghostStepSize
p1149
asS'isElement'
p1150
I00
ssVinstObjGroups[0].objectGroups[2].objectGrpCompList
p1151
(dp1152
g16
I00
sg11
(lp1153
ssVuvSet.uvSetTweakLocation
p1154
(dp1155
g44
VuvSet
p1156
ssVworldMatrix
p1157
(dp1158
S'isArray'
p1159
I01
sS'isElement'
p1160
I00
sS'isMulti'
p1161
I01
sg10
I00
sg4
Vmatrix
p1162
ssVcontainerType
p1163
(dp1164
S'isArray'
p1165
I00
sg4
Vstring
p1166
sS'attrChildrenNames'
p1167
(lp1168
sS'isMulti'
p1169
I00
sS'isCompound'
p1170
I00
sg10
I01
sg11
(lp1171
sS'isElement'
p1172
I00
ssVmentalRayControls.miFinalGatherMaxRadius
p1173
(dp1174
S'isArray'
p1175
I00
sS'attrParentLongName'
p1176
VmentalRayControls
p1177
sS'attrChildrenNames'
p1178
(lp1179
sg4
Vfloat
p1180
sS'isMulti'
p1181
I00
sS'isCompound'
p1182
I00
sg10
I01
sg11
(lp1183
sS'isElement'
p1184
I00
ssVcontrolPoints
p1185
(dp1186
S'isArray'
p1187
I01
sS'isElement'
p1188
I00
sS'isMulti'
p1189
I01
sg10
I00
sg4
VTdataCompound
p1190
ssVparentInverseMatrix
p1191
(dp1192
S'isArray'
p1193
I01
sS'isElement'
p1194
I00
sS'isMulti'
p1195
I01
sg10
I00
sg4
Vmatrix
p1196
ssVcontrolPoints[0]
p1197
(dp1198
g16
I00
sg11
(lp1199
VcontrolPoints[0].xValue
p1200
aVcontrolPoints[0].yValue
p1201
aVcontrolPoints[0].zValue
p1202
assVcollisionDepthVelocityIncrement[0].collisionDepthVelocityIncrement_FloatValue
p1203
(dp1204
S'isArray'
p1205
I00
sS'isElement'
p1206
I00
sS'attrParentLongName'
p1207
VcollisionDepthVelocityIncrement[0]
p1208
sS'attrChildrenNames'
p1209
(lp1210
sg11
(lp1211
ssVrenderInfo.layerRenderable
p1212
(dp1213
S'isArray'
p1214
I00
sS'attrParentLongName'
p1215
VrenderInfo
p1216
sS'attrChildrenNames'
p1217
(lp1218
sg4
Vbool
p1219
sS'isMulti'
p1220
I00
sS'isCompound'
p1221
I00
sg10
I01
sg11
(lp1222
sS'isElement'
p1223
I00
ssVrmbCommand
p1224
(dp1225
g16
I00
sg4
Vstring
p1226
sg294
I00
sg441
I00
sg10
I01
sg11
(lp1227
ssVghostCustomSteps.ghostPreSteps
p1228
(dp1229
S'isArray'
p1230
I00
sS'attrParentLongName'
p1231
VghostCustomSteps
p1232
sS'attrChildrenNames'
p1233
(lp1234
sg4
Vlong
p1235
sS'isMulti'
p1236
I00
sS'isCompound'
p1237
I00
sg10
I01
sg11
(lp1238
sS'isElement'
p1239
I00
ssVpublishedNodeInfo[1].publishedNodeType
p1240
(dp1241
g16
I00
sg11
(lp1242
ssVweights[1]
p1243
(dp1244
g16
I00
sg11
(lp1245
ssVuvPivot.uvPivotX
p1246
(dp1247
S'isArray'
p1248
I00
sS'attrParentLongName'
p1249
VuvPivot
p1250
sS'attrChildrenNames'
p1251
(lp1252
sg4
Vdouble
p1253
sS'isMulti'
p1254
I00
sS'isCompound'
p1255
I00
sg10
I01
sg11
(lp1256
sS'isElement'
p1257
I00
ssVuvPivot.uvPivotY
p1258
(dp1259
S'isArray'
p1260
I00
sS'attrParentLongName'
p1261
VuvPivot
p1262
sS'attrChildrenNames'
p1263
(lp1264
sg4
Vdouble
p1265
sS'isMulti'
p1266
I00
sS'isCompound'
p1267
I00
sg10
I01
sg11
(lp1268
sS'isElement'
p1269
I00
ssVcurvePrecision
p1270
(dp1271
S'isArray'
p1272
I00
sg4
Vbyte
p1273
sS'attrChildrenNames'
p1274
(lp1275
sS'isMulti'
p1276
I00
sS'isCompound'
p1277
I00
sg10
I00
sg11
(lp1278
sS'isElement'
p1279
I00
ssVcolorSet[0].clamped
p1280
(dp1281
S'isArray'
p1282
I00
sS'isElement'
p1283
I00
sS'attrParentLongName'
p1284
VcolorSet[0]
p1285
sS'attrChildrenNames'
p1286
(lp1287
sg11
(lp1288
ssVinstObjGroups[0].objectGroups[2].objectGrpColor
p1289
(dp1290
g16
I00
sg11
(lp1291
ssVobjSpaceChordHeight
p1292
(dp1293
S'isArray'
p1294
I00
sg4
Vbool
p1295
sS'attrChildrenNames'
p1296
(lp1297
sS'isMulti'
p1298
I00
sS'isCompound'
p1299
I00
sg10
I01
sg11
(lp1300
sS'isElement'
p1301
I00
ssVmentalRayControls.miShadingSamplesOverride
p1302
(dp1303
g16
I00
sg4
Vbool
p1304
sg294
I00
sg441
I00
sg10
I01
sg11
(lp1305
ssVworldSpace[2]
p1306
(dp1307
g16
I00
sg11
(lp1308
ssVdispGeometry
p1309
(dp1310
S'isArray'
p1311
I00
sg4
Vbool
p1312
sS'attrChildrenNames'
p1313
(lp1314
sS'isMulti'
p1315
I00
sS'isCompound'
p1316
I00
sg10
I01
sg11
(lp1317
sS'isElement'
p1318
I00
ssVcollisionDepthVelocityIncrement[1].collisionDepthVelocityIncrement_Interp
p1319
(dp1320
g16
I00
sg11
(lp1321
ssVmentalRayControls.miRefractionReceive
p1322
(dp1323
S'isArray'
p1324
I00
sS'attrParentLongName'
p1325
VmentalRayControls
p1326
sS'attrChildrenNames'
p1327
(lp1328
sg4
Vbool
p1329
sS'isMulti'
p1330
I00
sS'isCompound'
p1331
I00
sg10
I01
sg11
(lp1332
sS'isElement'
p1333
I00
ssVcollisionDepthVelocityIncrement.collisionDepthVelocityIncrement_Position
p1334
(dp1335
g44
VcollisionDepthVelocityIncrement
p1336
ssVinstObjGroups[1]
p1337
(dp1338
g16
I00
sg11
(lp1339
g1123
assg272
(dp1340
g16
I00
sg11
(lp1341
ssVcollisionDepthVelocityMultiplier[1]
p1342
(dp1343
g16
I00
sg11
(lp1344
g833
aVcollisionDepthVelocityMultiplier[1].collisionDepthVelocityMultiplier_FloatValue
p1345
aVcollisionDepthVelocityMultiplier[1].collisionDepthVelocityMultiplier_Interp
p1346
assVvisibleInReflections
p1347
(dp1348
S'isArray'
p1349
I00
sg4
Vbool
p1350
sS'attrChildrenNames'
p1351
(lp1352
sS'isMulti'
p1353
I00
sS'isCompound'
p1354
I00
sg10
I01
sg11
(lp1355
sS'isElement'
p1356
I00
ssVcurrentUVSet
p1357
(dp1358
S'isArray'
p1359
I00
sg4
Vstring
p1360
sS'attrChildrenNames'
p1361
(lp1362
sS'isMulti'
p1363
I00
sS'isCompound'
p1364
I00
sg10
I01
sg11
(lp1365
sS'isElement'
p1366
I00
ssVpatchUVIds[1]
p1367
(dp1368
g16
I00
sg11
(lp1369
ssVparentMatrix[1]
p1370
(dp1371
g16
I00
sg11
(lp1372
ssVsmoothEdgeRatio
p1373
(dp1374
S'isArray'
p1375
I00
sg4
Vdouble
p1376
sS'attrChildrenNames'
p1377
(lp1378
sS'isMulti'
p1379
I00
sS'isCompound'
p1380
I00
sg10
I01
sg11
(lp1381
sS'isElement'
p1382
I00
ssVrenderInfo
p1383
(dp1384
S'isArray'
p1385
I00
sg4
VTdataCompound
p1386
sS'attrChildrenNames'
p1387
(lp1388
VrenderInfo.identification
p1389
aVrenderInfo.layerRenderable
p1390
aVrenderInfo.layerOverrideColor
p1391
asS'isMulti'
p1392
I00
sS'isCompound'
p1393
I01
sg10
I00
sg11
(lp1394
VrenderInfo.identification
p1395
aVrenderInfo.layerRenderable
p1396
aVrenderInfo.layerOverrideColor
p1397
asS'isElement'
p1398
I00
ssVsimplifyMode
p1399
(dp1400
S'isArray'
p1401
I00
sg4
Vbyte
p1402
sS'attrChildrenNames'
p1403
(lp1404
sS'isMulti'
p1405
I00
sS'isCompound'
p1406
I00
sg10
I00
sg11
(lp1407
sS'isElement'
p1408
I00
ssVminMaxRangeU.maxValueU
p1409
(dp1410
S'isArray'
p1411
I00
sS'attrParentLongName'
p1412
VminMaxRangeU
p1413
sS'attrChildrenNames'
p1414
(lp1415
sg4
Vdouble
p1416
sS'isMulti'
p1417
I00
sS'isCompound'
p1418
I00
sg10
I01
sg11
(lp1419
sS'isElement'
p1420
I00
ssVvisibleInRefractions
p1421
(dp1422
S'isArray'
p1423
I00
sg4
Vbool
p1424
sS'attrChildrenNames'
p1425
(lp1426
sS'isMulti'
p1427
I00
sS'isCompound'
p1428
I00
sg10
I01
sg11
(lp1429
sS'isElement'
p1430
I00
ssVtrimFace[1]
p1431
(dp1432
g16
I00
sg11
(lp1433
ssg20
(dp1434
g16
I00
sg11
(lp1435
ssg21
(dp1436
g16
I00
sg11
(lp1437
ssg19
(dp1438
g16
I00
sg11
(lp1439
ssVnormalThreshold
p1440
(dp1441
S'isArray'
p1442
I00
sg4
Vfloat
p1443
sS'attrChildrenNames'
p1444
(lp1445
sS'isMulti'
p1446
I00
sS'isCompound'
p1447
I00
sg10
I01
sg11
(lp1448
sS'isElement'
p1449
I00
ssVinstObjGroups[0].objectGroups[26].objectGrpColor
p1450
(dp1451
g235
I00
sg236
Vshort
p1452
sg238
I00
sg239
I00
sg240
I01
sg241
(lp1453
ssg367
(dp1454
g16
I00
sg11
(lp1455
ssVcollisionOffsetVelocityIncrement
p1456
(dp1457
S'isArray'
p1458
I01
sS'isElement'
p1459
I00
sS'isMulti'
p1460
I01
sg10
I00
sg4
VTdataCompound
p1461
ssVtweakLocation
p1462
(dp1463
S'isArray'
p1464
I00
sg4
NsS'attrChildrenNames'
p1465
(lp1466
sS'isMulti'
p1467
I00
sS'isCompound'
p1468
I00
sg10
I00
sg11
(lp1469
sS'isElement'
p1470
I00
ssVcontrolPoints.xValue
p1471
(dp1472
g44
VcontrolPoints
p1473
ssg18
(dp1474
g16
I00
sg11
(lp1475
ssVfixTextureWarp
p1476
(dp1477
S'isArray'
p1478
I00
sg4
Vbool
p1479
sS'attrChildrenNames'
p1480
(lp1481
sS'isMulti'
p1482
I00
sS'isCompound'
p1483
I00
sg10
I01
sg11
(lp1484
sS'isElement'
p1485
I00
ssVcollisionDepthVelocityMultiplier.collisionDepthVelocityMultiplier_FloatValue
p1486
(dp1487
g44
VcollisionDepthVelocityMultiplier
p1488
ssVboundingBoxScale.boundingBoxScaleZ
p1489
(dp1490
S'isArray'
p1491
I00
sS'attrParentLongName'
p1492
VboundingBoxScale
p1493
sS'attrChildrenNames'
p1494
(lp1495
sg4
Vfloat
p1496
sS'isMulti'
p1497
I00
sS'isCompound'
p1498
I00
sg10
I01
sg11
(lp1499
sS'isElement'
p1500
I00
ssVboundingBoxScale.boundingBoxScaleX
p1501
(dp1502
S'isArray'
p1503
I00
sS'attrParentLongName'
p1504
VboundingBoxScale
p1505
sS'attrChildrenNames'
p1506
(lp1507
sg4
Vfloat
p1508
sS'isMulti'
p1509
I00
sS'isCompound'
p1510
I00
sg10
I01
sg11
(lp1511
sS'isElement'
p1512
I00
ssVboundingBoxScale.boundingBoxScaleY
p1513
(dp1514
S'isArray'
p1515
I00
sS'attrParentLongName'
p1516
VboundingBoxScale
p1517
sS'attrChildrenNames'
p1518
(lp1519
sg4
Vfloat
p1520
sS'isMulti'
p1521
I00
sS'isCompound'
p1522
I00
sg10
I01
sg11
(lp1523
sS'isElement'
p1524
I00
ssVcollisionOffsetVelocityMultiplier.collisionOffsetVelocityMultiplier_Interp
p1525
(dp1526
g44
VcollisionOffsetVelocityMultiplier
p1527
ssVinstObjGroups[0].objectGroups[26].objectGrpCompList
p1528
(dp1529
g235
I00
sg238
I00
sg236
VcomponentList
p1530
sg240
I00
sg241
(lp1531
ssVviewMode
p1532
(dp1533
S'isArray'
p1534
I00
sg4
Venum
p1535
sS'attrChildrenNames'
p1536
(lp1537
sS'isMulti'
p1538
I00
sS'isCompound'
p1539
I00
sg10
I01
sg11
(lp1540
sS'isElement'
p1541
I00
ssVworldInverseMatrix[0]
p1542
(dp1543
g16
I00
sg11
(lp1544
ssVsimplifyV
p1545
(dp1546
S'isArray'
p1547
I00
sg4
Vbyte
p1548
sS'attrChildrenNames'
p1549
(lp1550
sS'isMulti'
p1551
I00
sS'isCompound'
p1552
I00
sg10
I00
sg11
(lp1553
sS'isElement'
p1554
I00
ssVboundingBox.boundingBoxMax.boundingBoxMaxX
p1555
(dp1556
S'isArray'
p1557
I00
sS'attrParentLongName'
p1558
VboundingBox.boundingBoxMax
p1559
sS'attrChildrenNames'
p1560
(lp1561
sg4
VdoubleLinear
p1562
sS'isMulti'
p1563
I00
sS'isCompound'
p1564
I00
sg10
I01
sg11
(lp1565
sS'isElement'
p1566
I00
ssVsimplifyU
p1567
(dp1568
S'isArray'
p1569
I00
sg4
Vbyte
p1570
sS'attrChildrenNames'
p1571
(lp1572
sS'isMulti'
p1573
I00
sS'isCompound'
p1574
I00
sg10
I00
sg11
(lp1575
sS'isElement'
p1576
I00
ssVisCollapsed
p1577
(dp1578
S'isArray'
p1579
I00
sg4
Vbool
p1580
sS'attrChildrenNames'
p1581
(lp1582
sS'isMulti'
p1583
I00
sS'isCompound'
p1584
I00
sg10
I01
sg11
(lp1585
sS'isElement'
p1586
I00
ssVedgeSwap
p1587
(dp1588
S'isArray'
p1589
I00
sg4
Vbool
p1590
sS'attrChildrenNames'
p1591
(lp1592
sS'isMulti'
p1593
I00
sS'isCompound'
p1594
I00
sg10
I01
sg11
(lp1595
sS'isElement'
p1596
I00
ssVghostColorPost.ghostColorPostR
p1597
(dp1598
g16
I00
sg4
Vfloat
p1599
sg294
I00
sg441
I00
sg10
I01
sg11
(lp1600
ssVpatchUVIds
p1601
(dp1602
S'isArray'
p1603
I01
sS'isElement'
p1604
I00
sS'isMulti'
p1605
I01
sg10
I00
sg4
VTdataCompound
p1606
ssVopposite
p1607
(dp1608
S'isArray'
p1609
I00
sg4
Vbool
p1610
sS'attrChildrenNames'
p1611
(lp1612
sS'isMulti'
p1613
I00
sS'isCompound'
p1614
I00
sg10
I01
sg11
(lp1615
sS'isElement'
p1616
I00
ssVcontrolPoints[0].yValue
p1617
(dp1618
S'isArray'
p1619
I00
sS'isElement'
p1620
I00
sS'attrParentLongName'
p1621
VcontrolPoints[0]
p1622
sS'attrChildrenNames'
p1623
(lp1624
sg11
(lp1625
ssVcollisionDepthVelocityIncrement[0]
p1626
(dp1627
g16
I00
sg11
(lp1628
VcollisionDepthVelocityIncrement[0].collisionDepthVelocityIncrement_Position
p1629
aVcollisionDepthVelocityIncrement[0].collisionDepthVelocityIncrement_FloatValue
p1630
aVcollisionDepthVelocityIncrement[0].collisionDepthVelocityIncrement_Interp
p1631
assVinstObjGroups[0].objectGroups[0].objectGrpCompList
p1632
(dp1633
S'isArray'
p1634
I00
sS'attrParentLongName'
p1635
VinstObjGroups[0].objectGroups[0]
p1636
sS'attrChildrenNames'
p1637
(lp1638
sg4
VcomponentList
p1639
sS'isMulti'
p1640
I00
sS'isCompound'
p1641
I00
sg10
I00
sg11
(lp1642
sS'isElement'
p1643
I00
ssVcolorSet[1].colorSetPoints
p1644
(dp1645
g16
I01
ssVuiTreatment
p1646
(dp1647
S'isArray'
p1648
I00
sg4
Venum
p1649
sS'attrChildrenNames'
p1650
(lp1651
sS'isMulti'
p1652
I00
sS'isCompound'
p1653
I00
sg10
I01
sg11
(lp1654
sS'isElement'
p1655
I00
ssVuvPivot
p1656
(dp1657
S'isArray'
p1658
I00
sg4
Vdouble2
p1659
sS'attrChildrenNames'
p1660
(lp1661
VuvPivot.uvPivotX
p1662
aVuvPivot.uvPivotY
p1663
asS'isMulti'
p1664
I00
sS'isCompound'
p1665
I01
sg10
I01
sg11
(lp1666
VuvPivot.uvPivotX
p1667
aVuvPivot.uvPivotY
p1668
asS'isElement'
p1669
I00
ssVcaching
p1670
(dp1671
S'isArray'
p1672
I00
sg4
Vbool
p1673
sS'attrChildrenNames'
p1674
(lp1675
sS'isMulti'
p1676
I00
sS'isCompound'
p1677
I00
sg10
I01
sg11
(lp1678
sS'isElement'
p1679
I00
ssVrenderLayerInfo[1].renderLayerRenderable
p1680
(dp1681
g16
I00
sg11
(lp1682
ssVcompInstObjGroups[0].compObjectGroups[0].compObjectGroupId
p1683
(dp1684
S'isArray'
p1685
I00
sS'isElement'
p1686
I00
sS'attrParentLongName'
p1687
VcompInstObjGroups[0].compObjectGroups[0]
p1688
sS'attrChildrenNames'
p1689
(lp1690
sg11
(lp1691
ssVinstObjGroups[0].objectGroups[25]
p1692
(dp1693
g235
I00
sg238
I00
sg236
VTdataCompound
p1694
sg240
I00
sg241
(lp1695
g750
ag233
aVinstObjGroups[0].objectGroups[25].objectGrpColor
p1696
assVghostCustomSteps.ghostPostSteps
p1697
(dp1698
S'isArray'
p1699
I00
sS'attrParentLongName'
p1700
VghostCustomSteps
p1701
sS'attrChildrenNames'
p1702
(lp1703
sg4
Vlong
p1704
sS'isMulti'
p1705
I00
sS'isCompound'
p1706
I00
sg10
I01
sg11
(lp1707
sS'isElement'
p1708
I00
ssVuseObjectColor
p1709
(dp1710
S'isArray'
p1711
I00
sg4
Vbool
p1712
sS'attrChildrenNames'
p1713
(lp1714
sS'isMulti'
p1715
I00
sS'isCompound'
p1716
I00
sg10
I01
sg11
(lp1717
sS'isElement'
p1718
I00
ssVdrawOverride.overrideLevelOfDetail
p1719
(dp1720
S'isArray'
p1721
I00
sS'attrParentLongName'
p1722
VdrawOverride
p1723
sS'attrChildrenNames'
p1724
(lp1725
sS'attrType'
p1726
Venum
p1727
sS'isMulti'
p1728
I00
sS'isCompound'
p1729
I00
sg338
I01
sS'isReadable'
p1730
I01
sg11
(lp1731
sS'isElement'
p1732
I00
ssVinstObjGroups[0].objectGroups[0].objectGroupId
p1733
(dp1734
S'isArray'
p1735
I00
sS'attrParentLongName'
p1736
VinstObjGroups[0].objectGroups[0]
p1737
sS'attrChildrenNames'
p1738
(lp1739
sg4
Vlong
p1740
sS'isMulti'
p1741
I00
sS'isCompound'
p1742
I00
sg10
I01
sg11
(lp1743
sS'isElement'
p1744
I00
ssVinstObjGroups[0].objectGroups[2]
p1745
(dp1746
g16
I00
sg11
(lp1747
g1151
aVinstObjGroups[0].objectGroups[2].objectGroupId
p1748
ag1289
assVantialiasingLevel
p1749
(dp1750
S'isArray'
p1751
I00
sg4
Vlong
p1752
sS'attrChildrenNames'
p1753
(lp1754
sS'isMulti'
p1755
I00
sS'isCompound'
p1756
I00
sg10
I01
sg11
(lp1757
sS'isElement'
p1758
I00
ssVcolorSet.colorSetPoints.colorSetPointsG
p1759
(dp1760
g44
VcolorSet.colorSetPoints
p1761
ssVcolorSet.colorSetPoints.colorSetPointsB
p1762
(dp1763
g44
VcolorSet.colorSetPoints
p1764
ssVcolorSet.colorSetPoints.colorSetPointsA
p1765
(dp1766
g44
VcolorSet.colorSetPoints
p1767
ssg997
(dp1768
g16
I00
sg11
(lp1769
ssVbinMembership
p1770
(dp1771
g16
I00
sg4
Vstring
p1772
sg294
I00
sg441
I00
sg10
I01
sg11
(lp1773
ssVcolorSet.colorSetPoints.colorSetPointsR
p1774
(dp1775
g44
VcolorSet.colorSetPoints
p1776
ssVcollisionDepthVelocityMultiplier[2].collisionDepthVelocityMultiplier_FloatValue
p1777
(dp1778
g16
I00
sg11
(lp1779
ssVrenderLayerInfo[0].renderLayerRenderable
p1780
(dp1781
S'isArray'
p1782
I00
sS'isElement'
p1783
I00
sS'attrParentLongName'
p1784
VrenderLayerInfo[0]
p1785
sS'attrChildrenNames'
p1786
(lp1787
sg11
(lp1788
ssVlocal
p1789
(dp1790
S'isArray'
p1791
I00
sg4
VnurbsSurface
p1792
sS'attrChildrenNames'
p1793
(lp1794
sS'isMulti'
p1795
I00
sS'isCompound'
p1796
I00
sg10
I00
sg11
(lp1797
sS'isElement'
p1798
I00
ssVuvSet.uvSetPoints.uvSetPointsV
p1799
(dp1800
g44
VuvSet.uvSetPoints
p1801
ssVuvSet.uvSetPoints.uvSetPointsU
p1802
(dp1803
g44
VuvSet.uvSetPoints
p1804
ssVparentMatrix
p1805
(dp1806
S'isArray'
p1807
I01
sS'isElement'
p1808
I00
sS'isMulti'
p1809
I01
sg10
I00
sg4
Vmatrix
p1810
ssVrenderTriangleCount
p1811
(dp1812
S'isArray'
p1813
I00
sg4
Vlong
p1814
sS'attrChildrenNames'
p1815
(lp1816
sS'isMulti'
p1817
I00
sS'isCompound'
p1818
I00
sg10
I01
sg11
(lp1819
sS'isElement'
p1820
I00
ssVreceiveShadows
p1821
(dp1822
S'isArray'
p1823
I00
sg4
Vbool
p1824
sS'attrChildrenNames'
p1825
(lp1826
sS'isMulti'
p1827
I00
sS'isCompound'
p1828
I00
sg10
I01
sg11
(lp1829
sS'isElement'
p1830
I00
ssVcached
p1831
(dp1832
S'isArray'
p1833
I00
sg4
VnurbsSurface
p1834
sS'attrChildrenNames'
p1835
(lp1836
sS'isMulti'
p1837
I00
sS'isCompound'
p1838
I00
sg10
I00
sg11
(lp1839
sS'isElement'
p1840
I00
ssVshadingSamples
p1841
(dp1842
S'isArray'
p1843
I00
sg4
Vlong
p1844
sS'attrChildrenNames'
p1845
(lp1846
sS'isMulti'
p1847
I00
sS'isCompound'
p1848
I00
sg10
I01
sg11
(lp1849
sS'isElement'
p1850
I00
ssVdrawOverride.overrideEnabled
p1851
(dp1852
S'isArray'
p1853
I00
sS'attrParentLongName'
p1854
VdrawOverride
p1855
sS'attrChildrenNames'
p1856
(lp1857
sS'attrType'
p1858
Vbool
p1859
sS'isMulti'
p1860
I00
sS'isCompound'
p1861
I00
sg338
I01
sS'isReadable'
p1862
I01
sg11
(lp1863
sS'isElement'
p1864
I00
ssVboundingBox.boundingBoxMax
p1865
(dp1866
S'isArray'
p1867
I00
sS'attrParentLongName'
p1868
VboundingBox
p1869
sS'attrChildrenNames'
p1870
(lp1871
VboundingBox.boundingBoxMax.boundingBoxMaxX
p1872
aVboundingBox.boundingBoxMax.boundingBoxMaxY
p1873
aVboundingBox.boundingBoxMax.boundingBoxMaxZ
p1874
asg4
Vdouble3
p1875
sS'isMulti'
p1876
I00
sS'isCompound'
p1877
I01
sg10
I01
sg11
(lp1878
VboundingBox.boundingBoxMax.boundingBoxMaxX
p1879
aVboundingBox.boundingBoxMax.boundingBoxMaxY
p1880
aVboundingBox.boundingBoxMax.boundingBoxMaxZ
p1881
asS'isElement'
p1882
I00
ssVcolorSet[1]
p1883
(dp1884
g16
I00
sg11
(lp1885
g276
aVcolorSet[1].clamped
p1886
ag954
ag1644
assVcreator
p1887
(dp1888
S'isArray'
p1889
I00
sg4
Vstring
p1890
sS'attrChildrenNames'
p1891
(lp1892
sS'isMulti'
p1893
I00
sS'isCompound'
p1894
I00
sg10
I01
sg11
(lp1895
sS'isElement'
p1896
I00
ssVghostRangeEnd
p1897
(dp1898
S'isArray'
p1899
I00
sg4
Vtime
p1900
sS'attrChildrenNames'
p1901
(lp1902
sS'isMulti'
p1903
I00
sS'isCompound'
p1904
I00
sg10
I01
sg11
(lp1905
sS'isElement'
p1906
I00
ssVcontrolPoints.yValue
p1907
(dp1908
g44
VcontrolPoints
p1909
ssVcolorSet.colorName
p1910
(dp1911
g44
VcolorSet
p1912
ssVtemplateVersion
p1913
(dp1914
S'isArray'
p1915
I00
sg4
Vlong
p1916
sS'attrChildrenNames'
p1917
(lp1918
sS'isMulti'
p1919
I00
sS'isCompound'
p1920
I00
sg10
I01
sg11
(lp1921
sS'isElement'
p1922
I00
ssVcollisionDepthVelocityMultiplier[0].collisionDepthVelocityMultiplier_Interp
p1923
(dp1924
S'isArray'
p1925
I00
sS'attrParentLongName'
p1926
VcollisionDepthVelocityMultiplier[0]
p1927
sS'attrChildrenNames'
p1928
(lp1929
sg4
Venum
p1930
sS'isMulti'
p1931
I00
sS'isCompound'
p1932
I00
sg10
I01
sg11
(lp1933
sS'isElement'
p1934
I00
ssg1748
(dp1935
g16
I00
sg11
(lp1936
ssVuvSet[0]
p1937
(dp1938
g16
I00
sg11
(lp1939
VuvSet[0].uvSetName
p1940
aVuvSet[0].uvSetPoints
p1941
aVuvSet[0].uvSetTweakLocation
p1942
assg1075
(dp1943
g235
I00
sg241
(lp1944
ssVmentalRayControls.miTransparencyCast
p1945
(dp1946
S'isArray'
p1947
I00
sS'attrParentLongName'
p1948
VmentalRayControls
p1949
sS'attrChildrenNames'
p1950
(lp1951
sg4
Vbool
p1952
sS'isMulti'
p1953
I00
sS'isCompound'
p1954
I00
sg10
I01
sg11
(lp1955
sS'isElement'
p1956
I00
ssg1074
(dp1957
g235
I00
sg241
(lp1958
ssg1122
(dp1959
g16
I00
sg11
(lp1960
ssVworldSpace
p1961
(dp1962
S'isArray'
p1963
I01
sS'attrType'
p1964
VnurbsSurface
p1965
sS'isMulti'
p1966
I01
sg338
I00
sS'isReadable'
p1967
I00
sS'isElement'
p1968
I00
ssVinstObjGroups.objectGroups.objectGrpCompList
p1969
(dp1970
g44
VinstObjGroups.objectGroups
p1971
ssVpublishedNodeInfo.publishedNodeType
p1972
(dp1973
g44
VpublishedNodeInfo
p1974
ssVpublishedNodeInfo[1]
p1975
(dp1976
g16
I00
sg11
(lp1977
VpublishedNodeInfo[1].publishedNode
p1978
aVpublishedNodeInfo[1].isHierarchicalNode
p1979
ag1240
assg368
(dp1980
g16
I00
sg11
(lp1981
ssVmentalRayControls.miProxyFile
p1982
(dp1983
S'isArray'
p1984
I00
sS'attrParentLongName'
p1985
VmentalRayControls
p1986
sS'attrChildrenNames'
p1987
(lp1988
sg4
Vstring
p1989
sS'isMulti'
p1990
I00
sS'isCompound'
p1991
I00
sg10
I01
sg11
(lp1992
sS'isElement'
p1993
I00
ssVghostRangeStart
p1994
(dp1995
S'isArray'
p1996
I00
sg4
Vtime
p1997
sS'attrChildrenNames'
p1998
(lp1999
sS'isMulti'
p2000
I00
sS'isCompound'
p2001
I00
sg10
I01
sg11
(lp2002
sS'isElement'
p2003
I00
ssVuvSet[1].uvSetTweakLocation
p2004
(dp2005
g16
I00
sg11
(lp2006
ssVpublishedNodeInfo[0].publishedNodeType
p2007
(dp2008
S'isArray'
p2009
I00
sS'isElement'
p2010
I00
sS'attrParentLongName'
p2011
VpublishedNodeInfo[0]
p2012
sS'attrChildrenNames'
p2013
(lp2014
sg11
(lp2015
ssVinstObjGroups[2]
p2016
(dp2017
g16
I00
sg11
(lp2018
g475
assVcollisionDepthVelocityMultiplier[2]
p2019
(dp2020
g16
I00
sg11
(lp2021
VcollisionDepthVelocityMultiplier[2].collisionDepthVelocityMultiplier_Position
p2022
ag1777
ag372
assg1886
(dp2023
g16
I00
sg11
(lp2024
ssg2022
(dp2025
g16
I00
sg11
(lp2026
ssVmentalRayControls.miOverrideSamples
p2027
(dp2028
S'isArray'
p2029
I00
sS'attrParentLongName'
p2030
VmentalRayControls
p2031
sS'attrChildrenNames'
p2032
(lp2033
sg4
Vbool
p2034
sS'isMulti'
p2035
I00
sS'isCompound'
p2036
I00
sg10
I01
sg11
(lp2037
sS'isElement'
p2038
I00
ssVminMaxRangeV.minValueV
p2039
(dp2040
S'isArray'
p2041
I00
sS'attrParentLongName'
p2042
VminMaxRangeV
p2043
sS'attrChildrenNames'
p2044
(lp2045
sg4
Vdouble
p2046
sS'isMulti'
p2047
I00
sS'isCompound'
p2048
I00
sg10
I01
sg11
(lp2049
sS'isElement'
p2050
I00
ssVheader
p2051
(dp2052
g16
I00
sg294
I00
sg11
(lp2053
sg10
I00
sg4
VnurbsSurfaceHeader
p2054
ssVboundingBoxScale
p2055
(dp2056
S'isArray'
p2057
I00
sg4
Vfloat3
p2058
sS'attrChildrenNames'
p2059
(lp2060
VboundingBoxScale.boundingBoxScaleX
p2061
aVboundingBoxScale.boundingBoxScaleY
p2062
aVboundingBoxScale.boundingBoxScaleZ
p2063
asS'isMulti'
p2064
I00
sS'isCompound'
p2065
I01
sg10
I00
sg11
(lp2066
VboundingBoxScale.boundingBoxScaleX
p2067
aVboundingBoxScale.boundingBoxScaleY
p2068
aVboundingBoxScale.boundingBoxScaleZ
p2069
asS'isElement'
p2070
I00
ssVisHistoricallyInteresting
p2071
(dp2072
S'isArray'
p2073
I00
sg4
Vbyte
p2074
sS'attrChildrenNames'
p2075
(lp2076
sS'isMulti'
p2077
I00
sS'isCompound'
p2078
I00
sg10
I00
sg11
(lp2079
sS'isElement'
p2080
I00
ssVdegreeUV
p2081
(dp2082
S'isArray'
p2083
I00
sg4
Vshort2
p2084
sS'attrChildrenNames'
p2085
(lp2086
VdegreeUV.degreeU
p2087
aVdegreeUV.degreeV
p2088
asS'isMulti'
p2089
I00
sS'isCompound'
p2090
I01
sg10
I01
sg11
(lp2091
VdegreeUV.degreeU
p2092
aVdegreeUV.degreeV
p2093
asS'isElement'
p2094
I00
ssVtweakSizeU
p2095
(dp2096
S'isArray'
p2097
I00
sg4
Vlong
p2098
sS'attrChildrenNames'
p2099
(lp2100
sS'isMulti'
p2101
I00
sS'isCompound'
p2102
I00
sg10
I01
sg11
(lp2103
sS'isElement'
p2104
I00
ssVchordHeightRatio
p2105
(dp2106
S'isArray'
p2107
I00
sg4
Vdouble
p2108
sS'attrChildrenNames'
p2109
(lp2110
sS'isMulti'
p2111
I00
sS'isCompound'
p2112
I00
sg10
I01
sg11
(lp2113
sS'isElement'
p2114
I00
ssVrelativeTweak
p2115
(dp2116
S'isArray'
p2117
I00
sg4
Vbool
p2118
sS'attrChildrenNames'
p2119
(lp2120
sS'isMulti'
p2121
I00
sS'isCompound'
p2122
I00
sg10
I01
sg11
(lp2123
sS'isElement'
p2124
I00
ssVcreate
p2125
(dp2126
S'isArray'
p2127
I00
sS'attrType'
p2128
VnurbsSurface
p2129
sS'attrChildrenNames'
p2130
(lp2131
sS'isMulti'
p2132
I00
sS'isCompound'
p2133
I00
sg338
I00
sS'isReadable'
p2134
I00
sg11
(lp2135
sS'isElement'
p2136
I00
ssVextraSampleRate
p2137
(dp2138
S'isArray'
p2139
I00
sg4
Vlong
p2140
sS'attrChildrenNames'
p2141
(lp2142
sS'isMulti'
p2143
I00
sS'isCompound'
p2144
I00
sg10
I01
sg11
(lp2145
sS'isElement'
p2146
I00
ssVdrawOverride
p2147
(dp2148
S'isArray'
p2149
I00
sS'attrType'
p2150
VTdataCompound
p2151
sS'attrChildrenNames'
p2152
(lp2153
VdrawOverride.overrideDisplayType
p2154
aVdrawOverride.overrideLevelOfDetail
p2155
aVdrawOverride.overrideShading
p2156
aVdrawOverride.overrideTexturing
p2157
aVdrawOverride.overridePlayback
p2158
aVdrawOverride.overrideEnabled
p2159
aVdrawOverride.overrideVisibility
p2160
aVdrawOverride.overrideColor
p2161
asS'isMulti'
p2162
I00
sS'isCompound'
p2163
I01
sg338
I00
sS'isReadable'
p2164
I00
sg11
(lp2165
VdrawOverride.overrideDisplayType
p2166
aVdrawOverride.overrideLevelOfDetail
p2167
aVdrawOverride.overrideShading
p2168
aVdrawOverride.overrideTexturing
p2169
aVdrawOverride.overridePlayback
p2170
aVdrawOverride.overrideEnabled
p2171
aVdrawOverride.overrideVisibility
p2172
aVdrawOverride.overrideColor
p2173
asS'isElement'
p2174
I00
ssVinstObjGroups.objectGroups.objectGroupId
p2175
(dp2176
S'attrParentLongName'
p2177
VinstObjGroups[0].objectGroups[21]
p2178
ssVcollisionOffsetVelocityIncrement[0].collisionOffsetVelocityIncrement_Position
p2179
(dp2180
S'isArray'
p2181
I00
sS'isElement'
p2182
I00
sS'attrParentLongName'
p2183
VcollisionOffsetVelocityIncrement[0]
p2184
sS'attrChildrenNames'
p2185
(lp2186
sg11
(lp2187
ssVmentalRayControls
p2188
(dp2189
S'isArray'
p2190
I00
sg4
VTdataCompound
p2191
sS'attrChildrenNames'
p2192
(lp2193
VmentalRayControls.miOverrideCaustics
p2194
aVmentalRayControls.miCausticAccuracy
p2195
aVmentalRayControls.miCausticRadius
p2196
aVmentalRayControls.miOverrideGlobalIllumination
p2197
aVmentalRayControls.miGlobillumAccuracy
p2198
aVmentalRayControls.miGlobillumRadius
p2199
aVmentalRayControls.miOverrideFinalGather
p2200
aVmentalRayControls.miFinalGatherRays
p2201
aVmentalRayControls.miFinalGatherMinRadius
p2202
aVmentalRayControls.miFinalGatherMaxRadius
p2203
aVmentalRayControls.miFinalGatherFilter
p2204
aVmentalRayControls.miFinalGatherView
p2205
aVmentalRayControls.miOverrideSamples
p2206
aVmentalRayControls.miMinSamples
p2207
aVmentalRayControls.miMaxSamples
p2208
aVmentalRayControls.miFinalGatherCast
p2209
aVmentalRayControls.miFinalGatherReceive
p2210
aVmentalRayControls.miTransparencyCast
p2211
aVmentalRayControls.miTransparencyReceive
p2212
aVmentalRayControls.miReflectionReceive
p2213
aVmentalRayControls.miRefractionReceive
p2214
aVmentalRayControls.miProxyFile
p2215
aVmentalRayControls.miUpdateProxyBoundingBoxMode
p2216
aVmentalRayControls.miProxyBoundingBox
p2217
asS'isMulti'
p2218
I00
sS'isCompound'
p2219
I01
sg10
I00
sg11
(lp2220
VmentalRayControls.miOverrideCaustics
p2221
aVmentalRayControls.miCausticAccuracy
p2222
aVmentalRayControls.miCausticRadius
p2223
aVmentalRayControls.miOverrideGlobalIllumination
p2224
aVmentalRayControls.miGlobillumAccuracy
p2225
aVmentalRayControls.miGlobillumRadius
p2226
aVmentalRayControls.miOverrideFinalGather
p2227
aVmentalRayControls.miFinalGatherRays
p2228
aVmentalRayControls.miFinalGatherMinRadius
p2229
aVmentalRayControls.miFinalGatherMaxRadius
p2230
aVmentalRayControls.miFinalGatherFilter
p2231
aVmentalRayControls.miFinalGatherView
p2232
aVmentalRayControls.miOverrideSamples
p2233
aVmentalRayControls.miMinSamples
p2234
aVmentalRayControls.miMaxSamples
p2235
aVmentalRayControls.miFinalGatherCast
p2236
aVmentalRayControls.miFinalGatherReceive
p2237
aVmentalRayControls.miTransparencyCast
p2238
aVmentalRayControls.miTransparencyReceive
p2239
aVmentalRayControls.miReflectionReceive
p2240
aVmentalRayControls.miRefractionReceive
p2241
aVmentalRayControls.miProxyFile
p2242
aVmentalRayControls.miUpdateProxyBoundingBoxMode
p2243
aVmentalRayControls.miProxyBoundingBox
p2244
ag1302
ag826
ag989
aVmentalRayControls.miMaxDisplace
p2245
asS'isElement'
p2246
I00
ssVcurrentColorSet
p2247
(dp2248
S'isArray'
p2249
I00
sg4
Vstring
p2250
sS'attrChildrenNames'
p2251
(lp2252
sS'isMulti'
p2253
I00
sS'isCompound'
p2254
I00
sg10
I01
sg11
(lp2255
sS'isElement'
p2256
I00
ssVboundingBox
p2257
(dp2258
S'isArray'
p2259
I00
sg4
VTdataCompound
p2260
sS'attrChildrenNames'
p2261
(lp2262
VboundingBox.boundingBoxMin
p2263
aVboundingBox.boundingBoxMax
p2264
aVboundingBox.boundingBoxSize
p2265
asS'isMulti'
p2266
I00
sS'isCompound'
p2267
I01
sg10
I00
sg11
(lp2268
VboundingBox.boundingBoxMin
p2269
aVboundingBox.boundingBoxMax
p2270
aVboundingBox.boundingBoxSize
p2271
asS'isElement'
p2272
I00
ssVghostColorPre
p2273
(dp2274
g16
I00
sg294
I00
sg11
(lp2275
VghostColorPre.ghostColorPreR
p2276
aVghostColorPre.ghostColorPreG
p2277
aVghostColorPre.ghostColorPreB
p2278
asg10
I00
sg4
Vfloat3
p2279
ssVcollisionDepthVelocityMultiplier[0].collisionDepthVelocityMultiplier_Position
p2280
(dp2281
S'isArray'
p2282
I00
sS'attrParentLongName'
p2283
VcollisionDepthVelocityMultiplier[0]
p2284
sS'attrChildrenNames'
p2285
(lp2286
sg4
Vfloat
p2287
sS'isMulti'
p2288
I00
sS'isCompound'
p2289
I00
sg10
I01
sg11
(lp2290
sS'isElement'
p2291
I00
ssVcollisionOffsetVelocityIncrement.collisionOffsetVelocityIncrement_FloatValue
p2292
(dp2293
g44
VcollisionOffsetVelocityIncrement
p2294
ssg366
(dp2295
g16
I00
sg11
(lp2296
ssVcompInstObjGroups[1]
p2297
(dp2298
g16
I00
sg11
(lp2299
VcompInstObjGroups[1].compObjectGroups
p2300
assVboundingBox.boundingBoxSize
p2301
(dp2302
S'isArray'
p2303
I00
sS'attrParentLongName'
p2304
VboundingBox
p2305
sS'attrChildrenNames'
p2306
(lp2307
VboundingBox.boundingBoxSize.boundingBoxSizeX
p2308
aVboundingBox.boundingBoxSize.boundingBoxSizeY
p2309
aVboundingBox.boundingBoxSize.boundingBoxSizeZ
p2310
asg4
Vdouble3
p2311
sS'isMulti'
p2312
I00
sS'isCompound'
p2313
I01
sg10
I01
sg11
(lp2314
VboundingBox.boundingBoxSize.boundingBoxSizeX
p2315
aVboundingBox.boundingBoxSize.boundingBoxSizeY
p2316
aVboundingBox.boundingBoxSize.boundingBoxSizeZ
p2317
asS'isElement'
p2318
I00
ssVrenderType
p2319
(dp2320
S'isArray'
p2321
I00
sg4
Vshort
p2322
sS'attrChildrenNames'
p2323
(lp2324
sS'isMulti'
p2325
I00
sS'isCompound'
p2326
I00
sg10
I01
sg11
(lp2327
sS'isElement'
p2328
I00
ssVinstObjGroups[0].objectGroups[28].objectGrpCompList
p2329
(dp2330
g235
I00
sg241
(lp2331
ssVrenderLayerInfo[0]
p2332
(dp2333
g16
I00
sg11
(lp2334
VrenderLayerInfo[0].renderLayerId
p2335
aVrenderLayerInfo[0].renderLayerRenderable
p2336
aVrenderLayerInfo[0].renderLayerColor
p2337
assVboundingBox.boundingBoxMax.boundingBoxMaxY
p2338
(dp2339
S'isArray'
p2340
I00
sS'attrParentLongName'
p2341
VboundingBox.boundingBoxMax
p2342
sS'attrChildrenNames'
p2343
(lp2344
sg4
VdoubleLinear
p2345
sS'isMulti'
p2346
I00
sS'isCompound'
p2347
I00
sg10
I01
sg11
(lp2348
sS'isElement'
p2349
I00
ssg2300
(dp2350
g16
I01
ssVuseMinScreen
p2351
(dp2352
S'isArray'
p2353
I00
sg4
Vbool
p2354
sS'attrChildrenNames'
p2355
(lp2356
sS'isMulti'
p2357
I00
sS'isCompound'
p2358
I00
sg10
I01
sg11
(lp2359
sS'isElement'
p2360
I00
ssVinstObjGroups[0].objectGroups
p2361
(dp2362
S'isArray'
p2363
I01
sS'attrParentLongName'
p2364
VinstObjGroups[0]
p2365
sg4
VTdataCompound
p2366
sS'isMulti'
p2367
I01
sg10
I00
sS'isElement'
p2368
I00
ssVmentalRayControls.miTransparencyReceive
p2369
(dp2370
S'isArray'
p2371
I00
sS'attrParentLongName'
p2372
VmentalRayControls
p2373
sS'attrChildrenNames'
p2374
(lp2375
sg4
Vbool
p2376
sS'isMulti'
p2377
I00
sS'isCompound'
p2378
I00
sg10
I01
sg11
(lp2379
sS'isElement'
p2380
I00
ssVcollisionDepthVelocityIncrement[1]
p2381
(dp2382
g16
I00
sg11
(lp2383
g413
ag354
ag1319
assVuvSet[0].uvSetPoints
p2384
(dp2385
S'isArray'
p2386
I01
sS'isElement'
p2387
I00
sS'attrParentLongName'
p2388
VuvSet[0]
p2389
ssVmaxVisibilitySamplesOverride
p2390
(dp2391
S'isArray'
p2392
I00
sg4
Vbool
p2393
sS'attrChildrenNames'
p2394
(lp2395
sS'isMulti'
p2396
I00
sS'isCompound'
p2397
I00
sg10
I01
sg11
(lp2398
sS'isElement'
p2399
I00
ssVmentalRayControls.miCausticRadius
p2400
(dp2401
S'isArray'
p2402
I00
sS'attrParentLongName'
p2403
VmentalRayControls
p2404
sS'attrChildrenNames'
p2405
(lp2406
sg4
Vfloat
p2407
sS'isMulti'
p2408
I00
sS'isCompound'
p2409
I00
sg10
I01
sg11
(lp2410
sS'isElement'
p2411
I00
ssVlodVisibility
p2412
(dp2413
S'isArray'
p2414
I00
sg4
Vbool
p2415
sS'attrChildrenNames'
p2416
(lp2417
sS'isMulti'
p2418
I00
sS'isCompound'
p2419
I00
sg10
I01
sg11
(lp2420
sS'isElement'
p2421
I00
ssVcollisionOffsetVelocityMultiplier.collisionOffsetVelocityMultiplier_FloatValue
p2422
(dp2423
g44
VcollisionOffsetVelocityMultiplier
p2424
ssVmodeV
p2425
(dp2426
S'isArray'
p2427
I00
sg4
Venum
p2428
sS'attrChildrenNames'
p2429
(lp2430
sS'isMulti'
p2431
I00
sS'isCompound'
p2432
I00
sg10
I01
sg11
(lp2433
sS'isElement'
p2434
I00
ssVmodeU
p2435
(dp2436
S'isArray'
p2437
I00
sg4
Venum
p2438
sS'attrChildrenNames'
p2439
(lp2440
sS'isMulti'
p2441
I00
sS'isCompound'
p2442
I00
sg10
I01
sg11
(lp2443
sS'isElement'
p2444
I00
ssVinstObjGroups[0].objectGroups[28].objectGroupId
p2445
(dp2446
g235
I00
sg241
(lp2447
ssVrenderInfo.identification
p2448
(dp2449
S'isArray'
p2450
I00
sS'attrParentLongName'
p2451
VrenderInfo
p2452
sS'attrChildrenNames'
p2453
(lp2454
sg4
Vshort
p2455
sS'isMulti'
p2456
I00
sS'isCompound'
p2457
I00
sg10
I01
sg11
(lp2458
sS'isElement'
p2459
I00
ssVghostColorPreA
p2460
(dp2461
g16
I00
sg4
Vfloat
p2462
sg294
I00
sg441
I00
sg10
I01
sg11
(lp2463
ssVdrawOverride.overridePlayback
p2464
(dp2465
S'isArray'
p2466
I00
sS'attrParentLongName'
p2467
VdrawOverride
p2468
sS'attrChildrenNames'
p2469
(lp2470
sS'attrType'
p2471
Vbool
p2472
sS'isMulti'
p2473
I00
sS'isCompound'
p2474
I00
sg338
I01
sS'isReadable'
p2475
I01
sg11
(lp2476
sS'isElement'
p2477
I00
ssVcolorSet.clamped
p2478
(dp2479
g44
VcolorSet
p2480
ssVboundingBox.boundingBoxMax.boundingBoxMaxZ
p2481
(dp2482
S'isArray'
p2483
I00
sS'attrParentLongName'
p2484
VboundingBox.boundingBoxMax
p2485
sS'attrChildrenNames'
p2486
(lp2487
sg4
VdoubleLinear
p2488
sS'isMulti'
p2489
I00
sS'isCompound'
p2490
I00
sg10
I01
sg11
(lp2491
sS'isElement'
p2492
I00
ssVinstObjGroups.objectGroups.objectGrpColor
p2493
(dp2494
g2177
VinstObjGroups[0].objectGroups[21]
p2495
ssVghostColorPost.ghostColorPostB
p2496
(dp2497
g16
I00
sg4
Vfloat
p2498
sg294
I00
sg441
I00
sg10
I01
sg11
(lp2499
ssVcollisionOffsetVelocityIncrement[0]
p2500
(dp2501
g16
I00
sg11
(lp2502
VcollisionOffsetVelocityIncrement[0].collisionOffsetVelocityIncrement_Position
p2503
aVcollisionOffsetVelocityIncrement[0].collisionOffsetVelocityIncrement_FloatValue
p2504
aVcollisionOffsetVelocityIncrement[0].collisionOffsetVelocityIncrement_Interp
p2505
assVcenter
p2506
(dp2507
S'isArray'
p2508
I00
sg4
Vdouble3
p2509
sS'attrChildrenNames'
p2510
(lp2511
Vcenter.boundingBoxCenterX
p2512
aVcenter.boundingBoxCenterY
p2513
aVcenter.boundingBoxCenterZ
p2514
asS'isMulti'
p2515
I00
sS'isCompound'
p2516
I01
sg10
I01
sg11
(lp2517
Vcenter.boundingBoxCenterX
p2518
aVcenter.boundingBoxCenterY
p2519
aVcenter.boundingBoxCenterZ
p2520
asS'isElement'
p2521
I00
ssVdrawOverride.overrideShading
p2522
(dp2523
S'isArray'
p2524
I00
sS'attrParentLongName'
p2525
VdrawOverride
p2526
sS'attrChildrenNames'
p2527
(lp2528
sS'attrType'
p2529
Vbool
p2530
sS'isMulti'
p2531
I00
sS'isCompound'
p2532
I00
sg338
I01
sS'isReadable'
p2533
I01
sg11
(lp2534
sS'isElement'
p2535
I00
ssVghostColorPost.ghostColorPostG
p2536
(dp2537
g16
I00
sg4
Vfloat
p2538
sg294
I00
sg441
I00
sg10
I01
sg11
(lp2539
ssVdisplayHWEnvironment
p2540
(dp2541
S'isArray'
p2542
I00
sg4
Vbool
p2543
sS'attrChildrenNames'
p2544
(lp2545
sS'isMulti'
p2546
I00
sS'isCompound'
p2547
I00
sg10
I01
sg11
(lp2548
sS'isElement'
p2549
I00
ssVinstObjGroups[0].objectGroups[1].objectGrpColor
p2550
(dp2551
g16
I00
sg4
Vshort
p2552
sg294
I00
sg441
I00
sg10
I01
sg11
(lp2553
ssVtextureThreshold
p2554
(dp2555
S'isArray'
p2556
I00
sg4
Vlong
p2557
sS'attrChildrenNames'
p2558
(lp2559
sS'isMulti'
p2560
I00
sS'isCompound'
p2561
I00
sg10
I01
sg11
(lp2562
sS'isElement'
p2563
I00
ssVgridDivisionPerSpanV
p2564
(dp2565
S'isArray'
p2566
I00
sg4
Vshort
p2567
sS'attrChildrenNames'
p2568
(lp2569
sS'isMulti'
p2570
I00
sS'isCompound'
p2571
I00
sg10
I01
sg11
(lp2572
sS'isElement'
p2573
I00
ssVmentalRayControls.miOverrideFinalGather
p2574
(dp2575
S'isArray'
p2576
I00
sS'attrParentLongName'
p2577
VmentalRayControls
p2578
sS'attrChildrenNames'
p2579
(lp2580
sg4
Vbool
p2581
sS'isMulti'
p2582
I00
sS'isCompound'
p2583
I00
sg10
I01
sg11
(lp2584
sS'isElement'
p2585
I00
ssVgridDivisionPerSpanU
p2586
(dp2587
S'isArray'
p2588
I00
sg4
Vshort
p2589
sS'attrChildrenNames'
p2590
(lp2591
sS'isMulti'
p2592
I00
sS'isCompound'
p2593
I00
sg10
I01
sg11
(lp2594
sS'isElement'
p2595
I00
ssVdispCV
p2596
(dp2597
S'isArray'
p2598
I00
sg4
Vbool
p2599
sS'attrChildrenNames'
p2600
(lp2601
sS'isMulti'
p2602
I00
sS'isCompound'
p2603
I00
sg10
I01
sg11
(lp2604
sS'isElement'
p2605
I00
ssVintermediateObject
p2606
(dp2607
S'isArray'
p2608
I00
sg4
Vbool
p2609
sS'attrChildrenNames'
p2610
(lp2611
sS'isMulti'
p2612
I00
sS'isCompound'
p2613
I00
sg10
I01
sg11
(lp2614
sS'isElement'
p2615
I00
ssVghostColorPost
p2616
(dp2617
g16
I00
sg294
I00
sg11
(lp2618
g1597
ag2536
ag2496
asg10
I00
sg4
Vfloat3
p2619
ssg270
(dp2620
g16
I00
sg11
(lp2621
ssVcollisionOffsetVelocityMultiplier[0]
p2622
(dp2623
g16
I00
sg294
I00
sg11
(lp2624
VcollisionOffsetVelocityMultiplier[0].collisionOffsetVelocityMultiplier_Position
p2625
aVcollisionOffsetVelocityMultiplier[0].collisionOffsetVelocityMultiplier_FloatValue
p2626
aVcollisionOffsetVelocityMultiplier[0].collisionOffsetVelocityMultiplier_Interp
p2627
asg10
I00
sg4
VTdataCompound
p2628
ssg996
(dp2629
g16
I00
sg11
(lp2630
ssVchordHeight
p2631
(dp2632
S'isArray'
p2633
I00
sg4
Vdouble
p2634
sS'attrChildrenNames'
p2635
(lp2636
sS'isMulti'
p2637
I00
sS'isCompound'
p2638
I00
sg10
I01
sg11
(lp2639
sS'isElement'
p2640
I00
ssVinstObjGroups[0].objectGroups[26]
p2641
(dp2642
g235
I00
sg238
I00
sg236
VTdataCompound
p2643
sg240
I00
sg241
(lp2644
g1528
ag521
ag1450
assVnormalsDisplayScale
p2645
(dp2646
S'isArray'
p2647
I00
sg4
Vdouble
p2648
sS'attrChildrenNames'
p2649
(lp2650
sS'isMulti'
p2651
I00
sS'isCompound'
p2652
I00
sg10
I01
sg11
(lp2653
sS'isElement'
p2654
I00
ssVcurvatureTolerance
p2655
(dp2656
S'isArray'
p2657
I00
sg4
Venum
p2658
sS'attrChildrenNames'
p2659
(lp2660
sS'isMulti'
p2661
I00
sS'isCompound'
p2662
I00
sg10
I01
sg11
(lp2663
sS'isElement'
p2664
I00
ssVprimaryVisibility
p2665
(dp2666
S'isArray'
p2667
I00
sg4
Vbool
p2668
sS'attrChildrenNames'
p2669
(lp2670
sS'isMulti'
p2671
I00
sS'isCompound'
p2672
I00
sg10
I01
sg11
(lp2673
sS'isElement'
p2674
I00
ssVboundingBox.boundingBoxMin
p2675
(dp2676
S'isArray'
p2677
I00
sS'attrParentLongName'
p2678
VboundingBox
p2679
sS'attrChildrenNames'
p2680
(lp2681
VboundingBox.boundingBoxMin.boundingBoxMinX
p2682
aVboundingBox.boundingBoxMin.boundingBoxMinY
p2683
aVboundingBox.boundingBoxMin.boundingBoxMinZ
p2684
asg4
Vdouble3
p2685
sS'isMulti'
p2686
I00
sS'isCompound'
p2687
I01
sg10
I01
sg11
(lp2688
VboundingBox.boundingBoxMin.boundingBoxMinX
p2689
aVboundingBox.boundingBoxMin.boundingBoxMinY
p2690
aVboundingBox.boundingBoxMin.boundingBoxMinZ
p2691
asS'isElement'
p2692
I00
ssVcolorSet[0].colorSetPoints[0]
p2693
(dp2694
g16
I00
sg11
(lp2695
VcolorSet[0].colorSetPoints[0].colorSetPointsR
p2696
aVcolorSet[0].colorSetPoints[0].colorSetPointsG
p2697
aVcolorSet[0].colorSetPoints[0].colorSetPointsB
p2698
aVcolorSet[0].colorSetPoints[0].colorSetPointsA
p2699
assVmotionBlur
p2700
(dp2701
S'isArray'
p2702
I00
sg4
Vbool
p2703
sS'attrChildrenNames'
p2704
(lp2705
sS'isMulti'
p2706
I00
sS'isCompound'
p2707
I00
sg10
I01
sg11
(lp2708
sS'isElement'
p2709
I00
ssVworldInverseMatrix[1]
p2710
(dp2711
g16
I00
sg11
(lp2712
ssVcolorSet
p2713
(dp2714
S'isArray'
p2715
I01
sS'isElement'
p2716
I00
sS'isMulti'
p2717
I01
sg10
I00
sg4
VTdataCompound
p2718
ssVuvSet[0].uvSetPoints[0]
p2719
(dp2720
g16
I00
sg11
(lp2721
VuvSet[0].uvSetPoints[0].uvSetPointsU
p2722
aVuvSet[0].uvSetPoints[0].uvSetPointsV
p2723
assVcollisionDepthVelocityMultiplier
p2724
(dp2725
S'isArray'
p2726
I01
sS'isElement'
p2727
I00
sS'isMulti'
p2728
I01
sg10
I00
sg4
VTdataCompound
p2729
ssg271
(dp2730
g16
I00
sg11
(lp2731
ssVcollisionDepthVelocityMultiplier[0].collisionDepthVelocityMultiplier_FloatValue
p2732
(dp2733
S'isArray'
p2734
I00
sS'attrParentLongName'
p2735
VcollisionDepthVelocityMultiplier[0]
p2736
sS'attrChildrenNames'
p2737
(lp2738
sg4
Vfloat
p2739
sS'isMulti'
p2740
I00
sS'isCompound'
p2741
I00
sg10
I01
sg11
(lp2742
sS'isElement'
p2743
I00
ssVparentInverseMatrix[0]
p2744
(dp2745
g16
I00
sg11
(lp2746
ssVrenderLayerInfo[1].renderLayerId
p2747
(dp2748
g16
I00
sg11
(lp2749
ssVobjectColor
p2750
(dp2751
S'isArray'
p2752
I00
sg4
Vshort
p2753
sS'attrChildrenNames'
p2754
(lp2755
sS'isMulti'
p2756
I00
sS'isCompound'
p2757
I00
sg10
I01
sg11
(lp2758
sS'isElement'
p2759
I00
ssVmentalRayControls.miFinalGatherView
p2760
(dp2761
S'isArray'
p2762
I00
sS'attrParentLongName'
p2763
VmentalRayControls
p2764
sS'attrChildrenNames'
p2765
(lp2766
sg4
Vbool
p2767
sS'isMulti'
p2768
I00
sS'isCompound'
p2769
I00
sg10
I01
sg11
(lp2770
sS'isElement'
p2771
I00
ssg2276
(dp2772
g16
I00
sg4
Vfloat
p2773
sg294
I00
sg441
I00
sg10
I01
sg11
(lp2774
ssVpublishedNodeInfo[0]
p2775
(dp2776
g16
I00
sg11
(lp2777
VpublishedNodeInfo[0].publishedNode
p2778
aVpublishedNodeInfo[0].isHierarchicalNode
p2779
aVpublishedNodeInfo[0].publishedNodeType
p2780
assg49
(dp2781
g16
I00
sg11
(lp2782
ssVuseChordHeightRatio
p2783
(dp2784
S'isArray'
p2785
I00
sg4
Vbool
p2786
sS'attrChildrenNames'
p2787
(lp2788
sS'isMulti'
p2789
I00
sS'isCompound'
p2790
I00
sg10
I01
sg11
(lp2791
sS'isElement'
p2792
I00
ssg2277
(dp2793
g16
I00
sg4
Vfloat
p2794
sg294
I00
sg441
I00
sg10
I01
sg11
(lp2795
ssg2278
(dp2796
g16
I00
sg4
Vfloat
p2797
sg294
I00
sg441
I00
sg10
I01
sg11
(lp2798
ssVpublishedNodeInfo[0].publishedNode
p2799
(dp2800
S'isArray'
p2801
I00
sS'isElement'
p2802
I00
sS'attrParentLongName'
p2803
VpublishedNodeInfo[0]
p2804
sS'attrChildrenNames'
p2805
(lp2806
sg11
(lp2807
ssg1979
(dp2808
g16
I00
sg11
(lp2809
ssVmentalRayControls.miFinalGatherCast
p2810
(dp2811
S'isArray'
p2812
I00
sS'attrParentLongName'
p2813
VmentalRayControls
p2814
sS'attrChildrenNames'
p2815
(lp2816
sg4
Vbool
p2817
sS'isMulti'
p2818
I00
sS'isCompound'
p2819
I00
sg10
I01
sg11
(lp2820
sS'isElement'
p2821
I00
ssVminMaxRangeV
p2822
(dp2823
S'isArray'
p2824
I00
sg4
Vdouble2
p2825
sS'attrChildrenNames'
p2826
(lp2827
VminMaxRangeV.minValueV
p2828
aVminMaxRangeV.maxValueV
p2829
asS'isMulti'
p2830
I00
sS'isCompound'
p2831
I01
sg10
I01
sg11
(lp2832
VminMaxRangeV.minValueV
p2833
aVminMaxRangeV.maxValueV
p2834
asS'isElement'
p2835
I00
ssVminMaxRangeU
p2836
(dp2837
S'isArray'
p2838
I00
sg4
Vdouble2
p2839
sS'attrChildrenNames'
p2840
(lp2841
VminMaxRangeU.minValueU
p2842
aVminMaxRangeU.maxValueU
p2843
asS'isMulti'
p2844
I00
sS'isCompound'
p2845
I01
sg10
I01
sg11
(lp2846
VminMaxRangeU.minValueU
p2847
aVminMaxRangeU.maxValueU
p2848
asS'isElement'
p2849
I00
ssVsmoothShading
p2850
(dp2851
S'isArray'
p2852
I00
sg4
Vbool
p2853
sS'attrChildrenNames'
p2854
(lp2855
sS'isMulti'
p2856
I00
sS'isCompound'
p2857
I00
sg10
I01
sg11
(lp2858
sS'isElement'
p2859
I00
ssVuvSet[1].uvSetPoints
p2860
(dp2861
g16
I01
ssVviewName
p2862
(dp2863
S'isArray'
p2864
I00
sg4
Vstring
p2865
sS'attrChildrenNames'
p2866
(lp2867
sS'isMulti'
p2868
I00
sS'isCompound'
p2869
I00
sg10
I01
sg11
(lp2870
sS'isElement'
p2871
I00
ssVtweakSizeV
p2872
(dp2873
S'isArray'
p2874
I00
sg4
Vlong
p2875
sS'attrChildrenNames'
p2876
(lp2877
sS'isMulti'
p2878
I00
sS'isCompound'
p2879
I00
sg10
I01
sg11
(lp2880
sS'isElement'
p2881
I00
ssVdispOrigin
p2882
(dp2883
S'isArray'
p2884
I00
sg4
Vbool
p2885
sS'attrChildrenNames'
p2886
(lp2887
sS'isMulti'
p2888
I00
sS'isCompound'
p2889
I00
sg10
I01
sg11
(lp2890
sS'isElement'
p2891
I00
ssVmentalRayControls.miFinalGatherMinRadius
p2892
(dp2893
S'isArray'
p2894
I00
sS'attrParentLongName'
p2895
VmentalRayControls
p2896
sS'attrChildrenNames'
p2897
(lp2898
sg4
Vfloat
p2899
sS'isMulti'
p2900
I00
sS'isCompound'
p2901
I00
sg10
I01
sg11
(lp2902
sS'isElement'
p2903
I00
ssVinPlace
p2904
(dp2905
S'isArray'
p2906
I00
sg4
Vbool
p2907
sS'attrChildrenNames'
p2908
(lp2909
sS'isMulti'
p2910
I00
sS'isCompound'
p2911
I00
sg10
I01
sg11
(lp2912
sS'isElement'
p2913
I00
ssVmentalRayControls.miProxyBoundingBox
p2914
(dp2915
S'isArray'
p2916
I00
sS'attrParentLongName'
p2917
VmentalRayControls
p2918
sS'attrChildrenNames'
p2919
(lp2920
VmentalRayControls.miProxyBoundingBox.miProxyBoundingBoxMin
p2921
aVmentalRayControls.miProxyBoundingBox.miProxyBoundingBoxMax
p2922
asg4
VTdataCompound
p2923
sS'isMulti'
p2924
I00
sS'isCompound'
p2925
I01
sg10
I00
sg11
(lp2926
VmentalRayControls.miProxyBoundingBox.miProxyBoundingBoxMin
p2927
aVmentalRayControls.miProxyBoundingBox.miProxyBoundingBoxMax
p2928
asS'isElement'
p2929
I00
ssVinstObjGroups[0].objectGroups[1]
p2930
(dp2931
g16
I00
sg294
I00
sg11
(lp2932
g947
aVinstObjGroups[0].objectGroups[1].objectGroupId
p2933
ag2550
asg10
I00
sg4
VTdataCompound
p2934
ssVuvSet[0].uvSetPoints[0].uvSetPointsU
p2935
(dp2936
S'isArray'
p2937
I00
sS'isElement'
p2938
I00
sS'attrParentLongName'
p2939
VuvSet[0].uvSetPoints[0]
p2940
sS'attrChildrenNames'
p2941
(lp2942
sg11
(lp2943
ssVdisplayColors
p2944
(dp2945
S'isArray'
p2946
I00
sg4
Vbool
p2947
sS'attrChildrenNames'
p2948
(lp2949
sS'isMulti'
p2950
I00
sS'isCompound'
p2951
I00
sg10
I01
sg11
(lp2952
sS'isElement'
p2953
I00
ssVuvSet[0].uvSetPoints[0].uvSetPointsV
p2954
(dp2955
S'isArray'
p2956
I00
sS'isElement'
p2957
I00
sS'attrParentLongName'
p2958
VuvSet[0].uvSetPoints[0]
p2959
sS'attrChildrenNames'
p2960
(lp2961
sg11
(lp2962
ssViconName
p2963
(dp2964
S'isArray'
p2965
I00
sg4
Vstring
p2966
sS'attrChildrenNames'
p2967
(lp2968
sS'isMulti'
p2969
I00
sS'isCompound'
p2970
I00
sg10
I01
sg11
(lp2971
sS'isElement'
p2972
I00
ssVsmoothEdge
p2973
(dp2974
S'isArray'
p2975
I00
sg4
Vbool
p2976
sS'attrChildrenNames'
p2977
(lp2978
sS'isMulti'
p2979
I00
sS'isCompound'
p2980
I00
sg10
I01
sg11
(lp2981
sS'isElement'
p2982
I00
ssVcompInstObjGroups[0].compObjectGroups[1]
p2983
(dp2984
g16
I00
sg11
(lp2985
g868
aVcompInstObjGroups[0].compObjectGroups[1].compObjectGroupId
p2986
assg1345
(dp2987
g16
I00
sg11
(lp2988
ssVmentalRayControls.miMaxSamples
p2989
(dp2990
S'isArray'
p2991
I00
sS'attrParentLongName'
p2992
VmentalRayControls
p2993
sS'attrChildrenNames'
p2994
(lp2995
sg4
Vshort
p2996
sS'isMulti'
p2997
I00
sS'isCompound'
p2998
I00
sg10
I01
sg11
(lp2999
sS'isElement'
p3000
I00
ssVmentalRayControls.miUpdateProxyBoundingBoxMode
p3001
(dp3002
S'isArray'
p3003
I00
sS'attrParentLongName'
p3004
VmentalRayControls
p3005
sS'attrChildrenNames'
p3006
(lp3007
sg4
Venum
p3008
sS'isMulti'
p3009
I00
sS'isCompound'
p3010
I00
sg10
I01
sg11
(lp3011
sS'isElement'
p3012
I00
ssVinstObjGroups
p3013
(dp3014
S'isArray'
p3015
I01
sS'isElement'
p3016
I00
sS'isMulti'
p3017
I01
sg10
I00
sg4
VTdataCompound
p3018
ssVcollisionDepthVelocityIncrement[0].collisionDepthVelocityIncrement_Interp
p3019
(dp3020
S'isArray'
p3021
I00
sS'isElement'
p3022
I00
sS'attrParentLongName'
p3023
VcollisionDepthVelocityIncrement[0]
p3024
sS'attrChildrenNames'
p3025
(lp3026
sg11
(lp3027
ssVmaxVisibilitySamples
p3028
(dp3029
S'isArray'
p3030
I00
sg4
Vlong
p3031
sS'attrChildrenNames'
p3032
(lp3033
sS'isMulti'
p3034
I00
sS'isCompound'
p3035
I00
sg10
I01
sg11
(lp3036
sS'isElement'
p3037
I00
ssVworldMatrix[0]
p3038
(dp3039
g16
I00
sg11
(lp3040
ssVdrawOverride.overrideVisibility
p3041
(dp3042
S'isArray'
p3043
I00
sS'attrParentLongName'
p3044
VdrawOverride
p3045
sS'attrChildrenNames'
p3046
(lp3047
sS'attrType'
p3048
Vbool
p3049
sS'isMulti'
p3050
I00
sS'isCompound'
p3051
I00
sg338
I01
sS'isReadable'
p3052
I01
sg11
(lp3053
sS'isElement'
p3054
I00
ssVspansUV.spansV
p3055
(dp3056
S'isArray'
p3057
I00
sS'attrParentLongName'
p3058
VspansUV
p3059
sS'attrChildrenNames'
p3060
(lp3061
sg4
Vlong
p3062
sS'isMulti'
p3063
I00
sS'isCompound'
p3064
I00
sg10
I01
sg11
(lp3065
sS'isElement'
p3066
I00
ssVspansUV.spansU
p3067
(dp3068
S'isArray'
p3069
I00
sS'attrParentLongName'
p3070
VspansUV
p3071
sS'attrChildrenNames'
p3072
(lp3073
sg4
Vlong
p3074
sS'isMulti'
p3075
I00
sS'isCompound'
p3076
I00
sg10
I01
sg11
(lp3077
sS'isElement'
p3078
I00
ssVghosting
p3079
(dp3080
S'isArray'
p3081
I00
sg4
Vbool
p3082
sS'attrChildrenNames'
p3083
(lp3084
sS'isMulti'
p3085
I00
sS'isCompound'
p3086
I00
sg10
I01
sg11
(lp3087
sS'isElement'
p3088
I00
ssg1978
(dp3089
g16
I00
sg11
(lp3090
ssVgeometryAntialiasingOverride
p3091
(dp3092
S'isArray'
p3093
I00
sg4
Vbool
p3094
sS'attrChildrenNames'
p3095
(lp3096
sS'isMulti'
p3097
I00
sS'isCompound'
p3098
I00
sg10
I01
sg11
(lp3099
sS'isElement'
p3100
I00
ssVcolorSet[0].representation
p3101
(dp3102
S'isArray'
p3103
I00
sS'isElement'
p3104
I00
sS'attrParentLongName'
p3105
VcolorSet[0]
p3106
sS'attrChildrenNames'
p3107
(lp3108
sg11
(lp3109
ssVcompInstObjGroups[0]
p3110
(dp3111
g16
I00
sg11
(lp3112
VcompInstObjGroups[0].compObjectGroups
p3113
assVminScreen
p3114
(dp3115
S'isArray'
p3116
I00
sg4
Vdouble
p3117
sS'attrChildrenNames'
p3118
(lp3119
sS'isMulti'
p3120
I00
sS'isCompound'
p3121
I00
sg10
I01
sg11
(lp3122
sS'isElement'
p3123
I00
ssVmentalRayControls.miOverrideCaustics
p3124
(dp3125
S'isArray'
p3126
I00
sS'attrParentLongName'
p3127
VmentalRayControls
p3128
sS'attrChildrenNames'
p3129
(lp3130
sg4
Vbool
p3131
sS'isMulti'
p3132
I00
sS'isCompound'
p3133
I00
sg10
I01
sg11
(lp3134
sS'isElement'
p3135
I00
ssVuvSet[1].uvSetName
p3136
(dp3137
g16
I00
sg11
(lp3138
ssVtrimFace
p3139
(dp3140
g16
I01
sg294
I01
sg10
I00
sg4
VTdataCompound
p3141
ssg29
(dp3142
g16
I00
sg11
(lp3143
ssVmentalRayControls.miProxyBoundingBox.miProxyBoundingBoxMin.miProxyBoundingBoxMinZ
p3144
(dp3145
S'isArray'
p3146
I00
sS'attrParentLongName'
p3147
VmentalRayControls.miProxyBoundingBox.miProxyBoundingBoxMin
p3148
sS'attrChildrenNames'
p3149
(lp3150
sg4
Vdouble
p3151
sS'isMulti'
p3152
I00
sS'isCompound'
p3153
I00
sg10
I01
sg11
(lp3154
sS'isElement'
p3155
I00
ssVmentalRayControls.miProxyBoundingBox.miProxyBoundingBoxMin.miProxyBoundingBoxMinY
p3156
(dp3157
S'isArray'
p3158
I00
sS'attrParentLongName'
p3159
VmentalRayControls.miProxyBoundingBox.miProxyBoundingBoxMin
p3160
sS'attrChildrenNames'
p3161
(lp3162
sg4
Vdouble
p3163
sS'isMulti'
p3164
I00
sS'isCompound'
p3165
I00
sg10
I01
sg11
(lp3166
sS'isElement'
p3167
I00
ssVmentalRayControls.miProxyBoundingBox.miProxyBoundingBoxMin.miProxyBoundingBoxMinX
p3168
(dp3169
S'isArray'
p3170
I00
sS'attrParentLongName'
p3171
VmentalRayControls.miProxyBoundingBox.miProxyBoundingBoxMin
p3172
sS'attrChildrenNames'
p3173
(lp3174
sg4
Vdouble
p3175
sS'isMulti'
p3176
I00
sS'isCompound'
p3177
I00
sg10
I01
sg11
(lp3178
sS'isElement'
p3179
I00
ssg50
(dp3180
g16
I00
sg11
(lp3181
ssg2933
(dp3182
g16
I00
sg4
Vlong
p3183
sg294
I00
sg441
I00
sg10
I01
sg11
(lp3184
ssVcollisionDepthVelocityIncrement
p3185
(dp3186
S'isArray'
p3187
I01
sS'isElement'
p3188
I00
sS'isMulti'
p3189
I01
sg10
I00
sg4
VTdataCompound
p3190
ssVuvSet[1]
p3191
(dp3192
g16
I00
sg11
(lp3193
g3136
ag2860
ag2004
assVobjectColorRGB.objectColorG
p3194
(dp3195
g44
VobjectColorRGB
p3196
sg16
I00
sg4
Vfloat
p3197
sg294
I00
sg441
I00
sg10
I01
sg11
(lp3198
ssVobjectColorRGB.objectColorB
p3199
(dp3200
g44
VobjectColorRGB
p3201
sg16
I00
sg4
Vfloat
p3202
sg294
I00
sg441
I00
sg10
I01
sg11
(lp3203
ssVvisibleFraction
p3204
(dp3205
S'isArray'
p3206
I00
sg4
Vfloat
p3207
sS'attrChildrenNames'
p3208
(lp3209
sS'isMulti'
p3210
I00
sS'isCompound'
p3211
I00
sg10
I01
sg11
(lp3212
sS'isElement'
p3213
I00
ssg1696
(dp3214
g235
I00
sg236
Vshort
p3215
sg238
I00
sg239
I00
sg240
I01
sg241
(lp3216
ssVobjectColorRGB.objectColorR
p3217
(dp3218
g44
VobjectColorRGB
p3219
sg16
I00
sg4
Vfloat
p3220
sg294
I00
sg441
I00
sg10
I01
sg11
(lp3221
ssVcolorSet.colorSetPoints
p3222
(dp3223
g44
VcolorSet
p3224
ssVworldInverseMatrix
p3225
(dp3226
S'isArray'
p3227
I01
sS'isElement'
p3228
I00
sS'isMulti'
p3229
I01
sg10
I00
sg4
Vmatrix
p3230
ssVuvSet[0].uvSetName
p3231
(dp3232
S'isArray'
p3233
I00
sS'isElement'
p3234
I00
sS'attrParentLongName'
p3235
VuvSet[0]
p3236
sS'attrChildrenNames'
p3237
(lp3238
sg11
(lp3239
ssVcollisionDepthVelocityMultiplier.collisionDepthVelocityMultiplier_Position
p3240
(dp3241
g44
VcollisionDepthVelocityMultiplier
p3242
ssVmentalRayControls.miProxyBoundingBox.miProxyBoundingBoxMax.miProxyBoundingBoxMaxZ
p3243
(dp3244
S'isArray'
p3245
I00
sS'attrParentLongName'
p3246
VmentalRayControls.miProxyBoundingBox.miProxyBoundingBoxMax
p3247
sS'attrChildrenNames'
p3248
(lp3249
sg4
Vdouble
p3250
sS'isMulti'
p3251
I00
sS'isCompound'
p3252
I00
sg10
I01
sg11
(lp3253
sS'isElement'
p3254
I00
ssVmentalRayControls.miProxyBoundingBox.miProxyBoundingBoxMax.miProxyBoundingBoxMaxY
p3255
(dp3256
S'isArray'
p3257
I00
sS'attrParentLongName'
p3258
VmentalRayControls.miProxyBoundingBox.miProxyBoundingBoxMax
p3259
sS'attrChildrenNames'
p3260
(lp3261
sg4
Vdouble
p3262
sS'isMulti'
p3263
I00
sS'isCompound'
p3264
I00
sg10
I01
sg11
(lp3265
sS'isElement'
p3266
I00
ssVmentalRayControls.miProxyBoundingBox.miProxyBoundingBoxMax.miProxyBoundingBoxMaxX
p3267
(dp3268
S'isArray'
p3269
I00
sS'attrParentLongName'
p3270
VmentalRayControls.miProxyBoundingBox.miProxyBoundingBoxMax
p3271
sS'attrChildrenNames'
p3272
(lp3273
sg4
Vdouble
p3274
sS'isMulti'
p3275
I00
sS'isCompound'
p3276
I00
sg10
I01
sg11
(lp3277
sS'isElement'
p3278
I00
ssVblackBox
p3279
(dp3280
S'isArray'
p3281
I00
sg4
Vbool
p3282
sS'attrChildrenNames'
p3283
(lp3284
sS'isMulti'
p3285
I00
sS'isCompound'
p3286
I00
sg10
I01
sg11
(lp3287
sS'isElement'
p3288
I00
ssVrenderLayerInfo.renderLayerColor
p3289
(dp3290
g44
VrenderLayerInfo
p3291
ssVworldSpace[0]
p3292
(dp3293
g409
I00
sg4
VnurbsSurface
p3294
sg410
(lp3295
sg294
I00
sg10
I00
sg11
(lp3296
ssVcastsShadows
p3297
(dp3298
S'isArray'
p3299
I00
sg4
Vbool
p3300
sS'attrChildrenNames'
p3301
(lp3302
sS'isMulti'
p3303
I00
sS'isCompound'
p3304
I00
sg10
I01
sg11
(lp3305
sS'isElement'
p3306
I00
ssVisHierarchicalConnection[0]
p3307
(dp3308
g16
I00
sg11
(lp3309
ssVrenderVolume
p3310
(dp3311
S'isArray'
p3312
I00
sg4
Vbool
p3313
sS'attrChildrenNames'
p3314
(lp3315
sS'isMulti'
p3316
I00
sS'isCompound'
p3317
I00
sg10
I01
sg11
(lp3318
sS'isElement'
p3319
I00
ssVinstObjGroups[0].objectGroups[28]
p3320
(dp3321
g235
I00
sg241
(lp3322
g2329
ag2445
ag1097
assVrenderLayerInfo[0].renderLayerColor
p3323
(dp3324
S'isArray'
p3325
I00
sS'isElement'
p3326
I00
sS'attrParentLongName'
p3327
VrenderLayerInfo[0]
p3328
sS'attrChildrenNames'
p3329
(lp3330
sg11
(lp3331
ssg2986
(dp3332
g16
I00
sg11
(lp3333
ssVformV
p3334
(dp3335
S'isArray'
p3336
I00
sg4
Venum
p3337
sS'attrChildrenNames'
p3338
(lp3339
sS'isMulti'
p3340
I00
sS'isCompound'
p3341
I00
sg10
I01
sg11
(lp3342
sS'isElement'
p3343
I00
ssVdisplayImmediate
p3344
(dp3345
S'isArray'
p3346
I00
sg4
Vbool
p3347
sS'attrChildrenNames'
p3348
(lp3349
sS'isMulti'
p3350
I00
sS'isCompound'
p3351
I00
sg10
I01
sg11
(lp3352
sS'isElement'
p3353
I00
ssVrenderLayerInfo[1]
p3354
(dp3355
g16
I00
sg11
(lp3356
g2747
ag1680
ag951
assVghostCustomSteps.ghostStepSize
p3357
(dp3358
S'isArray'
p3359
I00
sS'attrParentLongName'
p3360
VghostCustomSteps
p3361
sS'attrChildrenNames'
p3362
(lp3363
sg4
Vlong
p3364
sS'isMulti'
p3365
I00
sS'isCompound'
p3366
I00
sg10
I01
sg11
(lp3367
sS'isElement'
p3368
I00
ssVrenderLayerInfo
p3369
(dp3370
S'isArray'
p3371
I01
sS'isElement'
p3372
I00
sS'isMulti'
p3373
I01
sg10
I00
sg4
VTdataCompound
p3374
ssVcontrolPoints.zValue
p3375
(dp3376
g44
VcontrolPoints
p3377
ssg1346
(dp3378
g16
I00
sg11
(lp3379
ssg2245
(dp3380
g16
I00
sg4
Vfloat
p3381
sg294
I00
sg441
I00
sg10
I01
sg11
(lp3382
ssVcenter.boundingBoxCenterZ
p3383
(dp3384
S'isArray'
p3385
I00
sS'attrParentLongName'
p3386
Vcenter
p3387
sS'attrChildrenNames'
p3388
(lp3389
sg4
VdoubleLinear
p3390
sS'isMulti'
p3391
I00
sS'isCompound'
p3392
I00
sg10
I01
sg11
(lp3393
sS'isElement'
p3394
I00
ssVuvSet[0].uvSetTweakLocation
p3395
(dp3396
S'isArray'
p3397
I00
sS'isElement'
p3398
I00
sS'attrParentLongName'
p3399
VuvSet[0]
p3400
sS'attrChildrenNames'
p3401
(lp3402
sg11
(lp3403
ssVbasicTessellationType
p3404
(dp3405
S'isArray'
p3406
I00
sg4
Venum
p3407
sS'attrChildrenNames'
p3408
(lp3409
sS'isMulti'
p3410
I00
sS'isCompound'
p3411
I00
sg10
I01
sg11
(lp3412
sS'isElement'
p3413
I00
ssVweights
p3414
(dp3415
S'isArray'
p3416
I01
sS'isElement'
p3417
I00
sS'isMulti'
p3418
I01
sg10
I00
sg4
VTdataCompound
p3419
ssVmentalRayControls.miFinalGatherFilter
p3420
(dp3421
S'isArray'
p3422
I00
sS'attrParentLongName'
p3423
VmentalRayControls
p3424
sS'attrChildrenNames'
p3425
(lp3426
sg4
Vshort
p3427
sS'isMulti'
p3428
I00
sS'isCompound'
p3429
I00
sg10
I01
sg11
(lp3430
sS'isElement'
p3431
I00
ssVinverseMatrix
p3432
(dp3433
S'isArray'
p3434
I00
sg4
Vmatrix
p3435
sS'attrChildrenNames'
p3436
(lp3437
sS'isMulti'
p3438
I00
sS'isCompound'
p3439
I00
sg10
I00
sg11
(lp3440
sS'isElement'
p3441
I00
ssVcolorSet.representation
p3442
(dp3443
g44
VcolorSet
p3444
ssVignoreHwShader
p3445
(dp3446
S'isArray'
p3447
I00
sg4
Vbool
p3448
sS'attrChildrenNames'
p3449
(lp3450
sS'isMulti'
p3451
I00
sS'isCompound'
p3452
I00
sg10
I01
sg11
(lp3453
sS'isElement'
p3454
I00
ssVcenter.boundingBoxCenterX
p3455
(dp3456
S'isArray'
p3457
I00
sS'attrParentLongName'
p3458
Vcenter
p3459
sS'attrChildrenNames'
p3460
(lp3461
sg4
VdoubleLinear
p3462
sS'isMulti'
p3463
I00
sS'isCompound'
p3464
I00
sg10
I01
sg11
(lp3465
sS'isElement'
p3466
I00
ssVcenter.boundingBoxCenterY
p3467
(dp3468
S'isArray'
p3469
I00
sS'attrParentLongName'
p3470
Vcenter
p3471
sS'attrChildrenNames'
p3472
(lp3473
sg4
VdoubleLinear
p3474
sS'isMulti'
p3475
I00
sS'isCompound'
p3476
I00
sg10
I01
sg11
(lp3477
sS'isElement'
p3478
I00
ss.