(dp0
VcolorSet[0].colorSetPoints[1]
p1
(dp2
S'isArray'
p3
I00
sS'attrChildrenLongNames'
p4
(lp5
VcolorSet[0].colorSetPoints[1].colorSetPointsR
p6
aVcolorSet[0].colorSetPoints[1].colorSetPointsG
p7
aVcolorSet[0].colorSetPoints[1].colorSetPointsB
p8
aVcolorSet[0].colorSetPoints[1].colorSetPointsA
p9
assVcontrolPoints[1]
p10
(dp11
g3
I00
sS'attrType'
p12
Vdouble3
p13
sS'isMulti'
p14
I00
sS'isCompound'
p15
I01
sS'isSimple'
p16
I01
sg4
(lp17
VcontrolPoints[1].xValue
p18
aVcontrolPoints[1].yValue
p19
aVcontrolPoints[1].zValue
p20
assVboundingBox
p21
(dp22
g3
I00
sS'isMulti'
p23
I00
sS'attrType'
p24
VTdataCompound
p25
sS'isSimple'
p26
I00
sg4
(lp27
VboundingBox.boundingBoxMin
p28
aVboundingBox.boundingBoxMax
p29
aVboundingBox.boundingBoxSize
p30
assVcontrolPoints[0].xValue
p31
(dp32
g3
I00
sg12
VdoubleLinear
p33
sg14
I00
sg15
I00
sg16
I01
sg4
(lp34
ssVcontrolPoints[14]
p35
(dp36
S'isArray'
p37
I00
sg12
Vdouble3
p38
sg14
I00
sg15
I01
sg16
I01
sS'attrChildrenLongNames'
p39
(lp40
VcontrolPoints[14].xValue
p41
aVcontrolPoints[14].yValue
p42
aVcontrolPoints[14].zValue
p43
assVworldNormal
p44
(dp45
g3
I01
sg23
I01
sg26
I01
sg24
Vdouble3
p46
ssg18
(dp47
g3
I00
sg12
VdoubleLinear
p48
sg14
I00
sg15
I00
sg16
I01
sg4
(lp49
ssVworldSpace
p50
(dp51
g3
I01
sg23
I01
sg26
I00
sg24
VnurbsCurve
p52
ssVrenderLayerInfo.renderLayerRenderable
p53
(dp54
S'attrParentLongName'
p55
VrenderLayerInfo
p56
ssVuvSet[0].uvSetPoints[1]
p57
(dp58
g3
I00
sg4
(lp59
VuvSet[0].uvSetPoints[1].uvSetPointsU
p60
aVuvSet[0].uvSetPoints[1].uvSetPointsV
p61
assVcontrolPoints[15].yValue
p62
(dp63
g37
I00
sg12
VdoubleLinear
p64
sg14
I00
sg15
I00
sg16
I01
sg39
(lp65
ssVweights[0]
p66
(dp67
g3
I00
sg4
(lp68
ssVcompInstObjGroups.compObjectGroups
p69
(dp70
g55
VcompInstObjGroups
p71
ssVinstObjGroups[0].objectGroups[4].objectGroupId
p72
(dp73
g3
I00
sg24
Vlong
p74
sg23
I00
sS'isCompound'
p75
I00
sg26
I01
sg4
(lp76
ssVboundingBox.boundingBoxMin.boundingBoxMinY
p77
(dp78
g3
I00
sg24
VdoubleLinear
p79
sS'attrParentLongName'
p80
VboundingBox.boundingBoxMin
p81
sg23
I00
sg75
I00
sg26
I01
sg4
(lp82
ssVboundingBox.boundingBoxMin.boundingBoxMinX
p83
(dp84
g3
I00
sg24
VdoubleLinear
p85
sg80
VboundingBox.boundingBoxMin
p86
sg23
I00
sg75
I00
sg26
I01
sg4
(lp87
ssVcompInstObjGroups[0].compObjectGroups[0].compObjectGrpCompList
p88
(dp89
g3
I00
sg4
(lp90
ssVboundingBox.boundingBoxMin.boundingBoxMinZ
p91
(dp92
g3
I00
sg24
VdoubleLinear
p93
sg80
VboundingBox.boundingBoxMin
p94
sg23
I00
sg75
I00
sg26
I01
sg4
(lp95
ssVshadingSamplesOverride
p96
(dp97
g3
I00
sg24
Vbool
p98
sg23
I00
sg75
I00
sg26
I01
sg4
(lp99
ssVcontrolPoints[11].zValue
p100
(dp101
g37
I00
sg12
VdoubleLinear
p102
sg14
I00
sg15
I00
sg16
I01
sg39
(lp103
ssVdispEP
p104
(dp105
g3
I00
sg24
Vbool
p106
sg23
I00
sg75
I00
sg26
I01
sg4
(lp107
ssVvolumeSamplesOverride
p108
(dp109
g3
I00
sg24
Vbool
p110
sg23
I00
sg75
I00
sg26
I01
sg4
(lp111
ssVinstObjGroups[0].objectGroups[7].objectGrpColor
p112
(dp113
g3
I00
sg24
Vshort
p114
sg23
I00
sg75
I00
sg26
I01
sg4
(lp115
ssVinstObjGroups[0].objectGroups[7].objectGrpCompList
p116
(dp117
g3
I00
sg23
I00
sg24
VcomponentList
p118
sg26
I00
sg4
(lp119
ssVtemplatePath
p120
(dp121
g3
I00
sg24
Vstring
p122
sg23
I00
sg75
I00
sg26
I01
sg4
(lp123
ssVinstObjGroups[0].objectGroups[25].objectGroupId
p124
(dp125
g3
I00
sg24
Vlong
p126
sg23
I00
sg75
I00
sg26
I01
sg4
(lp127
ssVinstObjGroups[0].objectGroups[15].objectGroupId
p128
(dp129
g3
I00
sg24
Vlong
p130
sg23
I00
sg75
I00
sg26
I01
sg4
(lp131
ssVuvSet.uvSetTweakLocation
p132
(dp133
g55
VuvSet
p134
ssVinstObjGroups[0].objectGroups[21].objectGroupId
p135
(dp136
g3
I00
sg24
Vlong
p137
sg23
I00
sg75
I00
sg26
I01
sg4
(lp138
ssVparentMatrix[0]
p139
(dp140
g3
I00
sg4
(lp141
ssVcolorSet[1].colorName
p142
(dp143
g3
I00
sg4
(lp144
ssVcurrentUVSet
p145
(dp146
g3
I00
sg24
Vstring
p147
sg23
I00
sg75
I00
sg26
I01
sg4
(lp148
ssVinstObjGroups[0].objectGroups[0]
p149
(dp150
g3
I00
sg23
I00
sg24
VTdataCompound
p151
sg26
I00
sg4
(lp152
VinstObjGroups[0].objectGroups[0].objectGrpCompList
p153
aVinstObjGroups[0].objectGroups[0].objectGroupId
p154
aVinstObjGroups[0].objectGroups[0].objectGrpColor
p155
assVcontrolPoints[9].zValue
p156
(dp157
g37
I00
sg12
VdoubleLinear
p158
sg14
I00
sg15
I00
sg16
I01
sg39
(lp159
ssVcolorSet[0].colorName
p160
(dp161
g3
I00
sg4
(lp162
ssVcompInstObjGroups[0].compObjectGroups[0]
p163
(dp164
g3
I00
sg4
(lp165
g88
aVcompInstObjGroups[0].compObjectGroups[0].compObjectGroupId
p166
assVtemplate
p167
(dp168
g3
I00
sg24
Vbool
p169
sg23
I00
sg75
I00
sg26
I01
sg4
(lp170
ssVinstObjGroups[0].objectGroups[6].objectGroupId
p171
(dp172
g3
I00
sg24
Vlong
p173
sg23
I00
sg75
I00
sg26
I01
sg4
(lp174
ssVcontrolPoints.yValue
p175
(dp176
g55
VcontrolPoints
p177
ssVuvSet.uvSetPoints
p178
(dp179
g55
VuvSet
p180
ssVparentInverseMatrix[1]
p181
(dp182
g3
I00
sg4
(lp183
ssVcontrolPoints[6].yValue
p184
(dp185
g37
I00
sg12
VdoubleLinear
p186
sg14
I00
sg15
I00
sg16
I01
sg39
(lp187
ssVcontrolPoints[17]
p188
(dp189
g37
I00
sg39
(lp190
VcontrolPoints[17].xValue
p191
aVcontrolPoints[17].yValue
p192
aVcontrolPoints[17].zValue
p193
assVinstObjGroups.objectGroups
p194
(dp195
g55
VinstObjGroups
p196
ssVpublishedNodeInfo
p197
(dp198
g3
I01
sg23
I01
sg26
I00
sg24
VTdataCompound
p199
ssVinstObjGroups[0].objectGroups[19].objectGrpColor
p200
(dp201
g3
I00
sg24
Vshort
p202
sg23
I00
sg75
I00
sg26
I01
sg4
(lp203
ssVinstObjGroups[0].objectGroups[25]
p204
(dp205
g3
I00
sg23
I00
sg24
VTdataCompound
p206
sg26
I00
sg4
(lp207
VinstObjGroups[0].objectGroups[25].objectGrpCompList
p208
ag124
aVinstObjGroups[0].objectGroups[25].objectGrpColor
p209
assVinstObjGroups[0].objectGroups[15]
p210
(dp211
g3
I00
sg23
I00
sg24
VTdataCompound
p212
sg26
I00
sg4
(lp213
VinstObjGroups[0].objectGroups[15].objectGrpCompList
p214
ag128
aVinstObjGroups[0].objectGroups[15].objectGrpColor
p215
assVcompInstObjGroups[0].compObjectGroups
p216
(dp217
g3
I01
ssVdisplayColorChannel
p218
(dp219
g3
I00
sg24
Vstring
p220
sg23
I00
sg75
I00
sg26
I01
sg4
(lp221
ssVinstObjGroups[0].objectGroups[24].objectGrpColor
p222
(dp223
g3
I00
sg24
Vshort
p224
sg23
I00
sg75
I00
sg26
I01
sg4
(lp225
ssVcontrolPoints[15]
p226
(dp227
g37
I00
sg12
Vdouble3
p228
sg14
I00
sg15
I01
sg16
I01
sg39
(lp229
VcontrolPoints[15].xValue
p230
ag62
aVcontrolPoints[15].zValue
p231
assVcontrolPoints[9].yValue
p232
(dp233
g37
I00
sg12
VdoubleLinear
p234
sg14
I00
sg15
I00
sg16
I01
sg39
(lp235
ssg193
(dp236
g37
I00
sg39
(lp237
ssVselectionChildHighlighting
p238
(dp239
S'isArray'
p240
I00
sS'attrType'
p241
Vbool
p242
sS'isMulti'
p243
I00
sS'isCompound'
p244
I00
sS'isSimple'
p245
I01
sS'attrChildrenLongNames'
p246
(lp247
ssVtweak
p248
(dp249
g3
I00
sg24
Vbool
p250
sg23
I00
sg75
I00
sg26
I01
sg4
(lp251
ssVcontrolPoints[7].yValue
p252
(dp253
g37
I00
sg12
VdoubleLinear
p254
sg14
I00
sg15
I00
sg16
I01
sg39
(lp255
ssVinstObjGroups[0].objectGroups[9].objectGrpCompList
p256
(dp257
g3
I00
sg23
I00
sg24
VcomponentList
p258
sg26
I00
sg4
(lp259
ssVuvSet[1].uvSetPoints
p260
(dp261
g3
I01
ssVinstObjGroups[0].objectGroups[16].objectGrpCompList
p262
(dp263
g3
I00
sg23
I00
sg24
VcomponentList
p264
sg26
I00
sg4
(lp265
ssVcontrolPoints[12].xValue
p266
(dp267
g37
I00
sg12
VdoubleLinear
p268
sg14
I00
sg15
I00
sg16
I01
sg39
(lp269
ssg231
(dp270
g37
I00
sg12
VdoubleLinear
p271
sg14
I00
sg15
I00
sg16
I01
sg39
(lp272
ssVinstObjGroups[2].objectGroups
p273
(dp274
g3
I01
ssVeditPoints[1]
p275
(dp276
g3
I00
sg4
(lp277
VeditPoints[1].xValueEp
p278
aVeditPoints[1].yValueEp
p279
aVeditPoints[1].zValueEp
p280
assVcontrolPoints[4]
p281
(dp282
g37
I00
sg12
Vdouble3
p283
sg14
I00
sg15
I01
sg16
I01
sg39
(lp284
VcontrolPoints[4].xValue
p285
aVcontrolPoints[4].yValue
p286
aVcontrolPoints[4].zValue
p287
assVcontrolPoints[0].zValue
p288
(dp289
g3
I00
sg12
VdoubleLinear
p290
sg14
I00
sg15
I00
sg16
I01
sg4
(lp291
ssVvisibility
p292
(dp293
g3
I00
sg24
Vbool
p294
sg23
I00
sg75
I00
sg26
I01
sg4
(lp295
ssVcontrolPoints[12].zValue
p296
(dp297
g37
I00
sg12
VdoubleLinear
p298
sg14
I00
sg15
I00
sg16
I01
sg39
(lp299
ssVinstObjGroups[0].objectGroups[26].objectGroupId
p300
(dp301
g3
I00
sg4
(lp302
ssVeditPoints[0].yValueEp
p303
(dp304
g3
I00
sg4
(lp305
ssVcontrolPoints[3].yValue
p306
(dp307
g37
I00
sg12
VdoubleLinear
p308
sg14
I00
sg15
I00
sg16
I01
sg39
(lp309
ssVinstObjGroups[0].objectGroups[23].objectGrpCompList
p310
(dp311
g3
I00
sg23
I00
sg24
VcomponentList
p312
sg26
I00
sg4
(lp313
ssVrenderInfo.layerOverrideColor
p314
(dp315
g55
VrenderInfo
p316
sg3
I00
sg24
Vbyte
p317
sg23
I00
sg26
I00
sg4
(lp318
ssVuvSet.uvSetName
p319
(dp320
g55
VuvSet
p321
ssVinstObjGroups[0]
p322
(dp323
g3
I00
sg23
I00
sg24
VTdataCompound
p324
sg26
I00
sg4
(lp325
VinstObjGroups[0].objectGroups
p326
assVinstObjGroups[0].objectGroups[16].objectGroupId
p327
(dp328
g3
I00
sg24
Vlong
p329
sg23
I00
sg75
I00
sg26
I01
sg4
(lp330
ssVinstObjGroups[0].objectGroups[4]
p331
(dp332
g3
I00
sg23
I00
sg24
VTdataCompound
p333
sg26
I00
sg4
(lp334
VinstObjGroups[0].objectGroups[4].objectGrpCompList
p335
ag72
aVinstObjGroups[0].objectGroups[4].objectGrpColor
p336
assVinstObjGroups[0].objectGroups[20].objectGrpColor
p337
(dp338
g3
I00
sg24
Vshort
p339
sg23
I00
sg75
I00
sg26
I01
sg4
(lp340
ssVinstObjGroups[0].objectGroups[5].objectGrpCompList
p341
(dp342
g3
I00
sg23
I00
sg24
VcomponentList
p343
sg26
I00
sg4
(lp344
ssVinstObjGroups[0].objectGroups[3].objectGrpCompList
p345
(dp346
g3
I00
sg23
I00
sg24
VcomponentList
p347
sg26
I00
sg4
(lp348
ssg286
(dp349
g37
I00
sg12
VdoubleLinear
p350
sg14
I00
sg15
I00
sg16
I01
sg39
(lp351
ssVmaxShadingSamples
p352
(dp353
g3
I00
sg24
Vlong
p354
sg23
I00
sg75
I00
sg26
I01
sg4
(lp355
ssVcontrolPoints[2].yValue
p356
(dp357
g37
I00
sg12
VdoubleLinear
p358
sg14
I00
sg15
I00
sg16
I01
sg39
(lp359
ssVinstObjGroups[0].objectGroups[19].objectGroupId
p360
(dp361
g3
I00
sg24
Vlong
p362
sg23
I00
sg75
I00
sg26
I01
sg4
(lp363
ssVinstObjGroups[0].objectGroups[9].objectGroupId
p364
(dp365
g3
I00
sg24
Vlong
p366
sg23
I00
sg75
I00
sg26
I01
sg4
(lp367
ssVpublishedNodeInfo[0].isHierarchicalNode
p368
(dp369
g3
I00
sg4
(lp370
ssVcontrolPoints[5].zValue
p371
(dp372
g37
I00
sg12
VdoubleLinear
p373
sg14
I00
sg15
I00
sg16
I01
sg39
(lp374
ssVcontrolPoints[10]
p375
(dp376
g37
I00
sg12
Vdouble3
p377
sg14
I00
sg15
I01
sg16
I01
sg39
(lp378
VcontrolPoints[10].xValue
p379
aVcontrolPoints[10].yValue
p380
aVcontrolPoints[10].zValue
p381
assVboundingBox.boundingBoxSize.boundingBoxSizeY
p382
(dp383
g3
I00
sg24
VdoubleLinear
p384
sg80
VboundingBox.boundingBoxSize
p385
sg23
I00
sg75
I00
sg26
I01
sg4
(lp386
ssVboundingBox.boundingBoxSize.boundingBoxSizeX
p387
(dp388
g3
I00
sg24
VdoubleLinear
p389
sg80
VboundingBox.boundingBoxSize
p390
sg23
I00
sg75
I00
sg26
I01
sg4
(lp391
ssVdispCurveEndPoints
p392
(dp393
g3
I00
sg24
Vbool
p394
sg23
I00
sg75
I00
sg26
I01
sg4
(lp395
ssVtemplateName
p396
(dp397
g3
I00
sg24
Vstring
p398
sg23
I00
sg75
I00
sg26
I01
sg4
(lp399
ssVghostingControl
p400
(dp401
g3
I00
sg24
Venum
p402
sg23
I00
sg75
I00
sg26
I01
sg4
(lp403
ssVinstObjGroups[0].objectGroups[22].objectGrpColor
p404
(dp405
g3
I00
sg24
Vshort
p406
sg23
I00
sg75
I00
sg26
I01
sg4
(lp407
ssVinstObjGroups[0].objectGroups[20]
p408
(dp409
g3
I00
sg23
I00
sg24
VTdataCompound
p410
sg26
I00
sg4
(lp411
VinstObjGroups[0].objectGroups[20].objectGrpCompList
p412
aVinstObjGroups[0].objectGroups[20].objectGroupId
p413
ag337
assVcolorSet[0]
p414
(dp415
g3
I00
sg4
(lp416
g160
aVcolorSet[0].clamped
p417
aVcolorSet[0].representation
p418
aVcolorSet[0].colorSetPoints
p419
assVdispHull
p420
(dp421
g3
I00
sg24
Vbool
p422
sg23
I00
sg75
I00
sg26
I01
sg4
(lp423
ssVinstObjGroups[0].objectGroups[16]
p424
(dp425
g3
I00
sg23
I00
sg24
VTdataCompound
p426
sg26
I00
sg4
(lp427
g262
ag327
aVinstObjGroups[0].objectGroups[16].objectGrpColor
p428
assVworldNormal[1].worldNormalX
p429
(dp430
g3
I00
sg4
(lp431
ssVworldNormal[1].worldNormalY
p432
(dp433
g3
I00
sg4
(lp434
ssVdrawOverride.overrideDisplayType
p435
(dp436
g3
I00
sg24
Venum
p437
sg23
I00
sg75
I00
sg26
I01
sg4
(lp438
ssVnodeState
p439
(dp440
g3
I00
sg24
Venum
p441
sg23
I00
sg75
I00
sg26
I01
sg4
(lp442
ssVcontrolPoints[16].yValue
p443
(dp444
g37
I00
sg12
VdoubleLinear
p445
sg14
I00
sg15
I00
sg16
I01
sg39
(lp446
ssVinstObjGroups[0].objectGroups[14].objectGrpColor
p447
(dp448
g3
I00
sg24
Vshort
p449
sg23
I00
sg75
I00
sg26
I01
sg4
(lp450
ssVcontrolPoints[13].zValue
p451
(dp452
g37
I00
sg12
VdoubleLinear
p453
sg14
I00
sg15
I00
sg16
I01
sg39
(lp454
ssVboundingBox.boundingBoxSize.boundingBoxSizeZ
p455
(dp456
g3
I00
sg24
VdoubleLinear
p457
sg80
VboundingBox.boundingBoxSize
p458
sg23
I00
sg75
I00
sg26
I01
sg4
(lp459
ssVworldMatrix[1]
p460
(dp461
g3
I00
sg4
(lp462
ssg214
(dp463
g3
I00
sg23
I00
sg24
VcomponentList
p464
sg26
I00
sg4
(lp465
ssVinstObjGroups[0].objectGroups[11]
p466
(dp467
g3
I00
sg23
I00
sg24
VTdataCompound
p468
sg26
I00
sg4
(lp469
VinstObjGroups[0].objectGroups[11].objectGrpCompList
p470
aVinstObjGroups[0].objectGroups[11].objectGroupId
p471
aVinstObjGroups[0].objectGroups[11].objectGrpColor
p472
assVisHierarchicalConnection
p473
(dp474
g3
I01
sg23
I01
sg26
I00
sg24
VTdataCompound
p475
ssg208
(dp476
g3
I00
sg23
I00
sg24
VcomponentList
p477
sg26
I00
sg4
(lp478
ssVuvSet
p479
(dp480
g3
I01
sg23
I01
sg26
I00
sg24
VTdataCompound
p481
ssVrenderLayerInfo[0].renderLayerId
p482
(dp483
g3
I00
sg4
(lp484
ssg230
(dp485
g37
I00
sg12
VdoubleLinear
p486
sg14
I00
sg15
I00
sg16
I01
sg39
(lp487
ssVcontrolPoints[3].zValue
p488
(dp489
g37
I00
sg12
VdoubleLinear
p490
sg14
I00
sg15
I00
sg16
I01
sg39
(lp491
ssVuvPivot
p492
(dp493
g3
I00
sg24
Vdouble2
p494
sg23
I00
sg75
I01
sg26
I01
sg4
(lp495
VuvPivot.uvPivotX
p496
aVuvPivot.uvPivotY
p497
assg155
(dp498
g3
I00
sg24
Vshort
p499
sg23
I00
sg75
I00
sg26
I01
sg4
(lp500
ssVcompInstObjGroups[0].compObjectGroups[1].compObjectGrpCompList
p501
(dp502
g3
I00
sg4
(lp503
ssVdrawOverride.overrideColor
p504
(dp505
g3
I00
sg23
I00
sg24
Vbyte
p506
sg26
I00
sg4
(lp507
ssg379
(dp508
g37
I00
sg12
VdoubleLinear
p509
sg14
I00
sg15
I00
sg16
I01
sg39
(lp510
ssVrenderLayerInfo.renderLayerId
p511
(dp512
g55
VrenderLayerInfo
p513
ssVcontrolPoints[9]
p514
(dp515
g37
I00
sg12
Vdouble3
p516
sg14
I00
sg15
I01
sg16
I01
sg39
(lp517
VcontrolPoints[9].xValue
p518
ag232
ag156
assVminMaxValue
p519
(dp520
g3
I00
sg24
Vdouble2
p521
sg23
I00
sg75
I01
sg26
I01
sg4
(lp522
VminMaxValue.minValue
p523
aVminMaxValue.maxValue
p524
assVignoreSelfShadowing
p525
(dp526
g3
I00
sg24
Vbool
p527
sg23
I00
sg75
I00
sg26
I01
sg4
(lp528
ssVcontrolPoints[3].xValue
p529
(dp530
g37
I00
sg12
VdoubleLinear
p531
sg14
I00
sg15
I00
sg16
I01
sg39
(lp532
ssVinstObjGroups[0].objectGroups[10].objectGroupId
p533
(dp534
g3
I00
sg24
Vlong
p535
sg23
I00
sg75
I00
sg26
I01
sg4
(lp536
ssVrenderLayerInfo[1].renderLayerColor
p537
(dp538
g3
I00
sg4
(lp539
ssVcolorSet[1].representation
p540
(dp541
g3
I00
sg4
(lp542
ssVcustomTreatment
p543
(dp544
g3
I00
sg24
Vstring
p545
sg23
I00
sg75
I00
sg26
I01
sg4
(lp546
ssVinstObjGroups[0].objectGroups[13].objectGrpCompList
p547
(dp548
g3
I00
sg23
I00
sg24
VcomponentList
p549
sg26
I00
sg4
(lp550
ssVghostColorPostA
p551
(dp552
g240
I00
sg241
Vfloat
p553
sg243
I00
sg244
I00
sg245
I01
sg246
(lp554
ssVinstObjGroups[0].objectGroups[3]
p555
(dp556
g3
I00
sg23
I00
sg24
VTdataCompound
p557
sg26
I00
sg4
(lp558
g345
aVinstObjGroups[0].objectGroups[3].objectGroupId
p559
aVinstObjGroups[0].objectGroups[3].objectGrpColor
p560
assVcompInstObjGroups.compObjectGroups.compObjectGroupId
p561
(dp562
g55
VcompInstObjGroups.compObjectGroups
p563
ssVcreationDate
p564
(dp565
g3
I00
sg24
Vstring
p566
sg23
I00
sg75
I00
sg26
I01
sg4
(lp567
ssVvolumeSamples
p568
(dp569
g3
I00
sg24
Vlong
p570
sg23
I00
sg75
I00
sg26
I01
sg4
(lp571
ssVinstObjGroups[0].objectGroups[12].objectGroupId
p572
(dp573
g3
I00
sg24
Vlong
p574
sg23
I00
sg75
I00
sg26
I01
sg4
(lp575
ssVcolorSet[0].colorSetPoints[0].colorSetPointsG
p576
(dp577
g3
I00
sg4
(lp578
ssVcolorSet[0].colorSetPoints[0].colorSetPointsA
p579
(dp580
g3
I00
sg4
(lp581
ssVcolorSet[0].colorSetPoints[0].colorSetPointsB
p582
(dp583
g3
I00
sg4
(lp584
ssVinstObjGroups[0].objectGroups[27]
p585
(dp586
g3
I00
sg4
(lp587
VinstObjGroups[0].objectGroups[27].objectGrpCompList
p588
aVinstObjGroups[0].objectGroups[27].objectGroupId
p589
aVinstObjGroups[0].objectGroups[27].objectGrpColor
p590
assVisHierarchicalConnection[1]
p591
(dp592
g3
I00
sg4
(lp593
ssVworldNormal[1].worldNormalZ
p594
(dp595
g3
I00
sg4
(lp596
ssVeditPoints.yValueEp
p597
(dp598
g55
VeditPoints
p599
ssVcolorSet[0].colorSetPoints[0].colorSetPointsR
p600
(dp601
g3
I00
sg4
(lp602
ssg419
(dp603
g3
I01
ssVworldNormal[1]
p604
(dp605
g3
I00
sg4
(lp606
g429
ag432
ag594
assVobjectColorRGB
p607
(dp608
g240
I00
sg243
I00
sg246
(lp609
VobjectColorRGB.objectColorR
p610
aVobjectColorRGB.objectColorG
p611
aVobjectColorRGB.objectColorB
p612
asg245
I00
sg241
Vfloat3
p613
ssVcompInstObjGroups.compObjectGroups.compObjectGrpCompList
p614
(dp615
g55
VcompInstObjGroups.compObjectGroups
p616
ssVcompInstObjGroups
p617
(dp618
g3
I01
sg23
I01
sg26
I00
sg24
VTdataCompound
p619
ssVworldNormal[0].worldNormalZ
p620
(dp621
g3
I00
sg4
(lp622
ssVinstObjGroups[0].objectGroups[24]
p623
(dp624
g3
I00
sg23
I00
sg24
VTdataCompound
p625
sg26
I00
sg4
(lp626
VinstObjGroups[0].objectGroups[24].objectGrpCompList
p627
aVinstObjGroups[0].objectGroups[24].objectGroupId
p628
ag222
assVinstObjGroups[1].objectGroups
p629
(dp630
g3
I01
ssVmatrix
p631
(dp632
g3
I00
sg23
I00
sg24
Vmatrix
p633
sg26
I00
sg4
(lp634
ssVinstObjGroups[0].objectGroups[12]
p635
(dp636
g3
I00
sg23
I00
sg24
VTdataCompound
p637
sg26
I00
sg4
(lp638
VinstObjGroups[0].objectGroups[12].objectGrpCompList
p639
ag572
aVinstObjGroups[0].objectGroups[12].objectGrpColor
p640
assg413
(dp641
g3
I00
sg24
Vlong
p642
sg23
I00
sg75
I00
sg26
I01
sg4
(lp643
ssVghostCustomSteps
p644
(dp645
g3
I00
sg23
I00
sg24
VTdataCompound
p646
sg26
I00
sg4
(lp647
VghostCustomSteps.ghostPreSteps
p648
aVghostCustomSteps.ghostPostSteps
p649
aVghostCustomSteps.ghostStepSize
p650
assVinstObjGroups[0].objectGroups[19].objectGrpCompList
p651
(dp652
g3
I00
sg23
I00
sg24
VcomponentList
p653
sg26
I00
sg4
(lp654
ssVinstObjGroups[0].objectGroups[2].objectGrpCompList
p655
(dp656
g3
I00
sg23
I00
sg24
VcomponentList
p657
sg26
I00
sg4
(lp658
ssVworldMatrix
p659
(dp660
g3
I01
sg23
I01
sg26
I00
sg24
Vmatrix
p661
ssVcontainerType
p662
(dp663
g3
I00
sg24
Vstring
p664
sg23
I00
sg75
I00
sg26
I01
sg4
(lp665
ssVcontrolPoints
p666
(dp667
g3
I01
sg23
I01
sg26
I00
sg24
VTdataCompound
p668
ssVparentInverseMatrix
p669
(dp670
g3
I01
sg23
I01
sg26
I00
sg24
Vmatrix
p671
ssVcontrolPoints[0]
p672
(dp673
g3
I00
sg12
Vdouble3
p674
sg14
I00
sg15
I01
sg16
I01
sg4
(lp675
g31
aVcontrolPoints[0].yValue
p676
ag288
assVinstObjGroups[0].objectGroups[18].objectGrpCompList
p677
(dp678
g3
I00
sg23
I00
sg24
VcomponentList
p679
sg26
I00
sg4
(lp680
ssVrenderInfo.layerRenderable
p681
(dp682
g55
VrenderInfo
p683
sg3
I00
sg24
Vbool
p684
sg23
I00
sg75
I00
sg26
I01
sg4
(lp685
ssVrmbCommand
p686
(dp687
g3
I00
sg24
Vstring
p688
sg23
I00
sg75
I00
sg26
I01
sg4
(lp689
ssVeditPoints[0].zValueEp
p690
(dp691
g3
I00
sg4
(lp692
ssg648
(dp693
g3
I00
sg24
Vlong
p694
sg23
I00
sg75
I00
sg26
I01
sg4
(lp695
ssVpublishedNodeInfo[1].publishedNodeType
p696
(dp697
g3
I00
sg4
(lp698
ssVeditPoints.zValueEp
p699
(dp700
g55
VeditPoints
p701
ssVweights[1]
p702
(dp703
g3
I00
sg4
(lp704
ssVcolorSet.clamped
p705
(dp706
g55
VcolorSet
p707
ssVcontrolPoints[7].zValue
p708
(dp709
g37
I00
sg12
VdoubleLinear
p710
sg14
I00
sg15
I00
sg16
I01
sg39
(lp711
ssg192
(dp712
g37
I00
sg39
(lp713
ssg496
(dp714
g3
I00
sg24
Vdouble
p715
sg23
I00
sg75
I00
sg26
I01
sg4
(lp716
ssg497
(dp717
g3
I00
sg24
Vdouble
p718
sg23
I00
sg75
I00
sg26
I01
sg4
(lp719
ssVcontrolPoints[7]
p720
(dp721
g37
I00
sg12
Vdouble3
p722
sg14
I00
sg15
I01
sg16
I01
sg39
(lp723
VcontrolPoints[7].xValue
p724
ag252
ag708
assVcontrolPoints[11].xValue
p725
(dp726
g37
I00
sg12
VdoubleLinear
p727
sg14
I00
sg15
I00
sg16
I01
sg39
(lp728
ssg417
(dp729
g3
I00
sg4
(lp730
ssg191
(dp731
g37
I00
sg39
(lp732
ssVinstObjGroups[0].objectGroups[2].objectGrpColor
p733
(dp734
g3
I00
sg24
Vshort
p735
sg23
I00
sg75
I00
sg26
I01
sg4
(lp736
ssVworldSpace[2]
p737
(dp738
g3
I00
sg4
(lp739
ssVdispGeometry
p740
(dp741
g3
I00
sg24
Vbool
p742
sg23
I00
sg75
I00
sg26
I01
sg4
(lp743
ssVinstObjGroups[1]
p744
(dp745
g3
I00
sg4
(lp746
g629
assVcontrolPoints[8].yValue
p747
(dp748
g37
I00
sg12
VdoubleLinear
p749
sg14
I00
sg15
I00
sg16
I01
sg39
(lp750
ssVvisibleInReflections
p751
(dp752
g3
I00
sg24
Vbool
p753
sg23
I00
sg75
I00
sg26
I01
sg4
(lp754
ssVdepthJitter
p755
(dp756
g3
I00
sg24
Vbool
p757
sg23
I00
sg75
I00
sg26
I01
sg4
(lp758
ssVinstObjGroups[0].objectGroups[8].objectGrpCompList
p759
(dp760
g3
I00
sg23
I00
sg24
VcomponentList
p761
sg26
I00
sg4
(lp762
ssVparentMatrix[1]
p763
(dp764
g3
I00
sg4
(lp765
ssVinstObjGroups[0].objectGroups[7]
p766
(dp767
g3
I00
sg23
I00
sg24
VTdataCompound
p768
sg26
I00
sg4
(lp769
g116
aVinstObjGroups[0].objectGroups[7].objectGroupId
p770
ag112
assVrenderInfo
p771
(dp772
g3
I00
sg23
I00
sg24
VTdataCompound
p773
sg26
I00
sg4
(lp774
VrenderInfo.identification
p775
aVrenderInfo.layerRenderable
p776
aVrenderInfo.layerOverrideColor
p777
assVvisibleInRefractions
p778
(dp779
g3
I00
sg24
Vbool
p780
sg23
I00
sg75
I00
sg26
I01
sg4
(lp781
ssg20
(dp782
g3
I00
sg12
VdoubleLinear
p783
sg14
I00
sg15
I00
sg16
I01
sg4
(lp784
ssg8
(dp785
g3
I00
sg4
(lp786
ssg9
(dp787
g3
I00
sg4
(lp788
ssg7
(dp789
g3
I00
sg4
(lp790
ssVdrawOverride.overrideShading
p791
(dp792
g3
I00
sg24
Vbool
p793
sg23
I00
sg75
I00
sg26
I01
sg4
(lp794
ssVinstObjGroups[0].objectGroups[26].objectGrpColor
p795
(dp796
g3
I00
sg4
(lp797
ssg280
(dp798
g3
I00
sg4
(lp799
ssVcolorSet.colorName
p800
(dp801
g55
VcolorSet
p802
ssg6
(dp803
g3
I00
sg4
(lp804
ssVinstObjGroups[0].objectGroups[23]
p805
(dp806
g3
I00
sg23
I00
sg24
VTdataCompound
p807
sg26
I00
sg4
(lp808
g310
aVinstObjGroups[0].objectGroups[23].objectGroupId
p809
aVinstObjGroups[0].objectGroups[23].objectGrpColor
p810
assg41
(dp811
g37
I00
sg12
VdoubleLinear
p812
sg14
I00
sg15
I00
sg16
I01
sg39
(lp813
ssVcontrolPoints[8].xValue
p814
(dp815
g37
I00
sg12
VdoubleLinear
p816
sg14
I00
sg15
I00
sg16
I01
sg39
(lp817
ssVinstObjGroups[0].objectGroups[26].objectGrpCompList
p818
(dp819
g3
I00
sg4
(lp820
ssVrenderType
p821
(dp822
g3
I00
sg24
Vshort
p823
sg23
I00
sg75
I00
sg26
I01
sg4
(lp824
ssg42
(dp825
g37
I00
sg12
VdoubleLinear
p826
sg14
I00
sg15
I00
sg16
I01
sg39
(lp827
ssVboundingBox.boundingBoxMax.boundingBoxMaxY
p828
(dp829
g3
I00
sg24
VdoubleLinear
p830
sg80
VboundingBox.boundingBoxMax
p831
sg23
I00
sg75
I00
sg26
I01
sg4
(lp832
ssVboundingBox.boundingBoxMax.boundingBoxMaxX
p833
(dp834
g3
I00
sg24
VdoubleLinear
p835
sg80
VboundingBox.boundingBoxMax
p836
sg23
I00
sg75
I00
sg26
I01
sg4
(lp837
ssVboundingBox.boundingBoxMax.boundingBoxMaxZ
p838
(dp839
g3
I00
sg24
VdoubleLinear
p840
sg80
VboundingBox.boundingBoxMax
p841
sg23
I00
sg75
I00
sg26
I01
sg4
(lp842
ssVisCollapsed
p843
(dp844
g3
I00
sg24
Vbool
p845
sg23
I00
sg75
I00
sg26
I01
sg4
(lp846
ssVcontrolPoints[18]
p847
(dp848
g37
I00
sg39
(lp849
VcontrolPoints[18].xValue
p850
aVcontrolPoints[18].yValue
p851
aVcontrolPoints[18].zValue
p852
assVghostColorPost.ghostColorPostR
p853
(dp854
g240
I00
sg241
Vfloat
p855
sg243
I00
sg244
I00
sg245
I01
sg246
(lp856
ssg336
(dp857
g3
I00
sg24
Vshort
p858
sg23
I00
sg75
I00
sg26
I01
sg4
(lp859
ssg676
(dp860
g3
I00
sg12
VdoubleLinear
p861
sg14
I00
sg15
I00
sg16
I01
sg4
(lp862
ssg153
(dp863
g3
I00
sg23
I00
sg24
VcomponentList
p864
sg26
I00
sg4
(lp865
ssVcontrolPoints[16].zValue
p866
(dp867
g37
I00
sg12
VdoubleLinear
p868
sg14
I00
sg15
I00
sg16
I01
sg39
(lp869
ssVcolorSet[1].colorSetPoints
p870
(dp871
g3
I01
ssVuiTreatment
p872
(dp873
g3
I00
sg24
Venum
p874
sg23
I00
sg75
I00
sg26
I01
sg4
(lp875
ssVghostFrames
p876
(dp877
g3
I00
sg23
I00
sg24
Nsg26
I00
sg4
(lp878
ssVcontrolPoints[3]
p879
(dp880
g37
I00
sg12
Vdouble3
p881
sg14
I00
sg15
I01
sg16
I01
sg39
(lp882
g529
ag306
ag488
assVcaching
p883
(dp884
g3
I00
sg24
Vbool
p885
sg23
I00
sg75
I00
sg26
I01
sg4
(lp886
ssVrenderLayerInfo[1].renderLayerRenderable
p887
(dp888
g3
I00
sg4
(lp889
ssg166
(dp890
g3
I00
sg4
(lp891
ssVinstObjGroups[0].objectGroups[1].objectGroupId
p892
(dp893
g3
I00
sg24
Vlong
p894
sg23
I00
sg75
I00
sg26
I01
sg4
(lp895
ssg770
(dp896
g3
I00
sg24
Vlong
p897
sg23
I00
sg75
I00
sg26
I01
sg4
(lp898
ssVuseObjectColor
p899
(dp900
g3
I00
sg24
Vbool
p901
sg23
I00
sg75
I00
sg26
I01
sg4
(lp902
ssVdrawOverride.overrideLevelOfDetail
p903
(dp904
g3
I00
sg24
Venum
p905
sg23
I00
sg75
I00
sg26
I01
sg4
(lp906
ssg154
(dp907
g3
I00
sg24
Vlong
p908
sg23
I00
sg75
I00
sg26
I01
sg4
(lp909
ssVinstObjGroups[0].objectGroups[21].objectGrpColor
p910
(dp911
g3
I00
sg24
Vshort
p912
sg23
I00
sg75
I00
sg26
I01
sg4
(lp913
ssVcontrolPoints[11].yValue
p914
(dp915
g37
I00
sg12
VdoubleLinear
p916
sg14
I00
sg15
I00
sg16
I01
sg39
(lp917
ssVinstObjGroups[0].objectGroups[2]
p918
(dp919
g3
I00
sg23
I00
sg24
VTdataCompound
p920
sg26
I00
sg4
(lp921
g655
aVinstObjGroups[0].objectGroups[2].objectGroupId
p922
ag733
assVantialiasingLevel
p923
(dp924
g3
I00
sg24
Vlong
p925
sg23
I00
sg75
I00
sg26
I01
sg4
(lp926
ssg471
(dp927
g3
I00
sg24
Vlong
p928
sg23
I00
sg75
I00
sg26
I01
sg4
(lp929
ssVcolorSet.colorSetPoints.colorSetPointsG
p930
(dp931
g55
VcolorSet.colorSetPoints
p932
ssVcolorSet.colorSetPoints.colorSetPointsB
p933
(dp934
g55
VcolorSet.colorSetPoints
p935
ssVcolorSet.colorSetPoints.colorSetPointsA
p936
(dp937
g55
VcolorSet.colorSetPoints
p938
ssg560
(dp939
g3
I00
sg24
Vshort
p940
sg23
I00
sg75
I00
sg26
I01
sg4
(lp941
ssVminMaxValue.maxValue
p942
(dp943
g55
VminMaxValue
p944
sg3
I00
sg24
Vdouble
p945
sg23
I00
sg75
I00
sg26
I01
sg4
(lp946
ssVbinMembership
p947
(dp948
g3
I00
sg24
Vstring
p949
sg23
I00
sg75
I00
sg26
I01
sg4
(lp950
ssVcolorSet.colorSetPoints.colorSetPointsR
p951
(dp952
g55
VcolorSet.colorSetPoints
p953
ssVinstObjGroups[0].objectGroups[14].objectGroupId
p954
(dp955
g3
I00
sg24
Vlong
p956
sg23
I00
sg75
I00
sg26
I01
sg4
(lp957
ssVrenderLayerInfo[0].renderLayerRenderable
p958
(dp959
g3
I00
sg4
(lp960
ssVlocal
p961
(dp962
g3
I00
sg23
I00
sg24
VnurbsCurve
p963
sg26
I00
sg4
(lp964
ssg215
(dp965
g3
I00
sg24
Vshort
p966
sg23
I00
sg75
I00
sg26
I01
sg4
(lp967
ssVinstObjGroups[0].objectGroups[22].objectGroupId
p968
(dp969
g3
I00
sg24
Vlong
p970
sg23
I00
sg75
I00
sg26
I01
sg4
(lp971
ssg335
(dp972
g3
I00
sg23
I00
sg24
VcomponentList
p973
sg26
I00
sg4
(lp974
ssVuvSet.uvSetPoints.uvSetPointsV
p975
(dp976
g55
VuvSet.uvSetPoints
p977
ssVuvSet.uvSetPoints.uvSetPointsU
p978
(dp979
g55
VuvSet.uvSetPoints
p980
ssVparentMatrix
p981
(dp982
g3
I01
sg23
I01
sg26
I00
sg24
Vmatrix
p983
ssVinstObjGroups[0].objectGroups[17].objectGrpCompList
p984
(dp985
g3
I00
sg23
I00
sg24
VcomponentList
p986
sg26
I00
sg4
(lp987
ssVcontrolPoints[11]
p988
(dp989
g37
I00
sg12
Vdouble3
p990
sg14
I00
sg15
I01
sg16
I01
sg39
(lp991
g725
ag914
ag100
assVinstObjGroups[0].objectGroups[6].objectGrpColor
p992
(dp993
g3
I00
sg24
Vshort
p994
sg23
I00
sg75
I00
sg26
I01
sg4
(lp995
ssVreceiveShadows
p996
(dp997
g3
I00
sg24
Vbool
p998
sg23
I00
sg75
I00
sg26
I01
sg4
(lp999
ssVcached
p1000
(dp1001
g3
I00
sg23
I00
sg24
VnurbsCurve
p1002
sg26
I00
sg4
(lp1003
ssVinstObjGroups[0].objectGroups[14].objectGrpCompList
p1004
(dp1005
g3
I00
sg23
I00
sg24
VcomponentList
p1006
sg26
I00
sg4
(lp1007
ssVshadingSamples
p1008
(dp1009
g3
I00
sg24
Vlong
p1010
sg23
I00
sg75
I00
sg26
I01
sg4
(lp1011
ssVinstObjGroups[0].objectGroups[17]
p1012
(dp1013
g3
I00
sg23
I00
sg24
VTdataCompound
p1014
sg26
I00
sg4
(lp1015
g984
aVinstObjGroups[0].objectGroups[17].objectGroupId
p1016
aVinstObjGroups[0].objectGroups[17].objectGrpColor
p1017
assVdrawOverride.overrideEnabled
p1018
(dp1019
g3
I00
sg24
Vbool
p1020
sg23
I00
sg75
I00
sg26
I01
sg4
(lp1021
ssg29
(dp1022
g3
I00
sg24
Vdouble3
p1023
sg80
VboundingBox
p1024
sg23
I00
sg75
I01
sg26
I01
sg4
(lp1025
g833
ag828
ag838
assVcolorSet[1]
p1026
(dp1027
g3
I00
sg4
(lp1028
g142
aVcolorSet[1].clamped
p1029
ag540
ag870
assVcreator
p1030
(dp1031
g3
I00
sg24
Vstring
p1032
sg23
I00
sg75
I00
sg26
I01
sg4
(lp1033
ssVtweakLocation
p1034
(dp1035
g3
I00
sg23
I00
sg24
Nsg26
I00
sg4
(lp1036
ssVghostRangeEnd
p1037
(dp1038
g3
I00
sg24
Vtime
p1039
sg23
I00
sg75
I00
sg26
I01
sg4
(lp1040
ssVeditPoints[0].xValueEp
p1041
(dp1042
g3
I00
sg4
(lp1043
ssVcontrolPoints.xValue
p1044
(dp1045
g55
VcontrolPoints
p1046
ssVtemplateVersion
p1047
(dp1048
g3
I00
sg24
Vlong
p1049
sg23
I00
sg75
I00
sg26
I01
sg4
(lp1050
ssg922
(dp1051
g3
I00
sg24
Vlong
p1052
sg23
I00
sg75
I00
sg26
I01
sg4
(lp1053
ssVdegree
p1054
(dp1055
g3
I00
sg24
Vshort
p1056
sg23
I00
sg75
I00
sg26
I01
sg4
(lp1057
ssVuvSet[0]
p1058
(dp1059
g3
I00
sg4
(lp1060
VuvSet[0].uvSetName
p1061
aVuvSet[0].uvSetPoints
p1062
aVuvSet[0].uvSetTweakLocation
p1063
assg589
(dp1064
g3
I00
sg4
(lp1065
ssVcontrolPoints[5].yValue
p1066
(dp1067
g37
I00
sg12
VdoubleLinear
p1068
sg14
I00
sg15
I00
sg16
I01
sg39
(lp1069
ssg588
(dp1070
g3
I00
sg4
(lp1071
ssVobjectColorRGB.objectColorR
p1072
(dp1073
S'attrParentLongName'
p1074
VobjectColorRGB
p1075
sg240
I00
sg241
Vfloat
p1076
sg243
I00
sg244
I00
sg245
I01
sg246
(lp1077
ssVcontrolPoints[2].xValue
p1078
(dp1079
g37
I00
sg12
VdoubleLinear
p1080
sg14
I00
sg15
I00
sg16
I01
sg39
(lp1081
ssVcontrolPoints[6]
p1082
(dp1083
g37
I00
sg12
Vdouble3
p1084
sg14
I00
sg15
I01
sg16
I01
sg39
(lp1085
VcontrolPoints[6].xValue
p1086
ag184
aVcontrolPoints[6].zValue
p1087
assVinstObjGroups.objectGroups.objectGrpCompList
p1088
(dp1089
g55
VinstObjGroups.objectGroups
p1090
ssVpublishedNodeInfo.publishedNodeType
p1091
(dp1092
g55
VpublishedNodeInfo
p1093
ssVpublishedNodeInfo[1]
p1094
(dp1095
g3
I00
sg4
(lp1096
VpublishedNodeInfo[1].publishedNode
p1097
aVpublishedNodeInfo[1].isHierarchicalNode
p1098
ag696
assg380
(dp1099
g37
I00
sg12
VdoubleLinear
p1100
sg14
I00
sg15
I00
sg16
I01
sg39
(lp1101
ssVcontrolPoints[8]
p1102
(dp1103
g37
I00
sg12
Vdouble3
p1104
sg14
I00
sg15
I01
sg16
I01
sg39
(lp1105
g814
ag747
aVcontrolPoints[8].zValue
p1106
assg287
(dp1107
g37
I00
sg12
VdoubleLinear
p1108
sg14
I00
sg15
I00
sg16
I01
sg39
(lp1109
ssVinstObjGroups[0].objectGroups[9]
p1110
(dp1111
g3
I00
sg23
I00
sg24
VTdataCompound
p1112
sg26
I00
sg4
(lp1113
g256
ag364
aVinstObjGroups[0].objectGroups[9].objectGrpColor
p1114
assVeditPoints
p1115
(dp1116
g3
I01
sg23
I01
sg26
I00
sg24
VTdataCompound
p1117
ssVghostRangeStart
p1118
(dp1119
g3
I00
sg24
Vtime
p1120
sg23
I00
sg75
I00
sg26
I01
sg4
(lp1121
ssVuvSet[1].uvSetTweakLocation
p1122
(dp1123
g3
I00
sg4
(lp1124
ssVpublishedNodeInfo[0].publishedNodeType
p1125
(dp1126
g3
I00
sg4
(lp1127
ssVinstObjGroups[2]
p1128
(dp1129
g3
I00
sg4
(lp1130
g273
assg1029
(dp1131
g3
I00
sg4
(lp1132
ssVinstObjGroups[0].objectGroups[6]
p1133
(dp1134
g3
I00
sg23
I00
sg24
VTdataCompound
p1135
sg26
I00
sg4
(lp1136
VinstObjGroups[0].objectGroups[6].objectGrpCompList
p1137
ag171
ag992
assVheader
p1138
(dp1139
g3
I00
sg23
I00
sg24
VnurbsCurveHeader
p1140
sg26
I00
sg4
(lp1141
ssVspans
p1142
(dp1143
g3
I00
sg24
Vlong
p1144
sg23
I00
sg75
I00
sg26
I01
sg4
(lp1145
ssVcontrolPoints[12]
p1146
(dp1147
g37
I00
sg12
Vdouble3
p1148
sg14
I00
sg15
I01
sg16
I01
sg39
(lp1149
g266
aVcontrolPoints[12].yValue
p1150
ag296
assVisHistoricallyInteresting
p1151
(dp1152
g3
I00
sg23
I00
sg24
Vbyte
p1153
sg26
I00
sg4
(lp1154
ssVinstObjGroups[0].objectGroups[13].objectGrpColor
p1155
(dp1156
g3
I00
sg24
Vshort
p1157
sg23
I00
sg75
I00
sg26
I01
sg4
(lp1158
ssVrelativeTweak
p1159
(dp1160
g3
I00
sg24
Vbool
p1161
sg23
I00
sg75
I00
sg26
I01
sg4
(lp1162
ssVcreate
p1163
(dp1164
g3
I00
sg23
I00
sg24
VnurbsCurve
p1165
sg26
I00
sg4
(lp1166
ssVtweakSize
p1167
(dp1168
g3
I00
sg24
Vlong
p1169
sg23
I00
sg75
I00
sg26
I01
sg4
(lp1170
ssVinstObjGroups[0].objectGroups[22]
p1171
(dp1172
g3
I00
sg23
I00
sg24
VTdataCompound
p1173
sg26
I00
sg4
(lp1174
VinstObjGroups[0].objectGroups[22].objectGrpCompList
p1175
ag968
ag404
assVinstObjGroups[0].objectGroups[18]
p1176
(dp1177
g3
I00
sg23
I00
sg24
VTdataCompound
p1178
sg26
I00
sg4
(lp1179
g677
aVinstObjGroups[0].objectGroups[18].objectGroupId
p1180
aVinstObjGroups[0].objectGroups[18].objectGrpColor
p1181
assVdrawOverride
p1182
(dp1183
g3
I00
sg23
I00
sg24
VTdataCompound
p1184
sg26
I00
sg4
(lp1185
g435
ag903
ag791
aVdrawOverride.overrideTexturing
p1186
aVdrawOverride.overridePlayback
p1187
ag1018
aVdrawOverride.overrideVisibility
p1188
ag504
assVinstObjGroups.objectGroups.objectGroupId
p1189
(dp1190
g80
VinstObjGroups.objectGroups
p1191
ssg810
(dp1192
g3
I00
sg24
Vshort
p1193
sg23
I00
sg75
I00
sg26
I01
sg4
(lp1194
ssVcurrentColorSet
p1195
(dp1196
g3
I00
sg24
Vstring
p1197
sg23
I00
sg75
I00
sg26
I01
sg4
(lp1198
ssg628
(dp1199
g3
I00
sg24
Vlong
p1200
sg23
I00
sg75
I00
sg26
I01
sg4
(lp1201
ssVghostColorPre
p1202
(dp1203
g240
I00
sg243
I00
sg246
(lp1204
VghostColorPre.ghostColorPreR
p1205
aVghostColorPre.ghostColorPreG
p1206
aVghostColorPre.ghostColorPreB
p1207
asg245
I00
sg241
Vfloat3
p1208
ssg1186
(dp1209
g3
I00
sg24
Vbool
p1210
sg23
I00
sg75
I00
sg26
I01
sg4
(lp1211
ssVcompInstObjGroups[1]
p1212
(dp1213
g3
I00
sg4
(lp1214
VcompInstObjGroups[1].compObjectGroups
p1215
assg30
(dp1216
g3
I00
sg24
Vdouble3
p1217
sg80
VboundingBox
p1218
sg23
I00
sg75
I01
sg26
I01
sg4
(lp1219
g387
ag382
ag455
assVinstObjGroups[0].objectGroups[13]
p1220
(dp1221
g3
I00
sg23
I00
sg24
VTdataCompound
p1222
sg26
I00
sg4
(lp1223
g547
aVinstObjGroups[0].objectGroups[13].objectGroupId
p1224
ag1155
assVworldInverseMatrix[0]
p1225
(dp1226
g3
I00
sg4
(lp1227
ssVrenderLayerInfo[0]
p1228
(dp1229
g3
I00
sg4
(lp1230
g482
ag958
aVrenderLayerInfo[0].renderLayerColor
p1231
assg278
(dp1232
g3
I00
sg4
(lp1233
ssg1215
(dp1234
g3
I01
ssg326
(dp1235
g3
I01
sg23
I01
sg26
I00
sg24
VTdataCompound
p1236
ssg1062
(dp1237
g3
I01
ssVmaxVisibilitySamplesOverride
p1238
(dp1239
g3
I00
sg24
Vbool
p1240
sg23
I00
sg75
I00
sg26
I01
sg4
(lp1241
ssVlodVisibility
p1242
(dp1243
g3
I00
sg24
Vbool
p1244
sg23
I00
sg75
I00
sg26
I01
sg4
(lp1245
ssVinstObjGroups[0].objectGroups[8].objectGroupId
p1246
(dp1247
g3
I00
sg24
Vlong
p1248
sg23
I00
sg75
I00
sg26
I01
sg4
(lp1249
ssVinstObjGroups[0].objectGroups[21].objectGrpCompList
p1250
(dp1251
g3
I00
sg23
I00
sg24
VcomponentList
p1252
sg26
I00
sg4
(lp1253
ssVcontrolPoints[2].zValue
p1254
(dp1255
g37
I00
sg12
VdoubleLinear
p1256
sg14
I00
sg15
I00
sg16
I01
sg39
(lp1257
ssVcontrolPoints[5].xValue
p1258
(dp1259
g37
I00
sg12
VdoubleLinear
p1260
sg14
I00
sg15
I00
sg16
I01
sg39
(lp1261
ssg640
(dp1262
g3
I00
sg24
Vshort
p1263
sg23
I00
sg75
I00
sg26
I01
sg4
(lp1264
ssVworldNormal[0]
p1265
(dp1266
g3
I00
sg4
(lp1267
VworldNormal[0].worldNormalX
p1268
aVworldNormal[0].worldNormalY
p1269
ag620
assVcontrolPoints[2]
p1270
(dp1271
g37
I00
sg12
Vdouble3
p1272
sg14
I00
sg15
I01
sg16
I01
sg39
(lp1273
g1078
ag356
ag1254
assg472
(dp1274
g3
I00
sg24
Vshort
p1275
sg23
I00
sg75
I00
sg26
I01
sg4
(lp1276
ssg1269
(dp1277
g3
I00
sg4
(lp1278
ssg1268
(dp1279
g3
I00
sg4
(lp1280
ssVpublishedNodeInfo.isHierarchicalNode
p1281
(dp1282
g55
VpublishedNodeInfo
p1283
ssg724
(dp1284
g37
I00
sg12
VdoubleLinear
p1285
sg14
I00
sg15
I00
sg16
I01
sg39
(lp1286
ssVinstObjGroups[0].objectGroups[1].objectGrpCompList
p1287
(dp1288
g3
I00
sg23
I00
sg24
VcomponentList
p1289
sg26
I00
sg4
(lp1290
ssVworldNormal.worldNormalZ
p1291
(dp1292
g55
VworldNormal
p1293
ssVworldNormal.worldNormalX
p1294
(dp1295
g55
VworldNormal
p1296
ssVworldNormal.worldNormalY
p1297
(dp1298
g55
VworldNormal
p1299
ssg1187
(dp1300
g3
I00
sg24
Vbool
p1301
sg23
I00
sg75
I00
sg26
I01
sg4
(lp1302
ssVinstObjGroups[0].objectGroups[5].objectGrpColor
p1303
(dp1304
g3
I00
sg24
Vshort
p1305
sg23
I00
sg75
I00
sg26
I01
sg4
(lp1306
ssVinstObjGroups.objectGroups.objectGrpColor
p1307
(dp1308
g80
VinstObjGroups.objectGroups
p1309
ssVcontrolPoints[13].yValue
p1310
(dp1311
g37
I00
sg12
VdoubleLinear
p1312
sg14
I00
sg15
I00
sg16
I01
sg39
(lp1313
ssVghostColorPost.ghostColorPostB
p1314
(dp1315
g240
I00
sg241
Vfloat
p1316
sg243
I00
sg244
I00
sg245
I01
sg246
(lp1317
ssVcenter
p1318
(dp1319
g3
I00
sg24
Vdouble3
p1320
sg23
I00
sg75
I01
sg26
I01
sg4
(lp1321
Vcenter.boundingBoxCenterX
p1322
aVcenter.boundingBoxCenterY
p1323
aVcenter.boundingBoxCenterZ
p1324
assVworldSpace[1]
p1325
(dp1326
g3
I00
sg4
(lp1327
ssVghostColorPost.ghostColorPostG
p1328
(dp1329
g240
I00
sg241
Vfloat
p1330
sg243
I00
sg244
I00
sg245
I01
sg246
(lp1331
ssVinstObjGroups[0].objectGroups[1].objectGrpColor
p1332
(dp1333
g3
I00
sg24
Vshort
p1334
sg23
I00
sg75
I00
sg26
I01
sg4
(lp1335
ssVviewMode
p1336
(dp1337
g3
I00
sg24
Venum
p1338
sg23
I00
sg75
I00
sg26
I01
sg4
(lp1339
ssVinstObjGroups[0].objectGroups[8].objectGrpColor
p1340
(dp1341
g3
I00
sg24
Vshort
p1342
sg23
I00
sg75
I00
sg26
I01
sg4
(lp1343
ssVdispCV
p1344
(dp1345
g3
I00
sg24
Vbool
p1346
sg23
I00
sg75
I00
sg26
I01
sg4
(lp1347
ssg1016
(dp1348
g3
I00
sg24
Vlong
p1349
sg23
I00
sg75
I00
sg26
I01
sg4
(lp1350
ssVintermediateObject
p1351
(dp1352
g3
I00
sg24
Vbool
p1353
sg23
I00
sg75
I00
sg26
I01
sg4
(lp1354
ssg1114
(dp1355
g3
I00
sg24
Vshort
p1356
sg23
I00
sg75
I00
sg26
I01
sg4
(lp1357
ssg1106
(dp1358
g37
I00
sg12
VdoubleLinear
p1359
sg14
I00
sg15
I00
sg16
I01
sg39
(lp1360
ssVghostColorPost
p1361
(dp1362
g240
I00
sg243
I00
sg246
(lp1363
g853
ag1328
ag1314
asg245
I00
sg241
Vfloat3
p1364
ssVcontrolPoints[16]
p1365
(dp1366
g37
I00
sg12
Vdouble3
p1367
sg14
I00
sg15
I01
sg16
I01
sg39
(lp1368
VcontrolPoints[16].xValue
p1369
ag443
ag866
assg428
(dp1370
g3
I00
sg24
Vshort
p1371
sg23
I00
sg75
I00
sg26
I01
sg4
(lp1372
ssg559
(dp1373
g3
I00
sg24
Vlong
p1374
sg23
I00
sg75
I00
sg26
I01
sg4
(lp1375
ssg285
(dp1376
g37
I00
sg12
VdoubleLinear
p1377
sg14
I00
sg15
I00
sg16
I01
sg39
(lp1378
ssg627
(dp1379
g3
I00
sg23
I00
sg24
VcomponentList
p1380
sg26
I00
sg4
(lp1381
ssVinstObjGroups[0].objectGroups[26]
p1382
(dp1383
g3
I00
sg4
(lp1384
g818
ag300
ag795
assVinstObjGroups[0].objectGroups[14]
p1385
(dp1386
g3
I00
sg23
I00
sg24
VTdataCompound
p1387
sg26
I00
sg4
(lp1388
g1004
ag954
ag447
assVprimaryVisibility
p1389
(dp1390
g3
I00
sg24
Vbool
p1391
sg23
I00
sg75
I00
sg26
I01
sg4
(lp1392
ssg28
(dp1393
g3
I00
sg24
Vdouble3
p1394
sg80
VboundingBox
p1395
sg23
I00
sg75
I01
sg26
I01
sg4
(lp1396
g83
ag77
ag91
assVcolorSet[0].colorSetPoints[0]
p1397
(dp1398
g3
I00
sg4
(lp1399
g600
ag576
ag582
ag579
assg43
(dp1400
g37
I00
sg12
VdoubleLinear
p1401
sg14
I00
sg15
I00
sg16
I01
sg39
(lp1402
ssVmotionBlur
p1403
(dp1404
g3
I00
sg24
Vbool
p1405
sg23
I00
sg75
I00
sg26
I01
sg4
(lp1406
ssVworldInverseMatrix[1]
p1407
(dp1408
g3
I00
sg4
(lp1409
ssVcolorSet
p1410
(dp1411
g3
I01
sg23
I01
sg26
I00
sg24
VTdataCompound
p1412
ssVuvSet[0].uvSetPoints[0]
p1413
(dp1414
g3
I00
sg4
(lp1415
VuvSet[0].uvSetPoints[0].uvSetPointsU
p1416
aVuvSet[0].uvSetPoints[0].uvSetPointsV
p1417
assVdisplayColors
p1418
(dp1419
g3
I00
sg24
Vbool
p1420
sg23
I00
sg75
I00
sg26
I01
sg4
(lp1421
ssg1150
(dp1422
g37
I00
sg12
VdoubleLinear
p1423
sg14
I00
sg15
I00
sg16
I01
sg39
(lp1424
ssg1017
(dp1425
g3
I00
sg24
Vshort
p1426
sg23
I00
sg75
I00
sg26
I01
sg4
(lp1427
ssg639
(dp1428
g3
I00
sg23
I00
sg24
VcomponentList
p1429
sg26
I00
sg4
(lp1430
ssVparentInverseMatrix[0]
p1431
(dp1432
g3
I00
sg4
(lp1433
ssVrenderLayerInfo[1].renderLayerId
p1434
(dp1435
g3
I00
sg4
(lp1436
ssVobjectColor
p1437
(dp1438
g3
I00
sg24
Vshort
p1439
sg23
I00
sg75
I00
sg26
I01
sg4
(lp1440
ssg1205
(dp1441
g240
I00
sg241
Vfloat
p1442
sg243
I00
sg244
I00
sg245
I01
sg246
(lp1443
ssVpublishedNodeInfo[0]
p1444
(dp1445
g3
I00
sg4
(lp1446
VpublishedNodeInfo[0].publishedNode
p1447
ag368
ag1125
assg60
(dp1448
g3
I00
sg4
(lp1449
ssg61
(dp1450
g3
I00
sg4
(lp1451
ssg1206
(dp1452
g240
I00
sg241
Vfloat
p1453
sg243
I00
sg244
I00
sg245
I01
sg246
(lp1454
ssg1207
(dp1455
g240
I00
sg241
Vfloat
p1456
sg243
I00
sg244
I00
sg245
I01
sg246
(lp1457
ssVeditPoints.xValueEp
p1458
(dp1459
g55
VeditPoints
p1460
ssg1447
(dp1461
g3
I00
sg4
(lp1462
ssg1098
(dp1463
g3
I00
sg4
(lp1464
ssVinstObjGroups[0].objectGroups[8]
p1465
(dp1466
g3
I00
sg23
I00
sg24
VTdataCompound
p1467
sg26
I00
sg4
(lp1468
g759
ag1246
ag1340
assVinstObjGroups[0].objectGroups[10].objectGrpCompList
p1469
(dp1470
g3
I00
sg23
I00
sg24
VcomponentList
p1471
sg26
I00
sg4
(lp1472
ssg381
(dp1473
g37
I00
sg12
VdoubleLinear
p1474
sg14
I00
sg15
I00
sg16
I01
sg39
(lp1475
ssVviewName
p1476
(dp1477
g3
I00
sg24
Vstring
p1478
sg23
I00
sg75
I00
sg26
I01
sg4
(lp1479
ssg851
(dp1480
g37
I00
sg39
(lp1481
ssVinPlace
p1482
(dp1483
g3
I00
sg24
Vbool
p1484
sg23
I00
sg75
I00
sg26
I01
sg4
(lp1485
ssVinstObjGroups[0].objectGroups[1]
p1486
(dp1487
g3
I00
sg23
I00
sg24
VTdataCompound
p1488
sg26
I00
sg4
(lp1489
g1287
ag892
ag1332
assg1416
(dp1490
g3
I00
sg4
(lp1491
ssg1369
(dp1492
g37
I00
sg12
VdoubleLinear
p1493
sg14
I00
sg15
I00
sg16
I01
sg39
(lp1494
ssg1417
(dp1495
g3
I00
sg4
(lp1496
ssViconName
p1497
(dp1498
g3
I00
sg24
Vstring
p1499
sg23
I00
sg75
I00
sg26
I01
sg4
(lp1500
ssVcompInstObjGroups[0].compObjectGroups[1]
p1501
(dp1502
g3
I00
sg4
(lp1503
g501
aVcompInstObjGroups[0].compObjectGroups[1].compObjectGroupId
p1504
assg590
(dp1505
g3
I00
sg4
(lp1506
ssg850
(dp1507
g37
I00
sg39
(lp1508
ssVinstObjGroups
p1509
(dp1510
g3
I01
sg23
I01
sg26
I00
sg24
VTdataCompound
p1511
ssVmaxVisibilitySamples
p1512
(dp1513
g3
I00
sg24
Vlong
p1514
sg23
I00
sg75
I00
sg26
I01
sg4
(lp1515
ssVworldMatrix[0]
p1516
(dp1517
g3
I00
sg4
(lp1518
ssg1188
(dp1519
g3
I00
sg24
Vbool
p1520
sg23
I00
sg75
I00
sg26
I01
sg4
(lp1521
ssVghosting
p1522
(dp1523
g3
I00
sg24
Vbool
p1524
sg23
I00
sg75
I00
sg26
I01
sg4
(lp1525
ssg1097
(dp1526
g3
I00
sg4
(lp1527
ssg1224
(dp1528
g3
I00
sg24
Vlong
p1529
sg23
I00
sg75
I00
sg26
I01
sg4
(lp1530
ssVgeometryAntialiasingOverride
p1531
(dp1532
g3
I00
sg24
Vbool
p1533
sg23
I00
sg75
I00
sg26
I01
sg4
(lp1534
ssg418
(dp1535
g3
I00
sg4
(lp1536
ssg1180
(dp1537
g3
I00
sg24
Vlong
p1538
sg23
I00
sg75
I00
sg26
I01
sg4
(lp1539
ssVghostColorPreA
p1540
(dp1541
g240
I00
sg241
Vfloat
p1542
sg243
I00
sg244
I00
sg245
I01
sg246
(lp1543
ssVinstObjGroups[0].objectGroups[10]
p1544
(dp1545
g3
I00
sg23
I00
sg24
VTdataCompound
p1546
sg26
I00
sg4
(lp1547
g1469
ag533
aVinstObjGroups[0].objectGroups[10].objectGrpColor
p1548
assVcompInstObjGroups[0]
p1549
(dp1550
g3
I00
sg4
(lp1551
g216
assg1548
(dp1552
g3
I00
sg24
Vshort
p1553
sg23
I00
sg75
I00
sg26
I01
sg4
(lp1554
ssg852
(dp1555
g37
I00
sg39
(lp1556
ssVuvSet[1].uvSetName
p1557
(dp1558
g3
I00
sg4
(lp1559
ssg412
(dp1560
g3
I00
sg23
I00
sg24
VcomponentList
p1561
sg26
I00
sg4
(lp1562
ssVcontrolPoints[13]
p1563
(dp1564
g37
I00
sg12
Vdouble3
p1565
sg14
I00
sg15
I01
sg16
I01
sg39
(lp1566
VcontrolPoints[13].xValue
p1567
ag1310
ag451
assg19
(dp1568
g3
I00
sg12
VdoubleLinear
p1569
sg14
I00
sg15
I00
sg16
I01
sg4
(lp1570
ssVform
p1571
(dp1572
g3
I00
sg24
Venum
p1573
sg23
I00
sg75
I00
sg26
I01
sg4
(lp1574
ssg649
(dp1575
g3
I00
sg24
Vlong
p1576
sg23
I00
sg75
I00
sg26
I01
sg4
(lp1577
ssg518
(dp1578
g37
I00
sg12
VdoubleLinear
p1579
sg14
I00
sg15
I00
sg16
I01
sg39
(lp1580
ssVuvSet[1]
p1581
(dp1582
g3
I00
sg4
(lp1583
g1557
ag260
ag1122
assVobjectColorRGB.objectColorG
p1584
(dp1585
g1074
VobjectColorRGB
p1586
sg240
I00
sg241
Vfloat
p1587
sg243
I00
sg244
I00
sg245
I01
sg246
(lp1588
ssVobjectColorRGB.objectColorB
p1589
(dp1590
g1074
VobjectColorRGB
p1591
sg240
I00
sg241
Vfloat
p1592
sg243
I00
sg244
I00
sg245
I01
sg246
(lp1593
ssVvisibleFraction
p1594
(dp1595
g3
I00
sg24
Vfloat
p1596
sg23
I00
sg75
I00
sg26
I01
sg4
(lp1597
ssg209
(dp1598
g3
I00
sg24
Vshort
p1599
sg23
I00
sg75
I00
sg26
I01
sg4
(lp1600
ssg1567
(dp1601
g37
I00
sg12
VdoubleLinear
p1602
sg14
I00
sg15
I00
sg16
I01
sg39
(lp1603
ssVeditPoints[0]
p1604
(dp1605
g3
I00
sg4
(lp1606
g1041
ag303
ag690
assg1181
(dp1607
g3
I00
sg24
Vshort
p1608
sg23
I00
sg75
I00
sg26
I01
sg4
(lp1609
ssVcontrolPoints[5]
p1610
(dp1611
g37
I00
sg12
Vdouble3
p1612
sg14
I00
sg15
I01
sg16
I01
sg39
(lp1613
g1258
ag1066
ag371
assg1087
(dp1614
g37
I00
sg12
VdoubleLinear
p1615
sg14
I00
sg15
I00
sg16
I01
sg39
(lp1616
ssg1086
(dp1617
g37
I00
sg12
VdoubleLinear
p1618
sg14
I00
sg15
I00
sg16
I01
sg39
(lp1619
ssVinstObjGroups[0].objectGroups[5].objectGroupId
p1620
(dp1621
g3
I00
sg24
Vlong
p1622
sg23
I00
sg75
I00
sg26
I01
sg4
(lp1623
ssVcolorSet.colorSetPoints
p1624
(dp1625
g55
VcolorSet
p1626
ssg1175
(dp1627
g3
I00
sg23
I00
sg24
VcomponentList
p1628
sg26
I00
sg4
(lp1629
ssVworldInverseMatrix
p1630
(dp1631
g3
I01
sg23
I01
sg26
I00
sg24
Vmatrix
p1632
ssg1061
(dp1633
g3
I00
sg4
(lp1634
ssVrenderInfo.identification
p1635
(dp1636
g55
VrenderInfo
p1637
sg3
I00
sg24
Vshort
p1638
sg23
I00
sg75
I00
sg26
I01
sg4
(lp1639
ssVblackBox
p1640
(dp1641
g3
I00
sg24
Vbool
p1642
sg23
I00
sg75
I00
sg26
I01
sg4
(lp1643
ssVrenderLayerInfo.renderLayerColor
p1644
(dp1645
g55
VrenderLayerInfo
p1646
ssVworldSpace[0]
p1647
(dp1648
g3
I00
sg23
I00
sg24
VnurbsCurve
p1649
sg26
I00
sg4
(lp1650
ssg1137
(dp1651
g3
I00
sg23
I00
sg24
VcomponentList
p1652
sg26
I00
sg4
(lp1653
ssVcastsShadows
p1654
(dp1655
g3
I00
sg24
Vbool
p1656
sg23
I00
sg75
I00
sg26
I01
sg4
(lp1657
ssVisHierarchicalConnection[0]
p1658
(dp1659
g3
I00
sg4
(lp1660
ssVrenderVolume
p1661
(dp1662
g3
I00
sg24
Vbool
p1663
sg23
I00
sg75
I00
sg26
I01
sg4
(lp1664
ssg809
(dp1665
g3
I00
sg24
Vlong
p1666
sg23
I00
sg75
I00
sg26
I01
sg4
(lp1667
ssg523
(dp1668
g3
I00
sg24
Vdouble
p1669
sg23
I00
sg75
I00
sg26
I01
sg4
(lp1670
ssg470
(dp1671
g3
I00
sg23
I00
sg24
VcomponentList
p1672
sg26
I00
sg4
(lp1673
ssVinstObjGroups[0].objectGroups[5]
p1674
(dp1675
g3
I00
sg23
I00
sg24
VTdataCompound
p1676
sg26
I00
sg4
(lp1677
g341
ag1620
ag1303
assg1231
(dp1678
g3
I00
sg4
(lp1679
ssg1504
(dp1680
g3
I00
sg4
(lp1681
ssg1063
(dp1682
g3
I00
sg4
(lp1683
ssVdisplayImmediate
p1684
(dp1685
g3
I00
sg24
Vbool
p1686
sg23
I00
sg75
I00
sg26
I01
sg4
(lp1687
ssVrenderLayerInfo[1]
p1688
(dp1689
g3
I00
sg4
(lp1690
g1434
ag887
ag537
assg650
(dp1691
g3
I00
sg24
Vlong
p1692
sg23
I00
sg75
I00
sg26
I01
sg4
(lp1693
ssVrenderLayerInfo
p1694
(dp1695
g3
I01
sg23
I01
sg26
I00
sg24
VTdataCompound
p1696
ssVcontrolPoints.zValue
p1697
(dp1698
g55
VcontrolPoints
p1699
ssg279
(dp1700
g3
I00
sg4
(lp1701
ssVinstObjGroups[0].objectGroups[21]
p1702
(dp1703
g3
I00
sg23
I00
sg24
VTdataCompound
p1704
sg26
I00
sg4
(lp1705
g1250
ag135
ag910
assVweights
p1706
(dp1707
g3
I01
sg23
I01
sg26
I00
sg24
VTdataCompound
p1708
ssVinstObjGroups[0].objectGroups[19]
p1709
(dp1710
g3
I00
sg23
I00
sg24
VTdataCompound
p1711
sg26
I00
sg4
(lp1712
g651
ag360
ag200
assVinverseMatrix
p1713
(dp1714
g3
I00
sg23
I00
sg24
Vmatrix
p1715
sg26
I00
sg4
(lp1716
ssVcolorSet.representation
p1717
(dp1718
g55
VcolorSet
p1719
ssVcenter.boundingBoxCenterZ
p1720
(dp1721
g55
Vcenter
p1722
sg3
I00
sg24
VdoubleLinear
p1723
sg23
I00
sg75
I00
sg26
I01
sg4
(lp1724
ssVcenter.boundingBoxCenterX
p1725
(dp1726
g55
Vcenter
p1727
sg3
I00
sg24
VdoubleLinear
p1728
sg23
I00
sg75
I00
sg26
I01
sg4
(lp1729
ssVcenter.boundingBoxCenterY
p1730
(dp1731
g55
Vcenter
p1732
sg3
I00
sg24
VdoubleLinear
p1733
sg23
I00
sg75
I00
sg26
I01
sg4
(lp1734
ss.