(dp0
VrotateOrder
p1
(dp2
S'isArray'
p3
I00
sS'attrType'
p4
Venum
p5
sS'attrChildrenNames'
p6
(lp7
sS'isMulti'
p8
I00
sS'isCompound'
p9
I00
sS'isSimple'
p10
I01
sS'attrChildrenLongNames'
p11
(lp12
sS'isElement'
p13
I00
ssVtarget[1].targetParentMatrix
p14
(dp15
S'isArray'
p16
I00
sS'isMulti'
p17
I00
sS'attrShortName'
p18
Vtg[1].tpm
p19
sg10
I00
sg11
(lp20
ssVtarget[0].targetTranslate.targetTranslateZ
p21
(dp22
S'isArray'
p23
I00
sS'attrParentLongName'
p24
Vtarget[0].targetTranslate
p25
sS'attrChildrenNames'
p26
(lp27
sg4
VdoubleLinear
p28
sS'isMulti'
p29
I00
sS'isCompound'
p30
I00
sg10
I01
sg18
Vtg[0].ttz
p31
sg11
(lp32
sS'isElement'
p33
I00
ssVtarget[0].targetTranslate.targetTranslateY
p34
(dp35
S'isArray'
p36
I00
sS'attrParentLongName'
p37
Vtarget[0].targetTranslate
p38
sS'attrChildrenNames'
p39
(lp40
sg4
VdoubleLinear
p41
sS'isMulti'
p42
I00
sS'isCompound'
p43
I00
sg10
I01
sg18
Vtg[0].tty
p44
sg11
(lp45
sS'isElement'
p46
I00
ssVtarget[0].targetTranslate.targetTranslateX
p47
(dp48
S'isArray'
p49
I00
sS'attrParentLongName'
p50
Vtarget[0].targetTranslate
p51
sS'attrChildrenNames'
p52
(lp53
sg4
VdoubleLinear
p54
sS'isMulti'
p55
I00
sS'isCompound'
p56
I00
sg10
I01
sg18
Vtg[0].ttx
p57
sg11
(lp58
sS'isElement'
p59
I00
ssVminTransLimitEnable.minTransYLimitEnable
p60
(dp61
S'isArray'
p62
I00
sS'attrType'
p63
Vbool
p64
sS'isMulti'
p65
I00
sS'isCompound'
p66
I00
sS'isSimple'
p67
I01
sS'attrChildrenLongNames'
p68
(lp69
ssVtarget.targetOffsetTranslate
p70
(dp71
S'attrParentLongName'
p72
Vtarget
p73
ssVrenderLayerInfo.renderLayerRenderable
p74
(dp75
g72
VrenderLayerInfo
p76
ssVtarget.targetRotateTranslateZ
p77
(dp78
g72
Vtarget.targetRotateTranslate
p79
ssVtarget.targetRotateTranslateX
p80
(dp81
g72
Vtarget.targetRotateTranslate
p82
ssVtarget.targetRotateTranslateY
p83
(dp84
g72
Vtarget.targetRotateTranslate
p85
ssVtarget[4].targetOffsetTranslate.targetOffsetTranslateZ
p86
(dp87
S'isArray'
p88
I00
sS'attrChildrenLongNames'
p89
(lp90
ssVtarget[4].targetOffsetTranslate.targetOffsetTranslateX
p91
(dp92
g88
I00
sg89
(lp93
ssVboundingBox.boundingBoxMin.boundingBoxMinY
p94
(dp95
S'isArray'
p96
I00
sS'attrParentLongName'
p97
VboundingBox.boundingBoxMin
p98
sS'attrChildrenNames'
p99
(lp100
sg4
VdoubleLinear
p101
sS'isMulti'
p102
I00
sS'isCompound'
p103
I00
sg10
I01
sg11
(lp104
sS'isElement'
p105
I00
ssVboundingBox.boundingBoxMin.boundingBoxMinX
p106
(dp107
S'isArray'
p108
I00
sS'attrParentLongName'
p109
VboundingBox.boundingBoxMin
p110
sS'attrChildrenNames'
p111
(lp112
sg4
VdoubleLinear
p113
sS'isMulti'
p114
I00
sS'isCompound'
p115
I00
sg10
I01
sg11
(lp116
sS'isElement'
p117
I00
ssVboundingBox.boundingBoxMin.boundingBoxMinZ
p118
(dp119
S'isArray'
p120
I00
sS'attrParentLongName'
p121
VboundingBox.boundingBoxMin
p122
sS'attrChildrenNames'
p123
(lp124
sg4
VdoubleLinear
p125
sS'isMulti'
p126
I00
sS'isCompound'
p127
I00
sg10
I01
sg11
(lp128
sS'isElement'
p129
I00
ssVminRotLimitEnable.minRotYLimitEnable
p130
(dp131
g62
I00
sg63
Vbool
p132
sg65
I00
sg66
I00
sg67
I01
sg68
(lp133
ssVselectHandle
p134
(dp135
S'isArray'
p136
I00
sg4
Vdouble3
p137
sS'attrChildrenNames'
p138
(lp139
VselectHandle.selectHandleX
p140
aVselectHandle.selectHandleY
p141
aVselectHandle.selectHandleZ
p142
asS'isMulti'
p143
I00
sS'isCompound'
p144
I01
sg10
I01
sg11
(lp145
VselectHandle.selectHandleX
p146
aVselectHandle.selectHandleY
p147
aVselectHandle.selectHandleZ
p148
asS'isElement'
p149
I00
ssVtarget[0].targetRotateCached.targetRotateCachedY
p150
(dp151
S'isArray'
p152
I00
sS'attrParentLongName'
p153
Vtarget[0].targetRotateCached
p154
sS'attrChildrenNames'
p155
(lp156
sg4
VdoubleAngle
p157
sS'isMulti'
p158
I00
sS'isCompound'
p159
I00
sg10
I01
sg18
Vtg[0].ctry
p160
sg11
(lp161
sS'isElement'
p162
I00
ssVtarget[0].targetRotateCached.targetRotateCachedX
p163
(dp164
S'isArray'
p165
I00
sS'attrParentLongName'
p166
Vtarget[0].targetRotateCached
p167
sS'attrChildrenNames'
p168
(lp169
sg4
VdoubleAngle
p170
sS'isMulti'
p171
I00
sS'isCompound'
p172
I00
sg10
I01
sg18
Vtg[0].ctrx
p173
sg11
(lp174
sS'isElement'
p175
I00
ssVtarget[0].targetRotateCached.targetRotateCachedZ
p176
(dp177
S'isArray'
p178
I00
sS'attrParentLongName'
p179
Vtarget[0].targetRotateCached
p180
sS'attrChildrenNames'
p181
(lp182
sg4
VdoubleAngle
p183
sS'isMulti'
p184
I00
sS'isCompound'
p185
I00
sg10
I01
sg18
Vtg[0].ctrz
p186
sg11
(lp187
sS'isElement'
p188
I00
ssVrotateQuaternion.rotateQuaternionZ
p189
(dp190
S'isArray'
p191
I00
sS'attrParentLongName'
p192
VrotateQuaternion
p193
sS'attrChildrenNames'
p194
(lp195
sg4
Vdouble
p196
sS'isMulti'
p197
I00
sS'isCompound'
p198
I00
sg10
I01
sg11
(lp199
sS'isElement'
p200
I00
ssVrenderLayerInfo[0].renderLayerId
p201
(dp202
S'isArray'
p203
I00
sS'attrParentLongName'
p204
VrenderLayerInfo[0]
p205
sS'attrChildrenNames'
p206
(lp207
sg10
I00
sg11
(lp208
sS'isElement'
p209
I00
ssVrotateQuaternion.rotateQuaternionX
p210
(dp211
S'isArray'
p212
I00
sS'attrParentLongName'
p213
VrotateQuaternion
p214
sS'attrChildrenNames'
p215
(lp216
sg4
Vdouble
p217
sS'isMulti'
p218
I00
sS'isCompound'
p219
I00
sg10
I01
sg11
(lp220
sS'isElement'
p221
I00
ssVrotateQuaternion.rotateQuaternionY
p222
(dp223
S'isArray'
p224
I00
sS'attrParentLongName'
p225
VrotateQuaternion
p226
sS'attrChildrenNames'
p227
(lp228
sg4
Vdouble
p229
sS'isMulti'
p230
I00
sS'isCompound'
p231
I00
sg10
I01
sg11
(lp232
sS'isElement'
p233
I00
ssVtarget.targetRotateCachedY
p234
(dp235
g72
Vtarget.targetRotateCached
p236
ssVminScaleLimit.minScaleXLimit
p237
(dp238
g62
I00
sg63
Vdouble
p239
sg65
I00
sg66
I00
sg67
I01
sg68
(lp240
ssVrotateQuaternion.rotateQuaternionW
p241
(dp242
S'isArray'
p243
I00
sS'attrParentLongName'
p244
VrotateQuaternion
p245
sS'attrChildrenNames'
p246
(lp247
sg4
Vdouble
p248
sS'isMulti'
p249
I00
sS'isCompound'
p250
I00
sg10
I01
sg11
(lp251
sS'isElement'
p252
I00
ssVtarget[4].targetOffsetTranslate
p253
(dp254
g88
I00
sg89
(lp255
g91
aVtarget[4].targetOffsetTranslate.targetOffsetTranslateY
p256
ag86
assVtemplatePath
p257
(dp258
S'isArray'
p259
I00
sg4
Vstring
p260
sS'attrChildrenNames'
p261
(lp262
sS'isMulti'
p263
I00
sS'isCompound'
p264
I00
sg10
I01
sg11
(lp265
sS'isElement'
p266
I00
ssVminTransLimit
p267
(dp268
g62
I00
sg63
Vdouble3
p269
sg65
I00
sg66
I01
sg67
I01
sg68
(lp270
VminTransLimit.minTransXLimit
p271
aVminTransLimit.minTransYLimit
p272
aVminTransLimit.minTransZLimit
p273
assVminRotLimit
p274
(dp275
g62
I00
sg63
Vdouble3
p276
sg65
I00
sg66
I01
sg67
I01
sg68
(lp277
VminRotLimit.minRotXLimit
p278
aVminRotLimit.minRotYLimit
p279
aVminRotLimit.minRotZLimit
p280
assVconstraintRotate
p281
(dp282
S'isArray'
p283
I00
sg4
Vdouble3
p284
sS'attrChildrenNames'
p285
(lp286
VconstraintRotate.constraintRotateX
p287
aVconstraintRotate.constraintRotateY
p288
aVconstraintRotate.constraintRotateZ
p289
asS'isMulti'
p290
I00
sS'isCompound'
p291
I01
sg10
I01
sg18
Vcr
p292
sg11
(lp293
VconstraintRotate.constraintRotateX
p294
aVconstraintRotate.constraintRotateY
p295
aVconstraintRotate.constraintRotateZ
p296
asS'isElement'
p297
I00
ssVmaxTransLimitEnable.maxTransYLimitEnable
p298
(dp299
g62
I00
sg63
Vbool
p300
sg65
I00
sg66
I00
sg67
I01
sg68
(lp301
ssVlockOutput
p302
(dp303
S'isArray'
p304
I00
sg4
Vbool
p305
sS'attrChildrenNames'
p306
(lp307
sS'isMulti'
p308
I00
sS'isCompound'
p309
I00
sg10
I01
sg11
(lp310
sS'isElement'
p311
I00
ssVconstraintParentInverseMatrix
p312
(dp313
S'isArray'
p314
I00
sg4
Vmatrix
p315
sS'attrChildrenNames'
p316
(lp317
sS'isMulti'
p318
I00
sS'isCompound'
p319
I00
sg10
I00
sg18
Vcpim
p320
sg11
(lp321
sS'isElement'
p322
I00
ssVmaxScaleLimitEnable.maxScaleYLimitEnable
p323
(dp324
g62
I00
sg63
Vbool
p325
sg65
I00
sg66
I00
sg67
I01
sg68
(lp326
ssVtarget.targetScale
p327
(dp328
S'attrParentLongName'
p329
Vtarget
p330
ssVparentMatrix[0]
p331
(dp332
g16
I00
sg10
I00
sg11
(lp333
ssVtarget.targetScaleX
p334
(dp335
g72
Vtarget.targetScale
p336
ssVtarget.targetScaleZ
p337
(dp338
g72
Vtarget.targetScale
p339
ssVinstObjGroups[0].objectGroups[0]
p340
(dp341
g16
I00
sg10
I00
sg11
(lp342
VinstObjGroups[0].objectGroups[0].objectGrpCompList
p343
aVinstObjGroups[0].objectGroups[0].objectGroupId
p344
aVinstObjGroups[0].objectGroups[0].objectGrpColor
p345
assVconstraintTranslate
p346
(dp347
S'isArray'
p348
I00
sg4
Vdouble3
p349
sS'attrChildrenNames'
p350
(lp351
VconstraintTranslate.constraintTranslateX
p352
aVconstraintTranslate.constraintTranslateY
p353
aVconstraintTranslate.constraintTranslateZ
p354
asS'isMulti'
p355
I00
sS'isCompound'
p356
I01
sg10
I01
sg18
Vct
p357
sg11
(lp358
VconstraintTranslate.constraintTranslateX
p359
aVconstraintTranslate.constraintTranslateY
p360
aVconstraintTranslate.constraintTranslateZ
p361
asS'isElement'
p362
I00
ssVdynamics
p363
(dp364
S'isArray'
p365
I00
sg4
Vbool
p366
sS'attrChildrenNames'
p367
(lp368
sS'isMulti'
p369
I00
sS'isCompound'
p370
I00
sg10
I01
sg11
(lp371
sS'isElement'
p372
I00
ssVmaxTransLimit.maxTransZLimit
p373
(dp374
g62
I00
sg63
VdoubleLinear
p375
sg65
I00
sg66
I00
sg67
I01
sg68
(lp376
ssVrotatePivot
p377
(dp378
S'isArray'
p379
I00
sg4
Vdouble3
p380
sS'attrChildrenNames'
p381
(lp382
VrotatePivot.rotatePivotX
p383
aVrotatePivot.rotatePivotY
p384
aVrotatePivot.rotatePivotZ
p385
asS'isMulti'
p386
I00
sS'isCompound'
p387
I01
sg10
I01
sg11
(lp388
VrotatePivot.rotatePivotX
p389
aVrotatePivot.rotatePivotY
p390
aVrotatePivot.rotatePivotZ
p391
asS'isElement'
p392
I00
ssVtarget[5].targetRotateOrder
p393
(dp394
g88
I00
sg89
(lp395
ssVtarget[2].targetRotate
p396
(dp397
g16
I00
sS'isMulti'
p398
I00
sg18
Vtg[2].tr
p399
sg10
I00
sg11
(lp400
Vtarget[2].targetRotate.targetRotateX
p401
aVtarget[2].targetRotate.targetRotateY
p402
aVtarget[2].targetRotate.targetRotateZ
p403
assVtemplate
p404
(dp405
S'isArray'
p406
I00
sg4
Vbool
p407
sS'attrChildrenNames'
p408
(lp409
sS'isMulti'
p410
I00
sS'isCompound'
p411
I00
sg10
I01
sg11
(lp412
sS'isElement'
p413
I00
ssVtarget[2]
p414
(dp415
g16
I00
sg398
I00
sg18
Vtg[2]
p416
sg10
I00
sg11
(lp417
Vtarget[2].targetParentMatrix
p418
aVtarget[2].targetWeight
p419
aVtarget[2].targetRotateCached
p420
aVtarget[2].targetTranslate
p421
aVtarget[2].targetRotatePivot
p422
aVtarget[2].targetRotateTranslate
p423
aVtarget[2].targetOffsetTranslate
p424
aVtarget[2].targetRotate
p425
aVtarget[2].targetRotateOrder
p426
aVtarget[2].targetJointOrient
p427
aVtarget[2].targetOffsetRotate
p428
aVtarget[2].targetScale
p429
assVparentInverseMatrix[1]
p430
(dp431
g16
I00
sg10
I00
sg11
(lp432
ssVtarget[3].targetOffsetRotate.targetOffsetRotateX
p433
(dp434
g62
I00
sg398
I00
sg67
I00
sg68
(lp435
ssVtarget[3].targetOffsetRotate.targetOffsetRotateY
p436
(dp437
g62
I00
sg398
I00
sg67
I00
sg68
(lp438
ssVtarget[3].targetOffsetRotate.targetOffsetRotateZ
p439
(dp440
g62
I00
sg398
I00
sg67
I00
sg68
(lp441
ssVminTransLimit.minTransXLimit
p442
(dp443
g62
I00
sg63
VdoubleLinear
p444
sg65
I00
sg66
I00
sg67
I01
sg68
(lp445
ssVdisplayScalePivot
p446
(dp447
S'isArray'
p448
I00
sg4
Vbool
p449
sS'attrChildrenNames'
p450
(lp451
sS'isMulti'
p452
I00
sS'isCompound'
p453
I00
sg10
I01
sg11
(lp454
sS'isElement'
p455
I00
ssVtarget[0].targetRotateTranslate
p456
(dp457
S'isArray'
p458
I00
sS'attrParentLongName'
p459
Vtarget[0]
p460
sS'attrChildrenNames'
p461
(lp462
Vtarget[0].targetRotateTranslate.targetRotateTranslateX
p463
aVtarget[0].targetRotateTranslate.targetRotateTranslateY
p464
aVtarget[0].targetRotateTranslate.targetRotateTranslateZ
p465
asg4
Vdouble3
p466
sS'isMulti'
p467
I00
sS'isCompound'
p468
I01
sg10
I01
sg18
Vtg[0].trt
p469
sg11
(lp470
Vtarget[0].targetRotateTranslate.targetRotateTranslateX
p471
aVtarget[0].targetRotateTranslate.targetRotateTranslateY
p472
aVtarget[0].targetRotateTranslate.targetRotateTranslateZ
p473
asS'isElement'
p474
I00
ssVmentalRayControls.miHide
p475
(dp476
S'isArray'
p477
I00
sS'attrParentLongName'
p478
VmentalRayControls
p479
sS'attrChildrenNames'
p480
(lp481
sg4
Vbool
p482
sS'isMulti'
p483
I00
sS'isCompound'
p484
I00
sg10
I01
sg11
(lp485
sS'isElement'
p486
I00
ssVinstObjGroups.objectGroups
p487
(dp488
g72
VinstObjGroups
p489
ssVpublishedNodeInfo
p490
(dp491
S'isArray'
p492
I01
sS'isElement'
p493
I00
sS'isMulti'
p494
I01
sg10
I00
sg4
VTdataCompound
p495
ssVdrawOverride.overrideTexturing
p496
(dp497
S'isArray'
p498
I00
sS'attrParentLongName'
p499
VdrawOverride
p500
sS'attrChildrenNames'
p501
(lp502
sg4
Vbool
p503
sS'isMulti'
p504
I00
sS'isCompound'
p505
I00
sg10
I01
sg11
(lp506
sS'isElement'
p507
I00
ssVtarget[2].targetParentMatrix
p508
(dp509
g16
I00
sg398
I00
sg18
Vtg[2].tpm
p510
sg10
I00
sg11
(lp511
ssVconstraintTranslate.constraintTranslateZ
p512
(dp513
S'isArray'
p514
I00
sS'attrParentLongName'
p515
VconstraintTranslate
p516
sS'attrChildrenNames'
p517
(lp518
sg4
VdoubleLinear
p519
sS'isMulti'
p520
I00
sS'isCompound'
p521
I00
sg10
I01
sg18
Vctz
p522
sg11
(lp523
sS'isElement'
p524
I00
ssVconstraintRotatePivot
p525
(dp526
S'isArray'
p527
I00
sg4
Vdouble3
p528
sS'attrChildrenNames'
p529
(lp530
VconstraintRotatePivot.constraintRotatePivotX
p531
aVconstraintRotatePivot.constraintRotatePivotY
p532
aVconstraintRotatePivot.constraintRotatePivotZ
p533
asS'isMulti'
p534
I00
sS'isCompound'
p535
I01
sg10
I01
sg18
Vcrp
p536
sg11
(lp537
VconstraintRotatePivot.constraintRotatePivotX
p538
aVconstraintRotatePivot.constraintRotatePivotY
p539
aVconstraintRotatePivot.constraintRotatePivotZ
p540
asS'isElement'
p541
I00
ssVconstraintTranslate.constraintTranslateX
p542
(dp543
S'isArray'
p544
I00
sS'attrParentLongName'
p545
VconstraintTranslate
p546
sS'attrChildrenNames'
p547
(lp548
sg4
VdoubleLinear
p549
sS'isMulti'
p550
I00
sS'isCompound'
p551
I00
sg10
I01
sg18
Vctx
p552
sg11
(lp553
sS'isElement'
p554
I00
ssVconstraintTranslate.constraintTranslateY
p555
(dp556
S'isArray'
p557
I00
sS'attrParentLongName'
p558
VconstraintTranslate
p559
sS'attrChildrenNames'
p560
(lp561
sg4
VdoubleLinear
p562
sS'isMulti'
p563
I00
sS'isCompound'
p564
I00
sg10
I01
sg18
Vcty
p565
sg11
(lp566
sS'isElement'
p567
I00
ssVtarget[4].targetScale
p568
(dp569
g88
I00
sg89
(lp570
Vtarget[4].targetScale.targetScaleX
p571
aVtarget[4].targetScale.targetScaleY
p572
aVtarget[4].targetScale.targetScaleZ
p573
assVtarget.targetOffsetRotate
p574
(dp575
g72
Vtarget
p576
ssVdisplayHandle
p577
(dp578
S'isArray'
p579
I00
sg4
Vbool
p580
sS'attrChildrenNames'
p581
(lp582
sS'isMulti'
p583
I00
sS'isCompound'
p584
I00
sg10
I01
sg11
(lp585
sS'isElement'
p586
I00
ssVselectionChildHighlighting
p587
(dp588
S'isArray'
p589
I00
sS'attrType'
p590
Vbool
p591
sS'isSimple'
p592
I01
sS'attrChildrenLongNames'
p593
(lp594
ssVtarget.targetOffsetRotateZ
p595
(dp596
g72
Vtarget.targetOffsetRotate
p597
ssVtarget.targetOffsetRotateX
p598
(dp599
g72
Vtarget.targetOffsetRotate
p600
ssVtarget.targetOffsetRotateY
p601
(dp602
g72
Vtarget.targetOffsetRotate
p603
ssVtarget.targetRotateTranslate
p604
(dp605
g329
Vtarget
p606
ssVrotateQuaternion
p607
(dp608
S'isArray'
p609
I00
sg4
Vdouble4
p610
sS'attrChildrenNames'
p611
(lp612
VrotateQuaternion.rotateQuaternionX
p613
aVrotateQuaternion.rotateQuaternionY
p614
aVrotateQuaternion.rotateQuaternionZ
p615
aVrotateQuaternion.rotateQuaternionW
p616
asS'isMulti'
p617
I00
sS'isCompound'
p618
I01
sg10
I00
sg11
(lp619
VrotateQuaternion.rotateQuaternionX
p620
aVrotateQuaternion.rotateQuaternionY
p621
aVrotateQuaternion.rotateQuaternionZ
p622
aVrotateQuaternion.rotateQuaternionW
p623
asS'isElement'
p624
I00
ssVtransMinusRotatePivot.transMinusRotatePivotZ
p625
(dp626
S'isArray'
p627
I00
sS'attrParentLongName'
p628
VtransMinusRotatePivot
p629
sS'attrChildrenNames'
p630
(lp631
sg4
VdoubleLinear
p632
sS'isMulti'
p633
I00
sS'isCompound'
p634
I00
sg10
I01
sg11
(lp635
sS'isElement'
p636
I00
ssVtransMinusRotatePivot.transMinusRotatePivotX
p637
(dp638
S'isArray'
p639
I00
sS'attrParentLongName'
p640
VtransMinusRotatePivot
p641
sS'attrChildrenNames'
p642
(lp643
sg4
VdoubleLinear
p644
sS'isMulti'
p645
I00
sS'isCompound'
p646
I00
sg10
I01
sg11
(lp647
sS'isElement'
p648
I00
ssVtransMinusRotatePivot.transMinusRotatePivotY
p649
(dp650
S'isArray'
p651
I00
sS'attrParentLongName'
p652
VtransMinusRotatePivot
p653
sS'attrChildrenNames'
p654
(lp655
sg4
VdoubleLinear
p656
sS'isMulti'
p657
I00
sS'isCompound'
p658
I00
sg10
I01
sg11
(lp659
sS'isElement'
p660
I00
ssVrotationInterpolation
p661
(dp662
S'isArray'
p663
I00
sg4
Venum
p664
sS'attrChildrenNames'
p665
(lp666
sS'isMulti'
p667
I00
sS'isCompound'
p668
I00
sg10
I01
sg11
(lp669
sS'isElement'
p670
I00
ssVminScaleLimit.minScaleYLimit
p671
(dp672
g62
I00
sg63
Vdouble
p673
sg65
I00
sg66
I00
sg67
I01
sg68
(lp674
ssVinstObjGroups[2].objectGroups
p675
(dp676
S'isArray'
p677
I01
sS'isSimple'
p678
I00
ssVtarget.targetTranslateY
p679
(dp680
g72
Vtarget.targetTranslate
p681
ssVtarget.targetTranslateX
p682
(dp683
g72
Vtarget.targetTranslate
p684
ssVtarget.targetTranslateZ
p685
(dp686
g72
Vtarget.targetTranslate
p687
ssVtarget[0].targetOffsetRotate.targetOffsetRotateZ
p688
(dp689
S'isArray'
p690
I00
sS'attrParentLongName'
p691
Vtarget[0].targetOffsetRotate
p692
sS'attrChildrenNames'
p693
(lp694
sg4
VdoubleAngle
p695
sS'isMulti'
p696
I00
sS'isCompound'
p697
I00
sg10
I01
sg18
Vtg[0].torz
p698
sg11
(lp699
sS'isElement'
p700
I00
ssVtarget[0].targetOffsetRotate.targetOffsetRotateY
p701
(dp702
S'isArray'
p703
I00
sS'attrParentLongName'
p704
Vtarget[0].targetOffsetRotate
p705
sS'attrChildrenNames'
p706
(lp707
sg4
VdoubleAngle
p708
sS'isMulti'
p709
I00
sS'isCompound'
p710
I00
sg10
I01
sg18
Vtg[0].tory
p711
sg11
(lp712
sS'isElement'
p713
I00
ssVtarget[0].targetOffsetRotate.targetOffsetRotateX
p714
(dp715
S'isArray'
p716
I00
sS'attrParentLongName'
p717
Vtarget[0].targetOffsetRotate
p718
sS'attrChildrenNames'
p719
(lp720
sg4
VdoubleAngle
p721
sS'isMulti'
p722
I00
sS'isCompound'
p723
I00
sg10
I01
sg18
Vtg[0].torx
p724
sg11
(lp725
sS'isElement'
p726
I00
ssVtarget[1].targetRotateTranslate.targetRotateTranslateY
p727
(dp728
g16
I00
sg17
I00
sg18
Vtg[1].trty
p729
sg10
I00
sg11
(lp730
ssVshear.shearXZ
p731
(dp732
S'isArray'
p733
I00
sS'attrParentLongName'
p734
Vshear
p735
sS'attrChildrenNames'
p736
(lp737
sg4
Vdouble
p738
sS'isMulti'
p739
I00
sS'isCompound'
p740
I00
sg10
I01
sg11
(lp741
sS'isElement'
p742
I00
ssVshear.shearXY
p743
(dp744
S'isArray'
p745
I00
sS'attrParentLongName'
p746
Vshear
p747
sS'attrChildrenNames'
p748
(lp749
sg4
Vdouble
p750
sS'isMulti'
p751
I00
sS'isCompound'
p752
I00
sg10
I01
sg11
(lp753
sS'isElement'
p754
I00
ssVtarget[4].targetJointOrient.targetJointOrientZ
p755
(dp756
g88
I00
sg89
(lp757
ssVvisibility
p758
(dp759
S'isArray'
p760
I00
sg4
Vbool
p761
sS'attrChildrenNames'
p762
(lp763
sS'isMulti'
p764
I00
sS'isCompound'
p765
I00
sg10
I01
sg11
(lp766
sS'isElement'
p767
I00
ssVtarget[4].targetJointOrient.targetJointOrientX
p768
(dp769
g88
I00
sg89
(lp770
ssVenableRestPosition
p771
(dp772
S'isArray'
p773
I00
sg4
Vbool
p774
sS'attrChildrenNames'
p775
(lp776
sS'isMulti'
p777
I00
sS'isCompound'
p778
I00
sg10
I01
sg11
(lp779
sS'isElement'
p780
I00
ssVlastTargetRotate.lastTargetRotateX
p781
(dp782
S'isArray'
p783
I00
sS'attrParentLongName'
p784
VlastTargetRotate
p785
sS'attrChildrenNames'
p786
(lp787
sg4
VdoubleAngle
p788
sS'isMulti'
p789
I00
sS'isCompound'
p790
I00
sg10
I01
sg18
Vlrx
p791
sg11
(lp792
sS'isElement'
p793
I00
ssVlastTargetRotate.lastTargetRotateY
p794
(dp795
S'isArray'
p796
I00
sS'attrParentLongName'
p797
VlastTargetRotate
p798
sS'attrChildrenNames'
p799
(lp800
sg4
VdoubleAngle
p801
sS'isMulti'
p802
I00
sS'isCompound'
p803
I00
sg10
I01
sg18
Vlry
p804
sg11
(lp805
sS'isElement'
p806
I00
ssVlastTargetRotate.lastTargetRotateZ
p807
(dp808
S'isArray'
p809
I00
sS'attrParentLongName'
p810
VlastTargetRotate
p811
sS'attrChildrenNames'
p812
(lp813
sg4
VdoubleAngle
p814
sS'isMulti'
p815
I00
sS'isCompound'
p816
I00
sg10
I01
sg18
Vlrz
p817
sg11
(lp818
sS'isElement'
p819
I00
ssVtarget.targetJointOrient
p820
(dp821
S'attrParentLongName'
p822
Vtarget
p823
ssVinterpType
p824
(dp825
S'isArray'
p826
I00
sg4
Venum
p827
sS'attrChildrenNames'
p828
(lp829
sS'isMulti'
p830
I00
sS'isCompound'
p831
I00
sg10
I01
sg11
(lp832
sS'isElement'
p833
I00
ssVlastTargetRotate
p834
(dp835
S'isArray'
p836
I00
sg4
Vdouble3
p837
sS'attrChildrenNames'
p838
(lp839
VlastTargetRotate.lastTargetRotateX
p840
aVlastTargetRotate.lastTargetRotateY
p841
aVlastTargetRotate.lastTargetRotateZ
p842
asS'isMulti'
p843
I00
sS'isCompound'
p844
I01
sg10
I01
sg18
Vlr
p845
sg11
(lp846
VlastTargetRotate.lastTargetRotateX
p847
aVlastTargetRotate.lastTargetRotateY
p848
aVlastTargetRotate.lastTargetRotateZ
p849
asS'isElement'
p850
I00
ssVrenderInfo.layerOverrideColor
p851
(dp852
S'isArray'
p853
I00
sS'attrParentLongName'
p854
VrenderInfo
p855
sS'attrChildrenNames'
p856
(lp857
sg4
Vbyte
p858
sS'isMulti'
p859
I00
sS'isCompound'
p860
I00
sg10
I00
sg11
(lp861
sS'isElement'
p862
I00
ssVdisplayRotatePivot
p863
(dp864
S'isArray'
p865
I00
sg4
Vbool
p866
sS'attrChildrenNames'
p867
(lp868
sS'isMulti'
p869
I00
sS'isCompound'
p870
I00
sg10
I01
sg11
(lp871
sS'isElement'
p872
I00
ssVmaxTransLimitEnable.maxTransXLimitEnable
p873
(dp874
g62
I00
sg63
Vbool
p875
sg65
I00
sg66
I00
sg67
I01
sg68
(lp876
ssVinstObjGroups[0]
p877
(dp878
g16
I00
sg10
I00
sg11
(lp879
VinstObjGroups[0].objectGroups
p880
assVtarget[4].targetJointOrient
p881
(dp882
g88
I00
sg89
(lp883
g768
aVtarget[4].targetJointOrient.targetJointOrientY
p884
ag755
assVmentalRayControls.miCaustic
p885
(dp886
S'isArray'
p887
I00
sS'attrParentLongName'
p888
VmentalRayControls
p889
sS'attrChildrenNames'
p890
(lp891
sg4
Venum
p892
sS'isMulti'
p893
I00
sS'isCompound'
p894
I00
sg10
I01
sg11
(lp895
sS'isElement'
p896
I00
ssVtarget[4].targetRotatePivot.targetRotatePivotZ
p897
(dp898
g88
I00
sg89
(lp899
ssVtarget[4].targetRotatePivot.targetRotatePivotY
p900
(dp901
g88
I00
sg89
(lp902
ssVtarget[4].targetRotatePivot.targetRotatePivotX
p903
(dp904
g88
I00
sg89
(lp905
ssVpublishedNodeInfo[0].isHierarchicalNode
p906
(dp907
S'isArray'
p908
I00
sS'attrParentLongName'
p909
VpublishedNodeInfo[0]
p910
sS'attrChildrenNames'
p911
(lp912
sg10
I00
sg11
(lp913
sS'isElement'
p914
I00
ssVmaxRotLimitEnable.maxRotYLimitEnable
p915
(dp916
g62
I00
sg63
Vbool
p917
sg65
I00
sg66
I00
sg67
I01
sg68
(lp918
ssVtarget[1].targetRotateCached.targetRotateCachedX
p919
(dp920
g16
I00
sg17
I00
sg18
Vtg[1].ctrx
p921
sg10
I00
sg11
(lp922
ssVtarget[1].targetRotateCached.targetRotateCachedY
p923
(dp924
g16
I00
sg17
I00
sg18
Vtg[1].ctry
p925
sg10
I00
sg11
(lp926
ssVtarget[1].targetRotateCached.targetRotateCachedZ
p927
(dp928
g16
I00
sg17
I00
sg18
Vtg[1].ctrz
p929
sg10
I00
sg11
(lp930
ssVboundingBox.boundingBoxSize.boundingBoxSizeY
p931
(dp932
S'isArray'
p933
I00
sS'attrParentLongName'
p934
VboundingBox.boundingBoxSize
p935
sS'attrChildrenNames'
p936
(lp937
sg4
VdoubleLinear
p938
sS'isMulti'
p939
I00
sS'isCompound'
p940
I00
sg10
I01
sg11
(lp941
sS'isElement'
p942
I00
ssVboundingBox.boundingBoxSize.boundingBoxSizeX
p943
(dp944
S'isArray'
p945
I00
sS'attrParentLongName'
p946
VboundingBox.boundingBoxSize
p947
sS'attrChildrenNames'
p948
(lp949
sg4
VdoubleLinear
p950
sS'isMulti'
p951
I00
sS'isCompound'
p952
I00
sg10
I01
sg11
(lp953
sS'isElement'
p954
I00
ssVmentalRayControls.miExportGeoShader
p955
(dp956
S'isArray'
p957
I00
sS'attrParentLongName'
p958
VmentalRayControls
p959
sS'attrChildrenNames'
p960
(lp961
sg4
Vbool
p962
sS'isMulti'
p963
I00
sS'isCompound'
p964
I00
sg10
I01
sg11
(lp965
sS'isElement'
p966
I00
ssVboundingBox.boundingBoxSize.boundingBoxSizeZ
p967
(dp968
S'isArray'
p969
I00
sS'attrParentLongName'
p970
VboundingBox.boundingBoxSize
p971
sS'attrChildrenNames'
p972
(lp973
sg4
VdoubleLinear
p974
sS'isMulti'
p975
I00
sS'isCompound'
p976
I00
sg10
I01
sg11
(lp977
sS'isElement'
p978
I00
ssVtemplateName
p979
(dp980
S'isArray'
p981
I00
sg4
Vstring
p982
sS'attrChildrenNames'
p983
(lp984
sS'isMulti'
p985
I00
sS'isCompound'
p986
I00
sg10
I01
sg11
(lp987
sS'isElement'
p988
I00
ssVtarget[3].targetRotate.targetRotateZ
p989
(dp990
g62
I00
sg398
I00
sg67
I00
sg68
(lp991
ssVghostingControl
p992
(dp993
S'isArray'
p994
I00
sg4
Venum
p995
sS'attrChildrenNames'
p996
(lp997
sS'isMulti'
p998
I00
sS'isCompound'
p999
I00
sg10
I01
sg11
(lp1000
sS'isElement'
p1001
I00
ssVtarget[3].targetRotate.targetRotateX
p1002
(dp1003
g62
I00
sg398
I00
sg67
I00
sg68
(lp1004
ssVtarget[3].targetRotate.targetRotateY
p1005
(dp1006
g62
I00
sg398
I00
sg67
I00
sg68
(lp1007
ssVtarget[0].targetScale.targetScaleZ
p1008
(dp1009
S'isArray'
p1010
I00
sS'attrParentLongName'
p1011
Vtarget[0].targetScale
p1012
sS'attrChildrenNames'
p1013
(lp1014
sg4
Vdouble
p1015
sS'isMulti'
p1016
I00
sS'isCompound'
p1017
I00
sg10
I01
sg18
Vtg[0].tsz
p1018
sg11
(lp1019
sS'isElement'
p1020
I00
ssVtarget[0].targetScale.targetScaleY
p1021
(dp1022
S'isArray'
p1023
I00
sS'attrParentLongName'
p1024
Vtarget[0].targetScale
p1025
sS'attrChildrenNames'
p1026
(lp1027
sg4
Vdouble
p1028
sS'isMulti'
p1029
I00
sS'isCompound'
p1030
I00
sg10
I01
sg18
Vtg[0].tsy
p1031
sg11
(lp1032
sS'isElement'
p1033
I00
ssVtarget[0].targetScale.targetScaleX
p1034
(dp1035
S'isArray'
p1036
I00
sS'attrParentLongName'
p1037
Vtarget[0].targetScale
p1038
sS'attrChildrenNames'
p1039
(lp1040
sg4
Vdouble
p1041
sS'isMulti'
p1042
I00
sS'isCompound'
p1043
I00
sg10
I01
sg18
Vtg[0].tsx
p1044
sg11
(lp1045
sS'isElement'
p1046
I00
ssVtarget[1].targetTranslate.targetTranslateZ
p1047
(dp1048
g16
I00
sg17
I00
sg18
Vtg[1].ttz
p1049
sg10
I00
sg11
(lp1050
ssVminScaleLimitEnable
p1051
(dp1052
g62
I00
sg63
VTdataCompound
p1053
sg65
I00
sg67
I00
sg68
(lp1054
VminScaleLimitEnable.minScaleXLimitEnable
p1055
aVminScaleLimitEnable.minScaleYLimitEnable
p1056
aVminScaleLimitEnable.minScaleZLimitEnable
p1057
assVmentalRayControls.miDeriveFromMaya
p1058
(dp1059
S'isArray'
p1060
I00
sS'attrParentLongName'
p1061
VmentalRayControls
p1062
sS'attrChildrenNames'
p1063
(lp1064
sg4
Vbool
p1065
sS'isMulti'
p1066
I00
sS'isCompound'
p1067
I00
sg10
I01
sg11
(lp1068
sS'isElement'
p1069
I00
ssVtarget.targetRotateOrder
p1070
(dp1071
g329
Vtarget
p1072
ssVdrawOverride.overrideDisplayType
p1073
(dp1074
S'isArray'
p1075
I00
sS'attrParentLongName'
p1076
VdrawOverride
p1077
sS'attrChildrenNames'
p1078
(lp1079
sg4
Venum
p1080
sS'isMulti'
p1081
I00
sS'isCompound'
p1082
I00
sg10
I01
sg11
(lp1083
sS'isElement'
p1084
I00
ssVtarget[2].targetWeight
p1085
(dp1086
g16
I00
sg398
I00
sg18
Vtg[2].tw
p1087
sg10
I00
sg11
(lp1088
ssVnodeState
p1089
(dp1090
S'isArray'
p1091
I00
sg4
Venum
p1092
sS'attrChildrenNames'
p1093
(lp1094
sS'isMulti'
p1095
I00
sS'isCompound'
p1096
I00
sg10
I01
sg11
(lp1097
sS'isElement'
p1098
I00
ssVtarget[1].targetRotateOrder
p1099
(dp1100
g16
I00
sg17
I00
sg18
Vtg[1].tro
p1101
sg10
I00
sg11
(lp1102
ssVtarget[3].targetTranslate.targetTranslateX
p1103
(dp1104
g62
I00
sg398
I00
sg67
I00
sg68
(lp1105
ssVtarget[3].targetTranslate.targetTranslateY
p1106
(dp1107
g62
I00
sg398
I00
sg67
I00
sg68
(lp1108
ssVtarget[3].targetTranslate.targetTranslateZ
p1109
(dp1110
g62
I00
sg398
I00
sg67
I00
sg68
(lp1111
ssVtarget[5].targetOffsetTranslate
p1112
(dp1113
g88
I00
sg89
(lp1114
Vtarget[5].targetOffsetTranslate.targetOffsetTranslateX
p1115
aVtarget[5].targetOffsetTranslate.targetOffsetTranslateY
p1116
aVtarget[5].targetOffsetTranslate.targetOffsetTranslateZ
p1117
assVworldMatrix[1]
p1118
(dp1119
g16
I00
sg10
I00
sg11
(lp1120
ssVscalePivotTranslate.scalePivotTranslateZ
p1121
(dp1122
S'isArray'
p1123
I00
sS'attrParentLongName'
p1124
VscalePivotTranslate
p1125
sS'attrChildrenNames'
p1126
(lp1127
sg4
VdoubleLinear
p1128
sS'isMulti'
p1129
I00
sS'isCompound'
p1130
I00
sg10
I01
sg11
(lp1131
sS'isElement'
p1132
I00
ssVscalePivotTranslate.scalePivotTranslateX
p1133
(dp1134
S'isArray'
p1135
I00
sS'attrParentLongName'
p1136
VscalePivotTranslate
p1137
sS'attrChildrenNames'
p1138
(lp1139
sg4
VdoubleLinear
p1140
sS'isMulti'
p1141
I00
sS'isCompound'
p1142
I00
sg10
I01
sg11
(lp1143
sS'isElement'
p1144
I00
ssVscalePivotTranslate.scalePivotTranslateY
p1145
(dp1146
S'isArray'
p1147
I00
sS'attrParentLongName'
p1148
VscalePivotTranslate
p1149
sS'attrChildrenNames'
p1150
(lp1151
sg4
VdoubleLinear
p1152
sS'isMulti'
p1153
I00
sS'isCompound'
p1154
I00
sg10
I01
sg11
(lp1155
sS'isElement'
p1156
I00
ssVtarget[3].targetRotateCached
p1157
(dp1158
g62
I00
sg398
I00
sg67
I00
sg68
(lp1159
Vtarget[3].targetRotateCached.targetRotateCachedX
p1160
aVtarget[3].targetRotateCached.targetRotateCachedY
p1161
aVtarget[3].targetRotateCached.targetRotateCachedZ
p1162
assVtarget[1].targetScale.targetScaleZ
p1163
(dp1164
g16
I00
sg17
I00
sg18
Vtg[1].tsz
p1165
sg10
I00
sg11
(lp1166
ssVminTransLimitEnable
p1167
(dp1168
g62
I00
sg63
VTdataCompound
p1169
sg65
I00
sg67
I00
sg68
(lp1170
VminTransLimitEnable.minTransXLimitEnable
p1171
aVminTransLimitEnable.minTransYLimitEnable
p1172
aVminTransLimitEnable.minTransZLimitEnable
p1173
assVtarget[1].targetScale.targetScaleX
p1174
(dp1175
g16
I00
sg17
I00
sg18
Vtg[1].tsx
p1176
sg10
I00
sg11
(lp1177
ssVtarget[1].targetScale.targetScaleY
p1178
(dp1179
g16
I00
sg17
I00
sg18
Vtg[1].tsy
p1180
sg10
I00
sg11
(lp1181
ssVtarget[4].targetRotateCached
p1182
(dp1183
g88
I00
sg89
(lp1184
Vtarget[4].targetRotateCached.targetRotateCachedX
p1185
aVtarget[4].targetRotateCached.targetRotateCachedY
p1186
aVtarget[4].targetRotateCached.targetRotateCachedZ
p1187
assVghostFrames
p1188
(dp1189
S'isArray'
p1190
I00
sg4
NsS'attrChildrenNames'
p1191
(lp1192
sS'isMulti'
p1193
I00
sS'isCompound'
p1194
I00
sg10
I00
sg11
(lp1195
sS'isElement'
p1196
I00
ssVinstObjGroups[0].objectGroups[0].objectGrpColor
p1197
(dp1198
S'isArray'
p1199
I00
sS'attrParentLongName'
p1200
VinstObjGroups[0].objectGroups[0]
p1201
sS'attrChildrenNames'
p1202
(lp1203
sg10
I00
sg11
(lp1204
sS'isElement'
p1205
I00
ssVtarget[2].targetRotateCached
p1206
(dp1207
g16
I00
sg398
I00
sg18
Vtg[2].ctr
p1208
sg10
I00
sg11
(lp1209
Vtarget[2].targetRotateCached.targetRotateCachedX
p1210
aVtarget[2].targetRotateCached.targetRotateCachedY
p1211
aVtarget[2].targetRotateCached.targetRotateCachedZ
p1212
assVtarget[5].targetRotatePivot
p1213
(dp1214
g88
I00
sg89
(lp1215
Vtarget[5].targetRotatePivot.targetRotatePivotX
p1216
aVtarget[5].targetRotatePivot.targetRotatePivotY
p1217
aVtarget[5].targetRotatePivot.targetRotatePivotZ
p1218
assVrenderLayerInfo.renderLayerId
p1219
(dp1220
g72
VrenderLayerInfo
p1221
ssVrestTranslate
p1222
(dp1223
S'isArray'
p1224
I00
sg4
Vdouble3
p1225
sS'attrChildrenNames'
p1226
(lp1227
VrestTranslate.restTranslateX
p1228
aVrestTranslate.restTranslateY
p1229
aVrestTranslate.restTranslateZ
p1230
asS'isMulti'
p1231
I00
sS'isCompound'
p1232
I01
sg10
I01
sg18
Vrst
p1233
sg11
(lp1234
VrestTranslate.restTranslateX
p1235
aVrestTranslate.restTranslateY
p1236
aVrestTranslate.restTranslateZ
p1237
asS'isElement'
p1238
I00
ssVtarget[2].targetOffsetRotate
p1239
(dp1240
g16
I00
sg398
I00
sg18
Vtg[2].tor
p1241
sg10
I00
sg11
(lp1242
Vtarget[2].targetOffsetRotate.targetOffsetRotateX
p1243
aVtarget[2].targetOffsetRotate.targetOffsetRotateY
p1244
aVtarget[2].targetOffsetRotate.targetOffsetRotateZ
p1245
assg573
(dp1246
g88
I00
sg89
(lp1247
ssg572
(dp1248
g88
I00
sg89
(lp1249
ssg571
(dp1250
g88
I00
sg89
(lp1251
ssVtarget[5].targetRotateCached.targetRotateCachedX
p1252
(dp1253
g88
I00
sg89
(lp1254
ssVtarget[5].targetRotateCached.targetRotateCachedY
p1255
(dp1256
g88
I00
sg89
(lp1257
ssVtarget[5].targetRotateCached.targetRotateCachedZ
p1258
(dp1259
g88
I00
sg89
(lp1260
ssVtarget[1].targetJointOrient
p1261
(dp1262
g16
I00
sg17
I00
sg18
Vtg[1].tjo
p1263
sg10
I00
sg11
(lp1264
Vtarget[1].targetJointOrient.targetJointOrientX
p1265
aVtarget[1].targetJointOrient.targetJointOrientY
p1266
aVtarget[1].targetJointOrient.targetJointOrientZ
p1267
assVrenderLayerInfo[1].renderLayerColor
p1268
(dp1269
g16
I00
sg10
I00
sg11
(lp1270
ssVtarget.targetParentMatrix
p1271
(dp1272
g329
Vtarget
p1273
ssVcustomTreatment
p1274
(dp1275
S'isArray'
p1276
I00
sg4
Vstring
p1277
sS'attrChildrenNames'
p1278
(lp1279
sS'isMulti'
p1280
I00
sS'isCompound'
p1281
I00
sg10
I01
sg11
(lp1282
sS'isElement'
p1283
I00
ssVtarget[1].targetOffsetRotate
p1284
(dp1285
g16
I00
sg17
I00
sg18
Vtg[1].tor
p1286
sg10
I00
sg11
(lp1287
Vtarget[1].targetOffsetRotate.targetOffsetRotateX
p1288
aVtarget[1].targetOffsetRotate.targetOffsetRotateY
p1289
aVtarget[1].targetOffsetRotate.targetOffsetRotateZ
p1290
assVshear
p1291
(dp1292
S'isArray'
p1293
I00
sg4
Vdouble3
p1294
sS'attrChildrenNames'
p1295
(lp1296
Vshear.shearXY
p1297
aVshear.shearXZ
p1298
aVshear.shearYZ
p1299
asS'isMulti'
p1300
I00
sS'isCompound'
p1301
I01
sg10
I01
sg11
(lp1302
Vshear.shearXY
p1303
aVshear.shearXZ
p1304
aVshear.shearYZ
p1305
asS'isElement'
p1306
I00
ssVtarget[5].targetRotate
p1307
(dp1308
g88
I00
sg89
(lp1309
Vtarget[5].targetRotate.targetRotateX
p1310
aVtarget[5].targetRotate.targetRotateY
p1311
aVtarget[5].targetRotate.targetRotateZ
p1312
assVinstObjGroups.objectGroups.objectGrpColor
p1313
(dp1314
g72
VinstObjGroups.objectGroups
p1315
ssVtarget[3].targetOffsetRotate
p1316
(dp1317
g62
I00
sg398
I00
sg67
I00
sg68
(lp1318
g433
ag436
ag439
assVtarget[4].targetRotateTranslate
p1319
(dp1320
g88
I00
sg89
(lp1321
Vtarget[4].targetRotateTranslate.targetRotateTranslateX
p1322
aVtarget[4].targetRotateTranslate.targetRotateTranslateY
p1323
aVtarget[4].targetRotateTranslate.targetRotateTranslateZ
p1324
assVcreationDate
p1325
(dp1326
S'isArray'
p1327
I00
sg4
Vstring
p1328
sS'attrChildrenNames'
p1329
(lp1330
sS'isMulti'
p1331
I00
sS'isCompound'
p1332
I00
sg10
I01
sg11
(lp1333
sS'isElement'
p1334
I00
ssVtarget[1].targetScale
p1335
(dp1336
g16
I00
sg17
I00
sg18
Vtg[1].ts
p1337
sg10
I00
sg11
(lp1338
Vtarget[1].targetScale.targetScaleX
p1339
aVtarget[1].targetScale.targetScaleY
p1340
aVtarget[1].targetScale.targetScaleZ
p1341
assVtarget[1].targetTranslate.targetTranslateX
p1342
(dp1343
g16
I00
sg17
I00
sg18
Vtg[1].ttx
p1344
sg10
I00
sg11
(lp1345
ssVtarget[2].targetRotateCached.targetRotateCachedZ
p1346
(dp1347
g16
I00
sg398
I00
sg18
Vtg[2].ctrz
p1348
sg10
I00
sg11
(lp1349
ssVtarget[2].targetRotateCached.targetRotateCachedY
p1350
(dp1351
g16
I00
sg398
I00
sg18
Vtg[2].ctry
p1352
sg10
I00
sg11
(lp1353
ssVtarget[2].targetRotateCached.targetRotateCachedX
p1354
(dp1355
g16
I00
sg398
I00
sg18
Vtg[2].ctrx
p1356
sg10
I00
sg11
(lp1357
ssVisHierarchicalConnection[1]
p1358
(dp1359
g62
I00
sg67
I00
sg68
(lp1360
ssVminRotLimit.minRotZLimit
p1361
(dp1362
g62
I00
sg63
VdoubleAngle
p1363
sg65
I00
sg66
I00
sg67
I01
sg68
(lp1364
ssVrotatePivot.rotatePivotZ
p1365
(dp1366
S'isArray'
p1367
I00
sS'attrParentLongName'
p1368
VrotatePivot
p1369
sS'attrChildrenNames'
p1370
(lp1371
sg4
VdoubleLinear
p1372
sS'isMulti'
p1373
I00
sS'isCompound'
p1374
I00
sg10
I01
sg11
(lp1375
sS'isElement'
p1376
I00
ssVrotatePivot.rotatePivotX
p1377
(dp1378
S'isArray'
p1379
I00
sS'attrParentLongName'
p1380
VrotatePivot
p1381
sS'attrChildrenNames'
p1382
(lp1383
sg4
VdoubleLinear
p1384
sS'isMulti'
p1385
I00
sS'isCompound'
p1386
I00
sg10
I01
sg11
(lp1387
sS'isElement'
p1388
I00
ssVrotatePivot.rotatePivotY
p1389
(dp1390
S'isArray'
p1391
I00
sS'attrParentLongName'
p1392
VrotatePivot
p1393
sS'attrChildrenNames'
p1394
(lp1395
sg4
VdoubleLinear
p1396
sS'isMulti'
p1397
I00
sS'isCompound'
p1398
I00
sg10
I01
sg11
(lp1399
sS'isElement'
p1400
I00
ssVtarget[0].targetTranslate
p1401
(dp1402
S'isArray'
p1403
I00
sS'attrParentLongName'
p1404
Vtarget[0]
p1405
sS'attrChildrenNames'
p1406
(lp1407
Vtarget[0].targetTranslate.targetTranslateX
p1408
aVtarget[0].targetTranslate.targetTranslateY
p1409
aVtarget[0].targetTranslate.targetTranslateZ
p1410
asg4
Vdouble3
p1411
sS'isMulti'
p1412
I00
sS'isCompound'
p1413
I01
sg10
I01
sg18
Vtg[0].tt
p1414
sg11
(lp1415
Vtarget[0].targetTranslate.targetTranslateX
p1416
aVtarget[0].targetTranslate.targetTranslateY
p1417
aVtarget[0].targetTranslate.targetTranslateZ
p1418
asS'isElement'
p1419
I00
ssVworldMatrix[2]
p1420
(dp1421
g677
I00
sg678
I00
sS'attrChildrenLongNames'
p1422
(lp1423
ssVtarget[2].targetRotatePivot.targetRotatePivotY
p1424
(dp1425
g16
I00
sg398
I00
sg18
Vtg[2].trpy
p1426
sg10
I00
sg11
(lp1427
ssVtarget[2].targetScale
p1428
(dp1429
g16
I00
sg398
I00
sg18
Vtg[2].ts
p1430
sg10
I00
sg11
(lp1431
Vtarget[2].targetScale.targetScaleX
p1432
aVtarget[2].targetScale.targetScaleY
p1433
aVtarget[2].targetScale.targetScaleZ
p1434
assVtarget[2].targetRotatePivot.targetRotatePivotZ
p1435
(dp1436
g16
I00
sg398
I00
sg18
Vtg[2].trpz
p1437
sg10
I00
sg11
(lp1438
ssVinstObjGroups[1].objectGroups
p1439
(dp1440
g16
I01
sg10
I00
ssVghosting
p1441
(dp1442
S'isArray'
p1443
I00
sg4
Vbool
p1444
sS'attrChildrenNames'
p1445
(lp1446
sS'isMulti'
p1447
I00
sS'isCompound'
p1448
I00
sg10
I01
sg11
(lp1449
sS'isElement'
p1450
I00
ssVmatrix
p1451
(dp1452
S'isArray'
p1453
I00
sg4
Vmatrix
p1454
sS'attrChildrenNames'
p1455
(lp1456
sS'isMulti'
p1457
I00
sS'isCompound'
p1458
I00
sg10
I00
sg11
(lp1459
sS'isElement'
p1460
I00
ssVworldInverseMatrix[2]
p1461
(dp1462
g677
I00
sg678
I00
sg1422
(lp1463
ssVselectHandle.selectHandleX
p1464
(dp1465
S'isArray'
p1466
I00
sS'attrParentLongName'
p1467
VselectHandle
p1468
sS'attrChildrenNames'
p1469
(lp1470
sg4
VdoubleLinear
p1471
sS'isMulti'
p1472
I00
sS'isCompound'
p1473
I00
sg10
I01
sg11
(lp1474
sS'isElement'
p1475
I00
ssVselectHandle.selectHandleY
p1476
(dp1477
S'isArray'
p1478
I00
sS'attrParentLongName'
p1479
VselectHandle
p1480
sS'attrChildrenNames'
p1481
(lp1482
sg4
VdoubleLinear
p1483
sS'isMulti'
p1484
I00
sS'isCompound'
p1485
I00
sg10
I01
sg11
(lp1486
sS'isElement'
p1487
I00
ssVselectHandle.selectHandleZ
p1488
(dp1489
S'isArray'
p1490
I00
sS'attrParentLongName'
p1491
VselectHandle
p1492
sS'attrChildrenNames'
p1493
(lp1494
sg4
VdoubleLinear
p1495
sS'isMulti'
p1496
I00
sS'isCompound'
p1497
I00
sg10
I01
sg11
(lp1498
sS'isElement'
p1499
I00
ssVmaxRotLimitEnable.maxRotZLimitEnable
p1500
(dp1501
g62
I00
sg63
Vbool
p1502
sg65
I00
sg66
I00
sg67
I01
sg68
(lp1503
ssVtarget[3].targetRotatePivot
p1504
(dp1505
g62
I00
sg398
I00
sg67
I00
sg68
(lp1506
Vtarget[3].targetRotatePivot.targetRotatePivotX
p1507
aVtarget[3].targetRotatePivot.targetRotatePivotY
p1508
aVtarget[3].targetRotatePivot.targetRotatePivotZ
p1509
assg256
(dp1510
g88
I00
sg89
(lp1511
ssVtarget[3].targetRotateTranslate
p1512
(dp1513
g62
I00
sg398
I00
sg67
I00
sg68
(lp1514
Vtarget[3].targetRotateTranslate.targetRotateTranslateX
p1515
aVtarget[3].targetRotateTranslate.targetRotateTranslateY
p1516
aVtarget[3].targetRotateTranslate.targetRotateTranslateZ
p1517
assVworldMatrix
p1518
(dp1519
S'isArray'
p1520
I01
sS'isElement'
p1521
I00
sS'isMulti'
p1522
I01
sg10
I00
sg4
Vmatrix
p1523
ssVcontainerType
p1524
(dp1525
S'isArray'
p1526
I00
sg4
Vstring
p1527
sS'attrChildrenNames'
p1528
(lp1529
sS'isMulti'
p1530
I00
sS'isCompound'
p1531
I00
sg10
I01
sg11
(lp1532
sS'isElement'
p1533
I00
ssVminScaleLimit.minScaleZLimit
p1534
(dp1535
g62
I00
sg63
Vdouble
p1536
sg65
I00
sg66
I00
sg67
I01
sg68
(lp1537
ssVparentInverseMatrix
p1538
(dp1539
S'isArray'
p1540
I01
sS'isElement'
p1541
I00
sS'isMulti'
p1542
I01
sg10
I00
sg4
Vmatrix
p1543
ssVtarget[2].targetJointOrient
p1544
(dp1545
g16
I00
sg398
I00
sg18
Vtg[2].tjo
p1546
sg10
I00
sg11
(lp1547
Vtarget[2].targetJointOrient.targetJointOrientX
p1548
aVtarget[2].targetJointOrient.targetJointOrientY
p1549
aVtarget[2].targetJointOrient.targetJointOrientZ
p1550
assVtarget[5].targetTranslate.targetTranslateZ
p1551
(dp1552
g88
I00
sg89
(lp1553
ssVtarget[5].targetTranslate.targetTranslateX
p1554
(dp1555
g88
I00
sg89
(lp1556
ssVtarget[5].targetTranslate.targetTranslateY
p1557
(dp1558
g88
I00
sg89
(lp1559
ssVtarget[1].targetRotateCached
p1560
(dp1561
g16
I00
sg17
I00
sg18
Vtg[1].ctr
p1562
sg10
I00
sg11
(lp1563
Vtarget[1].targetRotateCached.targetRotateCachedX
p1564
aVtarget[1].targetRotateCached.targetRotateCachedY
p1565
aVtarget[1].targetRotateCached.targetRotateCachedZ
p1566
assVrenderInfo.layerRenderable
p1567
(dp1568
S'isArray'
p1569
I00
sS'attrParentLongName'
p1570
VrenderInfo
p1571
sS'attrChildrenNames'
p1572
(lp1573
sg4
Vbool
p1574
sS'isMulti'
p1575
I00
sS'isCompound'
p1576
I00
sg10
I01
sg11
(lp1577
sS'isElement'
p1578
I00
ssVrmbCommand
p1579
(dp1580
g62
I00
sg63
Vstring
p1581
sg65
I00
sg66
I00
sg67
I01
sg68
(lp1582
ssVmaxRotLimit
p1583
(dp1584
g62
I00
sg63
Vdouble3
p1585
sg65
I00
sg66
I01
sg67
I01
sg68
(lp1586
VmaxRotLimit.maxRotXLimit
p1587
aVmaxRotLimit.maxRotYLimit
p1588
aVmaxRotLimit.maxRotZLimit
p1589
assVghostCustomSteps.ghostPreSteps
p1590
(dp1591
S'isArray'
p1592
I00
sS'attrParentLongName'
p1593
VghostCustomSteps
p1594
sS'attrChildrenNames'
p1595
(lp1596
sg4
Vlong
p1597
sS'isMulti'
p1598
I00
sS'isCompound'
p1599
I00
sg10
I01
sg11
(lp1600
sS'isElement'
p1601
I00
ssVpublishedNodeInfo[1].publishedNodeType
p1602
(dp1603
g16
I00
sg10
I00
sg11
(lp1604
ssVgeometry
p1605
(dp1606
S'isArray'
p1607
I00
sg4
NsS'attrChildrenNames'
p1608
(lp1609
sS'isMulti'
p1610
I00
sS'isCompound'
p1611
I00
sg10
I00
sg11
(lp1612
sS'isElement'
p1613
I00
ssVtarget[4].targetRotatePivot
p1614
(dp1615
g88
I00
sg89
(lp1616
g903
ag900
ag897
assVtarget[4].targetTranslate
p1617
(dp1618
g88
I00
sg89
(lp1619
Vtarget[4].targetTranslate.targetTranslateX
p1620
aVtarget[4].targetTranslate.targetTranslateY
p1621
aVtarget[4].targetTranslate.targetTranslateZ
p1622
assVconstraintRotateTranslate
p1623
(dp1624
S'isArray'
p1625
I00
sg4
Vdouble3
p1626
sS'attrChildrenNames'
p1627
(lp1628
VconstraintRotateTranslate.constraintRotateTranslateX
p1629
aVconstraintRotateTranslate.constraintRotateTranslateY
p1630
aVconstraintRotateTranslate.constraintRotateTranslateZ
p1631
asS'isMulti'
p1632
I00
sS'isCompound'
p1633
I01
sg10
I01
sg18
Vcrt
p1634
sg11
(lp1635
VconstraintRotateTranslate.constraintRotateTranslateX
p1636
aVconstraintRotateTranslate.constraintRotateTranslateY
p1637
aVconstraintRotateTranslate.constraintRotateTranslateZ
p1638
asS'isElement'
p1639
I00
ssVminRotLimitEnable
p1640
(dp1641
g62
I00
sg63
VTdataCompound
p1642
sg65
I00
sg67
I00
sg68
(lp1643
VminRotLimitEnable.minRotXLimitEnable
p1644
aVminRotLimitEnable.minRotYLimitEnable
p1645
aVminRotLimitEnable.minRotZLimitEnable
p1646
assVisHierarchicalConnection
p1647
(dp1648
g62
I01
sg63
VTdataCompound
p1649
sg67
I00
sg65
I01
ssVtarget.targetScaleY
p1650
(dp1651
g72
Vtarget.targetScale
p1652
ssVshear.shearYZ
p1653
(dp1654
S'isArray'
p1655
I00
sS'attrParentLongName'
p1656
Vshear
p1657
sS'attrChildrenNames'
p1658
(lp1659
sg4
Vdouble
p1660
sS'isMulti'
p1661
I00
sS'isCompound'
p1662
I00
sg10
I01
sg11
(lp1663
sS'isElement'
p1664
I00
ssVpublishedNodeInfo.isHierarchicalNode
p1665
(dp1666
S'attrParentLongName'
p1667
VpublishedNodeInfo
p1668
ssVtarget[5].targetScale
p1669
(dp1670
g88
I00
sg89
(lp1671
Vtarget[5].targetScale.targetScaleX
p1672
aVtarget[5].targetScale.targetScaleY
p1673
aVtarget[5].targetScale.targetScaleZ
p1674
assVtarget[4].targetParentMatrix
p1675
(dp1676
g88
I00
sg89
(lp1677
ssg1186
(dp1678
g88
I00
sg89
(lp1679
ssg1185
(dp1680
g88
I00
sg89
(lp1681
ssg1187
(dp1682
g88
I00
sg89
(lp1683
ssVminRotLimit.minRotXLimit
p1684
(dp1685
g62
I00
sg63
VdoubleAngle
p1686
sg65
I00
sg66
I00
sg67
I01
sg68
(lp1687
ssVtarget[2].targetRotateTranslate.targetRotateTranslateY
p1688
(dp1689
g16
I00
sg398
I00
sg18
Vtg[2].trty
p1690
sg10
I00
sg11
(lp1691
ssVtarget[2].targetRotateTranslate.targetRotateTranslateX
p1692
(dp1693
g16
I00
sg398
I00
sg18
Vtg[2].trtx
p1694
sg10
I00
sg11
(lp1695
ssVtarget[2].targetRotateTranslate.targetRotateTranslateZ
p1696
(dp1697
g16
I00
sg398
I00
sg18
Vtg[2].trtz
p1698
sg10
I00
sg11
(lp1699
ssVdrawOverride.overrideColor
p1700
(dp1701
S'isArray'
p1702
I00
sS'attrParentLongName'
p1703
VdrawOverride
p1704
sS'attrChildrenNames'
p1705
(lp1706
sg4
Vbyte
p1707
sS'isMulti'
p1708
I00
sS'isCompound'
p1709
I00
sg10
I00
sg11
(lp1710
sS'isElement'
p1711
I00
ssVxformMatrix
p1712
(dp1713
S'isArray'
p1714
I00
sg4
Vmatrix
p1715
sS'attrChildrenNames'
p1716
(lp1717
sS'isMulti'
p1718
I00
sS'isCompound'
p1719
I00
sg10
I00
sg11
(lp1720
sS'isElement'
p1721
I00
ssVinstObjGroups[1]
p1722
(dp1723
g16
I00
sg10
I00
sg11
(lp1724
VinstObjGroups[1].objectGroups
p1725
assVtarget[0].targetRotateCached
p1726
(dp1727
S'isArray'
p1728
I00
sS'attrParentLongName'
p1729
Vtarget[0]
p1730
sS'attrChildrenNames'
p1731
(lp1732
Vtarget[0].targetRotateCached.targetRotateCachedX
p1733
aVtarget[0].targetRotateCached.targetRotateCachedY
p1734
aVtarget[0].targetRotateCached.targetRotateCachedZ
p1735
asg4
Vdouble3
p1736
sS'isMulti'
p1737
I00
sS'isCompound'
p1738
I01
sg10
I01
sg18
Vtg[0].ctr
p1739
sg11
(lp1740
Vtarget[0].targetRotateCached.targetRotateCachedX
p1741
aVtarget[0].targetRotateCached.targetRotateCachedY
p1742
aVtarget[0].targetRotateCached.targetRotateCachedZ
p1743
asS'isElement'
p1744
I00
ssVparentMatrix[1]
p1745
(dp1746
g16
I00
sg10
I00
sg11
(lp1747
ssVrenderInfo
p1748
(dp1749
S'isArray'
p1750
I00
sg4
VTdataCompound
p1751
sS'attrChildrenNames'
p1752
(lp1753
VrenderInfo.identification
p1754
aVrenderInfo.layerRenderable
p1755
aVrenderInfo.layerOverrideColor
p1756
asS'isMulti'
p1757
I00
sS'isCompound'
p1758
I01
sg10
I00
sg11
(lp1759
VrenderInfo.identification
p1760
aVrenderInfo.layerRenderable
p1761
aVrenderInfo.layerOverrideColor
p1762
asS'isElement'
p1763
I00
ssVtarget[5].targetWeight
p1764
(dp1765
g88
I00
sg89
(lp1766
ssVmaxScaleLimit.maxScaleZLimit
p1767
(dp1768
g62
I00
sg63
Vdouble
p1769
sg65
I00
sg66
I00
sg67
I01
sg68
(lp1770
ssVtarget
p1771
(dp1772
S'isArray'
p1773
I01
sg4
VTdataCompound
p1774
sS'isMulti'
p1775
I01
sg10
I00
sg18
Vtg
p1776
sS'isElement'
p1777
I00
ssVtarget[4].targetRotate.targetRotateX
p1778
(dp1779
g88
I00
sg89
(lp1780
ssVtarget[0].targetRotateTranslate.targetRotateTranslateZ
p1781
(dp1782
S'isArray'
p1783
I00
sS'attrParentLongName'
p1784
Vtarget[0].targetRotateTranslate
p1785
sS'attrChildrenNames'
p1786
(lp1787
sg4
VdoubleLinear
p1788
sS'isMulti'
p1789
I00
sS'isCompound'
p1790
I00
sg10
I01
sg18
Vtg[0].trtz
p1791
sg11
(lp1792
sS'isElement'
p1793
I00
ssVtarget[0].targetRotateTranslate.targetRotateTranslateY
p1794
(dp1795
S'isArray'
p1796
I00
sS'attrParentLongName'
p1797
Vtarget[0].targetRotateTranslate
p1798
sS'attrChildrenNames'
p1799
(lp1800
sg4
VdoubleLinear
p1801
sS'isMulti'
p1802
I00
sS'isCompound'
p1803
I00
sg10
I01
sg18
Vtg[0].trty
p1804
sg11
(lp1805
sS'isElement'
p1806
I00
ssVtarget[3]
p1807
(dp1808
g62
I00
sg398
I00
sg67
I00
sg68
(lp1809
Vtarget[3].targetParentMatrix
p1810
aVtarget[3].targetWeight
p1811
ag1157
aVtarget[3].targetTranslate
p1812
ag1504
ag1512
aVtarget[3].targetOffsetTranslate
p1813
aVtarget[3].targetRotate
p1814
aVtarget[3].targetRotateOrder
p1815
aVtarget[3].targetJointOrient
p1816
ag1316
aVtarget[3].targetScale
p1817
assVmaxScaleLimit.maxScaleXLimit
p1818
(dp1819
g62
I00
sg63
Vdouble
p1820
sg65
I00
sg66
I00
sg67
I01
sg68
(lp1821
ssVscalePivot
p1822
(dp1823
S'isArray'
p1824
I00
sg4
Vdouble3
p1825
sS'attrChildrenNames'
p1826
(lp1827
VscalePivot.scalePivotX
p1828
aVscalePivot.scalePivotY
p1829
aVscalePivot.scalePivotZ
p1830
asS'isMulti'
p1831
I00
sS'isCompound'
p1832
I01
sg10
I01
sg11
(lp1833
VscalePivot.scalePivotX
p1834
aVscalePivot.scalePivotY
p1835
aVscalePivot.scalePivotZ
p1836
asS'isElement'
p1837
I00
ssVworldInverseMatrix[0]
p1838
(dp1839
g16
I00
sg10
I00
sg11
(lp1840
ssVboundingBox.boundingBoxMax.boundingBoxMaxY
p1841
(dp1842
S'isArray'
p1843
I00
sS'attrParentLongName'
p1844
VboundingBox.boundingBoxMax
p1845
sS'attrChildrenNames'
p1846
(lp1847
sg4
VdoubleLinear
p1848
sS'isMulti'
p1849
I00
sS'isCompound'
p1850
I00
sg10
I01
sg11
(lp1851
sS'isElement'
p1852
I00
ssVboundingBox.boundingBoxMax.boundingBoxMaxX
p1853
(dp1854
S'isArray'
p1855
I00
sS'attrParentLongName'
p1856
VboundingBox.boundingBoxMax
p1857
sS'attrChildrenNames'
p1858
(lp1859
sg4
VdoubleLinear
p1860
sS'isMulti'
p1861
I00
sS'isCompound'
p1862
I00
sg10
I01
sg11
(lp1863
sS'isElement'
p1864
I00
ssVtarget[1].targetRotate
p1865
(dp1866
g16
I00
sg17
I00
sg18
Vtg[1].tr
p1867
sg10
I00
sg11
(lp1868
Vtarget[1].targetRotate.targetRotateX
p1869
aVtarget[1].targetRotate.targetRotateY
p1870
aVtarget[1].targetRotate.targetRotateZ
p1871
assVboundingBox.boundingBoxMax.boundingBoxMaxZ
p1872
(dp1873
S'isArray'
p1874
I00
sS'attrParentLongName'
p1875
VboundingBox.boundingBoxMax
p1876
sS'attrChildrenNames'
p1877
(lp1878
sg4
VdoubleLinear
p1879
sS'isMulti'
p1880
I00
sS'isCompound'
p1881
I00
sg10
I01
sg11
(lp1882
sS'isElement'
p1883
I00
ssVisCollapsed
p1884
(dp1885
S'isArray'
p1886
I00
sg4
Vbool
p1887
sS'attrChildrenNames'
p1888
(lp1889
sS'isMulti'
p1890
I00
sS'isCompound'
p1891
I00
sg10
I01
sg11
(lp1892
sS'isElement'
p1893
I00
ssVtarget[2].targetTranslate
p1894
(dp1895
g16
I00
sg398
I00
sg18
Vtg[2].tt
p1896
sg10
I00
sg11
(lp1897
Vtarget[2].targetTranslate.targetTranslateX
p1898
aVtarget[2].targetTranslate.targetTranslateY
p1899
aVtarget[2].targetTranslate.targetTranslateZ
p1900
assVviewMode
p1901
(dp1902
S'isArray'
p1903
I00
sg4
Venum
p1904
sS'attrChildrenNames'
p1905
(lp1906
sS'isMulti'
p1907
I00
sS'isCompound'
p1908
I00
sg10
I01
sg11
(lp1909
sS'isElement'
p1910
I00
ssVtarget[2].targetRotateOrder
p1911
(dp1912
g16
I00
sg398
I00
sg18
Vtg[2].tro
p1913
sg10
I00
sg11
(lp1914
ssVparentInverseMatrix[2]
p1915
(dp1916
g677
I00
sg678
I00
sg1422
(lp1917
ssVmaxTransLimit.maxTransXLimit
p1918
(dp1919
g62
I00
sg63
VdoubleLinear
p1920
sg65
I00
sg66
I00
sg67
I01
sg68
(lp1921
ssVmaxScaleLimit.maxScaleYLimit
p1922
(dp1923
g62
I00
sg63
Vdouble
p1924
sg65
I00
sg66
I00
sg67
I01
sg68
(lp1925
ssVtarget[4].targetOffsetRotate.targetOffsetRotateZ
p1926
(dp1927
g88
I00
sg89
(lp1928
ssVtarget[4].targetOffsetRotate.targetOffsetRotateY
p1929
(dp1930
g88
I00
sg89
(lp1931
ssVtarget[4].targetOffsetRotate.targetOffsetRotateX
p1932
(dp1933
g88
I00
sg89
(lp1934
ssVtarget.targetJointOrientX
p1935
(dp1936
g72
Vtarget.targetJointOrient
p1937
ssVtarget[0].targetOffsetTranslate.targetOffsetTranslateZ
p1938
(dp1939
S'isArray'
p1940
I00
sS'attrParentLongName'
p1941
Vtarget[0].targetOffsetTranslate
p1942
sS'attrChildrenNames'
p1943
(lp1944
sg4
VdoubleLinear
p1945
sS'isMulti'
p1946
I00
sS'isCompound'
p1947
I00
sg10
I01
sg18
Vtg[0].totz
p1948
sg11
(lp1949
sS'isElement'
p1950
I00
ssVtarget[4].targetWeight
p1951
(dp1952
g88
I00
sg89
(lp1953
ssVtarget[0].targetOffsetTranslate.targetOffsetTranslateX
p1954
(dp1955
S'isArray'
p1956
I00
sS'attrParentLongName'
p1957
Vtarget[0].targetOffsetTranslate
p1958
sS'attrChildrenNames'
p1959
(lp1960
sg4
VdoubleLinear
p1961
sS'isMulti'
p1962
I00
sS'isCompound'
p1963
I00
sg10
I01
sg18
Vtg[0].totx
p1964
sg11
(lp1965
sS'isElement'
p1966
I00
ssVinstObjGroups[0].objectGroups[0].objectGrpCompList
p1967
(dp1968
S'isArray'
p1969
I00
sS'attrParentLongName'
p1970
VinstObjGroups[0].objectGroups[0]
p1971
sS'attrChildrenNames'
p1972
(lp1973
sg10
I00
sg11
(lp1974
sS'isElement'
p1975
I00
ssVuiTreatment
p1976
(dp1977
S'isArray'
p1978
I00
sg4
Venum
p1979
sS'attrChildrenNames'
p1980
(lp1981
sS'isMulti'
p1982
I00
sS'isCompound'
p1983
I00
sg10
I01
sg11
(lp1984
sS'isElement'
p1985
I00
ssVrestTranslate.restTranslateZ
p1986
(dp1987
S'isArray'
p1988
I00
sS'attrParentLongName'
p1989
VrestTranslate
p1990
sS'attrChildrenNames'
p1991
(lp1992
sg4
VdoubleLinear
p1993
sS'isMulti'
p1994
I00
sS'isCompound'
p1995
I00
sg10
I01
sg18
Vrtz
p1996
sg11
(lp1997
sS'isElement'
p1998
I00
ssVmaxRotLimitEnable
p1999
(dp2000
g62
I00
sg63
VTdataCompound
p2001
sg65
I00
sg67
I00
sg68
(lp2002
VmaxRotLimitEnable.maxRotXLimitEnable
p2003
aVmaxRotLimitEnable.maxRotYLimitEnable
p2004
aVmaxRotLimitEnable.maxRotZLimitEnable
p2005
assVrestTranslate.restTranslateX
p2006
(dp2007
S'isArray'
p2008
I00
sS'attrParentLongName'
p2009
VrestTranslate
p2010
sS'attrChildrenNames'
p2011
(lp2012
sg4
VdoubleLinear
p2013
sS'isMulti'
p2014
I00
sS'isCompound'
p2015
I00
sg10
I01
sg18
Vrtx
p2016
sg11
(lp2017
sS'isElement'
p2018
I00
ssVrestTranslate.restTranslateY
p2019
(dp2020
S'isArray'
p2021
I00
sS'attrParentLongName'
p2022
VrestTranslate
p2023
sS'attrChildrenNames'
p2024
(lp2025
sg4
VdoubleLinear
p2026
sS'isMulti'
p2027
I00
sS'isCompound'
p2028
I00
sg10
I01
sg18
Vrty
p2029
sg11
(lp2030
sS'isElement'
p2031
I00
ssVrotate.rotateZ
p2032
(dp2033
S'isArray'
p2034
I00
sS'attrParentLongName'
p2035
Vrotate
p2036
sS'attrChildrenNames'
p2037
(lp2038
sg4
VdoubleAngle
p2039
sS'isMulti'
p2040
I00
sS'isCompound'
p2041
I00
sg10
I01
sg11
(lp2042
sS'isElement'
p2043
I00
ssVrotate.rotateX
p2044
(dp2045
S'isArray'
p2046
I00
sS'attrParentLongName'
p2047
Vrotate
p2048
sS'attrChildrenNames'
p2049
(lp2050
sg4
VdoubleAngle
p2051
sS'isMulti'
p2052
I00
sS'isCompound'
p2053
I00
sg10
I01
sg11
(lp2054
sS'isElement'
p2055
I00
ssVrotate.rotateY
p2056
(dp2057
S'isArray'
p2058
I00
sS'attrParentLongName'
p2059
Vrotate
p2060
sS'attrChildrenNames'
p2061
(lp2062
sg4
VdoubleAngle
p2063
sS'isMulti'
p2064
I00
sS'isCompound'
p2065
I00
sg10
I01
sg11
(lp2066
sS'isElement'
p2067
I00
ssVcaching
p2068
(dp2069
S'isArray'
p2070
I00
sg4
Vbool
p2071
sS'attrChildrenNames'
p2072
(lp2073
sS'isMulti'
p2074
I00
sS'isCompound'
p2075
I00
sg10
I01
sg11
(lp2076
sS'isElement'
p2077
I00
ssVrenderLayerInfo[1].renderLayerRenderable
p2078
(dp2079
g16
I00
sg10
I00
sg11
(lp2080
ssVtranslate.translateZ
p2081
(dp2082
S'isArray'
p2083
I00
sS'attrParentLongName'
p2084
Vtranslate
p2085
sS'attrChildrenNames'
p2086
(lp2087
sg4
VdoubleLinear
p2088
sS'isMulti'
p2089
I00
sS'isCompound'
p2090
I00
sg10
I01
sg11
(lp2091
sS'isElement'
p2092
I00
ssg1815
(dp2093
g62
I00
sg398
I00
sg67
I00
sg68
(lp2094
ssVtranslate.translateX
p2095
(dp2096
S'isArray'
p2097
I00
sS'attrParentLongName'
p2098
Vtranslate
p2099
sS'attrChildrenNames'
p2100
(lp2101
sg4
VdoubleLinear
p2102
sS'isMulti'
p2103
I00
sS'isCompound'
p2104
I00
sg10
I01
sg11
(lp2105
sS'isElement'
p2106
I00
ssVtranslate.translateY
p2107
(dp2108
S'isArray'
p2109
I00
sS'attrParentLongName'
p2110
Vtranslate
p2111
sS'attrChildrenNames'
p2112
(lp2113
sg4
VdoubleLinear
p2114
sS'isMulti'
p2115
I00
sS'isCompound'
p2116
I00
sg10
I01
sg11
(lp2117
sS'isElement'
p2118
I00
ssVghostCustomSteps.ghostPostSteps
p2119
(dp2120
S'isArray'
p2121
I00
sS'attrParentLongName'
p2122
VghostCustomSteps
p2123
sS'attrChildrenNames'
p2124
(lp2125
sg4
Vlong
p2126
sS'isMulti'
p2127
I00
sS'isCompound'
p2128
I00
sg10
I01
sg11
(lp2129
sS'isElement'
p2130
I00
ssVmentalRayControls.miVisible
p2131
(dp2132
S'isArray'
p2133
I00
sS'attrParentLongName'
p2134
VmentalRayControls
p2135
sS'attrChildrenNames'
p2136
(lp2137
sg4
Venum
p2138
sS'isMulti'
p2139
I00
sS'isCompound'
p2140
I00
sg10
I01
sg11
(lp2141
sS'isElement'
p2142
I00
ssVuseObjectColor
p2143
(dp2144
S'isArray'
p2145
I00
sg4
Vbool
p2146
sS'attrChildrenNames'
p2147
(lp2148
sS'isMulti'
p2149
I00
sS'isCompound'
p2150
I00
sg10
I01
sg11
(lp2151
sS'isElement'
p2152
I00
ssVdrawOverride.overrideLevelOfDetail
p2153
(dp2154
S'isArray'
p2155
I00
sS'attrParentLongName'
p2156
VdrawOverride
p2157
sS'attrChildrenNames'
p2158
(lp2159
sg4
Venum
p2160
sS'isMulti'
p2161
I00
sS'isCompound'
p2162
I00
sg10
I01
sg11
(lp2163
sS'isElement'
p2164
I00
ssVinstObjGroups[0].objectGroups[0].objectGroupId
p2165
(dp2166
S'isArray'
p2167
I00
sS'attrParentLongName'
p2168
VinstObjGroups[0].objectGroups[0]
p2169
sS'attrChildrenNames'
p2170
(lp2171
sg10
I00
sg11
(lp2172
sS'isElement'
p2173
I00
ssVmaxRotLimitEnable.maxRotXLimitEnable
p2174
(dp2175
g62
I00
sg63
Vbool
p2176
sg65
I00
sg66
I00
sg67
I01
sg68
(lp2177
ssVtarget.targetRotateCachedX
p2178
(dp2179
g72
Vtarget.targetRotateCached
p2180
ssg1218
(dp2181
g88
I00
sg89
(lp2182
ssg1216
(dp2183
g88
I00
sg89
(lp2184
ssg1217
(dp2185
g88
I00
sg89
(lp2186
ssVtarget.targetOffsetTranslateZ
p2187
(dp2188
g72
Vtarget.targetOffsetTranslate
p2189
ssVparentMatrix[2]
p2190
(dp2191
g677
I00
sg678
I00
sg1422
(lp2192
ssVtarget.targetOffsetTranslateY
p2193
(dp2194
g72
Vtarget.targetOffsetTranslate
p2195
ssVtransMinusRotatePivot
p2196
(dp2197
S'isArray'
p2198
I00
sg4
Vdouble3
p2199
sS'attrChildrenNames'
p2200
(lp2201
VtransMinusRotatePivot.transMinusRotatePivotX
p2202
aVtransMinusRotatePivot.transMinusRotatePivotY
p2203
aVtransMinusRotatePivot.transMinusRotatePivotZ
p2204
asS'isMulti'
p2205
I00
sS'isCompound'
p2206
I01
sg10
I01
sg11
(lp2207
VtransMinusRotatePivot.transMinusRotatePivotX
p2208
aVtransMinusRotatePivot.transMinusRotatePivotY
p2209
aVtransMinusRotatePivot.transMinusRotatePivotZ
p2210
asS'isElement'
p2211
I00
ssVbinMembership
p2212
(dp2213
g62
I00
sg63
Vstring
p2214
sg65
I00
sg66
I00
sg67
I01
sg68
(lp2215
ssVrenderLayerInfo[0].renderLayerRenderable
p2216
(dp2217
S'isArray'
p2218
I00
sS'attrParentLongName'
p2219
VrenderLayerInfo[0]
p2220
sS'attrChildrenNames'
p2221
(lp2222
sg10
I00
sg11
(lp2223
sS'isElement'
p2224
I00
ssVtarget[2].targetRotate.targetRotateZ
p2225
(dp2226
g16
I00
sg398
I00
sg18
Vtg[2].trz
p2227
sg10
I00
sg11
(lp2228
ssVtarget[2].targetRotate.targetRotateY
p2229
(dp2230
g16
I00
sg398
I00
sg18
Vtg[2].try
p2231
sg10
I00
sg11
(lp2232
ssVtarget[2].targetRotate.targetRotateX
p2233
(dp2234
g16
I00
sg398
I00
sg18
Vtg[2].trx
p2235
sg10
I00
sg11
(lp2236
ssVparentMatrix
p2237
(dp2238
S'isArray'
p2239
I01
sS'isElement'
p2240
I00
sS'isMulti'
p2241
I01
sg10
I00
sg4
Vmatrix
p2242
ssVtarget[5].targetRotateTranslate.targetRotateTranslateZ
p2243
(dp2244
g88
I00
sg89
(lp2245
ssg1115
(dp2246
g88
I00
sg89
(lp2247
ssVtarget[5].targetRotateTranslate.targetRotateTranslateX
p2248
(dp2249
g88
I00
sg89
(lp2250
ssVtarget[5].targetRotateTranslate.targetRotateTranslateY
p2251
(dp2252
g88
I00
sg89
(lp2253
ssVminTransLimitEnable.minTransZLimitEnable
p2254
(dp2255
g62
I00
sg63
Vbool
p2256
sg65
I00
sg66
I00
sg67
I01
sg68
(lp2257
ssVscalePivotTranslate
p2258
(dp2259
S'isArray'
p2260
I00
sg4
Vdouble3
p2261
sS'attrChildrenNames'
p2262
(lp2263
VscalePivotTranslate.scalePivotTranslateX
p2264
aVscalePivotTranslate.scalePivotTranslateY
p2265
aVscalePivotTranslate.scalePivotTranslateZ
p2266
asS'isMulti'
p2267
I00
sS'isCompound'
p2268
I01
sg10
I01
sg11
(lp2269
VscalePivotTranslate.scalePivotTranslateX
p2270
aVscalePivotTranslate.scalePivotTranslateY
p2271
aVscalePivotTranslate.scalePivotTranslateZ
p2272
asS'isElement'
p2273
I00
ssVrestRotate
p2274
(dp2275
S'isArray'
p2276
I00
sg4
Vdouble3
p2277
sS'attrChildrenNames'
p2278
(lp2279
VrestRotate.restRotateX
p2280
aVrestRotate.restRotateY
p2281
aVrestRotate.restRotateZ
p2282
asS'isMulti'
p2283
I00
sS'isCompound'
p2284
I01
sg10
I01
sg18
Vrsrr
p2285
sg11
(lp2286
VrestRotate.restRotateX
p2287
aVrestRotate.restRotateY
p2288
aVrestRotate.restRotateZ
p2289
asS'isElement'
p2290
I00
ssVtarget.targetOffsetTranslateX
p2291
(dp2292
g72
Vtarget.targetOffsetTranslate
p2293
ssVobjectColorRGB
p2294
(dp2295
g589
I00
sg590
Vfloat3
p2296
sg592
I00
sg593
(lp2297
VobjectColorRGB.objectColorR
p2298
aVobjectColorRGB.objectColorG
p2299
aVobjectColorRGB.objectColorB
p2300
assVtarget[2].targetTranslate.targetTranslateY
p2301
(dp2302
g16
I00
sg398
I00
sg18
Vtg[2].tty
p2303
sg10
I00
sg11
(lp2304
ssVtarget[2].targetTranslate.targetTranslateX
p2305
(dp2306
g16
I00
sg398
I00
sg18
Vtg[2].ttx
p2307
sg10
I00
sg11
(lp2308
ssVtarget[2].targetTranslate.targetTranslateZ
p2309
(dp2310
g16
I00
sg398
I00
sg18
Vtg[2].ttz
p2311
sg10
I00
sg11
(lp2312
ssVtarget.targetRotatePivot
p2313
(dp2314
g329
Vtarget
p2315
ssVdrawOverride.overrideEnabled
p2316
(dp2317
S'isArray'
p2318
I00
sS'attrParentLongName'
p2319
VdrawOverride
p2320
sS'attrChildrenNames'
p2321
(lp2322
sg4
Vbool
p2323
sS'isMulti'
p2324
I00
sS'isCompound'
p2325
I00
sg10
I01
sg11
(lp2326
sS'isElement'
p2327
I00
ssVboundingBox.boundingBoxMax
p2328
(dp2329
S'isArray'
p2330
I00
sS'attrParentLongName'
p2331
VboundingBox
p2332
sS'attrChildrenNames'
p2333
(lp2334
VboundingBox.boundingBoxMax.boundingBoxMaxX
p2335
aVboundingBox.boundingBoxMax.boundingBoxMaxY
p2336
aVboundingBox.boundingBoxMax.boundingBoxMaxZ
p2337
asg4
Vdouble3
p2338
sS'isMulti'
p2339
I00
sS'isCompound'
p2340
I01
sg10
I01
sg11
(lp2341
VboundingBox.boundingBoxMax.boundingBoxMaxX
p2342
aVboundingBox.boundingBoxMax.boundingBoxMaxY
p2343
aVboundingBox.boundingBoxMax.boundingBoxMaxZ
p2344
asS'isElement'
p2345
I00
ssVconstraintRotateTranslate.constraintRotateTranslateZ
p2346
(dp2347
S'isArray'
p2348
I00
sS'attrParentLongName'
p2349
VconstraintRotateTranslate
p2350
sS'attrChildrenNames'
p2351
(lp2352
sg4
VdoubleLinear
p2353
sS'isMulti'
p2354
I00
sS'isCompound'
p2355
I00
sg10
I01
sg18
Vcrtz
p2356
sg11
(lp2357
sS'isElement'
p2358
I00
ssVconstraintRotateTranslate.constraintRotateTranslateX
p2359
(dp2360
S'isArray'
p2361
I00
sS'attrParentLongName'
p2362
VconstraintRotateTranslate
p2363
sS'attrChildrenNames'
p2364
(lp2365
sg4
VdoubleLinear
p2366
sS'isMulti'
p2367
I00
sS'isCompound'
p2368
I00
sg10
I01
sg18
Vcrtx
p2369
sg11
(lp2370
sS'isElement'
p2371
I00
ssVconstraintRotateTranslate.constraintRotateTranslateY
p2372
(dp2373
S'isArray'
p2374
I00
sS'attrParentLongName'
p2375
VconstraintRotateTranslate
p2376
sS'attrChildrenNames'
p2377
(lp2378
sg4
VdoubleLinear
p2379
sS'isMulti'
p2380
I00
sS'isCompound'
p2381
I00
sg10
I01
sg18
Vcrty
p2382
sg11
(lp2383
sS'isElement'
p2384
I00
ssVrotateAxis
p2385
(dp2386
S'isArray'
p2387
I00
sg4
Vdouble3
p2388
sS'attrChildrenNames'
p2389
(lp2390
VrotateAxis.rotateAxisX
p2391
aVrotateAxis.rotateAxisY
p2392
aVrotateAxis.rotateAxisZ
p2393
asS'isMulti'
p2394
I00
sS'isCompound'
p2395
I01
sg10
I01
sg11
(lp2396
VrotateAxis.rotateAxisX
p2397
aVrotateAxis.rotateAxisY
p2398
aVrotateAxis.rotateAxisZ
p2399
asS'isElement'
p2400
I00
ssVcreator
p2401
(dp2402
S'isArray'
p2403
I00
sg4
Vstring
p2404
sS'attrChildrenNames'
p2405
(lp2406
sS'isMulti'
p2407
I00
sS'isCompound'
p2408
I00
sg10
I01
sg11
(lp2409
sS'isElement'
p2410
I00
ssVrotateAxis.rotateAxisX
p2411
(dp2412
S'isArray'
p2413
I00
sS'attrParentLongName'
p2414
VrotateAxis
p2415
sS'attrChildrenNames'
p2416
(lp2417
sg4
VdoubleAngle
p2418
sS'isMulti'
p2419
I00
sS'isCompound'
p2420
I00
sg10
I01
sg11
(lp2421
sS'isElement'
p2422
I00
ssVrotateAxis.rotateAxisY
p2423
(dp2424
S'isArray'
p2425
I00
sS'attrParentLongName'
p2426
VrotateAxis
p2427
sS'attrChildrenNames'
p2428
(lp2429
sg4
VdoubleAngle
p2430
sS'isMulti'
p2431
I00
sS'isCompound'
p2432
I00
sg10
I01
sg11
(lp2433
sS'isElement'
p2434
I00
ssVrotateAxis.rotateAxisZ
p2435
(dp2436
S'isArray'
p2437
I00
sS'attrParentLongName'
p2438
VrotateAxis
p2439
sS'attrChildrenNames'
p2440
(lp2441
sg4
VdoubleAngle
p2442
sS'isMulti'
p2443
I00
sS'isCompound'
p2444
I00
sg10
I01
sg11
(lp2445
sS'isElement'
p2446
I00
ssg1817
(dp2447
g62
I00
sg398
I00
sg67
I00
sg68
(lp2448
Vtarget[3].targetScale.targetScaleX
p2449
aVtarget[3].targetScale.targetScaleY
p2450
aVtarget[3].targetScale.targetScaleZ
p2451
assVghostRangeEnd
p2452
(dp2453
S'isArray'
p2454
I00
sg4
Vtime
p2455
sS'attrChildrenNames'
p2456
(lp2457
sS'isMulti'
p2458
I00
sS'isCompound'
p2459
I00
sg10
I01
sg11
(lp2460
sS'isElement'
p2461
I00
ssVtemplateVersion
p2462
(dp2463
S'isArray'
p2464
I00
sg4
Vlong
p2465
sS'attrChildrenNames'
p2466
(lp2467
sS'isMulti'
p2468
I00
sS'isCompound'
p2469
I00
sg10
I01
sg11
(lp2470
sS'isElement'
p2471
I00
ssVtarget[0].targetJointOrient.targetJointOrientZ
p2472
(dp2473
S'isArray'
p2474
I00
sS'attrParentLongName'
p2475
Vtarget[0].targetJointOrient
p2476
sS'attrChildrenNames'
p2477
(lp2478
sg4
VdoubleAngle
p2479
sS'isMulti'
p2480
I00
sS'isCompound'
p2481
I00
sg10
I01
sg18
Vtg[0].tjoz
p2482
sg11
(lp2483
sS'isElement'
p2484
I00
ssVtarget[0].targetJointOrient.targetJointOrientY
p2485
(dp2486
S'isArray'
p2487
I00
sS'attrParentLongName'
p2488
Vtarget[0].targetJointOrient
p2489
sS'attrChildrenNames'
p2490
(lp2491
sg4
VdoubleAngle
p2492
sS'isMulti'
p2493
I00
sS'isCompound'
p2494
I00
sg10
I01
sg18
Vtg[0].tjoy
p2495
sg11
(lp2496
sS'isElement'
p2497
I00
ssVtarget[0].targetJointOrient.targetJointOrientX
p2498
(dp2499
S'isArray'
p2500
I00
sS'attrParentLongName'
p2501
Vtarget[0].targetJointOrient
p2502
sS'attrChildrenNames'
p2503
(lp2504
sg4
VdoubleAngle
p2505
sS'isMulti'
p2506
I00
sS'isCompound'
p2507
I00
sg10
I01
sg18
Vtg[0].tjox
p2508
sg11
(lp2509
sS'isElement'
p2510
I00
ssVminScaleLimitEnable.minScaleYLimitEnable
p2511
(dp2512
g62
I00
sg63
Vbool
p2513
sg65
I00
sg66
I00
sg67
I01
sg68
(lp2514
ssVmaxScaleLimitEnable.maxScaleXLimitEnable
p2515
(dp2516
g62
I00
sg63
Vbool
p2517
sg65
I00
sg66
I00
sg67
I01
sg68
(lp2518
ssVtarget[0].targetJointOrient
p2519
(dp2520
S'isArray'
p2521
I00
sS'attrParentLongName'
p2522
Vtarget[0]
p2523
sS'attrChildrenNames'
p2524
(lp2525
Vtarget[0].targetJointOrient.targetJointOrientX
p2526
aVtarget[0].targetJointOrient.targetJointOrientY
p2527
aVtarget[0].targetJointOrient.targetJointOrientZ
p2528
asg4
Vdouble3
p2529
sS'isMulti'
p2530
I00
sS'isCompound'
p2531
I01
sg10
I01
sg18
Vtg[0].tjo
p2532
sg11
(lp2533
Vtarget[0].targetJointOrient.targetJointOrientX
p2534
aVtarget[0].targetJointOrient.targetJointOrientY
p2535
aVtarget[0].targetJointOrient.targetJointOrientZ
p2536
asS'isElement'
p2537
I00
ssVrestRotate.restRotateZ
p2538
(dp2539
S'isArray'
p2540
I00
sS'attrParentLongName'
p2541
VrestRotate
p2542
sS'attrChildrenNames'
p2543
(lp2544
sg4
VdoubleAngle
p2545
sS'isMulti'
p2546
I00
sS'isCompound'
p2547
I00
sg10
I01
sg18
Vrrz
p2548
sg11
(lp2549
sS'isElement'
p2550
I00
ssVtarget[0].targetRotate.targetRotateY
p2551
(dp2552
S'isArray'
p2553
I00
sS'attrParentLongName'
p2554
Vtarget[0].targetRotate
p2555
sS'attrChildrenNames'
p2556
(lp2557
sg4
VdoubleAngle
p2558
sS'isMulti'
p2559
I00
sS'isCompound'
p2560
I00
sg10
I01
sg18
Vtg[0].try
p2561
sg11
(lp2562
sS'isElement'
p2563
I00
ssVtarget[0].targetRotate.targetRotateX
p2564
(dp2565
S'isArray'
p2566
I00
sS'attrParentLongName'
p2567
Vtarget[0].targetRotate
p2568
sS'attrChildrenNames'
p2569
(lp2570
sg4
VdoubleAngle
p2571
sS'isMulti'
p2572
I00
sS'isCompound'
p2573
I00
sg10
I01
sg18
Vtg[0].trx
p2574
sg11
(lp2575
sS'isElement'
p2576
I00
ssVtarget[0].targetRotate.targetRotateZ
p2577
(dp2578
S'isArray'
p2579
I00
sS'attrParentLongName'
p2580
Vtarget[0].targetRotate
p2581
sS'attrChildrenNames'
p2582
(lp2583
sg4
VdoubleAngle
p2584
sS'isMulti'
p2585
I00
sS'isCompound'
p2586
I00
sg10
I01
sg18
Vtg[0].trz
p2587
sg11
(lp2588
sS'isElement'
p2589
I00
ssVscalePivot.scalePivotX
p2590
(dp2591
S'isArray'
p2592
I00
sS'attrParentLongName'
p2593
VscalePivot
p2594
sS'attrChildrenNames'
p2595
(lp2596
sg4
VdoubleLinear
p2597
sS'isMulti'
p2598
I00
sS'isCompound'
p2599
I00
sg10
I01
sg11
(lp2600
sS'isElement'
p2601
I00
ssVscalePivot.scalePivotY
p2602
(dp2603
S'isArray'
p2604
I00
sS'attrParentLongName'
p2605
VscalePivot
p2606
sS'attrChildrenNames'
p2607
(lp2608
sg4
VdoubleLinear
p2609
sS'isMulti'
p2610
I00
sS'isCompound'
p2611
I00
sg10
I01
sg11
(lp2612
sS'isElement'
p2613
I00
ssVscalePivot.scalePivotZ
p2614
(dp2615
S'isArray'
p2616
I00
sS'attrParentLongName'
p2617
VscalePivot
p2618
sS'attrChildrenNames'
p2619
(lp2620
sg4
VdoubleLinear
p2621
sS'isMulti'
p2622
I00
sS'isCompound'
p2623
I00
sg10
I01
sg11
(lp2624
sS'isElement'
p2625
I00
ssVinstObjGroups.objectGroups.objectGrpCompList
p2626
(dp2627
g1667
VinstObjGroups.objectGroups
p2628
ssVpublishedNodeInfo.publishedNodeType
p2629
(dp2630
g1667
VpublishedNodeInfo
p2631
ssVpublishedNodeInfo[1]
p2632
(dp2633
g16
I00
sg10
I00
sg11
(lp2634
VpublishedNodeInfo[1].publishedNode
p2635
aVpublishedNodeInfo[1].isHierarchicalNode
p2636
aVpublishedNodeInfo[1].publishedNodeType
p2637
assVmaxTransLimit
p2638
(dp2639
g62
I00
sg63
Vdouble3
p2640
sg65
I00
sg66
I01
sg67
I01
sg68
(lp2641
VmaxTransLimit.maxTransXLimit
p2642
aVmaxTransLimit.maxTransYLimit
p2643
aVmaxTransLimit.maxTransZLimit
p2644
assVtarget.targetRotateCachedZ
p2645
(dp2646
g72
Vtarget.targetRotateCached
p2647
ssVtarget[1].targetRotate.targetRotateX
p2648
(dp2649
g16
I00
sg17
I00
sg18
Vtg[1].trx
p2650
sg10
I00
sg11
(lp2651
ssVtarget[1].targetRotate.targetRotateY
p2652
(dp2653
g16
I00
sg17
I00
sg18
Vtg[1].try
p2654
sg10
I00
sg11
(lp2655
ssVtarget[1].targetRotate.targetRotateZ
p2656
(dp2657
g16
I00
sg17
I00
sg18
Vtg[1].trz
p2658
sg10
I00
sg11
(lp2659
ssg1162
(dp2660
g62
I00
sg398
I00
sg67
I00
sg68
(lp2661
ssg1160
(dp2662
g62
I00
sg398
I00
sg67
I00
sg68
(lp2663
ssVscale.scaleY
p2664
(dp2665
S'isArray'
p2666
I00
sS'attrParentLongName'
p2667
Vscale
p2668
sS'attrChildrenNames'
p2669
(lp2670
sg4
Vdouble
p2671
sS'isMulti'
p2672
I00
sS'isCompound'
p2673
I00
sg10
I01
sg11
(lp2674
sS'isElement'
p2675
I00
ssVghostRangeStart
p2676
(dp2677
S'isArray'
p2678
I00
sg4
Vtime
p2679
sS'attrChildrenNames'
p2680
(lp2681
sS'isMulti'
p2682
I00
sS'isCompound'
p2683
I00
sg10
I01
sg11
(lp2684
sS'isElement'
p2685
I00
ssVpublishedNodeInfo[0].publishedNodeType
p2686
(dp2687
S'isArray'
p2688
I00
sS'attrParentLongName'
p2689
VpublishedNodeInfo[0]
p2690
sS'attrChildrenNames'
p2691
(lp2692
sg10
I00
sg11
(lp2693
sS'isElement'
p2694
I00
ssVmentalRayControls.miTrace
p2695
(dp2696
S'isArray'
p2697
I00
sS'attrParentLongName'
p2698
VmentalRayControls
p2699
sS'attrChildrenNames'
p2700
(lp2701
sg4
Venum
p2702
sS'isMulti'
p2703
I00
sS'isCompound'
p2704
I00
sg10
I01
sg11
(lp2705
sS'isElement'
p2706
I00
ssVmaxTransLimit.maxTransYLimit
p2707
(dp2708
g62
I00
sg63
VdoubleLinear
p2709
sg65
I00
sg66
I00
sg67
I01
sg68
(lp2710
ssVtarget.targetWeight
p2711
(dp2712
g329
Vtarget
p2713
ssVtarget[5].targetRotateTranslate
p2714
(dp2715
g88
I00
sg89
(lp2716
g2248
ag2251
ag2243
assVmaxScaleLimit
p2717
(dp2718
g62
I00
sg63
Vdouble3
p2719
sg65
I00
sg66
I01
sg67
I01
sg68
(lp2720
VmaxScaleLimit.maxScaleXLimit
p2721
aVmaxScaleLimit.maxScaleYLimit
p2722
aVmaxScaleLimit.maxScaleZLimit
p2723
assVinheritsTransform
p2724
(dp2725
S'isArray'
p2726
I00
sg4
Vbool
p2727
sS'attrChildrenNames'
p2728
(lp2729
sS'isMulti'
p2730
I00
sS'isCompound'
p2731
I00
sg10
I01
sg11
(lp2732
sS'isElement'
p2733
I00
ssVisHistoricallyInteresting
p2734
(dp2735
S'isArray'
p2736
I00
sg4
Vbyte
p2737
sS'attrChildrenNames'
p2738
(lp2739
sS'isMulti'
p2740
I00
sS'isCompound'
p2741
I00
sg10
I00
sg11
(lp2742
sS'isElement'
p2743
I00
ssVghostCustomSteps
p2744
(dp2745
S'isArray'
p2746
I00
sg4
VTdataCompound
p2747
sS'attrChildrenNames'
p2748
(lp2749
VghostCustomSteps.ghostPreSteps
p2750
aVghostCustomSteps.ghostPostSteps
p2751
aVghostCustomSteps.ghostStepSize
p2752
asS'isMulti'
p2753
I00
sS'isCompound'
p2754
I01
sg10
I00
sg11
(lp2755
VghostCustomSteps.ghostPreSteps
p2756
aVghostCustomSteps.ghostPostSteps
p2757
aVghostCustomSteps.ghostStepSize
p2758
asS'isElement'
p2759
I00
ssVtarget[0]
p2760
(dp2761
g16
I00
sg4
VTdataCompound
p2762
sS'isMulti'
p2763
I00
sg10
I00
sg18
Vtg[0]
p2764
sg11
(lp2765
Vtarget[0].targetParentMatrix
p2766
aVtarget[0].targetWeight
p2767
aVtarget[0].targetRotateCached
p2768
aVtarget[0].targetTranslate
p2769
aVtarget[0].targetRotatePivot
p2770
aVtarget[0].targetRotateTranslate
p2771
aVtarget[0].targetOffsetTranslate
p2772
aVtarget[0].targetRotate
p2773
aVtarget[0].targetRotateOrder
p2774
aVtarget[0].targetJointOrient
p2775
aVtarget[0].targetOffsetRotate
p2776
aVtarget[0].targetScale
p2777
assVtarget[0].targetScale
p2778
(dp2779
S'isArray'
p2780
I00
sS'attrParentLongName'
p2781
Vtarget[0]
p2782
sS'attrChildrenNames'
p2783
(lp2784
Vtarget[0].targetScale.targetScaleX
p2785
aVtarget[0].targetScale.targetScaleY
p2786
aVtarget[0].targetScale.targetScaleZ
p2787
asg4
Vdouble3
p2788
sS'isMulti'
p2789
I00
sS'isCompound'
p2790
I01
sg10
I01
sg18
Vtg[0].ts
p2791
sg11
(lp2792
Vtarget[0].targetScale.targetScaleX
p2793
aVtarget[0].targetScale.targetScaleY
p2794
aVtarget[0].targetScale.targetScaleZ
p2795
asS'isElement'
p2796
I00
ssVdrawOverride
p2797
(dp2798
S'isArray'
p2799
I00
sg4
VTdataCompound
p2800
sS'attrChildrenNames'
p2801
(lp2802
VdrawOverride.overrideDisplayType
p2803
aVdrawOverride.overrideLevelOfDetail
p2804
aVdrawOverride.overrideShading
p2805
aVdrawOverride.overrideTexturing
p2806
aVdrawOverride.overridePlayback
p2807
aVdrawOverride.overrideEnabled
p2808
aVdrawOverride.overrideVisibility
p2809
aVdrawOverride.overrideColor
p2810
asS'isMulti'
p2811
I00
sS'isCompound'
p2812
I01
sg10
I00
sg11
(lp2813
VdrawOverride.overrideDisplayType
p2814
aVdrawOverride.overrideLevelOfDetail
p2815
aVdrawOverride.overrideShading
p2816
aVdrawOverride.overrideTexturing
p2817
aVdrawOverride.overridePlayback
p2818
aVdrawOverride.overrideEnabled
p2819
aVdrawOverride.overrideVisibility
p2820
aVdrawOverride.overrideColor
p2821
asS'isElement'
p2822
I00
ssVtarget[1].targetJointOrient.targetJointOrientZ
p2823
(dp2824
g16
I00
sg17
I00
sg18
Vtg[1].tjoz
p2825
sg10
I00
sg11
(lp2826
ssVmentalRayControls.miGlobillum
p2827
(dp2828
S'isArray'
p2829
I00
sS'attrParentLongName'
p2830
VmentalRayControls
p2831
sS'attrChildrenNames'
p2832
(lp2833
sg4
Venum
p2834
sS'isMulti'
p2835
I00
sS'isCompound'
p2836
I00
sg10
I01
sg11
(lp2837
sS'isElement'
p2838
I00
ssVtarget[1].targetJointOrient.targetJointOrientX
p2839
(dp2840
g16
I00
sg17
I00
sg18
Vtg[1].tjox
p2841
sg10
I00
sg11
(lp2842
ssVtarget[1].targetJointOrient.targetJointOrientY
p2843
(dp2844
g16
I00
sg17
I00
sg18
Vtg[1].tjoy
p2845
sg10
I00
sg11
(lp2846
ssVinstObjGroups.objectGroups.objectGroupId
p2847
(dp2848
g72
VinstObjGroups.objectGroups
p2849
ssVminTransLimitEnable.minTransXLimitEnable
p2850
(dp2851
g62
I00
sg63
Vbool
p2852
sg65
I00
sg66
I00
sg67
I01
sg68
(lp2853
ssg1622
(dp2854
g88
I00
sg89
(lp2855
ssg1621
(dp2856
g88
I00
sg89
(lp2857
ssg1620
(dp2858
g88
I00
sg89
(lp2859
ssg1674
(dp2860
g88
I00
sg89
(lp2861
ssg1672
(dp2862
g88
I00
sg89
(lp2863
ssg1673
(dp2864
g88
I00
sg89
(lp2865
ssVmaxRotLimit.maxRotXLimit
p2866
(dp2867
g62
I00
sg63
VdoubleAngle
p2868
sg65
I00
sg66
I00
sg67
I01
sg68
(lp2869
ssVtarget[0].targetRotate
p2870
(dp2871
S'isArray'
p2872
I00
sS'attrParentLongName'
p2873
Vtarget[0]
p2874
sS'attrChildrenNames'
p2875
(lp2876
Vtarget[0].targetRotate.targetRotateX
p2877
aVtarget[0].targetRotate.targetRotateY
p2878
aVtarget[0].targetRotate.targetRotateZ
p2879
asg4
Vdouble3
p2880
sS'isMulti'
p2881
I00
sS'isCompound'
p2882
I01
sg10
I01
sg18
Vtg[0].tr
p2883
sg11
(lp2884
Vtarget[0].targetRotate.targetRotateX
p2885
aVtarget[0].targetRotate.targetRotateY
p2886
aVtarget[0].targetRotate.targetRotateZ
p2887
asS'isElement'
p2888
I00
ssVghostColorPre
p2889
(dp2890
g589
I00
sg590
Vfloat3
p2891
sg592
I00
sg593
(lp2892
VghostColorPre.ghostColorPreR
p2893
aVghostColorPre.ghostColorPreG
p2894
aVghostColorPre.ghostColorPreB
p2895
assVboundingBox.boundingBoxSize
p2896
(dp2897
S'isArray'
p2898
I00
sS'attrParentLongName'
p2899
VboundingBox
p2900
sS'attrChildrenNames'
p2901
(lp2902
VboundingBox.boundingBoxSize.boundingBoxSizeX
p2903
aVboundingBox.boundingBoxSize.boundingBoxSizeY
p2904
aVboundingBox.boundingBoxSize.boundingBoxSizeZ
p2905
asg4
Vdouble3
p2906
sS'isMulti'
p2907
I00
sS'isCompound'
p2908
I01
sg10
I01
sg11
(lp2909
VboundingBox.boundingBoxSize.boundingBoxSizeX
p2910
aVboundingBox.boundingBoxSize.boundingBoxSizeY
p2911
aVboundingBox.boundingBoxSize.boundingBoxSizeZ
p2912
asS'isElement'
p2913
I00
ssVinterpCache
p2914
(dp2915
S'isArray'
p2916
I00
sg4
Vlong
p2917
sS'attrChildrenNames'
p2918
(lp2919
sS'isMulti'
p2920
I00
sS'isCompound'
p2921
I00
sg10
I01
sg11
(lp2922
sS'isElement'
p2923
I00
ssVrenderLayerInfo[0]
p2924
(dp2925
g16
I00
sg10
I00
sg11
(lp2926
VrenderLayerInfo[0].renderLayerId
p2927
aVrenderLayerInfo[0].renderLayerRenderable
p2928
aVrenderLayerInfo[0].renderLayerColor
p2929
assVtarget[1].targetRotatePivot.targetRotatePivotZ
p2930
(dp2931
g16
I00
sg17
I00
sg18
Vtg[1].trpz
p2932
sg10
I00
sg11
(lp2933
ssVtarget[1].targetRotatePivot.targetRotatePivotX
p2934
(dp2935
g16
I00
sg17
I00
sg18
Vtg[1].trpx
p2936
sg10
I00
sg11
(lp2937
ssVtarget[1].targetRotatePivot.targetRotatePivotY
p2938
(dp2939
g16
I00
sg17
I00
sg18
Vtg[1].trpy
p2940
sg10
I00
sg11
(lp2941
ssVtarget[2].targetRotatePivot
p2942
(dp2943
g16
I00
sg398
I00
sg18
Vtg[2].trp
p2944
sg10
I00
sg11
(lp2945
Vtarget[2].targetRotatePivot.targetRotatePivotX
p2946
aVtarget[2].targetRotatePivot.targetRotatePivotY
p2947
aVtarget[2].targetRotatePivot.targetRotatePivotZ
p2948
assg1814
(dp2949
g62
I00
sg398
I00
sg67
I00
sg68
(lp2950
g1002
ag1005
ag989
assVmaxScaleLimitEnable
p2951
(dp2952
g62
I00
sg63
VTdataCompound
p2953
sg65
I00
sg67
I00
sg68
(lp2954
VmaxScaleLimitEnable.maxScaleXLimitEnable
p2955
aVmaxScaleLimitEnable.maxScaleYLimitEnable
p2956
aVmaxScaleLimitEnable.maxScaleZLimitEnable
p2957
assVscale.scaleX
p2958
(dp2959
S'isArray'
p2960
I00
sS'attrParentLongName'
p2961
Vscale
p2962
sS'attrChildrenNames'
p2963
(lp2964
sg4
Vdouble
p2965
sS'isMulti'
p2966
I00
sS'isCompound'
p2967
I00
sg10
I01
sg11
(lp2968
sS'isElement'
p2969
I00
ssVboundingBox
p2970
(dp2971
S'isArray'
p2972
I00
sg4
VTdataCompound
p2973
sS'attrChildrenNames'
p2974
(lp2975
VboundingBox.boundingBoxMin
p2976
aVboundingBox.boundingBoxMax
p2977
aVboundingBox.boundingBoxSize
p2978
asS'isMulti'
p2979
I00
sS'isCompound'
p2980
I01
sg10
I00
sg11
(lp2981
VboundingBox.boundingBoxMin
p2982
aVboundingBox.boundingBoxMax
p2983
aVboundingBox.boundingBoxSize
p2984
asS'isElement'
p2985
I00
ssVboundingBox.boundingBoxMin
p2986
(dp2987
S'isArray'
p2988
I00
sS'attrParentLongName'
p2989
VboundingBox
p2990
sS'attrChildrenNames'
p2991
(lp2992
VboundingBox.boundingBoxMin.boundingBoxMinX
p2993
aVboundingBox.boundingBoxMin.boundingBoxMinY
p2994
aVboundingBox.boundingBoxMin.boundingBoxMinZ
p2995
asg4
Vdouble3
p2996
sS'isMulti'
p2997
I00
sS'isCompound'
p2998
I01
sg10
I01
sg11
(lp2999
VboundingBox.boundingBoxMin.boundingBoxMinX
p3000
aVboundingBox.boundingBoxMin.boundingBoxMinY
p3001
aVboundingBox.boundingBoxMin.boundingBoxMinZ
p3002
asS'isElement'
p3003
I00
ssg1161
(dp3004
g62
I00
sg398
I00
sg67
I00
sg68
(lp3005
ssVtarget[0].targetRotateOrder
p3006
(dp3007
S'isArray'
p3008
I00
sS'attrParentLongName'
p3009
Vtarget[0]
p3010
sS'attrChildrenNames'
p3011
(lp3012
sg4
Venum
p3013
sS'isMulti'
p3014
I00
sS'isCompound'
p3015
I00
sg10
I01
sg18
Vtg[0].tro
p3016
sg11
(lp3017
sS'isElement'
p3018
I00
ssVspecifiedManipLocation
p3019
(dp3020
S'isArray'
p3021
I00
sg4
NsS'attrChildrenNames'
p3022
(lp3023
sS'isMulti'
p3024
I00
sS'isCompound'
p3025
I00
sg10
I00
sg11
(lp3026
sS'isElement'
p3027
I00
ssVtarget[1].targetRotateTranslate.targetRotateTranslateZ
p3028
(dp3029
g16
I00
sg17
I00
sg18
Vtg[1].trtz
p3030
sg10
I00
sg11
(lp3031
ssVtarget[1].targetRotateTranslate.targetRotateTranslateX
p3032
(dp3033
g16
I00
sg17
I00
sg18
Vtg[1].trtx
p3034
sg10
I00
sg11
(lp3035
ssVinstObjGroups[0].objectGroups
p3036
(dp3037
S'isArray'
p3038
I01
sS'isElement'
p3039
I00
sS'attrParentLongName'
p3040
VinstObjGroups[0]
p3041
sg10
I00
ssg1816
(dp3042
g62
I00
sg398
I00
sg67
I00
sg68
(lp3043
Vtarget[3].targetJointOrient.targetJointOrientX
p3044
aVtarget[3].targetJointOrient.targetJointOrientY
p3045
aVtarget[3].targetJointOrient.targetJointOrientZ
p3046
assVminScaleLimit
p3047
(dp3048
g62
I00
sg63
Vdouble3
p3049
sg65
I00
sg66
I01
sg67
I01
sg68
(lp3050
VminScaleLimit.minScaleXLimit
p3051
aVminScaleLimit.minScaleYLimit
p3052
aVminScaleLimit.minScaleZLimit
p3053
assg1310
(dp3054
g88
I00
sg89
(lp3055
ssg1311
(dp3056
g88
I00
sg89
(lp3057
ssg1312
(dp3058
g88
I00
sg89
(lp3059
ssVlodVisibility
p3060
(dp3061
S'isArray'
p3062
I00
sg4
Vbool
p3063
sS'attrChildrenNames'
p3064
(lp3065
sS'isMulti'
p3066
I00
sS'isCompound'
p3067
I00
sg10
I01
sg11
(lp3068
sS'isElement'
p3069
I00
ssVtarget[5].targetOffsetRotate.targetOffsetRotateZ
p3070
(dp3071
g88
I00
sg89
(lp3072
ssVtarget[5].targetOffsetRotate.targetOffsetRotateX
p3073
(dp3074
g88
I00
sg89
(lp3075
ssVtarget[5].targetOffsetRotate.targetOffsetRotateY
p3076
(dp3077
g88
I00
sg89
(lp3078
ssVtarget[1].targetTranslate.targetTranslateY
p3079
(dp3080
g16
I00
sg17
I00
sg18
Vtg[1].tty
p3081
sg10
I00
sg11
(lp3082
ssVscale.scaleZ
p3083
(dp3084
S'isArray'
p3085
I00
sS'attrParentLongName'
p3086
Vscale
p3087
sS'attrChildrenNames'
p3088
(lp3089
sg4
Vdouble
p3090
sS'isMulti'
p3091
I00
sS'isCompound'
p3092
I00
sg10
I01
sg11
(lp3093
sS'isElement'
p3094
I00
ssVtarget[5].targetJointOrient.targetJointOrientZ
p3095
(dp3096
g88
I00
sg89
(lp3097
ssVtarget[5].targetJointOrient.targetJointOrientX
p3098
(dp3099
g88
I00
sg89
(lp3100
ssVtarget[5].targetJointOrient.targetJointOrientY
p3101
(dp3102
g88
I00
sg89
(lp3103
ssVinstObjGroups[0].objectGroups[1].objectGrpCompList
p3104
(dp3105
g16
I00
sg10
I00
sg11
(lp3106
ssVdrawOverride.overridePlayback
p3107
(dp3108
S'isArray'
p3109
I00
sS'attrParentLongName'
p3110
VdrawOverride
p3111
sS'attrChildrenNames'
p3112
(lp3113
sg4
Vbool
p3114
sS'isMulti'
p3115
I00
sS'isCompound'
p3116
I00
sg10
I01
sg11
(lp3117
sS'isElement'
p3118
I00
ssVghostColorPostA
p3119
(dp3120
g589
I00
sg590
Vfloat
p3121
sg592
I01
sg593
(lp3122
ssVghostColorPost.ghostColorPostB
p3123
(dp3124
g589
I00
sg590
Vfloat
p3125
sg592
I01
sg593
(lp3126
ssVcenter
p3127
(dp3128
S'isArray'
p3129
I00
sg4
Vdouble3
p3130
sS'attrChildrenNames'
p3131
(lp3132
Vcenter.boundingBoxCenterX
p3133
aVcenter.boundingBoxCenterY
p3134
aVcenter.boundingBoxCenterZ
p3135
asS'isMulti'
p3136
I00
sS'isCompound'
p3137
I01
sg10
I01
sg11
(lp3138
Vcenter.boundingBoxCenterX
p3139
aVcenter.boundingBoxCenterY
p3140
aVcenter.boundingBoxCenterZ
p3141
asS'isElement'
p3142
I00
ssVdrawOverride.overrideShading
p3143
(dp3144
S'isArray'
p3145
I00
sS'attrParentLongName'
p3146
VdrawOverride
p3147
sS'attrChildrenNames'
p3148
(lp3149
sg4
Vbool
p3150
sS'isMulti'
p3151
I00
sS'isCompound'
p3152
I00
sg10
I01
sg11
(lp3153
sS'isElement'
p3154
I00
ssVghostColorPost.ghostColorPostG
p3155
(dp3156
g589
I00
sg590
Vfloat
p3157
sg592
I01
sg593
(lp3158
ssVrenderLayerInfo.renderLayerColor
p3159
(dp3160
g72
VrenderLayerInfo
p3161
ssVtarget[4].targetOffsetRotate
p3162
(dp3163
g88
I00
sg89
(lp3164
g1932
ag1929
ag1926
assVtarget[1].targetOffsetTranslate
p3165
(dp3166
g16
I00
sg17
I00
sg18
Vtg[1].tot
p3167
sg10
I00
sg11
(lp3168
Vtarget[1].targetOffsetTranslate.targetOffsetTranslateX
p3169
aVtarget[1].targetOffsetTranslate.targetOffsetTranslateY
p3170
aVtarget[1].targetOffsetTranslate.targetOffsetTranslateZ
p3171
assVinstObjGroups[0].objectGroups[1].objectGrpColor
p3172
(dp3173
g16
I00
sg10
I00
sg11
(lp3174
ssVtarget[0].targetOffsetRotate
p3175
(dp3176
S'isArray'
p3177
I00
sS'attrParentLongName'
p3178
Vtarget[0]
p3179
sS'attrChildrenNames'
p3180
(lp3181
Vtarget[0].targetOffsetRotate.targetOffsetRotateX
p3182
aVtarget[0].targetOffsetRotate.targetOffsetRotateY
p3183
aVtarget[0].targetOffsetRotate.targetOffsetRotateZ
p3184
asg4
Vdouble3
p3185
sS'isMulti'
p3186
I00
sS'isCompound'
p3187
I01
sg10
I01
sg18
Vtg[0].tor
p3188
sg11
(lp3189
Vtarget[0].targetOffsetRotate.targetOffsetRotateX
p3190
aVtarget[0].targetOffsetRotate.targetOffsetRotateY
p3191
aVtarget[0].targetOffsetRotate.targetOffsetRotateZ
p3192
asS'isElement'
p3193
I00
ssVghostColorPost.ghostColorPostR
p3194
(dp3195
g589
I00
sg590
Vfloat
p3196
sg592
I01
sg593
(lp3197
ssVrotatePivotTranslate
p3198
(dp3199
S'isArray'
p3200
I00
sg4
Vdouble3
p3201
sS'attrChildrenNames'
p3202
(lp3203
VrotatePivotTranslate.rotatePivotTranslateX
p3204
aVrotatePivotTranslate.rotatePivotTranslateY
p3205
aVrotatePivotTranslate.rotatePivotTranslateZ
p3206
asS'isMulti'
p3207
I00
sS'isCompound'
p3208
I01
sg10
I01
sg11
(lp3209
VrotatePivotTranslate.rotatePivotTranslateX
p3210
aVrotatePivotTranslate.rotatePivotTranslateY
p3211
aVrotatePivotTranslate.rotatePivotTranslateZ
p3212
asS'isElement'
p3213
I00
ssVintermediateObject
p3214
(dp3215
S'isArray'
p3216
I00
sg4
Vbool
p3217
sS'attrChildrenNames'
p3218
(lp3219
sS'isMulti'
p3220
I00
sS'isCompound'
p3221
I00
sg10
I01
sg11
(lp3222
sS'isElement'
p3223
I00
ssg1117
(dp3224
g88
I00
sg89
(lp3225
ssVghostColorPost
p3226
(dp3227
g589
I00
sg590
Vfloat3
p3228
sg592
I00
sg593
(lp3229
g3194
ag3155
ag3123
assg1116
(dp3230
g88
I00
sg89
(lp3231
ssVtarget[5].targetParentMatrix
p3232
(dp3233
g88
I00
sg89
(lp3234
ssVminRotLimitEnable.minRotZLimitEnable
p3235
(dp3236
g62
I00
sg63
Vbool
p3237
sg65
I00
sg66
I00
sg67
I01
sg68
(lp3238
ssVtarget[1].targetWeight
p3239
(dp3240
g16
I00
sg17
I00
sg18
Vtg[1].tw
p3241
sg10
I00
sg11
(lp3242
ssVmaxRotLimit.maxRotYLimit
p3243
(dp3244
g62
I00
sg63
VdoubleAngle
p3245
sg65
I00
sg66
I00
sg67
I01
sg68
(lp3246
ssVmaxTransLimitEnable
p3247
(dp3248
g62
I00
sg63
VTdataCompound
p3249
sg65
I00
sg67
I00
sg68
(lp3250
VmaxTransLimitEnable.maxTransXLimitEnable
p3251
aVmaxTransLimitEnable.maxTransYLimitEnable
p3252
aVmaxTransLimitEnable.maxTransZLimitEnable
p3253
assg1507
(dp3254
g62
I00
sg398
I00
sg67
I00
sg68
(lp3255
ssg1508
(dp3256
g62
I00
sg398
I00
sg67
I00
sg68
(lp3257
ssg1509
(dp3258
g62
I00
sg398
I00
sg67
I00
sg68
(lp3259
ssVtarget.targetRotateCached
p3260
(dp3261
g72
Vtarget
p3262
ssVminRotLimitEnable.minRotXLimitEnable
p3263
(dp3264
g62
I00
sg63
Vbool
p3265
sg65
I00
sg66
I00
sg67
I01
sg68
(lp3266
ssg3044
(dp3267
g62
I00
sg398
I00
sg67
I00
sg68
(lp3268
ssg3045
(dp3269
g62
I00
sg398
I00
sg67
I00
sg68
(lp3270
ssg3046
(dp3271
g62
I00
sg398
I00
sg67
I00
sg68
(lp3272
ssg1811
(dp3273
g62
I00
sg398
I00
sg67
I00
sg68
(lp3274
ssVmaxTransLimitEnable.maxTransZLimitEnable
p3275
(dp3276
g62
I00
sg63
Vbool
p3277
sg65
I00
sg66
I00
sg67
I01
sg68
(lp3278
ssVworldInverseMatrix[1]
p3279
(dp3280
g16
I00
sg10
I00
sg11
(lp3281
ssVrotatePivotTranslate.rotatePivotTranslateZ
p3282
(dp3283
S'isArray'
p3284
I00
sS'attrParentLongName'
p3285
VrotatePivotTranslate
p3286
sS'attrChildrenNames'
p3287
(lp3288
sg4
VdoubleLinear
p3289
sS'isMulti'
p3290
I00
sS'isCompound'
p3291
I00
sg10
I01
sg11
(lp3292
sS'isElement'
p3293
I00
ssVrotatePivotTranslate.rotatePivotTranslateX
p3294
(dp3295
S'isArray'
p3296
I00
sS'attrParentLongName'
p3297
VrotatePivotTranslate
p3298
sS'attrChildrenNames'
p3299
(lp3300
sg4
VdoubleLinear
p3301
sS'isMulti'
p3302
I00
sS'isCompound'
p3303
I00
sg10
I01
sg11
(lp3304
sS'isElement'
p3305
I00
ssVrotatePivotTranslate.rotatePivotTranslateY
p3306
(dp3307
S'isArray'
p3308
I00
sS'attrParentLongName'
p3309
VrotatePivotTranslate
p3310
sS'attrChildrenNames'
p3311
(lp3312
sg4
VdoubleLinear
p3313
sS'isMulti'
p3314
I00
sS'isCompound'
p3315
I00
sg10
I01
sg11
(lp3316
sS'isElement'
p3317
I00
ssVrotate
p3318
(dp3319
S'isArray'
p3320
I00
sg4
Vdouble3
p3321
sS'attrChildrenNames'
p3322
(lp3323
Vrotate.rotateX
p3324
aVrotate.rotateY
p3325
aVrotate.rotateZ
p3326
asS'isMulti'
p3327
I00
sS'isCompound'
p3328
I01
sg10
I01
sg11
(lp3329
Vrotate.rotateX
p3330
aVrotate.rotateY
p3331
aVrotate.rotateZ
p3332
asS'isElement'
p3333
I00
ssVtarget.targetTranslate
p3334
(dp3335
g329
Vtarget
p3336
ssVtarget[1].targetOffsetRotate.targetOffsetRotateZ
p3337
(dp3338
g16
I00
sg17
I00
sg18
Vtg[1].torz
p3339
sg10
I00
sg11
(lp3340
ssVtarget[1].targetOffsetRotate.targetOffsetRotateX
p3341
(dp3342
g16
I00
sg17
I00
sg18
Vtg[1].torx
p3343
sg10
I00
sg11
(lp3344
ssVtarget[1].targetOffsetRotate.targetOffsetRotateY
p3345
(dp3346
g16
I00
sg17
I00
sg18
Vtg[1].tory
p3347
sg10
I00
sg11
(lp3348
ssVparentInverseMatrix[0]
p3349
(dp3350
g16
I00
sg10
I00
sg11
(lp3351
ssVrenderLayerInfo[1].renderLayerId
p3352
(dp3353
g16
I00
sg10
I00
sg11
(lp3354
ssVobjectColor
p3355
(dp3356
S'isArray'
p3357
I00
sg4
Vshort
p3358
sS'attrChildrenNames'
p3359
(lp3360
sS'isMulti'
p3361
I00
sS'isCompound'
p3362
I00
sg10
I01
sg11
(lp3363
sS'isElement'
p3364
I00
ssg1813
(dp3365
g62
I00
sg398
I00
sg67
I00
sg68
(lp3366
Vtarget[3].targetOffsetTranslate.targetOffsetTranslateX
p3367
aVtarget[3].targetOffsetTranslate.targetOffsetTranslateY
p3368
aVtarget[3].targetOffsetTranslate.targetOffsetTranslateZ
p3369
assVmentalRayControls.miGeoShader
p3370
(dp3371
S'isArray'
p3372
I00
sS'attrParentLongName'
p3373
VmentalRayControls
p3374
sS'attrChildrenNames'
p3375
(lp3376
sg4
NsS'isMulti'
p3377
I00
sS'isCompound'
p3378
I00
sg10
I00
sg11
(lp3379
sS'isElement'
p3380
I00
ssVconstraintRotateOrder
p3381
(dp3382
S'isArray'
p3383
I00
sg4
Venum
p3384
sS'attrChildrenNames'
p3385
(lp3386
sS'isMulti'
p3387
I00
sS'isCompound'
p3388
I00
sg10
I01
sg18
Vcro
p3389
sg11
(lp3390
sS'isElement'
p3391
I00
ssg2893
(dp3392
g589
I00
sg590
Vfloat
p3393
sg592
I01
sg593
(lp3394
ssg2450
(dp3395
g62
I00
sg398
I00
sg67
I00
sg68
(lp3396
ssg2451
(dp3397
g62
I00
sg398
I00
sg67
I00
sg68
(lp3398
ssVtarget[2].targetOffsetTranslate.targetOffsetTranslateY
p3399
(dp3400
g16
I00
sg398
I00
sg18
Vtg[2].toty
p3401
sg10
I00
sg11
(lp3402
ssVtarget[2].targetOffsetTranslate.targetOffsetTranslateX
p3403
(dp3404
g16
I00
sg398
I00
sg18
Vtg[2].totx
p3405
sg10
I00
sg11
(lp3406
ssVtarget[2].targetOffsetTranslate.targetOffsetTranslateZ
p3407
(dp3408
g16
I00
sg398
I00
sg18
Vtg[2].totz
p3409
sg10
I00
sg11
(lp3410
ssVpublishedNodeInfo[0]
p3411
(dp3412
g16
I00
sg10
I00
sg11
(lp3413
VpublishedNodeInfo[0].publishedNode
p3414
aVpublishedNodeInfo[0].isHierarchicalNode
p3415
aVpublishedNodeInfo[0].publishedNodeType
p3416
assVtarget[1].targetRotateTranslate
p3417
(dp3418
g16
I00
sg17
I00
sg18
Vtg[1].trt
p3419
sg10
I00
sg11
(lp3420
Vtarget[1].targetRotateTranslate.targetRotateTranslateX
p3421
aVtarget[1].targetRotateTranslate.targetRotateTranslateY
p3422
aVtarget[1].targetRotateTranslate.targetRotateTranslateZ
p3423
assg2894
(dp3424
g589
I00
sg590
Vfloat
p3425
sg592
I01
sg593
(lp3426
ssVtarget[0].targetWeight
p3427
(dp3428
S'isArray'
p3429
I00
sS'attrParentLongName'
p3430
Vtarget[0]
p3431
sS'attrChildrenNames'
p3432
(lp3433
sg4
Vdouble
p3434
sS'isMulti'
p3435
I00
sS'isCompound'
p3436
I00
sg10
I01
sg18
Vtg[0].tw
p3437
sg11
(lp3438
sS'isElement'
p3439
I00
ssg2895
(dp3440
g589
I00
sg590
Vfloat
p3441
sg592
I01
sg593
(lp3442
ssVpublishedNodeInfo[0].publishedNode
p3443
(dp3444
S'isArray'
p3445
I00
sS'attrParentLongName'
p3446
VpublishedNodeInfo[0]
p3447
sS'attrChildrenNames'
p3448
(lp3449
sg10
I00
sg11
(lp3450
sS'isElement'
p3451
I00
ssVpublishedNodeInfo[1].isHierarchicalNode
p3452
(dp3453
g16
I00
sg10
I00
sg11
(lp3454
ssVscale
p3455
(dp3456
S'isArray'
p3457
I00
sg4
Vdouble3
p3458
sS'attrChildrenNames'
p3459
(lp3460
Vscale.scaleX
p3461
aVscale.scaleY
p3462
aVscale.scaleZ
p3463
asS'isMulti'
p3464
I00
sS'isCompound'
p3465
I01
sg10
I01
sg11
(lp3466
Vscale.scaleX
p3467
aVscale.scaleY
p3468
aVscale.scaleZ
p3469
asS'isElement'
p3470
I00
ssVtarget[2].targetRotateTranslate
p3471
(dp3472
g16
I00
sg398
I00
sg18
Vtg[2].trt
p3473
sg10
I00
sg11
(lp3474
Vtarget[2].targetRotateTranslate.targetRotateTranslateX
p3475
aVtarget[2].targetRotateTranslate.targetRotateTranslateY
p3476
aVtarget[2].targetRotateTranslate.targetRotateTranslateZ
p3477
assVtarget.targetRotateZ
p3478
(dp3479
g72
Vtarget.targetRotate
p3480
ssVtarget.targetRotateY
p3481
(dp3482
g72
Vtarget.targetRotate
p3483
ssVtarget.targetRotateX
p3484
(dp3485
g72
Vtarget.targetRotate
p3486
ssVviewName
p3487
(dp3488
S'isArray'
p3489
I00
sg4
Vstring
p3490
sS'attrChildrenNames'
p3491
(lp3492
sS'isMulti'
p3493
I00
sS'isCompound'
p3494
I00
sg10
I01
sg11
(lp3495
sS'isElement'
p3496
I00
ssVtarget[1].targetTranslate
p3497
(dp3498
g16
I00
sg17
I00
sg18
Vtg[1].tt
p3499
sg10
I00
sg11
(lp3500
Vtarget[1].targetTranslate.targetTranslateX
p3501
aVtarget[1].targetTranslate.targetTranslateY
p3502
aVtarget[1].targetTranslate.targetTranslateZ
p3503
assVinstObjGroups[0].objectGroups[1]
p3504
(dp3505
g16
I00
sg10
I00
sg11
(lp3506
VinstObjGroups[0].objectGroups[1].objectGrpCompList
p3507
aVinstObjGroups[0].objectGroups[1].objectGroupId
p3508
aVinstObjGroups[0].objectGroups[1].objectGrpColor
p3509
assVminTransLimit.minTransYLimit
p3510
(dp3511
g62
I00
sg63
VdoubleLinear
p3512
sg65
I00
sg66
I00
sg67
I01
sg68
(lp3513
ssViconName
p3514
(dp3515
S'isArray'
p3516
I00
sg4
Vstring
p3517
sS'attrChildrenNames'
p3518
(lp3519
sS'isMulti'
p3520
I00
sS'isCompound'
p3521
I00
sg10
I01
sg11
(lp3522
sS'isElement'
p3523
I00
ssg3367
(dp3524
g62
I00
sg398
I00
sg67
I00
sg68
(lp3525
ssg3368
(dp3526
g62
I00
sg398
I00
sg67
I00
sg68
(lp3527
ssg3369
(dp3528
g62
I00
sg398
I00
sg67
I00
sg68
(lp3529
ssVmaxScaleLimitEnable.maxScaleZLimitEnable
p3530
(dp3531
g62
I00
sg63
Vbool
p3532
sg65
I00
sg66
I00
sg67
I01
sg68
(lp3533
ssVtarget[2].targetOffsetRotate.targetOffsetRotateY
p3534
(dp3535
g16
I00
sg398
I00
sg18
Vtg[2].tory
p3536
sg10
I00
sg11
(lp3537
ssVtarget[2].targetOffsetRotate.targetOffsetRotateX
p3538
(dp3539
g16
I00
sg398
I00
sg18
Vtg[2].torx
p3540
sg10
I00
sg11
(lp3541
ssVtarget[2].targetOffsetRotate.targetOffsetRotateZ
p3542
(dp3543
g16
I00
sg398
I00
sg18
Vtg[2].torz
p3544
sg10
I00
sg11
(lp3545
ssVtarget[5]
p3546
(dp3547
g88
I00
sg89
(lp3548
g3232
ag1764
aVtarget[5].targetRotateCached
p3549
aVtarget[5].targetTranslate
p3550
ag1213
ag2714
ag1112
ag1307
ag393
aVtarget[5].targetJointOrient
p3551
aVtarget[5].targetOffsetRotate
p3552
ag1669
assVtarget.targetJointOrientY
p3553
(dp3554
g72
Vtarget.targetJointOrient
p3555
ssVtarget[0].targetRotatePivot
p3556
(dp3557
S'isArray'
p3558
I00
sS'attrParentLongName'
p3559
Vtarget[0]
p3560
sS'attrChildrenNames'
p3561
(lp3562
Vtarget[0].targetRotatePivot.targetRotatePivotX
p3563
aVtarget[0].targetRotatePivot.targetRotatePivotY
p3564
aVtarget[0].targetRotatePivot.targetRotatePivotZ
p3565
asg4
Vdouble3
p3566
sS'isMulti'
p3567
I00
sS'isCompound'
p3568
I01
sg10
I01
sg18
Vtg[0].trp
p3569
sg11
(lp3570
Vtarget[0].targetRotatePivot.targetRotatePivotX
p3571
aVtarget[0].targetRotatePivot.targetRotatePivotY
p3572
aVtarget[0].targetRotatePivot.targetRotatePivotZ
p3573
asS'isElement'
p3574
I00
ssVinstObjGroups
p3575
(dp3576
S'isArray'
p3577
I01
sS'isElement'
p3578
I00
sS'isMulti'
p3579
I01
sg10
I00
sg4
VTdataCompound
p3580
ssVtarget.targetJointOrientZ
p3581
(dp3582
g72
Vtarget.targetJointOrient
p3583
ssVworldMatrix[0]
p3584
(dp3585
g16
I00
sg10
I00
sg11
(lp3586
ssVdrawOverride.overrideVisibility
p3587
(dp3588
S'isArray'
p3589
I00
sS'attrParentLongName'
p3590
VdrawOverride
p3591
sS'attrChildrenNames'
p3592
(lp3593
sg4
Vbool
p3594
sS'isMulti'
p3595
I00
sS'isCompound'
p3596
I00
sg10
I01
sg11
(lp3597
sS'isElement'
p3598
I00
ssVtarget[4].targetRotate.targetRotateY
p3599
(dp3600
g88
I00
sg89
(lp3601
ssg2449
(dp3602
g62
I00
sg398
I00
sg67
I00
sg68
(lp3603
ssVtarget[4].targetRotate.targetRotateZ
p3604
(dp3605
g88
I00
sg89
(lp3606
ssVdisplayLocalAxis
p3607
(dp3608
S'isArray'
p3609
I00
sg4
Vbool
p3610
sS'attrChildrenNames'
p3611
(lp3612
sS'isMulti'
p3613
I00
sS'isCompound'
p3614
I00
sg10
I01
sg11
(lp3615
sS'isElement'
p3616
I00
ssVpublishedNodeInfo[1].publishedNode
p3617
(dp3618
g16
I00
sg10
I00
sg11
(lp3619
ssVghostColorPreA
p3620
(dp3621
g589
I00
sg590
Vfloat
p3622
sg592
I01
sg593
(lp3623
ssg3549
(dp3624
g88
I00
sg89
(lp3625
g1252
ag1255
ag1258
assVtarget.targetRotate
p3626
(dp3627
g329
Vtarget
p3628
ssVtarget[2].targetOffsetTranslate
p3629
(dp3630
g16
I00
sg398
I00
sg18
Vtg[2].tot
p3631
sg10
I00
sg11
(lp3632
Vtarget[2].targetOffsetTranslate.targetOffsetTranslateX
p3633
aVtarget[2].targetOffsetTranslate.targetOffsetTranslateY
p3634
aVtarget[2].targetOffsetTranslate.targetOffsetTranslateZ
p3635
assVtarget[4].targetRotate
p3636
(dp3637
g88
I00
sg89
(lp3638
g1778
ag3599
ag3604
assVtarget[0].targetOffsetTranslate.targetOffsetTranslateY
p3639
(dp3640
S'isArray'
p3641
I00
sS'attrParentLongName'
p3642
Vtarget[0].targetOffsetTranslate
p3643
sS'attrChildrenNames'
p3644
(lp3645
sg4
VdoubleLinear
p3646
sS'isMulti'
p3647
I00
sS'isCompound'
p3648
I00
sg10
I01
sg18
Vtg[0].toty
p3649
sg11
(lp3650
sS'isElement'
p3651
I00
ssVtranslate
p3652
(dp3653
S'isArray'
p3654
I00
sg4
Vdouble3
p3655
sS'attrChildrenNames'
p3656
(lp3657
Vtranslate.translateX
p3658
aVtranslate.translateY
p3659
aVtranslate.translateZ
p3660
asS'isMulti'
p3661
I00
sS'isCompound'
p3662
I01
sg10
I01
sg11
(lp3663
Vtranslate.translateX
p3664
aVtranslate.translateY
p3665
aVtranslate.translateZ
p3666
asS'isElement'
p3667
I00
ssg1515
(dp3668
g62
I00
sg398
I00
sg67
I00
sg68
(lp3669
ssg1516
(dp3670
g62
I00
sg398
I00
sg67
I00
sg68
(lp3671
ssg1517
(dp3672
g62
I00
sg398
I00
sg67
I00
sg68
(lp3673
ssVtarget[0].targetRotateTranslate.targetRotateTranslateX
p3674
(dp3675
S'isArray'
p3676
I00
sS'attrParentLongName'
p3677
Vtarget[0].targetRotateTranslate
p3678
sS'attrChildrenNames'
p3679
(lp3680
sg4
VdoubleLinear
p3681
sS'isMulti'
p3682
I00
sS'isCompound'
p3683
I00
sg10
I01
sg18
Vtg[0].trtx
p3684
sg11
(lp3685
sS'isElement'
p3686
I00
ssVtarget[4]
p3687
(dp3688
g88
I00
sg89
(lp3689
g1675
ag1951
ag1182
ag1617
ag1614
ag1319
ag253
ag3636
aVtarget[4].targetRotateOrder
p3690
ag881
ag3162
ag568
assVtarget[1]
p3691
(dp3692
g16
I00
sg17
I00
sg18
Vtg[1]
p3693
sg10
I00
sg11
(lp3694
Vtarget[1].targetParentMatrix
p3695
aVtarget[1].targetWeight
p3696
aVtarget[1].targetRotateCached
p3697
aVtarget[1].targetTranslate
p3698
aVtarget[1].targetRotatePivot
p3699
aVtarget[1].targetRotateTranslate
p3700
aVtarget[1].targetOffsetTranslate
p3701
aVtarget[1].targetRotate
p3702
aVtarget[1].targetRotateOrder
p3703
aVtarget[1].targetJointOrient
p3704
aVtarget[1].targetOffsetRotate
p3705
aVtarget[1].targetScale
p3706
assg1324
(dp3707
g88
I00
sg89
(lp3708
ssg1323
(dp3709
g88
I00
sg89
(lp3710
ssg1322
(dp3711
g88
I00
sg89
(lp3712
ssVtarget.targetRotatePivotX
p3713
(dp3714
g72
Vtarget.targetRotatePivot
p3715
ssVtarget.targetRotatePivotY
p3716
(dp3717
g72
Vtarget.targetRotatePivot
p3718
ssVtarget.targetRotatePivotZ
p3719
(dp3720
g72
Vtarget.targetRotatePivot
p3721
ssg1812
(dp3722
g62
I00
sg398
I00
sg67
I00
sg68
(lp3723
g1103
ag1106
ag1109
assVtarget[0].targetRotatePivot.targetRotatePivotX
p3724
(dp3725
S'isArray'
p3726
I00
sS'attrParentLongName'
p3727
Vtarget[0].targetRotatePivot
p3728
sS'attrChildrenNames'
p3729
(lp3730
sg4
VdoubleLinear
p3731
sS'isMulti'
p3732
I00
sS'isCompound'
p3733
I00
sg10
I01
sg18
Vtg[0].trpx
p3734
sg11
(lp3735
sS'isElement'
p3736
I00
ssg1810
(dp3737
g62
I00
sg398
I00
sg67
I00
sg68
(lp3738
ssVinstObjGroups[0].objectGroups[1].objectGroupId
p3739
(dp3740
g16
I00
sg10
I00
sg11
(lp3741
ssVtarget[2].targetJointOrient.targetJointOrientY
p3742
(dp3743
g16
I00
sg398
I00
sg18
Vtg[2].tjoy
p3744
sg10
I00
sg11
(lp3745
ssVconstraintJointOrient
p3746
(dp3747
S'isArray'
p3748
I00
sg4
Vdouble3
p3749
sS'attrChildrenNames'
p3750
(lp3751
VconstraintJointOrient.constraintJointOrientX
p3752
aVconstraintJointOrient.constraintJointOrientY
p3753
aVconstraintJointOrient.constraintJointOrientZ
p3754
asS'isMulti'
p3755
I00
sS'isCompound'
p3756
I01
sg10
I01
sg18
Vcjo
p3757
sg11
(lp3758
VconstraintJointOrient.constraintJointOrientX
p3759
aVconstraintJointOrient.constraintJointOrientY
p3760
aVconstraintJointOrient.constraintJointOrientZ
p3761
asS'isElement'
p3762
I00
ssVtarget[2].targetJointOrient.targetJointOrientX
p3763
(dp3764
g16
I00
sg398
I00
sg18
Vtg[2].tjox
p3765
sg10
I00
sg11
(lp3766
ssVobjectColorRGB.objectColorG
p3767
(dp3768
S'attrParentLongName'
p3769
VobjectColorRGB
p3770
sg589
I00
sg593
(lp3771
sg592
I01
sg590
Vfloat
p3772
ssVminTransLimit.minTransZLimit
p3773
(dp3774
g62
I00
sg63
VdoubleLinear
p3775
sg65
I00
sg66
I00
sg67
I01
sg68
(lp3776
ssVminRotLimit.minRotYLimit
p3777
(dp3778
g62
I00
sg63
VdoubleAngle
p3779
sg65
I00
sg66
I00
sg67
I01
sg68
(lp3780
ssVobjectColorRGB.objectColorB
p3781
(dp3782
g3769
VobjectColorRGB
p3783
sg589
I00
sg593
(lp3784
sg592
I01
sg590
Vfloat
p3785
ssVtarget[1].targetRotatePivot
p3786
(dp3787
g16
I00
sg17
I00
sg18
Vtg[1].trp
p3788
sg10
I00
sg11
(lp3789
Vtarget[1].targetRotatePivot.targetRotatePivotX
p3790
aVtarget[1].targetRotatePivot.targetRotatePivotY
p3791
aVtarget[1].targetRotatePivot.targetRotatePivotZ
p3792
assVconstraintRotatePivot.constraintRotatePivotZ
p3793
(dp3794
S'isArray'
p3795
I00
sS'attrParentLongName'
p3796
VconstraintRotatePivot
p3797
sS'attrChildrenNames'
p3798
(lp3799
sg4
VdoubleLinear
p3800
sS'isMulti'
p3801
I00
sS'isCompound'
p3802
I00
sg10
I01
sg18
Vcrpz
p3803
sg11
(lp3804
sS'isElement'
p3805
I00
ssVconstraintRotatePivot.constraintRotatePivotX
p3806
(dp3807
S'isArray'
p3808
I00
sS'attrParentLongName'
p3809
VconstraintRotatePivot
p3810
sS'attrChildrenNames'
p3811
(lp3812
sg4
VdoubleLinear
p3813
sS'isMulti'
p3814
I00
sS'isCompound'
p3815
I00
sg10
I01
sg18
Vcrpx
p3816
sg11
(lp3817
sS'isElement'
p3818
I00
ssVconstraintRotatePivot.constraintRotatePivotY
p3819
(dp3820
S'isArray'
p3821
I00
sS'attrParentLongName'
p3822
VconstraintRotatePivot
p3823
sS'attrChildrenNames'
p3824
(lp3825
sg4
VdoubleLinear
p3826
sS'isMulti'
p3827
I00
sS'isCompound'
p3828
I00
sg10
I01
sg18
Vcrpy
p3829
sg11
(lp3830
sS'isElement'
p3831
I00
ssVtarget[0].targetOffsetTranslate
p3832
(dp3833
S'isArray'
p3834
I00
sS'attrParentLongName'
p3835
Vtarget[0]
p3836
sS'attrChildrenNames'
p3837
(lp3838
Vtarget[0].targetOffsetTranslate.targetOffsetTranslateX
p3839
aVtarget[0].targetOffsetTranslate.targetOffsetTranslateY
p3840
aVtarget[0].targetOffsetTranslate.targetOffsetTranslateZ
p3841
asg4
Vdouble3
p3842
sS'isMulti'
p3843
I00
sS'isCompound'
p3844
I01
sg10
I01
sg18
Vtg[0].tot
p3845
sg11
(lp3846
Vtarget[0].targetOffsetTranslate.targetOffsetTranslateX
p3847
aVtarget[0].targetOffsetTranslate.targetOffsetTranslateY
p3848
aVtarget[0].targetOffsetTranslate.targetOffsetTranslateZ
p3849
asS'isElement'
p3850
I00
ssVobjectColorRGB.objectColorR
p3851
(dp3852
g3769
VobjectColorRGB
p3853
sg589
I00
sg593
(lp3854
sg592
I01
sg590
Vfloat
p3855
ssVrestRotate.restRotateX
p3856
(dp3857
S'isArray'
p3858
I00
sS'attrParentLongName'
p3859
VrestRotate
p3860
sS'attrChildrenNames'
p3861
(lp3862
sg4
VdoubleAngle
p3863
sS'isMulti'
p3864
I00
sS'isCompound'
p3865
I00
sg10
I01
sg18
Vrrx
p3866
sg11
(lp3867
sS'isElement'
p3868
I00
ssVrestRotate.restRotateY
p3869
(dp3870
S'isArray'
p3871
I00
sS'attrParentLongName'
p3872
VrestRotate
p3873
sS'attrChildrenNames'
p3874
(lp3875
sg4
VdoubleAngle
p3876
sS'isMulti'
p3877
I00
sS'isCompound'
p3878
I00
sg10
I01
sg18
Vrry
p3879
sg11
(lp3880
sS'isElement'
p3881
I00
ssVtarget[2].targetRotatePivot.targetRotatePivotX
p3882
(dp3883
g16
I00
sg398
I00
sg18
Vtg[2].trpx
p3884
sg10
I00
sg11
(lp3885
ssVconstraintJointOrient.constraintJointOrientZ
p3886
(dp3887
S'isArray'
p3888
I00
sS'attrParentLongName'
p3889
VconstraintJointOrient
p3890
sS'attrChildrenNames'
p3891
(lp3892
sg4
VdoubleAngle
p3893
sS'isMulti'
p3894
I00
sS'isCompound'
p3895
I00
sg10
I01
sg18
Vcjoz
p3896
sg11
(lp3897
sS'isElement'
p3898
I00
ssVconstraintJointOrient.constraintJointOrientX
p3899
(dp3900
S'isArray'
p3901
I00
sS'attrParentLongName'
p3902
VconstraintJointOrient
p3903
sS'attrChildrenNames'
p3904
(lp3905
sg4
VdoubleAngle
p3906
sS'isMulti'
p3907
I00
sS'isCompound'
p3908
I00
sg10
I01
sg18
Vcjox
p3909
sg11
(lp3910
sS'isElement'
p3911
I00
ssVconstraintJointOrient.constraintJointOrientY
p3912
(dp3913
S'isArray'
p3914
I00
sS'attrParentLongName'
p3915
VconstraintJointOrient
p3916
sS'attrChildrenNames'
p3917
(lp3918
sg4
VdoubleAngle
p3919
sS'isMulti'
p3920
I00
sS'isCompound'
p3921
I00
sg10
I01
sg18
Vcjoy
p3922
sg11
(lp3923
sS'isElement'
p3924
I00
ssVmentalRayControls
p3925
(dp3926
S'isArray'
p3927
I00
sg4
VTdataCompound
p3928
sS'attrChildrenNames'
p3929
(lp3930
VmentalRayControls.miDeriveFromMaya
p3931
aVmentalRayControls.miHide
p3932
aVmentalRayControls.miVisible
p3933
aVmentalRayControls.miTrace
p3934
aVmentalRayControls.miShadow
p3935
aVmentalRayControls.miCaustic
p3936
aVmentalRayControls.miGlobillum
p3937
aVmentalRayControls.miExportGeoShader
p3938
aVmentalRayControls.miGeoShader
p3939
aVmentalRayControls.miProxyRenderable
p3940
asS'isMulti'
p3941
I00
sS'isCompound'
p3942
I01
sg10
I00
sg11
(lp3943
VmentalRayControls.miDeriveFromMaya
p3944
aVmentalRayControls.miHide
p3945
aVmentalRayControls.miVisible
p3946
aVmentalRayControls.miTrace
p3947
aVmentalRayControls.miShadow
p3948
aVmentalRayControls.miCaustic
p3949
aVmentalRayControls.miGlobillum
p3950
aVmentalRayControls.miExportGeoShader
p3951
aVmentalRayControls.miGeoShader
p3952
aVmentalRayControls.miProxyRenderable
p3953
asS'isElement'
p3954
I00
ssVinstObjGroups[2]
p3955
(dp3956
g677
I00
sg678
I00
sg1422
(lp3957
g675
assVworldInverseMatrix
p3958
(dp3959
S'isArray'
p3960
I01
sS'isElement'
p3961
I00
sS'isMulti'
p3962
I01
sg10
I00
sg4
Vmatrix
p3963
ssVrenderInfo.identification
p3964
(dp3965
S'isArray'
p3966
I00
sS'attrParentLongName'
p3967
VrenderInfo
p3968
sS'attrChildrenNames'
p3969
(lp3970
sg4
Vshort
p3971
sS'isMulti'
p3972
I00
sS'isCompound'
p3973
I00
sg10
I01
sg11
(lp3974
sS'isElement'
p3975
I00
ssVblackBox
p3976
(dp3977
S'isArray'
p3978
I00
sg4
Vbool
p3979
sS'attrChildrenNames'
p3980
(lp3981
sS'isMulti'
p3982
I00
sS'isCompound'
p3983
I00
sg10
I01
sg11
(lp3984
sS'isElement'
p3985
I00
ssVmentalRayControls.miShadow
p3986
(dp3987
S'isArray'
p3988
I00
sS'attrParentLongName'
p3989
VmentalRayControls
p3990
sS'attrChildrenNames'
p3991
(lp3992
sg4
Venum
p3993
sS'isMulti'
p3994
I00
sS'isCompound'
p3995
I00
sg10
I01
sg11
(lp3996
sS'isElement'
p3997
I00
ssVconstraintRotate.constraintRotateX
p3998
(dp3999
S'isArray'
p4000
I00
sS'attrParentLongName'
p4001
VconstraintRotate
p4002
sS'attrChildrenNames'
p4003
(lp4004
sg4
VdoubleAngle
p4005
sS'isMulti'
p4006
I00
sS'isCompound'
p4007
I00
sg10
I01
sg18
Vcrx
p4008
sg11
(lp4009
sS'isElement'
p4010
I00
ssVconstraintRotate.constraintRotateY
p4011
(dp4012
S'isArray'
p4013
I00
sS'attrParentLongName'
p4014
VconstraintRotate
p4015
sS'attrChildrenNames'
p4016
(lp4017
sg4
VdoubleAngle
p4018
sS'isMulti'
p4019
I00
sS'isCompound'
p4020
I00
sg10
I01
sg18
Vcry
p4021
sg11
(lp4022
sS'isElement'
p4023
I00
ssVconstraintRotate.constraintRotateZ
p4024
(dp4025
S'isArray'
p4026
I00
sS'attrParentLongName'
p4027
VconstraintRotate
p4028
sS'attrChildrenNames'
p4029
(lp4030
sg4
VdoubleAngle
p4031
sS'isMulti'
p4032
I00
sS'isCompound'
p4033
I00
sg10
I01
sg18
Vcrz
p4034
sg11
(lp4035
sS'isElement'
p4036
I00
ssVisHierarchicalConnection[0]
p4037
(dp4038
g62
I00
sg67
I00
sg68
(lp4039
ssVshowManipDefault
p4040
(dp4041
S'isArray'
p4042
I00
sg4
Venum
p4043
sS'attrChildrenNames'
p4044
(lp4045
sS'isMulti'
p4046
I00
sS'isCompound'
p4047
I00
sg10
I01
sg11
(lp4048
sS'isElement'
p4049
I00
ssVmaxRotLimit.maxRotZLimit
p4050
(dp4051
g62
I00
sg63
VdoubleAngle
p4052
sg65
I00
sg66
I00
sg67
I01
sg68
(lp4053
ssVtarget[1].targetOffsetTranslate.targetOffsetTranslateZ
p4054
(dp4055
g16
I00
sg17
I00
sg18
Vtg[1].totz
p4056
sg10
I00
sg11
(lp4057
ssVminScaleLimitEnable.minScaleZLimitEnable
p4058
(dp4059
g62
I00
sg63
Vbool
p4060
sg65
I00
sg66
I00
sg67
I01
sg68
(lp4061
ssVtarget[1].targetOffsetTranslate.targetOffsetTranslateX
p4062
(dp4063
g16
I00
sg17
I00
sg18
Vtg[1].totx
p4064
sg10
I00
sg11
(lp4065
ssVtarget[1].targetOffsetTranslate.targetOffsetTranslateY
p4066
(dp4067
g16
I00
sg17
I00
sg18
Vtg[1].toty
p4068
sg10
I00
sg11
(lp4069
ssVrenderLayerInfo[0].renderLayerColor
p4070
(dp4071
S'isArray'
p4072
I00
sS'attrParentLongName'
p4073
VrenderLayerInfo[0]
p4074
sS'attrChildrenNames'
p4075
(lp4076
sg10
I00
sg11
(lp4077
sS'isElement'
p4078
I00
ssVrenderLayerInfo[1]
p4079
(dp4080
g16
I00
sg10
I00
sg11
(lp4081
VrenderLayerInfo[1].renderLayerId
p4082
aVrenderLayerInfo[1].renderLayerRenderable
p4083
aVrenderLayerInfo[1].renderLayerColor
p4084
assg3690
(dp4085
g88
I00
sg89
(lp4086
ssVghostCustomSteps.ghostStepSize
p4087
(dp4088
S'isArray'
p4089
I00
sS'attrParentLongName'
p4090
VghostCustomSteps
p4091
sS'attrChildrenNames'
p4092
(lp4093
sg4
Vlong
p4094
sS'isMulti'
p4095
I00
sS'isCompound'
p4096
I00
sg10
I01
sg11
(lp4097
sS'isElement'
p4098
I00
ssg884
(dp4099
g88
I00
sg89
(lp4100
ssVrenderLayerInfo
p4101
(dp4102
S'isArray'
p4103
I01
sS'isElement'
p4104
I00
sS'isMulti'
p4105
I01
sg10
I00
sg4
VTdataCompound
p4106
ssVtarget[0].targetRotatePivot.targetRotatePivotZ
p4107
(dp4108
S'isArray'
p4109
I00
sS'attrParentLongName'
p4110
Vtarget[0].targetRotatePivot
p4111
sS'attrChildrenNames'
p4112
(lp4113
sg4
VdoubleLinear
p4114
sS'isMulti'
p4115
I00
sS'isCompound'
p4116
I00
sg10
I01
sg18
Vtg[0].trpz
p4117
sg11
(lp4118
sS'isElement'
p4119
I00
ssVtarget[0].targetRotatePivot.targetRotatePivotY
p4120
(dp4121
S'isArray'
p4122
I00
sS'attrParentLongName'
p4123
Vtarget[0].targetRotatePivot
p4124
sS'attrChildrenNames'
p4125
(lp4126
sg4
VdoubleLinear
p4127
sS'isMulti'
p4128
I00
sS'isCompound'
p4129
I00
sg10
I01
sg18
Vtg[0].trpy
p4130
sg11
(lp4131
sS'isElement'
p4132
I00
ssVtarget[0].targetParentMatrix
p4133
(dp4134
S'isArray'
p4135
I00
sS'attrParentLongName'
p4136
Vtarget[0]
p4137
sS'attrChildrenNames'
p4138
(lp4139
sg4
Vmatrix
p4140
sS'isMulti'
p4141
I00
sS'isCompound'
p4142
I00
sg10
I00
sg18
Vtg[0].tpm
p4143
sg11
(lp4144
sS'isElement'
p4145
I00
ssg3550
(dp4146
g88
I00
sg89
(lp4147
g1554
ag1557
ag1551
assg3552
(dp4148
g88
I00
sg89
(lp4149
g3073
ag3076
ag3070
assVtarget[2].targetJointOrient.targetJointOrientZ
p4150
(dp4151
g16
I00
sg398
I00
sg18
Vtg[2].tjoz
p4152
sg10
I00
sg11
(lp4153
ssVmentalRayControls.miProxyRenderable
p4154
(dp4155
S'isArray'
p4156
I00
sS'attrParentLongName'
p4157
VmentalRayControls
p4158
sS'attrChildrenNames'
p4159
(lp4160
sg4
Vbool
p4161
sS'isMulti'
p4162
I00
sS'isCompound'
p4163
I00
sg10
I01
sg11
(lp4164
sS'isElement'
p4165
I00
ssVminScaleLimitEnable.minScaleXLimitEnable
p4166
(dp4167
g62
I00
sg63
Vbool
p4168
sg65
I00
sg66
I00
sg67
I01
sg68
(lp4169
ssg3551
(dp4170
g88
I00
sg89
(lp4171
g3098
ag3101
ag3095
assVtarget[2].targetScale.targetScaleY
p4172
(dp4173
g16
I00
sg398
I00
sg18
Vtg[2].tsy
p4174
sg10
I00
sg11
(lp4175
ssVtarget[2].targetScale.targetScaleX
p4176
(dp4177
g16
I00
sg398
I00
sg18
Vtg[2].tsx
p4178
sg10
I00
sg11
(lp4179
ssVinverseMatrix
p4180
(dp4181
S'isArray'
p4182
I00
sg4
Vmatrix
p4183
sS'attrChildrenNames'
p4184
(lp4185
sS'isMulti'
p4186
I00
sS'isCompound'
p4187
I00
sg10
I00
sg11
(lp4188
sS'isElement'
p4189
I00
ssVtarget[2].targetScale.targetScaleZ
p4190
(dp4191
g16
I00
sg398
I00
sg18
Vtg[2].tsz
p4192
sg10
I00
sg11
(lp4193
ssVcenter.boundingBoxCenterZ
p4194
(dp4195
S'isArray'
p4196
I00
sS'attrParentLongName'
p4197
Vcenter
p4198
sS'attrChildrenNames'
p4199
(lp4200
sg4
VdoubleLinear
p4201
sS'isMulti'
p4202
I00
sS'isCompound'
p4203
I00
sg10
I01
sg11
(lp4204
sS'isElement'
p4205
I00
ssVcenter.boundingBoxCenterX
p4206
(dp4207
S'isArray'
p4208
I00
sS'attrParentLongName'
p4209
Vcenter
p4210
sS'attrChildrenNames'
p4211
(lp4212
sg4
VdoubleLinear
p4213
sS'isMulti'
p4214
I00
sS'isCompound'
p4215
I00
sg10
I01
sg11
(lp4216
sS'isElement'
p4217
I00
ssVcenter.boundingBoxCenterY
p4218
(dp4219
S'isArray'
p4220
I00
sS'attrParentLongName'
p4221
Vcenter
p4222
sS'attrChildrenNames'
p4223
(lp4224
sg4
VdoubleLinear
p4225
sS'isMulti'
p4226
I00
sS'isCompound'
p4227
I00
sg10
I01
sg11
(lp4228
sS'isElement'
p4229
I00
ss.