(dp0
VmiFrameBufferWriteFactor
p1
(dp2
S'isArray'
p3
I00
sS'attrType'
p4
Vfloat
p5
sS'isMulti'
p6
I00
sS'isCompound'
p7
I00
sS'isSimple'
p8
I01
sS'attrChildrenLongNames'
p9
(lp10
ssVlightDataArray.preShadowIntensity
p11
(dp12
S'attrParentLongName'
p13
VlightDataArray
p14
ssVlightDataArray[0].lightSpecular
p15
(dp16
S'isArray'
p17
I00
sS'attrChildrenLongNames'
p18
(lp19
ssVmiColor
p20
(dp21
g3
I00
sg4
Vfloat3
p22
sg6
I00
sg8
I00
sg9
(lp23
VmiColor.miColorR
p24
aVmiColor.miColorG
p25
aVmiColor.miColorB
p26
assVtranslucenceFocus
p27
(dp28
g3
I00
sg4
Vfloat
p29
sg6
I00
sg7
I00
sg8
I01
sg9
(lp30
ssVreflectedColor
p31
(dp32
g3
I00
sg4
Vfloat3
p33
sg6
I00
sg8
I00
sg9
(lp34
VreflectedColor.reflectedColorR
p35
aVreflectedColor.reflectedColorG
p36
aVreflectedColor.reflectedColorB
p37
assVrefractiveIndex
p38
(dp39
g3
I00
sg4
Vfloat
p40
sg6
I00
sg7
I00
sg8
I01
sg9
(lp41
ssVlightDataArray[1].lightDirection.lightDirectionY
p42
(dp43
g17
I00
sg18
(lp44
ssVlightDataArray[0].preShadowIntensity
p45
(dp46
g17
I00
sg18
(lp47
ssVmiAbsorbs
p48
(dp49
g3
I00
sg4
Vbool
p50
sg6
I00
sg7
I00
sg8
I01
sg9
(lp51
ssVobjectId
p52
(dp53
g17
I00
sg6
I00
sS'attrType'
p54
Vaddr
p55
sS'isSimple'
p56
I00
sg18
(lp57
ssVlightDataArray[0].lightDiffuse
p58
(dp59
g17
I00
sg18
(lp60
ssVlightDataArray.lightIntensityB
p61
(dp62
g13
VlightDataArray.lightIntensity
p63
ssVrayDepth
p64
(dp65
g17
I00
sg54
Vshort
p66
sg6
I00
sg7
I00
sg56
I01
sg18
(lp67
ssVlightDataArray.lightIntensityG
p68
(dp69
g13
VlightDataArray.lightIntensity
p70
ssVmiReflectionBlur
p71
(dp72
g3
I00
sg4
Vfloat
p73
sg6
I00
sg7
I00
sg8
I01
sg9
(lp74
ssVchromaticAberration
p75
(dp76
g3
I00
sg4
Vbool
p77
sg6
I00
sg7
I00
sg8
I01
sg9
(lp78
ssVvrFillObject
p79
(dp80
g3
I00
sg4
Venum
p81
sg6
I00
sg7
I00
sg8
I01
sg9
(lp82
ssVlightDataArray.lightIntensityR
p83
(dp84
g13
VlightDataArray.lightIntensity
p85
ssVmatteOpacity
p86
(dp87
g3
I00
sg4
Vfloat
p88
sg6
I00
sg7
I00
sg8
I01
sg9
(lp89
ssVrayInstance
p90
(dp91
g17
I00
sg54
Vlong
p92
sg6
I00
sg7
I00
sg56
I01
sg18
(lp93
ssVreflectionLimit
p94
(dp95
g3
I00
sg4
Vshort
p96
sg6
I00
sg7
I00
sg8
I01
sg9
(lp97
ssVlightDataArray.lightIntensity
p98
(dp99
g13
VlightDataArray
p100
ssVlightDataArray[1].lightDirection.lightDirectionZ
p101
(dp102
g17
I00
sg18
(lp103
ssVmiRefractionBlur
p104
(dp105
g3
I00
sg4
Vfloat
p106
sg6
I00
sg7
I00
sg8
I01
sg9
(lp107
ssVrefractions
p108
(dp109
g3
I00
sg4
Vbool
p110
sg6
I00
sg7
I00
sg8
I01
sg9
(lp111
ssVvrEdgeColor.vrEdgeColorB
p112
(dp113
g3
I00
sg4
Vfloat
p114
sg6
I00
sg7
I00
sg8
I01
sg9
(lp115
ssVmiReflectionBlurLimit
p116
(dp117
g3
I00
sg4
Vshort
p118
sg6
I00
sg7
I00
sg8
I01
sg9
(lp119
ssVpointCamera.pointCameraZ
p120
(dp121
g3
I00
sg4
Vfloat
p122
sg6
I00
sg7
I00
sg8
I01
sg9
(lp123
ssVlightDataArray[0].lightDirection.lightDirectionY
p124
(dp125
g17
I00
sg18
(lp126
ssVpointCamera.pointCameraX
p127
(dp128
g3
I00
sg4
Vfloat
p129
sg6
I00
sg7
I00
sg8
I01
sg9
(lp130
ssVpointCamera.pointCameraY
p131
(dp132
g3
I00
sg4
Vfloat
p133
sg6
I00
sg7
I00
sg8
I01
sg9
(lp134
ssVmiNormalCamera.miNormalCameraX
p135
(dp136
g3
I00
sg4
Vfloat
p137
sg6
I00
sg7
I00
sg8
I01
sg9
(lp138
ssVmiNormalCamera.miNormalCameraY
p139
(dp140
g3
I00
sg4
Vfloat
p141
sg6
I00
sg7
I00
sg8
I01
sg9
(lp142
ssVmiNormalCamera.miNormalCameraZ
p143
(dp144
g3
I00
sg4
Vfloat
p145
sg6
I00
sg7
I00
sg8
I01
sg9
(lp146
ssVvrEdgeWeight
p147
(dp148
g3
I00
sg4
Vdouble
p149
sg6
I00
sg7
I00
sg8
I01
sg9
(lp150
ssVlightDataArray[1].lightDiffuse
p151
(dp152
g17
I00
sg18
(lp153
ssVmiFrameBufferWriteOperation
p154
(dp155
g3
I00
sg4
Venum
p156
sg6
I00
sg7
I00
sg8
I01
sg9
(lp157
ssVmiShinyness
p158
(dp159
g3
I00
sg4
Vfloat
p160
sg6
I00
sg7
I00
sg8
I01
sg9
(lp161
ssVtransparency.transparencyR
p162
(dp163
g3
I00
sg4
Vfloat
p164
sg6
I00
sg7
I00
sg8
I01
sg9
(lp165
ssVmiReflectivity
p166
(dp167
g3
I00
sg4
Vfloat
p168
sg6
I00
sg7
I00
sg8
I01
sg9
(lp169
ssVlightDataArray[1]
p170
(dp171
g17
I00
sg18
(lp172
VlightDataArray[1].lightDirection
p173
aVlightDataArray[1].lightIntensity
p174
aVlightDataArray[1].lightAmbient
p175
ag151
aVlightDataArray[1].lightSpecular
p176
aVlightDataArray[1].lightShadowFraction
p177
aVlightDataArray[1].preShadowIntensity
p178
aVlightDataArray[1].lightBlindData
p179
assVmiRefractionBlurLimit
p180
(dp181
g3
I00
sg4
Vshort
p182
sg6
I00
sg7
I00
sg8
I01
sg9
(lp183
ssVmiTransparency.miTransparencyG
p184
(dp185
g3
I00
sg4
Vfloat
p186
sg6
I00
sg7
I00
sg8
I01
sg9
(lp187
ssVpointCamera
p188
(dp189
g3
I00
sg4
Vfloat3
p190
sg6
I00
sg8
I00
sg9
(lp191
g127
ag131
ag120
assVmiTransparency.miTransparencyB
p192
(dp193
g3
I00
sg4
Vfloat
p194
sg6
I00
sg7
I00
sg8
I01
sg9
(lp195
ssVambientColor.ambientColorG
p196
(dp197
g3
I00
sg4
Vfloat
p198
sg6
I00
sg7
I00
sg8
I01
sg9
(lp199
ssVtransparency.transparencyG
p200
(dp201
g3
I00
sg4
Vfloat
p202
sg6
I00
sg7
I00
sg8
I01
sg9
(lp203
ssVtransparency.transparencyB
p204
(dp205
g3
I00
sg4
Vfloat
p206
sg6
I00
sg7
I00
sg8
I01
sg9
(lp207
ssVtransparencyDepth
p208
(dp209
g17
I00
sg54
Vfloat
p210
sg6
I00
sg7
I00
sg56
I01
sg18
(lp211
ssVmiTransparency.miTransparencyR
p212
(dp213
g3
I00
sg4
Vfloat
p214
sg6
I00
sg7
I00
sg8
I01
sg9
(lp215
ssVsurfaceThickness
p216
(dp217
g3
I00
sg4
Vfloat
p218
sg6
I00
sg7
I00
sg8
I01
sg9
(lp219
ssVmiScatterColor.miScatterColorR
p220
(dp221
g3
I00
sg4
Vfloat
p222
sg6
I00
sg7
I00
sg8
I01
sg9
(lp223
ssVmiIrradiance.miIrradianceG
p224
(dp225
g3
I00
sg4
Vfloat
p226
sg6
I00
sg7
I00
sg8
I01
sg9
(lp227
ssVreflectionSpecularity
p228
(dp229
g3
I00
sg4
Vfloat
p230
sg6
I00
sg7
I00
sg8
I01
sg9
(lp231
ssVmiScatterColor.miScatterColorG
p232
(dp233
g3
I00
sg4
Vfloat
p234
sg6
I00
sg7
I00
sg8
I01
sg9
(lp235
ssVvrEdgeColor
p236
(dp237
g3
I00
sg4
Vfloat3
p238
sg6
I00
sg8
I00
sg9
(lp239
VvrEdgeColor.vrEdgeColorR
p240
aVvrEdgeColor.vrEdgeColorG
p241
ag112
assVmiScatterColor.miScatterColorB
p242
(dp243
g3
I00
sg4
Vfloat
p244
sg6
I00
sg7
I00
sg8
I01
sg9
(lp245
ssVprimitiveId
p246
(dp247
g17
I00
sg54
Vlong
p248
sg6
I00
sg7
I00
sg56
I01
sg18
(lp249
ssVoutTransparency
p250
(dp251
g3
I00
sg4
Vfloat3
p252
sg6
I00
sg8
I00
sg9
(lp253
VoutTransparency.outTransparencyR
p254
aVoutTransparency.outTransparencyG
p255
aVoutTransparency.outTransparencyB
p256
assVcosinePower
p257
(dp258
g3
I00
sg4
Vfloat
p259
sg6
I00
sg7
I00
sg8
I01
sg9
(lp260
ssVmiIrradiance
p261
(dp262
g3
I00
sg4
Vfloat3
p263
sg6
I00
sg8
I00
sg9
(lp264
VmiIrradiance.miIrradianceR
p265
ag224
aVmiIrradiance.miIrradianceB
p266
assVlightDataArray
p267
(dp268
g17
I01
sg6
I01
sg56
I00
sg54
VTdataCompound
p269
ssVmiDiffuse
p270
(dp271
g3
I00
sg4
Vfloat
p272
sg6
I00
sg7
I00
sg8
I01
sg9
(lp273
ssVcolor.colorR
p274
(dp275
g3
I00
sg4
Vfloat
p276
sS'isMulti'
p277
I00
sS'isCompound'
p278
I00
sg8
I01
sg9
(lp279
sS'isNumeric'
p280
I01
ssVnormalCamera.normalCameraY
p281
(dp282
g3
I00
sg4
Vfloat
p283
sg6
I00
sg7
I00
sg8
I01
sg9
(lp284
ssVnormalCamera.normalCameraZ
p285
(dp286
g3
I00
sg4
Vfloat
p287
sg6
I00
sg7
I00
sg8
I01
sg9
(lp288
ssVambientColor.ambientColorR
p289
(dp290
g3
I00
sg4
Vfloat
p291
sg6
I00
sg7
I00
sg8
I01
sg9
(lp292
ssVlightAbsorbance
p293
(dp294
g3
I00
sg4
Vfloat
p295
sg6
I00
sg7
I00
sg8
I01
sg9
(lp296
ssVoutGlowColor.outGlowColorR
p297
(dp298
g3
I00
sg4
Vfloat
p299
sg6
I00
sg7
I00
sg8
I01
sg9
(lp300
ssVlightDataArray[0].lightIntensity
p301
(dp302
g17
I00
sg18
(lp303
VlightDataArray[0].lightIntensity.lightIntensityR
p304
aVlightDataArray[0].lightIntensity.lightIntensityG
p305
aVlightDataArray[0].lightIntensity.lightIntensityB
p306
assVcolor.colorG
p307
(dp308
g3
I00
sg4
Vfloat
p309
sg277
I00
sg278
I00
sg8
I01
sg9
(lp310
sg280
I01
ssVcolor.colorB
p311
(dp312
g3
I00
sg4
Vfloat
p313
sg277
I00
sg278
I00
sg8
I01
sg9
(lp314
sg280
I01
ssVlightDataArray.lightSpecular
p315
(dp316
g13
VlightDataArray
p317
ssVambientColor.ambientColorB
p318
(dp319
g3
I00
sg4
Vfloat
p320
sg6
I00
sg7
I00
sg8
I01
sg9
(lp321
ssVoutGlowColor.outGlowColorB
p322
(dp323
g3
I00
sg4
Vfloat
p324
sg6
I00
sg7
I00
sg8
I01
sg9
(lp325
ssg241
(dp326
g3
I00
sg4
Vfloat
p327
sg6
I00
sg7
I00
sg8
I01
sg9
(lp328
ssVoutGlowColor.outGlowColorG
p329
(dp330
g3
I00
sg4
Vfloat
p331
sg6
I00
sg7
I00
sg8
I01
sg9
(lp332
ssg305
(dp333
g17
I00
sg18
(lp334
ssVisHistoricallyInteresting
p335
(dp336
g17
I00
sg6
I00
sg54
Vbyte
p337
sg56
I00
sg18
(lp338
ssVincandescence
p339
(dp340
g3
I00
sg4
Vfloat3
p341
sg6
I00
sg8
I00
sg9
(lp342
Vincandescence.incandescenceR
p343
aVincandescence.incandescenceG
p344
aVincandescence.incandescenceB
p345
assg176
(dp346
g17
I00
sg18
(lp347
ssVmiSpecularColor.miSpecularColorG
p348
(dp349
g3
I00
sg4
Vfloat
p350
sg6
I00
sg7
I00
sg8
I01
sg9
(lp351
ssVmiSpecularColor.miSpecularColorB
p352
(dp353
g3
I00
sg4
Vfloat
p354
sg6
I00
sg7
I00
sg8
I01
sg9
(lp355
ssVmediumRefractiveIndex
p356
(dp357
g17
I00
sg54
Vfloat
p358
sg6
I00
sg7
I00
sg56
I01
sg18
(lp359
ssVlightDataArray[1].lightDirection.lightDirectionX
p360
(dp361
g17
I00
sg18
(lp362
ssg304
(dp363
g17
I00
sg18
(lp364
ssVmiReflectionRays
p365
(dp366
g3
I00
sg4
Vshort
p367
sg6
I00
sg7
I00
sg8
I01
sg9
(lp368
ssVmiSpecularColor.miSpecularColorR
p369
(dp370
g3
I00
sg4
Vfloat
p371
sg6
I00
sg7
I00
sg8
I01
sg9
(lp372
ssVhardwareShader
p373
(dp374
g3
I00
sg4
Vfloat3
p375
sg6
I00
sg8
I00
sg9
(lp376
VhardwareShader.hardwareShaderR
p377
aVhardwareShader.hardwareShaderG
p378
aVhardwareShader.hardwareShaderB
p379
assVopacityDepth
p380
(dp381
g17
I00
sg54
Vfloat
p382
sg6
I00
sg7
I00
sg56
I01
sg18
(lp383
ssg343
(dp384
g3
I00
sg4
Vfloat
p385
sg6
I00
sg7
I00
sg8
I01
sg9
(lp386
ssVtriangleNormalCamera.triangleNormalCameraY
p387
(dp388
S'attrParentLongName'
p389
VtriangleNormalCamera
p390
sg17
I00
sg54
Vfloat
p391
sg6
I00
sg7
I00
sg56
I01
sg18
(lp392
ssVtriangleNormalCamera.triangleNormalCameraZ
p393
(dp394
g389
VtriangleNormalCamera
p395
sg17
I00
sg54
Vfloat
p396
sg6
I00
sg7
I00
sg56
I01
sg18
(lp397
ssVmiScatterLimit
p398
(dp399
g3
I00
sg4
Vshort
p400
sg6
I00
sg7
I00
sg8
I01
sg9
(lp401
ssVrefractionLimit
p402
(dp403
g3
I00
sg4
Vshort
p404
sg6
I00
sg7
I00
sg8
I01
sg9
(lp405
ssVmiIrradianceColor
p406
(dp407
g3
I00
sg4
Vfloat3
p408
sg6
I00
sg8
I00
sg9
(lp409
VmiIrradianceColor.miIrradianceColorR
p410
aVmiIrradianceColor.miIrradianceColorG
p411
aVmiIrradianceColor.miIrradianceColorB
p412
assg345
(dp413
g3
I00
sg4
Vfloat
p414
sg6
I00
sg7
I00
sg8
I01
sg9
(lp415
ssg179
(dp416
g17
I00
sg18
(lp417
ssVlightDataArray.lightDirectionZ
p418
(dp419
g13
VlightDataArray.lightDirection
p420
ssg344
(dp421
g3
I00
sg4
Vfloat
p422
sg6
I00
sg7
I00
sg8
I01
sg9
(lp423
ssVlightDataArray.lightDirectionX
p424
(dp425
g13
VlightDataArray.lightDirection
p426
ssVlightDataArray.lightDirectionY
p427
(dp428
g13
VlightDataArray.lightDirection
p429
ssVmiDeriveFromMaya
p430
(dp431
g3
I00
sg4
Vbool
p432
sg6
I00
sg7
I00
sg8
I01
sg9
(lp433
ssVmiScatterFalloff
p434
(dp435
g3
I00
sg4
Venum
p436
sg6
I00
sg7
I00
sg8
I01
sg9
(lp437
ssVbinMembership
p438
(dp439
g17
I00
sg54
Vstring
p440
sg6
I00
sg7
I00
sg56
I01
sg18
(lp441
ssVspecularColor.specularColorR
p442
(dp443
g3
I00
sg4
Vfloat
p444
sg6
I00
sg7
I00
sg8
I01
sg9
(lp445
ssVmiScatterRadius
p446
(dp447
g3
I00
sg4
Vfloat
p448
sg6
I00
sg7
I00
sg8
I01
sg9
(lp449
ssVraySampler
p450
(dp451
g17
I00
sg6
I00
sg54
Vaddr
p452
sg56
I00
sg18
(lp453
ssVcolor
p454
(dp455
g3
I00
sg4
Vfloat3
p456
sg6
I00
sg8
I00
sg9
(lp457
g274
ag307
ag311
assVvrHiddenEdgesOnTransparent
p458
(dp459
g3
I00
sg4
Vbool
p460
sg6
I00
sg7
I00
sg8
I01
sg9
(lp461
ssVlightDataArray[0].lightDirection
p462
(dp463
g17
I00
sg18
(lp464
VlightDataArray[0].lightDirection.lightDirectionX
p465
ag124
aVlightDataArray[0].lightDirection.lightDirectionZ
p466
assg466
(dp467
g17
I00
sg18
(lp468
ssVvrOverwriteDefaults
p469
(dp470
g3
I00
sg4
Vbool
p471
sg6
I00
sg7
I00
sg8
I01
sg9
(lp472
ssVshadowAttenuation
p473
(dp474
g3
I00
sg4
Vfloat
p475
sg6
I00
sg7
I00
sg8
I01
sg9
(lp476
ssVspecularColor.specularColorG
p477
(dp478
g3
I00
sg4
Vfloat
p479
sg6
I00
sg7
I00
sg8
I01
sg9
(lp480
ssVspecularColor.specularColorB
p481
(dp482
g3
I00
sg4
Vfloat
p483
sg6
I00
sg7
I00
sg8
I01
sg9
(lp484
ssg254
(dp485
g3
I00
sg4
Vfloat
p486
sg6
I00
sg7
I00
sg8
I01
sg9
(lp487
ssVtranslucenceDepth
p488
(dp489
g3
I00
sg4
Vfloat
p490
sg6
I00
sg7
I00
sg8
I01
sg9
(lp491
ssVmiFrameBufferWriteFlags
p492
(dp493
g3
I00
sg4
Vlong
p494
sg6
I00
sg7
I00
sg8
I01
sg9
(lp495
ssg377
(dp496
g3
I00
sg4
Vfloat
p497
sg6
I00
sg7
I00
sg8
I01
sg9
(lp498
ssVlightDataArray[0].lightAmbient
p499
(dp500
g17
I00
sg18
(lp501
ssg410
(dp502
g3
I00
sg4
Vfloat
p503
sg6
I00
sg7
I00
sg8
I01
sg9
(lp504
ssg465
(dp505
g17
I00
sg18
(lp506
ssVvrEdgePriority
p507
(dp508
g3
I00
sg4
Vlong
p509
sg6
I00
sg7
I00
sg8
I01
sg9
(lp510
ssVreflectivity
p511
(dp512
g3
I00
sg4
Vfloat
p513
sg6
I00
sg7
I00
sg8
I01
sg9
(lp514
ssVtranslucence
p515
(dp516
g3
I00
sg4
Vfloat
p517
sg6
I00
sg7
I00
sg8
I01
sg9
(lp518
ssg379
(dp519
g3
I00
sg4
Vfloat
p520
sg6
I00
sg7
I00
sg8
I01
sg9
(lp521
ssg411
(dp522
g3
I00
sg4
Vfloat
p523
sg6
I00
sg7
I00
sg8
I01
sg9
(lp524
ssg412
(dp525
g3
I00
sg4
Vfloat
p526
sg6
I00
sg7
I00
sg8
I01
sg9
(lp527
ssg378
(dp528
g3
I00
sg4
Vfloat
p529
sg6
I00
sg7
I00
sg8
I01
sg9
(lp530
ssVmiScatterCache
p531
(dp532
g3
I00
sg4
Vshort
p533
sg6
I00
sg7
I00
sg8
I01
sg9
(lp534
ssVmiTranslucenceFocus
p535
(dp536
g3
I00
sg4
Vfloat
p537
sg6
I00
sg7
I00
sg8
I01
sg9
(lp538
ssVmiScatterColor
p539
(dp540
g3
I00
sg4
Vfloat3
p541
sg6
I00
sg8
I00
sg9
(lp542
g220
ag232
ag242
assVmiRefractiveIndex
p543
(dp544
g3
I00
sg4
Vfloat
p545
sg6
I00
sg7
I00
sg8
I01
sg9
(lp546
ssVtriangleNormalCamera.triangleNormalCameraX
p547
(dp548
g389
VtriangleNormalCamera
p549
sg17
I00
sg54
Vfloat
p550
sg6
I00
sg7
I00
sg56
I01
sg18
(lp551
ssVlightDataArray.lightShadowFraction
p552
(dp553
g13
VlightDataArray
p554
ssVlightDataArray[0].lightShadowFraction
p555
(dp556
g17
I00
sg18
(lp557
ssVmiNormalCamera
p558
(dp559
g3
I00
sg4
Vfloat3
p560
sg6
I00
sg8
I00
sg9
(lp561
g135
ag139
ag143
assVoutColor
p562
(dp563
g3
I00
sg4
Vfloat3
p564
sg6
I00
sg8
I00
sg9
(lp565
VoutColor.outColorR
p566
aVoutColor.outColorG
p567
aVoutColor.outColorB
p568
assVlightDataArray[0]
p569
(dp570
g17
I00
sg18
(lp571
g462
ag301
ag499
ag58
ag15
ag555
ag45
aVlightDataArray[0].lightBlindData
p572
assVmaterialAlphaGain
p573
(dp574
g3
I00
sg4
Vfloat
p575
sg6
I00
sg7
I00
sg8
I01
sg9
(lp576
ssVdiffuse
p577
(dp578
g3
I00
sg4
Vfloat
p579
sg6
I00
sg7
I00
sg8
I01
sg9
(lp580
ssg35
(dp581
g3
I00
sg4
Vfloat
p582
sg6
I00
sg7
I00
sg8
I01
sg9
(lp583
ssg255
(dp584
g3
I00
sg4
Vfloat
p585
sg6
I00
sg7
I00
sg8
I01
sg9
(lp586
ssg572
(dp587
g17
I00
sg18
(lp588
ssVrayDirection
p589
(dp590
g3
I00
sg4
Vfloat3
p591
sg6
I00
sg8
I00
sg9
(lp592
VrayDirection.rayDirectionX
p593
aVrayDirection.rayDirectionY
p594
aVrayDirection.rayDirectionZ
p595
assVmatteOpacityMode
p596
(dp597
g3
I00
sg4
Venum
p598
sg6
I00
sg7
I00
sg8
I01
sg9
(lp599
ssVnormalCamera
p600
(dp601
g3
I00
sg4
Vfloat3
p602
sg6
I00
sg8
I00
sg9
(lp603
VnormalCamera.normalCameraX
p604
ag281
ag285
assg36
(dp605
g3
I00
sg4
Vfloat
p606
sg6
I00
sg7
I00
sg8
I01
sg9
(lp607
ssVlightDataArray.lightBlindData
p608
(dp609
g13
VlightDataArray
p610
ssg37
(dp611
g3
I00
sg4
Vfloat
p612
sg6
I00
sg7
I00
sg8
I01
sg9
(lp613
ssVtransparency
p614
(dp615
g3
I00
sg4
Vfloat3
p616
sg6
I00
sg8
I00
sg9
(lp617
g162
ag200
ag204
assVvrEdgeStyle
p618
(dp619
g3
I00
sg4
Venum
p620
sg6
I00
sg7
I00
sg8
I01
sg9
(lp621
ssg175
(dp622
g17
I00
sg18
(lp623
ssg256
(dp624
g3
I00
sg4
Vfloat
p625
sg6
I00
sg7
I00
sg8
I01
sg9
(lp626
ssVmiTranslucence
p627
(dp628
g3
I00
sg4
Vfloat
p629
sg6
I00
sg7
I00
sg8
I01
sg9
(lp630
ssg306
(dp631
g17
I00
sg18
(lp632
ssg566
(dp633
g3
I00
sg4
Vfloat
p634
sg6
I00
sg7
I00
sg8
I01
sg9
(lp635
ssVvrHiddenEdges
p636
(dp637
g3
I00
sg4
Vbool
p638
sg6
I00
sg7
I00
sg8
I01
sg9
(lp639
ssVlightDataArray.lightDirection
p640
(dp641
g13
VlightDataArray
p642
ssVglowIntensity
p643
(dp644
g3
I00
sg4
Vfloat
p645
sg6
I00
sg7
I00
sg8
I01
sg9
(lp646
ssVmiRefractionRays
p647
(dp648
g3
I00
sg4
Vshort
p649
sg6
I00
sg7
I00
sg8
I01
sg9
(lp650
ssg567
(dp651
g3
I00
sg4
Vfloat
p652
sg6
I00
sg7
I00
sg8
I01
sg9
(lp653
ssg568
(dp654
g3
I00
sg4
Vfloat
p655
sg6
I00
sg7
I00
sg8
I01
sg9
(lp656
ssg174
(dp657
g17
I00
sg18
(lp658
VlightDataArray[1].lightIntensity.lightIntensityR
p659
aVlightDataArray[1].lightIntensity.lightIntensityG
p660
aVlightDataArray[1].lightIntensity.lightIntensityB
p661
assVlightDataArray.lightDiffuse
p662
(dp663
g13
VlightDataArray
p664
ssVtriangleNormalCamera
p665
(dp666
g17
I00
sg6
I00
sg54
Vfloat3
p667
sg56
I00
sg18
(lp668
VtriangleNormalCamera.triangleNormalCameraX
p669
aVtriangleNormalCamera.triangleNormalCameraY
p670
aVtriangleNormalCamera.triangleNormalCameraZ
p671
assg659
(dp672
g17
I00
sg18
(lp673
ssg173
(dp674
g17
I00
sg18
(lp675
g360
ag42
ag101
assVambientColor
p676
(dp677
g3
I00
sg4
Vfloat3
p678
sg6
I00
sg8
I00
sg9
(lp679
g289
ag196
ag318
assg661
(dp680
g17
I00
sg18
(lp681
ssg660
(dp682
g17
I00
sg18
(lp683
ssVoutMatteOpacity
p684
(dp685
g3
I00
sg4
Vfloat3
p686
sg6
I00
sg8
I00
sg9
(lp687
VoutMatteOpacity.outMatteOpacityR
p688
aVoutMatteOpacity.outMatteOpacityG
p689
aVoutMatteOpacity.outMatteOpacityB
p690
assVmiTransparency
p691
(dp692
g3
I00
sg4
Vfloat3
p693
sg6
I00
sg8
I00
sg9
(lp694
g212
ag184
ag192
assg689
(dp695
g3
I00
sg4
Vfloat
p696
sg277
I00
sg278
I00
sg8
I01
sg9
(lp697
sg280
I01
ssVnodeState
p698
(dp699
g3
I00
sg4
Venum
p700
sg6
I00
sg7
I00
sg8
I01
sg9
(lp701
ssg690
(dp702
g3
I00
sg4
Vfloat
p703
sg277
I00
sg278
I00
sg8
I01
sg9
(lp704
sg280
I01
ssVmiSpecularColor
p705
(dp706
g3
I00
sg4
Vfloat3
p707
sg6
I00
sg8
I00
sg9
(lp708
g369
ag348
ag352
assVmiRefractions
p709
(dp710
g3
I00
sg4
Vbool
p711
sg6
I00
sg7
I00
sg8
I01
sg9
(lp712
ssVcaching
p713
(dp714
g3
I00
sg4
Vbool
p715
sg6
I00
sg7
I00
sg8
I01
sg9
(lp716
ssg688
(dp717
g3
I00
sg4
Vfloat
p718
sg277
I00
sg278
I00
sg8
I01
sg9
(lp719
sg280
I01
ssg604
(dp720
g3
I00
sg4
Vfloat
p721
sg6
I00
sg7
I00
sg8
I01
sg9
(lp722
ssg595
(dp723
g3
I00
sg4
Vfloat
p724
sg6
I00
sg7
I00
sg8
I01
sg9
(lp725
ssVvrOutlinesAtIntersections
p726
(dp727
g3
I00
sg4
Vbool
p728
sg6
I00
sg7
I00
sg8
I01
sg9
(lp729
ssg593
(dp730
g3
I00
sg4
Vfloat
p731
sg6
I00
sg7
I00
sg8
I01
sg9
(lp732
ssg594
(dp733
g3
I00
sg4
Vfloat
p734
sg6
I00
sg7
I00
sg8
I01
sg9
(lp735
ssg266
(dp736
g3
I00
sg4
Vfloat
p737
sg6
I00
sg7
I00
sg8
I01
sg9
(lp738
ssVspecularColor
p739
(dp740
g3
I00
sg4
Vfloat3
p741
sg6
I00
sg8
I00
sg9
(lp742
g442
ag477
ag481
assg25
(dp743
g3
I00
sg4
Vfloat
p744
sg6
I00
sg7
I00
sg8
I01
sg9
(lp745
ssg26
(dp746
g3
I00
sg4
Vfloat
p747
sg6
I00
sg7
I00
sg8
I01
sg9
(lp748
ssVoutGlowColor
p749
(dp750
g3
I00
sg4
Vfloat3
p751
sg6
I00
sg8
I00
sg9
(lp752
g297
ag329
ag322
assVlightDataArray.lightAmbient
p753
(dp754
g13
VlightDataArray
p755
ssg240
(dp756
g3
I00
sg4
Vfloat
p757
sg6
I00
sg7
I00
sg8
I01
sg9
(lp758
ssg265
(dp759
g3
I00
sg4
Vfloat
p760
sg6
I00
sg7
I00
sg8
I01
sg9
(lp761
ssVmiScatterAccuracy
p762
(dp763
g3
I00
sg4
Vshort
p764
sg6
I00
sg7
I00
sg8
I01
sg9
(lp765
ssg177
(dp766
g17
I00
sg18
(lp767
ssg24
(dp768
g3
I00
sg4
Vfloat
p769
sg6
I00
sg7
I00
sg8
I01
sg9
(lp770
ssVhideSource
p771
(dp772
g3
I00
sg4
Vbool
p773
sg6
I00
sg7
I00
sg8
I01
sg9
(lp774
ssg178
(dp775
g17
I00
sg18
(lp776
ss.