(dp0
VuvFilterSize.uvFilterSizeX
p1
(dp2
S'isArray'
p3
I00
sS'attrParentLongName'
p4
VuvFilterSize
p5
sS'attrChildrenNames'
p6
(lp7
sS'isMulti'
p8
I00
sS'isCompound'
p9
I00
sS'isElement'
p10
I00
ssVuvFilterSize.uvFilterSizeY
p11
(dp12
S'isArray'
p13
I00
sS'attrParentLongName'
p14
VuvFilterSize
p15
sS'attrChildrenNames'
p16
(lp17
sS'isMulti'
p18
I00
sS'isCompound'
p19
I00
sS'isElement'
p20
I00
ssVwrapV
p21
(dp22
S'isArray'
p23
I00
sS'attrType'
p24
Vbool
p25
sS'attrChildrenNames'
p26
(lp27
sS'isMulti'
p28
I00
sS'isCompound'
p29
I00
sS'isSimple'
p30
I01
sS'attrChildrenLongNames'
p31
(lp32
sS'isElement'
p33
I00
ssVrepeatUV.repeatU
p34
(dp35
S'isArray'
p36
I00
sS'attrParentLongName'
p37
VrepeatUV
p38
sS'attrChildrenNames'
p39
(lp40
sg24
Vfloat
p41
sS'isMulti'
p42
I00
sS'isCompound'
p43
I00
sg30
I01
sg31
(lp44
sS'isElement'
p45
I00
ssVrepeatUV.repeatV
p46
(dp47
S'isArray'
p48
I00
sS'attrParentLongName'
p49
VrepeatUV
p50
sS'attrChildrenNames'
p51
(lp52
sg24
Vfloat
p53
sS'isMulti'
p54
I00
sS'isCompound'
p55
I00
sg30
I01
sg31
(lp56
sS'isElement'
p57
I00
ssVvertexUvThree
p58
(dp59
S'isArray'
p60
I00
sS'isElement'
p61
I00
sS'isCompound'
p62
I01
sS'attrChildrenNames'
p63
(lp64
VvertexUvThree.vertexUvThreeU
p65
aVvertexUvThree.vertexUvThreeV
p66
asS'isMulti'
p67
I00
ssVoutUV
p68
(dp69
S'isArray'
p70
I00
sg24
Vfloat2
p71
sS'attrChildrenNames'
p72
(lp73
VoutUV.outU
p74
aVoutUV.outV
p75
asS'isMulti'
p76
I00
sS'isCompound'
p77
I01
sg30
I00
sg31
(lp78
VoutUV.outU
p79
aVoutUV.outV
p80
asS'isElement'
p81
I00
ssVoutUV.outV
p82
(dp83
S'isArray'
p84
I00
sS'attrParentLongName'
p85
VoutUV
p86
sS'attrChildrenNames'
p87
(lp88
sg24
Vfloat
p89
sS'isMulti'
p90
I00
sS'isCompound'
p91
I00
sg30
I01
sg31
(lp92
sS'isElement'
p93
I00
ssVtranslateFrame.translateFrameV
p94
(dp95
S'isArray'
p96
I00
sS'attrParentLongName'
p97
VtranslateFrame
p98
sS'attrChildrenNames'
p99
(lp100
sg24
Vfloat
p101
sS'isMulti'
p102
I00
sS'isCompound'
p103
I00
sg30
I01
sg31
(lp104
sS'isElement'
p105
I00
ssVuvCoord.vCoord
p106
(dp107
S'isArray'
p108
I00
sS'attrParentLongName'
p109
VuvCoord
p110
sS'attrChildrenNames'
p111
(lp112
sS'isMulti'
p113
I00
sS'isCompound'
p114
I00
sS'isElement'
p115
I00
ssVtranslateFrame.translateFrameU
p116
(dp117
S'isArray'
p118
I00
sS'attrParentLongName'
p119
VtranslateFrame
p120
sS'attrChildrenNames'
p121
(lp122
sg24
Vfloat
p123
sS'isMulti'
p124
I00
sS'isCompound'
p125
I00
sg30
I01
sg31
(lp126
sS'isElement'
p127
I00
ssVwrapU
p128
(dp129
S'isArray'
p130
I00
sg24
Vbool
p131
sS'attrChildrenNames'
p132
(lp133
sS'isMulti'
p134
I00
sS'isCompound'
p135
I00
sg30
I01
sg31
(lp136
sS'isElement'
p137
I00
ssVisHistoricallyInteresting
p138
(dp139
S'isArray'
p140
I00
sS'isElement'
p141
I00
sS'isCompound'
p142
I00
sS'attrChildrenNames'
p143
(lp144
sS'isMulti'
p145
I00
ssVmirrorU
p146
(dp147
S'isArray'
p148
I00
sg24
Vbool
p149
sS'attrChildrenNames'
p150
(lp151
sS'isMulti'
p152
I00
sS'isCompound'
p153
I00
sg30
I01
sg31
(lp154
sS'isElement'
p155
I00
ssVmirrorV
p156
(dp157
S'isArray'
p158
I00
sg24
Vbool
p159
sS'attrChildrenNames'
p160
(lp161
sS'isMulti'
p162
I00
sS'isCompound'
p163
I00
sg30
I01
sg31
(lp164
sS'isElement'
p165
I00
ssVtranslateFrame
p166
(dp167
S'isArray'
p168
I00
sg24
Vfloat2
p169
sS'attrChildrenNames'
p170
(lp171
VtranslateFrame.translateFrameU
p172
aVtranslateFrame.translateFrameV
p173
asS'isMulti'
p174
I00
sS'isCompound'
p175
I01
sg30
I00
sg31
(lp176
VtranslateFrame.translateFrameU
p177
aVtranslateFrame.translateFrameV
p178
asS'isElement'
p179
I00
ssVvertexCameraOne.vertexCameraOneZ
p180
(dp181
S'isArray'
p182
I00
sS'attrParentLongName'
p183
VvertexCameraOne
p184
sS'attrChildrenNames'
p185
(lp186
sS'isMulti'
p187
I00
sS'isCompound'
p188
I00
sS'isElement'
p189
I00
ssVvertexCameraOne.vertexCameraOneX
p190
(dp191
S'isArray'
p192
I00
sS'attrParentLongName'
p193
VvertexCameraOne
p194
sS'attrChildrenNames'
p195
(lp196
sS'isMulti'
p197
I00
sS'isCompound'
p198
I00
sS'isElement'
p199
I00
ssVvertexCameraOne.vertexCameraOneY
p200
(dp201
S'isArray'
p202
I00
sS'attrParentLongName'
p203
VvertexCameraOne
p204
sS'attrChildrenNames'
p205
(lp206
sS'isMulti'
p207
I00
sS'isCompound'
p208
I00
sS'isElement'
p209
I00
ssVvertexUvTwo
p210
(dp211
S'isArray'
p212
I00
sS'isElement'
p213
I00
sS'isCompound'
p214
I01
sS'attrChildrenNames'
p215
(lp216
VvertexUvTwo.vertexUvTwoU
p217
aVvertexUvTwo.vertexUvTwoV
p218
asS'isMulti'
p219
I00
ssVfast
p220
(dp221
S'isArray'
p222
I00
sg24
Vbool
p223
sS'attrChildrenNames'
p224
(lp225
sS'isMulti'
p226
I00
sS'isCompound'
p227
I00
sg30
I01
sg31
(lp228
sS'isElement'
p229
I00
ssVuvCoord.uCoord
p230
(dp231
S'isArray'
p232
I00
sS'attrParentLongName'
p233
VuvCoord
p234
sS'attrChildrenNames'
p235
(lp236
sS'isMulti'
p237
I00
sS'isCompound'
p238
I00
sS'isElement'
p239
I00
ssVvertexUvOne.vertexUvOneV
p240
(dp241
S'isArray'
p242
I00
sS'attrParentLongName'
p243
VvertexUvOne
p244
sS'attrChildrenNames'
p245
(lp246
sS'isMulti'
p247
I00
sS'isCompound'
p248
I00
sS'isElement'
p249
I00
ssVvertexUvOne.vertexUvOneU
p250
(dp251
S'isArray'
p252
I00
sS'attrParentLongName'
p253
VvertexUvOne
p254
sS'attrChildrenNames'
p255
(lp256
sS'isMulti'
p257
I00
sS'isCompound'
p258
I00
sS'isElement'
p259
I00
ssVcoverage.coverageU
p260
(dp261
S'isArray'
p262
I00
sS'attrParentLongName'
p263
Vcoverage
p264
sS'attrChildrenNames'
p265
(lp266
sg24
Vfloat
p267
sS'isMulti'
p268
I00
sS'isCompound'
p269
I00
sg30
I01
sg31
(lp270
sS'isElement'
p271
I00
ssVcoverage.coverageV
p272
(dp273
S'isArray'
p274
I00
sS'attrParentLongName'
p275
Vcoverage
p276
sS'attrChildrenNames'
p277
(lp278
sg24
Vfloat
p279
sS'isMulti'
p280
I00
sS'isCompound'
p281
I00
sg30
I01
sg31
(lp282
sS'isElement'
p283
I00
ssVdoTransform
p284
(dp285
S'isArray'
p286
I00
sS'isElement'
p287
I00
sS'isMulti'
p288
I00
sS'isCompound'
p289
I00
sS'attrChildrenNames'
p290
(lp291
ssVnodeState
p292
(dp293
S'isArray'
p294
I00
sg24
Venum
p295
sS'attrChildrenNames'
p296
(lp297
sS'isMulti'
p298
I00
sS'isCompound'
p299
I00
sg30
I01
sg31
(lp300
sS'isElement'
p301
I00
ssVrotateFrame
p302
(dp303
S'isArray'
p304
I00
sg24
VdoubleAngle
p305
sS'attrChildrenNames'
p306
(lp307
sS'isMulti'
p308
I00
sS'isCompound'
p309
I00
sg30
I01
sg31
(lp310
sS'isElement'
p311
I00
ssVuvFilterSize
p312
(dp313
S'isArray'
p314
I00
sS'isElement'
p315
I00
sS'isMulti'
p316
I00
sS'isCompound'
p317
I01
sS'attrChildrenNames'
p318
(lp319
VuvFilterSize.uvFilterSizeX
p320
aVuvFilterSize.uvFilterSizeY
p321
assVuvCoord
p322
(dp323
S'isArray'
p324
I00
sS'isElement'
p325
I00
sS'isCompound'
p326
I01
sS'attrChildrenNames'
p327
(lp328
VuvCoord.uCoord
p329
aVuvCoord.vCoord
p330
asS'isMulti'
p331
I00
ssVvertexUvTwo.vertexUvTwoU
p332
(dp333
S'isArray'
p334
I00
sS'attrParentLongName'
p335
VvertexUvTwo
p336
sS'attrChildrenNames'
p337
(lp338
sS'isMulti'
p339
I00
sS'isCompound'
p340
I00
sS'isElement'
p341
I00
ssVrepeatUV
p342
(dp343
S'isArray'
p344
I00
sg24
Vfloat2
p345
sS'attrChildrenNames'
p346
(lp347
VrepeatUV.repeatU
p348
aVrepeatUV.repeatV
p349
asS'isMulti'
p350
I00
sS'isCompound'
p351
I01
sg30
I00
sg31
(lp352
VrepeatUV.repeatU
p353
aVrepeatUV.repeatV
p354
asS'isElement'
p355
I00
ssVcoverage
p356
(dp357
S'isArray'
p358
I00
sg24
Vfloat2
p359
sS'attrChildrenNames'
p360
(lp361
Vcoverage.coverageU
p362
aVcoverage.coverageV
p363
asS'isMulti'
p364
I00
sS'isCompound'
p365
I01
sg30
I00
sg31
(lp366
Vcoverage.coverageU
p367
aVcoverage.coverageV
p368
asS'isElement'
p369
I00
ssVoffset
p370
(dp371
S'isArray'
p372
I00
sg24
Vfloat2
p373
sS'attrChildrenNames'
p374
(lp375
Voffset.offsetU
p376
aVoffset.offsetV
p377
asS'isMulti'
p378
I00
sS'isCompound'
p379
I01
sg30
I00
sg31
(lp380
Voffset.offsetU
p381
aVoffset.offsetV
p382
asS'isElement'
p383
I00
ssVoffset.offsetV
p384
(dp385
S'isArray'
p386
I00
sS'attrParentLongName'
p387
Voffset
p388
sS'attrChildrenNames'
p389
(lp390
sg24
Vfloat
p391
sS'isMulti'
p392
I00
sS'isCompound'
p393
I00
sg30
I01
sg31
(lp394
sS'isElement'
p395
I00
ssVoutUV.outU
p396
(dp397
S'isArray'
p398
I00
sS'attrParentLongName'
p399
VoutUV
p400
sS'attrChildrenNames'
p401
(lp402
sg24
Vfloat
p403
sS'isMulti'
p404
I00
sS'isCompound'
p405
I00
sg30
I01
sg31
(lp406
sS'isElement'
p407
I00
ssVoutUvFilterSize.outUvFilterSizeX
p408
(dp409
S'isArray'
p410
I00
sS'attrParentLongName'
p411
VoutUvFilterSize
p412
sS'attrChildrenNames'
p413
(lp414
sg24
Vfloat
p415
sS'isMulti'
p416
I00
sS'isCompound'
p417
I00
sg30
I01
sg31
(lp418
sS'isElement'
p419
I00
ssVoutUvFilterSize.outUvFilterSizeY
p420
(dp421
S'isArray'
p422
I00
sS'attrParentLongName'
p423
VoutUvFilterSize
p424
sS'attrChildrenNames'
p425
(lp426
sg24
Vfloat
p427
sS'isMulti'
p428
I00
sS'isCompound'
p429
I00
sg30
I01
sg31
(lp430
sS'isElement'
p431
I00
ssVvertexCameraOne
p432
(dp433
S'isArray'
p434
I00
sS'isElement'
p435
I00
sS'isCompound'
p436
I01
sS'attrChildrenNames'
p437
(lp438
VvertexCameraOne.vertexCameraOneX
p439
aVvertexCameraOne.vertexCameraOneY
p440
aVvertexCameraOne.vertexCameraOneZ
p441
asS'isMulti'
p442
I00
ssVvertexUvTwo.vertexUvTwoV
p443
(dp444
S'isArray'
p445
I00
sS'attrParentLongName'
p446
VvertexUvTwo
p447
sS'attrChildrenNames'
p448
(lp449
sS'isMulti'
p450
I00
sS'isCompound'
p451
I00
sS'isElement'
p452
I00
ssVoutUvFilterSize
p453
(dp454
S'isArray'
p455
I00
sg24
Vfloat2
p456
sS'attrChildrenNames'
p457
(lp458
VoutUvFilterSize.outUvFilterSizeX
p459
aVoutUvFilterSize.outUvFilterSizeY
p460
asS'isMulti'
p461
I00
sS'isCompound'
p462
I01
sg30
I00
sg31
(lp463
VoutUvFilterSize.outUvFilterSizeX
p464
aVoutUvFilterSize.outUvFilterSizeY
p465
asS'isElement'
p466
I00
ssVnoiseUV.noiseV
p467
(dp468
S'isArray'
p469
I00
sS'attrParentLongName'
p470
VnoiseUV
p471
sS'attrChildrenNames'
p472
(lp473
sg24
Vfloat
p474
sS'isMulti'
p475
I00
sS'isCompound'
p476
I00
sg30
I01
sg31
(lp477
sS'isElement'
p478
I00
ssVnoiseUV.noiseU
p479
(dp480
S'isArray'
p481
I00
sS'attrParentLongName'
p482
VnoiseUV
p483
sS'attrChildrenNames'
p484
(lp485
sg24
Vfloat
p486
sS'isMulti'
p487
I00
sS'isCompound'
p488
I00
sg30
I01
sg31
(lp489
sS'isElement'
p490
I00
ssVoffset.offsetU
p491
(dp492
S'isArray'
p493
I00
sS'attrParentLongName'
p494
Voffset
p495
sS'attrChildrenNames'
p496
(lp497
sg24
Vfloat
p498
sS'isMulti'
p499
I00
sS'isCompound'
p500
I00
sg30
I01
sg31
(lp501
sS'isElement'
p502
I00
ssVrotateUV
p503
(dp504
S'isArray'
p505
I00
sg24
VdoubleAngle
p506
sS'attrChildrenNames'
p507
(lp508
sS'isMulti'
p509
I00
sS'isCompound'
p510
I00
sg30
I01
sg31
(lp511
sS'isElement'
p512
I00
ssVstagger
p513
(dp514
S'isArray'
p515
I00
sg24
Vbool
p516
sS'attrChildrenNames'
p517
(lp518
sS'isMulti'
p519
I00
sS'isCompound'
p520
I00
sg30
I01
sg31
(lp521
sS'isElement'
p522
I00
ssVcaching
p523
(dp524
S'isArray'
p525
I00
sg24
Vbool
p526
sS'attrChildrenNames'
p527
(lp528
sS'isMulti'
p529
I00
sS'isCompound'
p530
I00
sg30
I01
sg31
(lp531
sS'isElement'
p532
I00
ssVvertexUvThree.vertexUvThreeV
p533
(dp534
S'isArray'
p535
I00
sS'attrParentLongName'
p536
VvertexUvThree
p537
sS'attrChildrenNames'
p538
(lp539
sS'isMulti'
p540
I00
sS'isCompound'
p541
I00
sS'isElement'
p542
I00
ssVnoiseUV
p543
(dp544
S'isArray'
p545
I00
sg24
Vfloat2
p546
sS'attrChildrenNames'
p547
(lp548
VnoiseUV.noiseU
p549
aVnoiseUV.noiseV
p550
asS'isMulti'
p551
I00
sS'isCompound'
p552
I01
sg30
I00
sg31
(lp553
VnoiseUV.noiseU
p554
aVnoiseUV.noiseV
p555
asS'isElement'
p556
I00
ssVvertexUvOne
p557
(dp558
S'isArray'
p559
I00
sS'isElement'
p560
I00
sS'isCompound'
p561
I01
sS'attrChildrenNames'
p562
(lp563
VvertexUvOne.vertexUvOneU
p564
aVvertexUvOne.vertexUvOneV
p565
asS'isMulti'
p566
I00
ssVvertexUvThree.vertexUvThreeU
p567
(dp568
S'isArray'
p569
I00
sS'attrParentLongName'
p570
VvertexUvThree
p571
sS'attrChildrenNames'
p572
(lp573
sS'isMulti'
p574
I00
sS'isCompound'
p575
I00
sS'isElement'
p576
I00
ss.