(dp0
VparameterU
p1
(dp2
S'isArray'
p3
I00
sS'attrType'
p4
Vdouble
p5
sS'attrChildrenNames'
p6
(lp7
sS'isMulti'
p8
I00
sS'isCompound'
p9
I00
sS'isSimple'
p10
I01
sS'attrChildrenLongNames'
p11
(lp12
sS'isElement'
p13
I00
ssVparameterV
p14
(dp15
S'isArray'
p16
I00
sg4
Vdouble
p17
sS'attrChildrenNames'
p18
(lp19
sS'isMulti'
p20
I00
sS'isCompound'
p21
I00
sg10
I01
sg11
(lp22
sS'isElement'
p23
I00
ssVturnOnPercentage
p24
(dp25
S'isArray'
p26
I00
sg4
Vbool
p27
sS'attrChildrenNames'
p28
(lp29
sS'isMulti'
p30
I00
sS'isCompound'
p31
I00
sg10
I01
sg11
(lp32
sS'isElement'
p33
I00
ssVresult.tangentU
p34
(dp35
S'isArray'
p36
I00
sS'attrParentLongName'
p37
Vresult
p38
sS'attrChildrenNames'
p39
(lp40
Vresult.tangentU.tangentUx
p41
aVresult.tangentU.tangentUy
p42
aVresult.tangentU.tangentUz
p43
asg4
Vdouble3
p44
sS'isMulti'
p45
I00
sS'isCompound'
p46
I01
sg10
I01
sg11
(lp47
Vresult.tangentU.tangentUx
p48
aVresult.tangentU.tangentUy
p49
aVresult.tangentU.tangentUz
p50
asS'isElement'
p51
I00
ssVresult.tangentV
p52
(dp53
S'isArray'
p54
I00
sS'attrParentLongName'
p55
Vresult
p56
sS'attrChildrenNames'
p57
(lp58
Vresult.tangentV.tangentVx
p59
aVresult.tangentV.tangentVy
p60
aVresult.tangentV.tangentVz
p61
asg4
Vdouble3
p62
sS'isMulti'
p63
I00
sS'isCompound'
p64
I01
sg10
I01
sg11
(lp65
Vresult.tangentV.tangentVx
p66
aVresult.tangentV.tangentVy
p67
aVresult.tangentV.tangentVz
p68
asS'isElement'
p69
I00
ssVresult.normalizedNormal
p70
(dp71
S'isArray'
p72
I00
sS'attrParentLongName'
p73
Vresult
p74
sS'attrChildrenNames'
p75
(lp76
Vresult.normalizedNormal.normalizedNormalX
p77
aVresult.normalizedNormal.normalizedNormalY
p78
aVresult.normalizedNormal.normalizedNormalZ
p79
asg4
Vdouble3
p80
sS'isMulti'
p81
I00
sS'isCompound'
p82
I01
sg10
I01
sg11
(lp83
Vresult.normalizedNormal.normalizedNormalX
p84
aVresult.normalizedNormal.normalizedNormalY
p85
aVresult.normalizedNormal.normalizedNormalZ
p86
asS'isElement'
p87
I00
ssVisHistoricallyInteresting
p88
(dp89
S'isArray'
p90
I00
sg4
Vbyte
p91
sS'attrChildrenNames'
p92
(lp93
sS'isMulti'
p94
I00
sS'isCompound'
p95
I00
sg10
I00
sS'attrChildrenLongNames'
p96
(lp97
sS'isElement'
p98
I00
ssVresult.position
p99
(dp100
S'isArray'
p101
I00
sS'attrParentLongName'
p102
Vresult
p103
sS'attrChildrenNames'
p104
(lp105
Vresult.position.positionX
p106
aVresult.position.positionY
p107
aVresult.position.positionZ
p108
asg4
Vdouble3
p109
sS'isMulti'
p110
I00
sS'isCompound'
p111
I01
sg10
I01
sg11
(lp112
Vresult.position.positionX
p113
aVresult.position.positionY
p114
aVresult.position.positionZ
p115
asS'isElement'
p116
I00
ssVresult.normalizedNormal.normalizedNormalX
p117
(dp118
S'isArray'
p119
I00
sS'attrParentLongName'
p120
Vresult.normalizedNormal
p121
sS'attrChildrenNames'
p122
(lp123
sg4
VdoubleLinear
p124
sS'isMulti'
p125
I00
sS'isCompound'
p126
I00
sg10
I01
sg11
(lp127
sS'isElement'
p128
I00
ssVresult.normalizedNormal.normalizedNormalY
p129
(dp130
S'isArray'
p131
I00
sS'attrParentLongName'
p132
Vresult.normalizedNormal
p133
sS'attrChildrenNames'
p134
(lp135
sg4
VdoubleLinear
p136
sS'isMulti'
p137
I00
sS'isCompound'
p138
I00
sg10
I01
sg11
(lp139
sS'isElement'
p140
I00
ssVresult.normalizedNormal.normalizedNormalZ
p141
(dp142
S'isArray'
p143
I00
sS'attrParentLongName'
p144
Vresult.normalizedNormal
p145
sS'attrChildrenNames'
p146
(lp147
sg4
VdoubleLinear
p148
sS'isMulti'
p149
I00
sS'isCompound'
p150
I00
sg10
I01
sg11
(lp151
sS'isElement'
p152
I00
ssVresult.tangentV.tangentVy
p153
(dp154
S'isArray'
p155
I00
sS'attrParentLongName'
p156
Vresult.tangentV
p157
sS'attrChildrenNames'
p158
(lp159
sg4
VdoubleLinear
p160
sS'isMulti'
p161
I00
sS'isCompound'
p162
I00
sg10
I01
sg11
(lp163
sS'isElement'
p164
I00
ssVresult.normalizedTangentV.normalizedTangentVX
p165
(dp166
S'isArray'
p167
I00
sS'attrParentLongName'
p168
Vresult.normalizedTangentV
p169
sS'attrChildrenNames'
p170
(lp171
sg4
VdoubleLinear
p172
sS'isMulti'
p173
I00
sS'isCompound'
p174
I00
sg10
I01
sg11
(lp175
sS'isElement'
p176
I00
ssVresult.normalizedTangentV.normalizedTangentVY
p177
(dp178
S'isArray'
p179
I00
sS'attrParentLongName'
p180
Vresult.normalizedTangentV
p181
sS'attrChildrenNames'
p182
(lp183
sg4
VdoubleLinear
p184
sS'isMulti'
p185
I00
sS'isCompound'
p186
I00
sg10
I01
sg11
(lp187
sS'isElement'
p188
I00
ssVresult.normalizedTangentV.normalizedTangentVZ
p189
(dp190
S'isArray'
p191
I00
sS'attrParentLongName'
p192
Vresult.normalizedTangentV
p193
sS'attrChildrenNames'
p194
(lp195
sg4
VdoubleLinear
p196
sS'isMulti'
p197
I00
sS'isCompound'
p198
I00
sg10
I01
sg11
(lp199
sS'isElement'
p200
I00
ssVbinMembership
p201
(dp202
S'isArray'
p203
I00
sg4
Vstring
p204
sS'isMulti'
p205
I00
sS'isCompound'
p206
I00
sg10
I01
sg96
(lp207
ssVcaching
p208
(dp209
S'isArray'
p210
I00
sg4
Vbool
p211
sS'attrChildrenNames'
p212
(lp213
sS'isMulti'
p214
I00
sS'isCompound'
p215
I00
sg10
I01
sg96
(lp216
sS'isElement'
p217
I00
ssVinputSurface
p218
(dp219
S'isArray'
p220
I00
sg4
VnurbsSurface
p221
sS'attrChildrenNames'
p222
(lp223
sS'isMulti'
p224
I00
sS'isCompound'
p225
I00
sg10
I00
sg11
(lp226
sS'isElement'
p227
I00
ssVnodeState
p228
(dp229
S'isArray'
p230
I00
sg4
Venum
p231
sS'attrChildrenNames'
p232
(lp233
sS'isMulti'
p234
I00
sS'isCompound'
p235
I00
sg10
I01
sg96
(lp236
sS'isElement'
p237
I00
ssVresult.normalizedTangentU.normalizedTangentUZ
p238
(dp239
S'isArray'
p240
I00
sS'attrParentLongName'
p241
Vresult.normalizedTangentU
p242
sS'attrChildrenNames'
p243
(lp244
sg4
VdoubleLinear
p245
sS'isMulti'
p246
I00
sS'isCompound'
p247
I00
sg10
I01
sg11
(lp248
sS'isElement'
p249
I00
ssVresult.tangentU.tangentUx
p250
(dp251
S'isArray'
p252
I00
sS'attrParentLongName'
p253
Vresult.tangentU
p254
sS'attrChildrenNames'
p255
(lp256
sg4
VdoubleLinear
p257
sS'isMulti'
p258
I00
sS'isCompound'
p259
I00
sg10
I01
sg11
(lp260
sS'isElement'
p261
I00
ssVresult.normalizedTangentU.normalizedTangentUX
p262
(dp263
S'isArray'
p264
I00
sS'attrParentLongName'
p265
Vresult.normalizedTangentU
p266
sS'attrChildrenNames'
p267
(lp268
sg4
VdoubleLinear
p269
sS'isMulti'
p270
I00
sS'isCompound'
p271
I00
sg10
I01
sg11
(lp272
sS'isElement'
p273
I00
ssVresult.normalizedTangentU.normalizedTangentUY
p274
(dp275
S'isArray'
p276
I00
sS'attrParentLongName'
p277
Vresult.normalizedTangentU
p278
sS'attrChildrenNames'
p279
(lp280
sg4
VdoubleLinear
p281
sS'isMulti'
p282
I00
sS'isCompound'
p283
I00
sg10
I01
sg11
(lp284
sS'isElement'
p285
I00
ssVresult.normal.normalX
p286
(dp287
S'isArray'
p288
I00
sS'attrParentLongName'
p289
Vresult.normal
p290
sS'attrChildrenNames'
p291
(lp292
sg4
VdoubleLinear
p293
sS'isMulti'
p294
I00
sS'isCompound'
p295
I00
sg10
I01
sg11
(lp296
sS'isElement'
p297
I00
ssVresult.normalizedTangentV
p298
(dp299
S'isArray'
p300
I00
sS'attrParentLongName'
p301
Vresult
p302
sS'attrChildrenNames'
p303
(lp304
Vresult.normalizedTangentV.normalizedTangentVX
p305
aVresult.normalizedTangentV.normalizedTangentVY
p306
aVresult.normalizedTangentV.normalizedTangentVZ
p307
asg4
Vdouble3
p308
sS'isMulti'
p309
I00
sS'isCompound'
p310
I01
sg10
I01
sg11
(lp311
Vresult.normalizedTangentV.normalizedTangentVX
p312
aVresult.normalizedTangentV.normalizedTangentVY
p313
aVresult.normalizedTangentV.normalizedTangentVZ
p314
asS'isElement'
p315
I00
ssVfrozen
p316
(dp317
S'isArray'
p318
I00
sS'attrType'
p319
Vbool
p320
sS'isMulti'
p321
I00
sS'isCompound'
p322
I00
sS'isSimple'
p323
I01
sS'attrChildrenLongNames'
p324
(lp325
ssVresult.normal
p326
(dp327
S'isArray'
p328
I00
sS'attrParentLongName'
p329
Vresult
p330
sS'attrChildrenNames'
p331
(lp332
Vresult.normal.normalX
p333
aVresult.normal.normalY
p334
aVresult.normal.normalZ
p335
asg4
Vdouble3
p336
sS'isMulti'
p337
I00
sS'isCompound'
p338
I01
sg10
I01
sg11
(lp339
Vresult.normal.normalX
p340
aVresult.normal.normalY
p341
aVresult.normal.normalZ
p342
asS'isElement'
p343
I00
ssVresult.position.positionZ
p344
(dp345
S'isArray'
p346
I00
sS'attrParentLongName'
p347
Vresult.position
p348
sS'attrChildrenNames'
p349
(lp350
sg4
VdoubleLinear
p351
sS'isMulti'
p352
I00
sS'isCompound'
p353
I00
sg10
I01
sg11
(lp354
sS'isElement'
p355
I00
ssVresult.normalizedTangentU
p356
(dp357
S'isArray'
p358
I00
sS'attrParentLongName'
p359
Vresult
p360
sS'attrChildrenNames'
p361
(lp362
Vresult.normalizedTangentU.normalizedTangentUX
p363
aVresult.normalizedTangentU.normalizedTangentUY
p364
aVresult.normalizedTangentU.normalizedTangentUZ
p365
asg4
Vdouble3
p366
sS'isMulti'
p367
I00
sS'isCompound'
p368
I01
sg10
I01
sg11
(lp369
Vresult.normalizedTangentU.normalizedTangentUX
p370
aVresult.normalizedTangentU.normalizedTangentUY
p371
aVresult.normalizedTangentU.normalizedTangentUZ
p372
asS'isElement'
p373
I00
ssVresult.position.positionX
p374
(dp375
S'isArray'
p376
I00
sS'attrParentLongName'
p377
Vresult.position
p378
sS'attrChildrenNames'
p379
(lp380
sg4
VdoubleLinear
p381
sS'isMulti'
p382
I00
sS'isCompound'
p383
I00
sg10
I01
sg11
(lp384
sS'isElement'
p385
I00
ssVresult.position.positionY
p386
(dp387
S'isArray'
p388
I00
sS'attrParentLongName'
p389
Vresult.position
p390
sS'attrChildrenNames'
p391
(lp392
sg4
VdoubleLinear
p393
sS'isMulti'
p394
I00
sS'isCompound'
p395
I00
sg10
I01
sg11
(lp396
sS'isElement'
p397
I00
ssVresult.tangentV.tangentVz
p398
(dp399
S'isArray'
p400
I00
sS'attrParentLongName'
p401
Vresult.tangentV
p402
sS'attrChildrenNames'
p403
(lp404
sg4
VdoubleLinear
p405
sS'isMulti'
p406
I00
sS'isCompound'
p407
I00
sg10
I01
sg11
(lp408
sS'isElement'
p409
I00
ssVresult.normal.normalZ
p410
(dp411
S'isArray'
p412
I00
sS'attrParentLongName'
p413
Vresult.normal
p414
sS'attrChildrenNames'
p415
(lp416
sg4
VdoubleLinear
p417
sS'isMulti'
p418
I00
sS'isCompound'
p419
I00
sg10
I01
sg11
(lp420
sS'isElement'
p421
I00
ssVresult.tangentU.tangentUy
p422
(dp423
S'isArray'
p424
I00
sS'attrParentLongName'
p425
Vresult.tangentU
p426
sS'attrChildrenNames'
p427
(lp428
sg4
VdoubleLinear
p429
sS'isMulti'
p430
I00
sS'isCompound'
p431
I00
sg10
I01
sg11
(lp432
sS'isElement'
p433
I00
ssVresult.tangentU.tangentUz
p434
(dp435
S'isArray'
p436
I00
sS'attrParentLongName'
p437
Vresult.tangentU
p438
sS'attrChildrenNames'
p439
(lp440
sg4
VdoubleLinear
p441
sS'isMulti'
p442
I00
sS'isCompound'
p443
I00
sg10
I01
sg11
(lp444
sS'isElement'
p445
I00
ssVresult.normal.normalY
p446
(dp447
S'isArray'
p448
I00
sS'attrParentLongName'
p449
Vresult.normal
p450
sS'attrChildrenNames'
p451
(lp452
sg4
VdoubleLinear
p453
sS'isMulti'
p454
I00
sS'isCompound'
p455
I00
sg10
I01
sg11
(lp456
sS'isElement'
p457
I00
ssVresult.tangentV.tangentVx
p458
(dp459
S'isArray'
p460
I00
sS'attrParentLongName'
p461
Vresult.tangentV
p462
sS'attrChildrenNames'
p463
(lp464
sg4
VdoubleLinear
p465
sS'isMulti'
p466
I00
sS'isCompound'
p467
I00
sg10
I01
sg11
(lp468
sS'isElement'
p469
I00
ssVresult
p470
(dp471
S'isArray'
p472
I00
sg4
VTdataCompound
p473
sS'attrChildrenNames'
p474
(lp475
Vresult.position
p476
aVresult.normal
p477
aVresult.normalizedNormal
p478
aVresult.tangentU
p479
aVresult.normalizedTangentU
p480
aVresult.tangentV
p481
aVresult.normalizedTangentV
p482
asS'isMulti'
p483
I00
sS'isCompound'
p484
I01
sg10
I00
sg11
(lp485
Vresult.position
p486
aVresult.normal
p487
aVresult.normalizedNormal
p488
aVresult.tangentU
p489
aVresult.normalizedTangentU
p490
aVresult.tangentV
p491
aVresult.normalizedTangentV
p492
asS'isElement'
p493
I00
ss.