(dp0
VrotateOrder
p1
(dp2
S'isArray'
p3
I00
sS'attrType'
p4
Venum
p5
sS'attrChildrenNames'
p6
(lp7
sS'isMulti'
p8
I00
sS'isCompound'
p9
I00
sS'isSimple'
p10
I01
sS'isReadable'
p11
I01
sS'attrChildrenLongNames'
p12
(lp13
sS'isElement'
p14
I00
ssVtarget[1].targetParentMatrix
p15
(dp16
S'isArray'
p17
I00
sS'attrType'
p18
Vmatrix
p19
sS'attrChildrenLongNames'
p20
(lp21
sS'isSimple'
p22
I00
sS'isMulti'
p23
I00
ssVtarget[0].targetTranslate.targetTranslateZ
p24
(dp25
S'isArray'
p26
I00
sS'attrParentLongName'
p27
Vtarget[0].targetTranslate
p28
sS'attrChildrenNames'
p29
(lp30
sS'attrType'
p31
VdoubleLinear
p32
sS'isMulti'
p33
I00
sS'isCompound'
p34
I00
sS'isSimple'
p35
I01
sS'isReadable'
p36
I01
sg20
(lp37
sS'isElement'
p38
I00
ssVtarget[0].targetTranslate.targetTranslateY
p39
(dp40
S'isArray'
p41
I00
sS'attrParentLongName'
p42
Vtarget[0].targetTranslate
p43
sS'attrChildrenNames'
p44
(lp45
sS'attrType'
p46
VdoubleLinear
p47
sS'isMulti'
p48
I00
sS'isCompound'
p49
I00
sg35
I01
sS'isReadable'
p50
I01
sg20
(lp51
sS'isElement'
p52
I00
ssVtarget[0].targetTranslate.targetTranslateX
p53
(dp54
S'isArray'
p55
I00
sS'attrParentLongName'
p56
Vtarget[0].targetTranslate
p57
sS'attrChildrenNames'
p58
(lp59
sS'attrType'
p60
VdoubleLinear
p61
sS'isMulti'
p62
I00
sS'isCompound'
p63
I00
sg35
I01
sS'isReadable'
p64
I01
sg20
(lp65
sS'isElement'
p66
I00
ssVminTransLimitEnable.minTransYLimitEnable
p67
(dp68
S'isArray'
p69
I00
sS'attrType'
p70
Vbool
p71
sS'isMulti'
p72
I00
sS'isCompound'
p73
I00
sg10
I01
sg12
(lp74
ssVrenderLayerInfo.renderLayerRenderable
p75
(dp76
S'attrParentLongName'
p77
VrenderLayerInfo
p78
ssVtarget.targetRotateTranslateZ
p79
(dp80
g77
Vtarget.targetRotateTranslate
p81
ssVtarget.targetRotateTranslateX
p82
(dp83
g77
Vtarget.targetRotateTranslate
p84
ssVtarget.targetRotateTranslateY
p85
(dp86
g77
Vtarget.targetRotateTranslate
p87
ssVboundingBox.boundingBoxMin.boundingBoxMinY
p88
(dp89
S'isArray'
p90
I00
sS'attrParentLongName'
p91
VboundingBox.boundingBoxMin
p92
sS'attrChildrenNames'
p93
(lp94
sS'attrType'
p95
VdoubleLinear
p96
sS'isMulti'
p97
I00
sS'isCompound'
p98
I00
sg10
I01
sS'isReadable'
p99
I01
sg12
(lp100
sS'isElement'
p101
I00
ssVboundingBox.boundingBoxMin.boundingBoxMinX
p102
(dp103
S'isArray'
p104
I00
sS'attrParentLongName'
p105
VboundingBox.boundingBoxMin
p106
sS'attrChildrenNames'
p107
(lp108
sS'attrType'
p109
VdoubleLinear
p110
sS'isMulti'
p111
I00
sS'isCompound'
p112
I00
sg10
I01
sS'isReadable'
p113
I01
sg12
(lp114
sS'isElement'
p115
I00
ssVboundingBox.boundingBoxMin.boundingBoxMinZ
p116
(dp117
S'isArray'
p118
I00
sS'attrParentLongName'
p119
VboundingBox.boundingBoxMin
p120
sS'attrChildrenNames'
p121
(lp122
sS'attrType'
p123
VdoubleLinear
p124
sS'isMulti'
p125
I00
sS'isCompound'
p126
I00
sg10
I01
sS'isReadable'
p127
I01
sg12
(lp128
sS'isElement'
p129
I00
ssVminRotLimitEnable.minRotYLimitEnable
p130
(dp131
g69
I00
sg70
Vbool
p132
sg72
I00
sg73
I00
sg10
I01
sg12
(lp133
ssVselectHandle
p134
(dp135
S'isArray'
p136
I00
sS'attrType'
p137
Vdouble3
p138
sS'attrChildrenNames'
p139
(lp140
VselectHandle.selectHandleX
p141
aVselectHandle.selectHandleY
p142
aVselectHandle.selectHandleZ
p143
asS'isMulti'
p144
I00
sS'isCompound'
p145
I01
sg10
I01
sS'isReadable'
p146
I01
sg12
(lp147
VselectHandle.selectHandleX
p148
aVselectHandle.selectHandleY
p149
aVselectHandle.selectHandleZ
p150
asS'isElement'
p151
I00
ssVrotateQuaternion.rotateQuaternionZ
p152
(dp153
S'isArray'
p154
I00
sS'attrParentLongName'
p155
VrotateQuaternion
p156
sS'attrChildrenNames'
p157
(lp158
sS'attrType'
p159
Vdouble
p160
sS'isMulti'
p161
I00
sS'isCompound'
p162
I00
sg10
I01
sS'isReadable'
p163
I01
sg12
(lp164
sS'isElement'
p165
I00
ssVrenderLayerInfo[0].renderLayerId
p166
(dp167
S'isArray'
p168
I00
sS'attrParentLongName'
p169
VrenderLayerInfo[0]
p170
sS'attrChildrenNames'
p171
(lp172
sS'attrType'
p173
Vshort
p174
sg22
I00
sS'isReadable'
p175
I01
sg12
(lp176
sS'isElement'
p177
I00
ssVrotateQuaternion.rotateQuaternionX
p178
(dp179
S'isArray'
p180
I00
sS'attrParentLongName'
p181
VrotateQuaternion
p182
sS'attrChildrenNames'
p183
(lp184
sS'attrType'
p185
Vdouble
p186
sS'isMulti'
p187
I00
sS'isCompound'
p188
I00
sg10
I01
sS'isReadable'
p189
I01
sg12
(lp190
sS'isElement'
p191
I00
ssVrotateQuaternion.rotateQuaternionY
p192
(dp193
S'isArray'
p194
I00
sS'attrParentLongName'
p195
VrotateQuaternion
p196
sS'attrChildrenNames'
p197
(lp198
sS'attrType'
p199
Vdouble
p200
sS'isMulti'
p201
I00
sS'isCompound'
p202
I00
sg10
I01
sS'isReadable'
p203
I01
sg12
(lp204
sS'isElement'
p205
I00
ssVminScaleLimit.minScaleXLimit
p206
(dp207
g69
I00
sg70
Vdouble
p208
sg72
I00
sg73
I00
sg10
I01
sg12
(lp209
ssVrotateQuaternion.rotateQuaternionW
p210
(dp211
S'isArray'
p212
I00
sS'attrParentLongName'
p213
VrotateQuaternion
p214
sS'attrChildrenNames'
p215
(lp216
sS'attrType'
p217
Vdouble
p218
sS'isMulti'
p219
I00
sS'isCompound'
p220
I00
sg10
I01
sS'isReadable'
p221
I01
sg12
(lp222
sS'isElement'
p223
I00
ssVtemplatePath
p224
(dp225
S'isArray'
p226
I00
sS'attrType'
p227
Vstring
p228
sS'attrChildrenNames'
p229
(lp230
sS'isMulti'
p231
I00
sS'isCompound'
p232
I00
sg10
I01
sS'isReadable'
p233
I01
sg12
(lp234
sS'isElement'
p235
I00
ssVminTransLimit
p236
(dp237
g69
I00
sg70
Vdouble3
p238
sg72
I00
sg73
I01
sg10
I01
sg12
(lp239
VminTransLimit.minTransXLimit
p240
aVminTransLimit.minTransYLimit
p241
aVminTransLimit.minTransZLimit
p242
assVminRotLimit
p243
(dp244
g69
I00
sg70
Vdouble3
p245
sg72
I00
sg73
I01
sg10
I01
sg12
(lp246
VminRotLimit.minRotXLimit
p247
aVminRotLimit.minRotYLimit
p248
aVminRotLimit.minRotZLimit
p249
assVmaxTransLimitEnable.maxTransYLimitEnable
p250
(dp251
g69
I00
sg70
Vbool
p252
sg72
I00
sg73
I00
sg10
I01
sg12
(lp253
ssVlockOutput
p254
(dp255
S'isArray'
p256
I00
sS'attrType'
p257
Vbool
p258
sS'attrChildrenNames'
p259
(lp260
sS'isMulti'
p261
I00
sS'isCompound'
p262
I00
sg10
I01
sS'isReadable'
p263
I01
sg12
(lp264
sS'isElement'
p265
I00
ssVconstraintParentInverseMatrix
p266
(dp267
S'isArray'
p268
I00
sS'attrType'
p269
Vmatrix
p270
sS'attrChildrenNames'
p271
(lp272
sS'isMulti'
p273
I00
sS'isCompound'
p274
I00
sg35
I00
sS'isReadable'
p275
I00
sg20
(lp276
sS'isElement'
p277
I00
ssVmaxScaleLimitEnable.maxScaleYLimitEnable
p278
(dp279
g69
I00
sg70
Vbool
p280
sg72
I00
sg73
I00
sg10
I01
sg12
(lp281
ssVtarget[4].targetRotatePivot
p282
(dp283
S'isArray'
p284
I00
sS'attrChildrenLongNames'
p285
(lp286
Vtarget[4].targetRotatePivot.targetRotatePivotX
p287
aVtarget[4].targetRotatePivot.targetRotatePivotY
p288
aVtarget[4].targetRotatePivot.targetRotatePivotZ
p289
assVparentMatrix[0]
p290
(dp291
g69
I00
sg22
I00
sg12
(lp292
ssVinstObjGroups[0].objectGroups[0]
p293
(dp294
g69
I00
sg22
I00
sg12
(lp295
VinstObjGroups[0].objectGroups[0].objectGrpCompList
p296
aVinstObjGroups[0].objectGroups[0].objectGroupId
p297
aVinstObjGroups[0].objectGroups[0].objectGrpColor
p298
assVconstraintTranslate
p299
(dp300
S'isArray'
p301
I00
sS'attrType'
p302
Vdouble3
p303
sS'attrChildrenNames'
p304
(lp305
VconstraintTranslate.constraintTranslateX
p306
aVconstraintTranslate.constraintTranslateY
p307
aVconstraintTranslate.constraintTranslateZ
p308
asS'isMulti'
p309
I00
sS'isCompound'
p310
I01
sg35
I01
sS'isReadable'
p311
I01
sg20
(lp312
VconstraintTranslate.constraintTranslateX
p313
aVconstraintTranslate.constraintTranslateY
p314
aVconstraintTranslate.constraintTranslateZ
p315
asS'isElement'
p316
I00
ssVdynamics
p317
(dp318
S'isArray'
p319
I00
sS'attrType'
p320
Vbool
p321
sS'attrChildrenNames'
p322
(lp323
sS'isMulti'
p324
I00
sS'isCompound'
p325
I00
sg10
I01
sS'isReadable'
p326
I01
sg12
(lp327
sS'isElement'
p328
I00
ssVmaxTransLimit.maxTransZLimit
p329
(dp330
g69
I00
sg70
VdoubleLinear
p331
sg72
I00
sg73
I00
sg10
I01
sg12
(lp332
ssVoffset.offsetZ
p333
(dp334
S'isArray'
p335
I00
sS'attrParentLongName'
p336
Voffset
p337
sS'attrChildrenNames'
p338
(lp339
sS'attrType'
p340
VdoubleLinear
p341
sS'isMulti'
p342
I00
sS'isCompound'
p343
I00
sg10
I01
sS'isReadable'
p344
I01
sg12
(lp345
sS'isElement'
p346
I00
ssVoffset.offsetX
p347
(dp348
S'isArray'
p349
I00
sS'attrParentLongName'
p350
Voffset
p351
sS'attrChildrenNames'
p352
(lp353
sS'attrType'
p354
VdoubleLinear
p355
sS'isMulti'
p356
I00
sS'isCompound'
p357
I00
sg10
I01
sS'isReadable'
p358
I01
sg12
(lp359
sS'isElement'
p360
I00
ssVoffset.offsetY
p361
(dp362
S'isArray'
p363
I00
sS'attrParentLongName'
p364
Voffset
p365
sS'attrChildrenNames'
p366
(lp367
sS'attrType'
p368
VdoubleLinear
p369
sS'isMulti'
p370
I00
sS'isCompound'
p371
I00
sg10
I01
sS'isReadable'
p372
I01
sg12
(lp373
sS'isElement'
p374
I00
ssVrotatePivot
p375
(dp376
S'isArray'
p377
I00
sS'attrType'
p378
Vdouble3
p379
sS'attrChildrenNames'
p380
(lp381
VrotatePivot.rotatePivotX
p382
aVrotatePivot.rotatePivotY
p383
aVrotatePivot.rotatePivotZ
p384
asS'isMulti'
p385
I00
sS'isCompound'
p386
I01
sg10
I01
sS'isReadable'
p387
I01
sg12
(lp388
VrotatePivot.rotatePivotX
p389
aVrotatePivot.rotatePivotY
p390
aVrotatePivot.rotatePivotZ
p391
asS'isElement'
p392
I00
ssVtemplate
p393
(dp394
S'isArray'
p395
I00
sS'attrType'
p396
Vbool
p397
sS'attrChildrenNames'
p398
(lp399
sS'isMulti'
p400
I00
sS'isCompound'
p401
I00
sg10
I01
sS'isReadable'
p402
I01
sg12
(lp403
sS'isElement'
p404
I00
ssVtarget[2]
p405
(dp406
S'isArray'
p407
I00
sS'isMulti'
p408
I00
sS'attrChildrenNames'
p409
(lp410
Vtarget[2].targetTranslate
p411
aVtarget[2].targetRotatePivot
p412
aVtarget[2].targetRotateTranslate
p413
aVtarget[2].targetParentMatrix
p414
aVtarget[2].targetWeight
p415
asg22
I00
sg20
(lp416
Vtarget[2].targetTranslate
p417
aVtarget[2].targetRotatePivot
p418
aVtarget[2].targetRotateTranslate
p419
aVtarget[2].targetParentMatrix
p420
aVtarget[2].targetWeight
p421
assVparentInverseMatrix[1]
p422
(dp423
g69
I00
sg22
I00
sg12
(lp424
ssg240
(dp425
g69
I00
sg70
VdoubleLinear
p426
sg72
I00
sg73
I00
sg10
I01
sg12
(lp427
ssVdisplayScalePivot
p428
(dp429
S'isArray'
p430
I00
sS'attrType'
p431
Vbool
p432
sS'attrChildrenNames'
p433
(lp434
sS'isMulti'
p435
I00
sS'isCompound'
p436
I00
sg10
I01
sS'isReadable'
p437
I01
sg12
(lp438
sS'isElement'
p439
I00
ssVtarget[0].targetRotateTranslate
p440
(dp441
S'isArray'
p442
I00
sS'attrParentLongName'
p443
Vtarget[0]
p444
sS'attrChildrenNames'
p445
(lp446
Vtarget[0].targetRotateTranslate.targetRotateTranslateX
p447
aVtarget[0].targetRotateTranslate.targetRotateTranslateY
p448
aVtarget[0].targetRotateTranslate.targetRotateTranslateZ
p449
asS'attrType'
p450
Vdouble3
p451
sS'isMulti'
p452
I00
sS'isCompound'
p453
I01
sg35
I01
sS'isReadable'
p454
I01
sg20
(lp455
Vtarget[0].targetRotateTranslate.targetRotateTranslateX
p456
aVtarget[0].targetRotateTranslate.targetRotateTranslateY
p457
aVtarget[0].targetRotateTranslate.targetRotateTranslateZ
p458
asS'isElement'
p459
I00
ssVmentalRayControls.miHide
p460
(dp461
S'isArray'
p462
I00
sS'attrParentLongName'
p463
VmentalRayControls
p464
sS'attrChildrenNames'
p465
(lp466
sS'attrType'
p467
Vbool
p468
sS'isMulti'
p469
I00
sS'isCompound'
p470
I00
sg10
I01
sS'isReadable'
p471
I01
sg12
(lp472
sS'isElement'
p473
I00
ssVinstObjGroups.objectGroups
p474
(dp475
g77
VinstObjGroups
p476
ssVpublishedNodeInfo
p477
(dp478
S'isArray'
p479
I01
sS'attrType'
p480
VTdataCompound
p481
sS'isMulti'
p482
I01
sg10
I00
sS'isReadable'
p483
I00
sS'isElement'
p484
I00
ssVdrawOverride.overrideTexturing
p485
(dp486
S'isArray'
p487
I00
sS'attrParentLongName'
p488
VdrawOverride
p489
sS'attrChildrenNames'
p490
(lp491
sS'attrType'
p492
Vbool
p493
sS'isMulti'
p494
I00
sS'isCompound'
p495
I00
sg10
I01
sS'isReadable'
p496
I01
sg12
(lp497
sS'isElement'
p498
I00
ssg420
(dp499
g17
I00
sg408
I00
sg22
I00
sg20
(lp500
ssVconstraintTranslate.constraintTranslateZ
p501
(dp502
S'isArray'
p503
I00
sS'attrParentLongName'
p504
VconstraintTranslate
p505
sS'attrChildrenNames'
p506
(lp507
sS'attrType'
p508
VdoubleLinear
p509
sS'isMulti'
p510
I00
sS'isCompound'
p511
I00
sg35
I01
sS'isReadable'
p512
I01
sg20
(lp513
sS'isElement'
p514
I00
ssVconstraintRotatePivot
p515
(dp516
S'isArray'
p517
I00
sS'attrType'
p518
Vdouble3
p519
sS'attrChildrenNames'
p520
(lp521
VconstraintRotatePivot.constraintRotatePivotX
p522
aVconstraintRotatePivot.constraintRotatePivotY
p523
aVconstraintRotatePivot.constraintRotatePivotZ
p524
asS'isMulti'
p525
I00
sS'isCompound'
p526
I01
sg35
I01
sS'isReadable'
p527
I01
sg20
(lp528
VconstraintRotatePivot.constraintRotatePivotX
p529
aVconstraintRotatePivot.constraintRotatePivotY
p530
aVconstraintRotatePivot.constraintRotatePivotZ
p531
asS'isElement'
p532
I00
ssVconstraintTranslate.constraintTranslateX
p533
(dp534
S'isArray'
p535
I00
sS'attrParentLongName'
p536
VconstraintTranslate
p537
sS'attrChildrenNames'
p538
(lp539
sS'attrType'
p540
VdoubleLinear
p541
sS'isMulti'
p542
I00
sS'isCompound'
p543
I00
sg35
I01
sS'isReadable'
p544
I01
sg20
(lp545
sS'isElement'
p546
I00
ssVconstraintTranslate.constraintTranslateY
p547
(dp548
S'isArray'
p549
I00
sS'attrParentLongName'
p550
VconstraintTranslate
p551
sS'attrChildrenNames'
p552
(lp553
sS'attrType'
p554
VdoubleLinear
p555
sS'isMulti'
p556
I00
sS'isCompound'
p557
I00
sg35
I01
sS'isReadable'
p558
I01
sg20
(lp559
sS'isElement'
p560
I00
ssVdisplayHandle
p561
(dp562
S'isArray'
p563
I00
sS'attrType'
p564
Vbool
p565
sS'attrChildrenNames'
p566
(lp567
sS'isMulti'
p568
I00
sS'isCompound'
p569
I00
sg10
I01
sS'isReadable'
p570
I01
sg12
(lp571
sS'isElement'
p572
I00
ssVminRotLimitEnable.minRotXLimitEnable
p573
(dp574
g69
I00
sg70
Vbool
p575
sg72
I00
sg73
I00
sg10
I01
sg12
(lp576
ssg241
(dp577
g69
I00
sg70
VdoubleLinear
p578
sg72
I00
sg73
I00
sg10
I01
sg12
(lp579
ssVtarget.targetRotateTranslate
p580
(dp581
S'attrParentLongName'
p582
Vtarget[0]
p583
sS'isElement'
p584
I00
ssVrotateQuaternion
p585
(dp586
S'isArray'
p587
I00
sS'attrType'
p588
Vdouble4
p589
sS'attrChildrenNames'
p590
(lp591
VrotateQuaternion.rotateQuaternionX
p592
aVrotateQuaternion.rotateQuaternionY
p593
aVrotateQuaternion.rotateQuaternionZ
p594
aVrotateQuaternion.rotateQuaternionW
p595
asS'isMulti'
p596
I00
sS'isCompound'
p597
I01
sg10
I00
sS'isReadable'
p598
I00
sg12
(lp599
VrotateQuaternion.rotateQuaternionX
p600
aVrotateQuaternion.rotateQuaternionY
p601
aVrotateQuaternion.rotateQuaternionZ
p602
aVrotateQuaternion.rotateQuaternionW
p603
asS'isElement'
p604
I00
ssVtransMinusRotatePivot.transMinusRotatePivotZ
p605
(dp606
S'isArray'
p607
I00
sS'attrParentLongName'
p608
VtransMinusRotatePivot
p609
sS'attrChildrenNames'
p610
(lp611
sS'attrType'
p612
VdoubleLinear
p613
sS'isMulti'
p614
I00
sS'isCompound'
p615
I00
sg10
I01
sS'isReadable'
p616
I01
sg12
(lp617
sS'isElement'
p618
I00
ssVtransMinusRotatePivot.transMinusRotatePivotX
p619
(dp620
S'isArray'
p621
I00
sS'attrParentLongName'
p622
VtransMinusRotatePivot
p623
sS'attrChildrenNames'
p624
(lp625
sS'attrType'
p626
VdoubleLinear
p627
sS'isMulti'
p628
I00
sS'isCompound'
p629
I00
sg10
I01
sS'isReadable'
p630
I01
sg12
(lp631
sS'isElement'
p632
I00
ssVtransMinusRotatePivot.transMinusRotatePivotY
p633
(dp634
S'isArray'
p635
I00
sS'attrParentLongName'
p636
VtransMinusRotatePivot
p637
sS'attrChildrenNames'
p638
(lp639
sS'attrType'
p640
VdoubleLinear
p641
sS'isMulti'
p642
I00
sS'isCompound'
p643
I00
sg10
I01
sS'isReadable'
p644
I01
sg12
(lp645
sS'isElement'
p646
I00
ssVrotationInterpolation
p647
(dp648
S'isArray'
p649
I00
sS'attrType'
p650
Venum
p651
sS'attrChildrenNames'
p652
(lp653
sS'isMulti'
p654
I00
sS'isCompound'
p655
I00
sg10
I01
sS'isReadable'
p656
I01
sg12
(lp657
sS'isElement'
p658
I00
ssVminScaleLimit.minScaleYLimit
p659
(dp660
g69
I00
sg70
Vdouble
p661
sg72
I00
sg73
I00
sg10
I01
sg12
(lp662
ssVtarget[4]
p663
(dp664
g284
I00
sg285
(lp665
Vtarget[4].targetTranslate
p666
ag282
aVtarget[4].targetRotateTranslate
p667
aVtarget[4].targetParentMatrix
p668
aVtarget[4].targetWeight
p669
assVtarget.targetTranslateY
p670
(dp671
g77
Vtarget.targetTranslate
p672
ssVtarget.targetTranslateX
p673
(dp674
g77
Vtarget.targetTranslate
p675
ssVtarget.targetTranslateZ
p676
(dp677
g77
Vtarget.targetTranslate
p678
ssVinstObjGroups[0].objectGroups
p679
(dp680
S'isArray'
p681
I01
sS'attrParentLongName'
p682
VinstObjGroups[0]
p683
sS'attrType'
p684
VTdataCompound
p685
sg22
I00
sS'isReadable'
p686
I00
sS'isElement'
p687
I00
ssVshear.shearXZ
p688
(dp689
S'isArray'
p690
I00
sS'attrParentLongName'
p691
Vshear
p692
sS'attrChildrenNames'
p693
(lp694
sS'attrType'
p695
Vdouble
p696
sS'isMulti'
p697
I00
sS'isCompound'
p698
I00
sg10
I01
sS'isReadable'
p699
I01
sg12
(lp700
sS'isElement'
p701
I00
ssVshear.shearXY
p702
(dp703
S'isArray'
p704
I00
sS'attrParentLongName'
p705
Vshear
p706
sS'attrChildrenNames'
p707
(lp708
sS'attrType'
p709
Vdouble
p710
sS'isMulti'
p711
I00
sS'isCompound'
p712
I00
sg10
I01
sS'isReadable'
p713
I01
sg12
(lp714
sS'isElement'
p715
I00
ssVvisibility
p716
(dp717
S'isArray'
p718
I00
sS'attrType'
p719
Vbool
p720
sS'attrChildrenNames'
p721
(lp722
sS'isMulti'
p723
I00
sS'isCompound'
p724
I00
sg10
I01
sS'isReadable'
p725
I01
sg12
(lp726
sS'isElement'
p727
I00
ssVenableRestPosition
p728
(dp729
S'isArray'
p730
I00
sS'attrType'
p731
Vbool
p732
sS'attrChildrenNames'
p733
(lp734
sS'isMulti'
p735
I00
sS'isCompound'
p736
I00
sg10
I01
sS'isReadable'
p737
I01
sg12
(lp738
sS'isElement'
p739
I00
ssVrenderInfo.layerOverrideColor
p740
(dp741
S'isArray'
p742
I00
sS'attrParentLongName'
p743
VrenderInfo
p744
sS'attrChildrenNames'
p745
(lp746
sS'attrType'
p747
Vbyte
p748
sS'isMulti'
p749
I00
sS'isCompound'
p750
I00
sg10
I00
sS'isReadable'
p751
I00
sg12
(lp752
sS'isElement'
p753
I00
ssVdisplayRotatePivot
p754
(dp755
S'isArray'
p756
I00
sS'attrType'
p757
Vbool
p758
sS'attrChildrenNames'
p759
(lp760
sS'isMulti'
p761
I00
sS'isCompound'
p762
I00
sg10
I01
sS'isReadable'
p763
I01
sg12
(lp764
sS'isElement'
p765
I00
ssVmaxTransLimitEnable.maxTransXLimitEnable
p766
(dp767
g69
I00
sg70
Vbool
p768
sg72
I00
sg73
I00
sg10
I01
sg12
(lp769
ssVinstObjGroups[0]
p770
(dp771
g69
I00
sg22
I00
sg12
(lp772
VinstObjGroups[0].objectGroups
p773
assVmentalRayControls.miCaustic
p774
(dp775
S'isArray'
p776
I00
sS'attrParentLongName'
p777
VmentalRayControls
p778
sS'attrChildrenNames'
p779
(lp780
sS'attrType'
p781
Venum
p782
sS'isMulti'
p783
I00
sS'isCompound'
p784
I00
sg10
I01
sS'isReadable'
p785
I01
sg12
(lp786
sS'isElement'
p787
I00
ssg289
(dp788
g284
I00
sg285
(lp789
ssg288
(dp790
g284
I00
sg285
(lp791
ssg287
(dp792
g284
I00
sg285
(lp793
ssVpublishedNodeInfo[0].isHierarchicalNode
p794
(dp795
S'isArray'
p796
I00
sS'attrParentLongName'
p797
VpublishedNodeInfo[0]
p798
sS'attrChildrenNames'
p799
(lp800
sS'attrType'
p801
Vbool
p802
sg22
I00
sS'isReadable'
p803
I01
sg12
(lp804
sS'isElement'
p805
I00
ssg421
(dp806
g17
I00
sg408
I00
sg22
I00
sg20
(lp807
ssVboundingBox.boundingBoxSize.boundingBoxSizeX
p808
(dp809
S'isArray'
p810
I00
sS'attrParentLongName'
p811
VboundingBox.boundingBoxSize
p812
sS'attrChildrenNames'
p813
(lp814
sS'attrType'
p815
VdoubleLinear
p816
sS'isMulti'
p817
I00
sS'isCompound'
p818
I00
sg10
I01
sS'isReadable'
p819
I01
sg12
(lp820
sS'isElement'
p821
I00
ssVmentalRayControls.miExportGeoShader
p822
(dp823
S'isArray'
p824
I00
sS'attrParentLongName'
p825
VmentalRayControls
p826
sS'attrChildrenNames'
p827
(lp828
sS'attrType'
p829
Vbool
p830
sS'isMulti'
p831
I00
sS'isCompound'
p832
I00
sg10
I01
sS'isReadable'
p833
I01
sg12
(lp834
sS'isElement'
p835
I00
ssVboundingBox.boundingBoxSize.boundingBoxSizeZ
p836
(dp837
S'isArray'
p838
I00
sS'attrParentLongName'
p839
VboundingBox.boundingBoxSize
p840
sS'attrChildrenNames'
p841
(lp842
sS'attrType'
p843
VdoubleLinear
p844
sS'isMulti'
p845
I00
sS'isCompound'
p846
I00
sg10
I01
sS'isReadable'
p847
I01
sg12
(lp848
sS'isElement'
p849
I00
ssVtemplateName
p850
(dp851
S'isArray'
p852
I00
sS'attrType'
p853
Vstring
p854
sS'attrChildrenNames'
p855
(lp856
sS'isMulti'
p857
I00
sS'isCompound'
p858
I00
sg10
I01
sS'isReadable'
p859
I01
sg12
(lp860
sS'isElement'
p861
I00
ssVghostingControl
p862
(dp863
S'isArray'
p864
I00
sS'attrType'
p865
Venum
p866
sS'attrChildrenNames'
p867
(lp868
sS'isMulti'
p869
I00
sS'isCompound'
p870
I00
sg10
I01
sS'isReadable'
p871
I01
sg12
(lp872
sS'isElement'
p873
I00
ssVtarget[1].targetTranslate.targetTranslateZ
p874
(dp875
g17
I00
sg18
VdoubleLinear
p876
sS'isMulti'
p877
I00
sS'isCompound'
p878
I00
sg22
I01
sg20
(lp879
ssVminScaleLimitEnable
p880
(dp881
g69
I00
sg72
I00
sg12
(lp882
VminScaleLimitEnable.minScaleXLimitEnable
p883
aVminScaleLimitEnable.minScaleYLimitEnable
p884
aVminScaleLimitEnable.minScaleZLimitEnable
p885
asg10
I00
sg70
VTdataCompound
p886
ssVtarget[1].targetTranslate.targetTranslateX
p887
(dp888
g17
I00
sg18
VdoubleLinear
p889
sg877
I00
sg878
I00
sg22
I01
sg20
(lp890
ssVtarget[1].targetTranslate.targetTranslateY
p891
(dp892
g17
I00
sg18
VdoubleLinear
p893
sg877
I00
sg878
I00
sg22
I01
sg20
(lp894
ssVdrawOverride.overrideDisplayType
p895
(dp896
S'isArray'
p897
I00
sS'attrParentLongName'
p898
VdrawOverride
p899
sS'attrChildrenNames'
p900
(lp901
sS'attrType'
p902
Venum
p903
sS'isMulti'
p904
I00
sS'isCompound'
p905
I00
sg10
I01
sS'isReadable'
p906
I01
sg12
(lp907
sS'isElement'
p908
I00
ssVboundingBox.boundingBoxSize.boundingBoxSizeY
p909
(dp910
S'isArray'
p911
I00
sS'attrParentLongName'
p912
VboundingBox.boundingBoxSize
p913
sS'attrChildrenNames'
p914
(lp915
sS'attrType'
p916
VdoubleLinear
p917
sS'isMulti'
p918
I00
sS'isCompound'
p919
I00
sg10
I01
sS'isReadable'
p920
I01
sg12
(lp921
sS'isElement'
p922
I00
ssVnodeState
p923
(dp924
S'isArray'
p925
I00
sS'attrType'
p926
Venum
p927
sS'attrChildrenNames'
p928
(lp929
sS'isMulti'
p930
I00
sS'isCompound'
p931
I00
sg10
I01
sS'isReadable'
p932
I01
sg12
(lp933
sS'isElement'
p934
I00
ssVtarget[3].targetTranslate.targetTranslateX
p935
(dp936
S'isArray'
p937
I00
sg22
I00
sS'attrChildrenLongNames'
p938
(lp939
ssVtarget[3].targetTranslate.targetTranslateY
p940
(dp941
g937
I00
sg22
I00
sg938
(lp942
ssVtarget[3].targetTranslate.targetTranslateZ
p943
(dp944
g937
I00
sg22
I00
sg938
(lp945
ssVworldMatrix[1]
p946
(dp947
g69
I00
sg22
I00
sg12
(lp948
ssVscalePivotTranslate.scalePivotTranslateZ
p949
(dp950
S'isArray'
p951
I00
sS'attrParentLongName'
p952
VscalePivotTranslate
p953
sS'attrChildrenNames'
p954
(lp955
sS'attrType'
p956
VdoubleLinear
p957
sS'isMulti'
p958
I00
sS'isCompound'
p959
I00
sg10
I01
sS'isReadable'
p960
I01
sg12
(lp961
sS'isElement'
p962
I00
ssVscalePivotTranslate.scalePivotTranslateX
p963
(dp964
S'isArray'
p965
I00
sS'attrParentLongName'
p966
VscalePivotTranslate
p967
sS'attrChildrenNames'
p968
(lp969
sS'attrType'
p970
VdoubleLinear
p971
sS'isMulti'
p972
I00
sS'isCompound'
p973
I00
sg10
I01
sS'isReadable'
p974
I01
sg12
(lp975
sS'isElement'
p976
I00
ssVisHierarchicalConnection
p977
(dp978
g69
I01
sg72
I01
sg10
I00
sg70
VTdataCompound
p979
ssVminTransLimitEnable
p980
(dp981
g69
I00
sg72
I00
sg12
(lp982
VminTransLimitEnable.minTransXLimitEnable
p983
ag67
aVminTransLimitEnable.minTransZLimitEnable
p984
asg10
I00
sg70
VTdataCompound
p985
ssVghostFrames
p986
(dp987
S'isArray'
p988
I00
sS'attrType'
p989
NsS'attrChildrenNames'
p990
(lp991
sS'isMulti'
p992
I00
sS'isCompound'
p993
I00
sg10
I00
sS'isReadable'
p994
I00
sg12
(lp995
sS'isElement'
p996
I00
ssVinstObjGroups[0].objectGroups[0].objectGrpColor
p997
(dp998
S'isArray'
p999
I00
sS'attrParentLongName'
p1000
VinstObjGroups[0].objectGroups[0]
p1001
sS'attrChildrenNames'
p1002
(lp1003
sS'attrType'
p1004
Vshort
p1005
sg22
I00
sS'isReadable'
p1006
I01
sg12
(lp1007
sS'isElement'
p1008
I00
ssVdrawOverride.overrideColor
p1009
(dp1010
S'isArray'
p1011
I00
sS'attrParentLongName'
p1012
VdrawOverride
p1013
sS'attrChildrenNames'
p1014
(lp1015
sS'attrType'
p1016
Vbyte
p1017
sS'isMulti'
p1018
I00
sS'isCompound'
p1019
I00
sg10
I00
sS'isReadable'
p1020
I00
sg12
(lp1021
sS'isElement'
p1022
I00
ssVrenderLayerInfo.renderLayerId
p1023
(dp1024
g77
VrenderLayerInfo
p1025
ssVrestTranslate
p1026
(dp1027
S'isArray'
p1028
I00
sS'attrType'
p1029
Vdouble3
p1030
sS'attrChildrenNames'
p1031
(lp1032
VrestTranslate.restTranslateX
p1033
aVrestTranslate.restTranslateY
p1034
aVrestTranslate.restTranslateZ
p1035
asS'isMulti'
p1036
I00
sS'isCompound'
p1037
I01
sg10
I01
sS'isReadable'
p1038
I01
sg12
(lp1039
VrestTranslate.restTranslateX
p1040
aVrestTranslate.restTranslateY
p1041
aVrestTranslate.restTranslateZ
p1042
asS'isElement'
p1043
I00
ssVrenderLayerInfo[1].renderLayerColor
p1044
(dp1045
g69
I00
sg22
I00
sg12
(lp1046
ssVtarget.targetParentMatrix
p1047
(dp1048
S'attrParentLongName'
p1049
Vtarget[0]
p1050
sS'isElement'
p1051
I00
ssVcustomTreatment
p1052
(dp1053
S'isArray'
p1054
I00
sS'attrType'
p1055
Vstring
p1056
sS'attrChildrenNames'
p1057
(lp1058
sS'isMulti'
p1059
I00
sS'isCompound'
p1060
I00
sg10
I01
sS'isReadable'
p1061
I01
sg12
(lp1062
sS'isElement'
p1063
I00
ssVshear
p1064
(dp1065
S'isArray'
p1066
I00
sS'attrType'
p1067
Vdouble3
p1068
sS'attrChildrenNames'
p1069
(lp1070
Vshear.shearXY
p1071
aVshear.shearXZ
p1072
aVshear.shearYZ
p1073
asS'isMulti'
p1074
I00
sS'isCompound'
p1075
I01
sg10
I01
sS'isReadable'
p1076
I01
sg12
(lp1077
Vshear.shearXY
p1078
aVshear.shearXZ
p1079
aVshear.shearYZ
p1080
asS'isElement'
p1081
I00
ssVinstObjGroups.objectGroups.objectGrpColor
p1082
(dp1083
g77
VinstObjGroups.objectGroups
p1084
ssg667
(dp1085
g284
I00
sg285
(lp1086
Vtarget[4].targetRotateTranslate.targetRotateTranslateX
p1087
aVtarget[4].targetRotateTranslate.targetRotateTranslateY
p1088
aVtarget[4].targetRotateTranslate.targetRotateTranslateZ
p1089
assVcreationDate
p1090
(dp1091
S'isArray'
p1092
I00
sS'attrType'
p1093
Vstring
p1094
sS'attrChildrenNames'
p1095
(lp1096
sS'isMulti'
p1097
I00
sS'isCompound'
p1098
I00
sg10
I01
sS'isReadable'
p1099
I01
sg12
(lp1100
sS'isElement'
p1101
I00
ssVmentalRayControls.miDeriveFromMaya
p1102
(dp1103
S'isArray'
p1104
I00
sS'attrParentLongName'
p1105
VmentalRayControls
p1106
sS'attrChildrenNames'
p1107
(lp1108
sS'attrType'
p1109
Vbool
p1110
sS'isMulti'
p1111
I00
sS'isCompound'
p1112
I00
sg10
I01
sS'isReadable'
p1113
I01
sg12
(lp1114
sS'isElement'
p1115
I00
ssVtarget[3].targetWeight
p1116
(dp1117
g937
I00
sg22
I00
sg938
(lp1118
ssVisHierarchicalConnection[1]
p1119
(dp1120
g69
I00
sg22
I00
sg12
(lp1121
ssg249
(dp1122
g69
I00
sg70
VdoubleAngle
p1123
sg72
I00
sg73
I00
sg10
I01
sg12
(lp1124
ssVrotatePivot.rotatePivotZ
p1125
(dp1126
S'isArray'
p1127
I00
sS'attrParentLongName'
p1128
VrotatePivot
p1129
sS'attrChildrenNames'
p1130
(lp1131
sS'attrType'
p1132
VdoubleLinear
p1133
sS'isMulti'
p1134
I00
sS'isCompound'
p1135
I00
sg10
I01
sS'isReadable'
p1136
I01
sg12
(lp1137
sS'isElement'
p1138
I00
ssVrotatePivot.rotatePivotX
p1139
(dp1140
S'isArray'
p1141
I00
sS'attrParentLongName'
p1142
VrotatePivot
p1143
sS'attrChildrenNames'
p1144
(lp1145
sS'attrType'
p1146
VdoubleLinear
p1147
sS'isMulti'
p1148
I00
sS'isCompound'
p1149
I00
sg10
I01
sS'isReadable'
p1150
I01
sg12
(lp1151
sS'isElement'
p1152
I00
ssVrotatePivot.rotatePivotY
p1153
(dp1154
S'isArray'
p1155
I00
sS'attrParentLongName'
p1156
VrotatePivot
p1157
sS'attrChildrenNames'
p1158
(lp1159
sS'attrType'
p1160
VdoubleLinear
p1161
sS'isMulti'
p1162
I00
sS'isCompound'
p1163
I00
sg10
I01
sS'isReadable'
p1164
I01
sg12
(lp1165
sS'isElement'
p1166
I00
ssVtarget[0].targetTranslate
p1167
(dp1168
S'isArray'
p1169
I00
sS'attrParentLongName'
p1170
Vtarget[0]
p1171
sS'attrChildrenNames'
p1172
(lp1173
Vtarget[0].targetTranslate.targetTranslateX
p1174
aVtarget[0].targetTranslate.targetTranslateY
p1175
aVtarget[0].targetTranslate.targetTranslateZ
p1176
asS'attrType'
p1177
Vdouble3
p1178
sS'isMulti'
p1179
I00
sS'isCompound'
p1180
I01
sg35
I01
sS'isReadable'
p1181
I01
sg20
(lp1182
Vtarget[0].targetTranslate.targetTranslateX
p1183
aVtarget[0].targetTranslate.targetTranslateY
p1184
aVtarget[0].targetTranslate.targetTranslateZ
p1185
asS'isElement'
p1186
I00
ssVtarget[2].targetRotatePivot.targetRotatePivotY
p1187
(dp1188
g17
I00
sg408
I00
sg22
I00
sg20
(lp1189
ssVtarget[2].targetRotatePivot.targetRotatePivotX
p1190
(dp1191
g17
I00
sg408
I00
sg22
I00
sg20
(lp1192
ssVtarget[2].targetRotatePivot.targetRotatePivotZ
p1193
(dp1194
g17
I00
sg408
I00
sg22
I00
sg20
(lp1195
ssVconstraintOffsetPolarity
p1196
(dp1197
S'isArray'
p1198
I00
sS'attrType'
p1199
Vdouble
p1200
sS'attrChildrenNames'
p1201
(lp1202
sS'isMulti'
p1203
I00
sS'isCompound'
p1204
I00
sg10
I01
sS'isReadable'
p1205
I01
sg12
(lp1206
sS'isElement'
p1207
I00
ssVinstObjGroups[1].objectGroups
p1208
(dp1209
g69
I01
sg22
I00
ssVmatrix
p1210
(dp1211
S'isArray'
p1212
I00
sS'attrType'
p1213
Vmatrix
p1214
sS'attrChildrenNames'
p1215
(lp1216
sS'isMulti'
p1217
I00
sS'isCompound'
p1218
I00
sg10
I00
sS'isReadable'
p1219
I00
sg12
(lp1220
sS'isElement'
p1221
I00
ssVselectHandle.selectHandleX
p1222
(dp1223
S'isArray'
p1224
I00
sS'attrParentLongName'
p1225
VselectHandle
p1226
sS'attrChildrenNames'
p1227
(lp1228
sS'attrType'
p1229
VdoubleLinear
p1230
sS'isMulti'
p1231
I00
sS'isCompound'
p1232
I00
sg10
I01
sS'isReadable'
p1233
I01
sg12
(lp1234
sS'isElement'
p1235
I00
ssVghostCustomSteps
p1236
(dp1237
S'isArray'
p1238
I00
sS'attrType'
p1239
VTdataCompound
p1240
sS'attrChildrenNames'
p1241
(lp1242
VghostCustomSteps.ghostPreSteps
p1243
aVghostCustomSteps.ghostPostSteps
p1244
aVghostCustomSteps.ghostStepSize
p1245
asS'isMulti'
p1246
I00
sS'isCompound'
p1247
I01
sg10
I00
sS'isReadable'
p1248
I00
sg12
(lp1249
VghostCustomSteps.ghostPreSteps
p1250
aVghostCustomSteps.ghostPostSteps
p1251
aVghostCustomSteps.ghostStepSize
p1252
asS'isElement'
p1253
I00
ssVselectHandle.selectHandleZ
p1254
(dp1255
S'isArray'
p1256
I00
sS'attrParentLongName'
p1257
VselectHandle
p1258
sS'attrChildrenNames'
p1259
(lp1260
sS'attrType'
p1261
VdoubleLinear
p1262
sS'isMulti'
p1263
I00
sS'isCompound'
p1264
I00
sg10
I01
sS'isReadable'
p1265
I01
sg12
(lp1266
sS'isElement'
p1267
I00
ssVmaxRotLimitEnable.maxRotZLimitEnable
p1268
(dp1269
g69
I00
sg70
Vbool
p1270
sg72
I00
sg73
I00
sg10
I01
sg12
(lp1271
ssVtarget[3].targetRotatePivot
p1272
(dp1273
g937
I00
sg22
I00
sg938
(lp1274
Vtarget[3].targetRotatePivot.targetRotatePivotX
p1275
aVtarget[3].targetRotatePivot.targetRotatePivotY
p1276
aVtarget[3].targetRotatePivot.targetRotatePivotZ
p1277
assVtarget[3].targetRotateTranslate
p1278
(dp1279
g937
I00
sg22
I00
sg938
(lp1280
Vtarget[3].targetRotateTranslate.targetRotateTranslateX
p1281
aVtarget[3].targetRotateTranslate.targetRotateTranslateY
p1282
aVtarget[3].targetRotateTranslate.targetRotateTranslateZ
p1283
assVworldMatrix
p1284
(dp1285
S'isArray'
p1286
I01
sS'attrType'
p1287
Vmatrix
p1288
sS'isMulti'
p1289
I01
sg10
I00
sS'isReadable'
p1290
I00
sS'isElement'
p1291
I00
ssVcontainerType
p1292
(dp1293
S'isArray'
p1294
I00
sS'attrType'
p1295
Vstring
p1296
sS'attrChildrenNames'
p1297
(lp1298
sS'isMulti'
p1299
I00
sS'isCompound'
p1300
I00
sg10
I01
sS'isReadable'
p1301
I01
sg12
(lp1302
sS'isElement'
p1303
I00
ssVminScaleLimit.minScaleZLimit
p1304
(dp1305
g69
I00
sg70
Vdouble
p1306
sg72
I00
sg73
I00
sg10
I01
sg12
(lp1307
ssVparentInverseMatrix
p1308
(dp1309
S'isArray'
p1310
I01
sS'attrType'
p1311
Vmatrix
p1312
sS'isMulti'
p1313
I01
sg10
I00
sS'isReadable'
p1314
I00
sS'isElement'
p1315
I00
ssg418
(dp1316
g17
I00
sg408
I00
sg22
I00
sg20
(lp1317
g1190
ag1187
ag1193
assVrenderInfo.layerRenderable
p1318
(dp1319
S'isArray'
p1320
I00
sS'attrParentLongName'
p1321
VrenderInfo
p1322
sS'attrChildrenNames'
p1323
(lp1324
sS'attrType'
p1325
Vbool
p1326
sS'isMulti'
p1327
I00
sS'isCompound'
p1328
I00
sg10
I01
sS'isReadable'
p1329
I01
sg12
(lp1330
sS'isElement'
p1331
I00
ssVrmbCommand
p1332
(dp1333
g69
I00
sg70
Vstring
p1334
sg72
I00
sg73
I00
sg10
I01
sg12
(lp1335
ssVghostCustomSteps.ghostPreSteps
p1336
(dp1337
S'isArray'
p1338
I00
sS'attrParentLongName'
p1339
VghostCustomSteps
p1340
sS'attrChildrenNames'
p1341
(lp1342
sS'attrType'
p1343
Vlong
p1344
sS'isMulti'
p1345
I00
sS'isCompound'
p1346
I00
sg10
I01
sS'isReadable'
p1347
I01
sg12
(lp1348
sS'isElement'
p1349
I00
ssVpublishedNodeInfo[1].publishedNodeType
p1350
(dp1351
g69
I00
sg22
I00
sg12
(lp1352
ssVgeometry
p1353
(dp1354
S'isArray'
p1355
I00
sS'attrType'
p1356
NsS'attrChildrenNames'
p1357
(lp1358
sS'isMulti'
p1359
I00
sS'isCompound'
p1360
I00
sg10
I00
sS'isReadable'
p1361
I00
sg12
(lp1362
sS'isElement'
p1363
I00
ssg666
(dp1364
g284
I00
sg285
(lp1365
Vtarget[4].targetTranslate.targetTranslateX
p1366
aVtarget[4].targetTranslate.targetTranslateY
p1367
aVtarget[4].targetTranslate.targetTranslateZ
p1368
assVconstraintRotateTranslate
p1369
(dp1370
S'isArray'
p1371
I00
sS'attrType'
p1372
Vdouble3
p1373
sS'attrChildrenNames'
p1374
(lp1375
VconstraintRotateTranslate.constraintRotateTranslateX
p1376
aVconstraintRotateTranslate.constraintRotateTranslateY
p1377
aVconstraintRotateTranslate.constraintRotateTranslateZ
p1378
asS'isMulti'
p1379
I00
sS'isCompound'
p1380
I01
sg35
I01
sS'isReadable'
p1381
I01
sg20
(lp1382
VconstraintRotateTranslate.constraintRotateTranslateX
p1383
aVconstraintRotateTranslate.constraintRotateTranslateY
p1384
aVconstraintRotateTranslate.constraintRotateTranslateZ
p1385
asS'isElement'
p1386
I00
ssVminRotLimitEnable
p1387
(dp1388
g69
I00
sg72
I00
sg12
(lp1389
g573
ag130
aVminRotLimitEnable.minRotZLimitEnable
p1390
asg10
I00
sg70
VTdataCompound
p1391
ssVtarget.targetWeight
p1392
(dp1393
S'attrParentLongName'
p1394
Vtarget[0]
p1395
sS'isElement'
p1396
I00
ssVshear.shearYZ
p1397
(dp1398
S'isArray'
p1399
I00
sS'attrParentLongName'
p1400
Vshear
p1401
sS'attrChildrenNames'
p1402
(lp1403
sS'attrType'
p1404
Vdouble
p1405
sS'isMulti'
p1406
I00
sS'isCompound'
p1407
I00
sg10
I01
sS'isReadable'
p1408
I01
sg12
(lp1409
sS'isElement'
p1410
I00
ssg668
(dp1411
g284
I00
sg285
(lp1412
ssg247
(dp1413
g69
I00
sg70
VdoubleAngle
p1414
sg72
I00
sg73
I00
sg10
I01
sg12
(lp1415
ssVtarget[2].targetRotateTranslate.targetRotateTranslateY
p1416
(dp1417
g17
I00
sg408
I00
sg22
I00
sg20
(lp1418
ssVtarget[2].targetRotateTranslate.targetRotateTranslateX
p1419
(dp1420
g17
I00
sg408
I00
sg22
I00
sg20
(lp1421
ssVtarget[2].targetRotateTranslate.targetRotateTranslateZ
p1422
(dp1423
g17
I00
sg408
I00
sg22
I00
sg20
(lp1424
ssVxformMatrix
p1425
(dp1426
S'isArray'
p1427
I00
sS'attrType'
p1428
Vmatrix
p1429
sS'attrChildrenNames'
p1430
(lp1431
sS'isMulti'
p1432
I00
sS'isCompound'
p1433
I00
sg10
I00
sS'isReadable'
p1434
I00
sg12
(lp1435
sS'isElement'
p1436
I00
ssVinstObjGroups[1]
p1437
(dp1438
g69
I00
sg22
I00
sg12
(lp1439
g1208
assVparentMatrix[1]
p1440
(dp1441
g69
I00
sg22
I00
sg12
(lp1442
ssVrenderInfo
p1443
(dp1444
S'isArray'
p1445
I00
sS'attrType'
p1446
VTdataCompound
p1447
sS'attrChildrenNames'
p1448
(lp1449
VrenderInfo.identification
p1450
aVrenderInfo.layerRenderable
p1451
aVrenderInfo.layerOverrideColor
p1452
asS'isMulti'
p1453
I00
sS'isCompound'
p1454
I01
sg10
I00
sS'isReadable'
p1455
I00
sg12
(lp1456
VrenderInfo.identification
p1457
aVrenderInfo.layerRenderable
p1458
aVrenderInfo.layerOverrideColor
p1459
asS'isElement'
p1460
I00
ssVscalePivotTranslate.scalePivotTranslateY
p1461
(dp1462
S'isArray'
p1463
I00
sS'attrParentLongName'
p1464
VscalePivotTranslate
p1465
sS'attrChildrenNames'
p1466
(lp1467
sS'attrType'
p1468
VdoubleLinear
p1469
sS'isMulti'
p1470
I00
sS'isCompound'
p1471
I00
sg10
I01
sS'isReadable'
p1472
I01
sg12
(lp1473
sS'isElement'
p1474
I00
ssVmaxScaleLimit.maxScaleZLimit
p1475
(dp1476
g69
I00
sg70
Vdouble
p1477
sg72
I00
sg73
I00
sg10
I01
sg12
(lp1478
ssVtarget
p1479
(dp1480
S'isArray'
p1481
I01
sS'attrType'
p1482
VTdataCompound
p1483
sS'isMulti'
p1484
I01
sg35
I00
sS'isReadable'
p1485
I00
sS'isElement'
p1486
I00
ssg1282
(dp1487
g937
I00
sg22
I00
sg938
(lp1488
ssg1283
(dp1489
g937
I00
sg22
I00
sg938
(lp1490
ssVtarget[3]
p1491
(dp1492
g937
I00
sg22
I00
sg938
(lp1493
Vtarget[3].targetTranslate
p1494
ag1272
ag1278
aVtarget[3].targetParentMatrix
p1495
ag1116
assVmaxScaleLimit.maxScaleXLimit
p1496
(dp1497
g69
I00
sg70
Vdouble
p1498
sg72
I00
sg73
I00
sg10
I01
sg12
(lp1499
ssVscalePivot
p1500
(dp1501
S'isArray'
p1502
I00
sS'attrType'
p1503
Vdouble3
p1504
sS'attrChildrenNames'
p1505
(lp1506
VscalePivot.scalePivotX
p1507
aVscalePivot.scalePivotY
p1508
aVscalePivot.scalePivotZ
p1509
asS'isMulti'
p1510
I00
sS'isCompound'
p1511
I01
sg10
I01
sS'isReadable'
p1512
I01
sg12
(lp1513
VscalePivot.scalePivotX
p1514
aVscalePivot.scalePivotY
p1515
aVscalePivot.scalePivotZ
p1516
asS'isElement'
p1517
I00
ssVworldInverseMatrix[0]
p1518
(dp1519
g69
I00
sg22
I00
sg12
(lp1520
ssVboundingBox.boundingBoxMax.boundingBoxMaxY
p1521
(dp1522
S'isArray'
p1523
I00
sS'attrParentLongName'
p1524
VboundingBox.boundingBoxMax
p1525
sS'attrChildrenNames'
p1526
(lp1527
sS'attrType'
p1528
VdoubleLinear
p1529
sS'isMulti'
p1530
I00
sS'isCompound'
p1531
I00
sg10
I01
sS'isReadable'
p1532
I01
sg12
(lp1533
sS'isElement'
p1534
I00
ssVboundingBox.boundingBoxMax.boundingBoxMaxX
p1535
(dp1536
S'isArray'
p1537
I00
sS'attrParentLongName'
p1538
VboundingBox.boundingBoxMax
p1539
sS'attrChildrenNames'
p1540
(lp1541
sS'attrType'
p1542
VdoubleLinear
p1543
sS'isMulti'
p1544
I00
sS'isCompound'
p1545
I00
sg10
I01
sS'isReadable'
p1546
I01
sg12
(lp1547
sS'isElement'
p1548
I00
ssVboundingBox.boundingBoxMax.boundingBoxMaxZ
p1549
(dp1550
S'isArray'
p1551
I00
sS'attrParentLongName'
p1552
VboundingBox.boundingBoxMax
p1553
sS'attrChildrenNames'
p1554
(lp1555
sS'attrType'
p1556
VdoubleLinear
p1557
sS'isMulti'
p1558
I00
sS'isCompound'
p1559
I00
sg10
I01
sS'isReadable'
p1560
I01
sg12
(lp1561
sS'isElement'
p1562
I00
ssVisCollapsed
p1563
(dp1564
S'isArray'
p1565
I00
sS'attrType'
p1566
Vbool
p1567
sS'attrChildrenNames'
p1568
(lp1569
sS'isMulti'
p1570
I00
sS'isCompound'
p1571
I00
sg10
I01
sS'isReadable'
p1572
I01
sg12
(lp1573
sS'isElement'
p1574
I00
ssg417
(dp1575
g17
I00
sg408
I00
sg22
I00
sg20
(lp1576
Vtarget[2].targetTranslate.targetTranslateX
p1577
aVtarget[2].targetTranslate.targetTranslateY
p1578
aVtarget[2].targetTranslate.targetTranslateZ
p1579
assVboundingBox
p1580
(dp1581
S'isArray'
p1582
I00
sS'attrType'
p1583
VTdataCompound
p1584
sS'attrChildrenNames'
p1585
(lp1586
VboundingBox.boundingBoxMin
p1587
aVboundingBox.boundingBoxMax
p1588
aVboundingBox.boundingBoxSize
p1589
asS'isMulti'
p1590
I00
sS'isCompound'
p1591
I01
sg10
I00
sS'isReadable'
p1592
I00
sg12
(lp1593
VboundingBox.boundingBoxMin
p1594
aVboundingBox.boundingBoxMax
p1595
aVboundingBox.boundingBoxSize
p1596
asS'isElement'
p1597
I00
ssVtarget.targetTranslate
p1598
(dp1599
S'attrParentLongName'
p1600
Vtarget[0]
p1601
sS'isElement'
p1602
I00
ssVmaxScaleLimit.maxScaleYLimit
p1603
(dp1604
g69
I00
sg70
Vdouble
p1605
sg72
I00
sg73
I00
sg10
I01
sg12
(lp1606
ssg669
(dp1607
g284
I00
sg285
(lp1608
ssVinstObjGroups[0].objectGroups[0].objectGrpCompList
p1609
(dp1610
S'isArray'
p1611
I00
sS'attrParentLongName'
p1612
VinstObjGroups[0].objectGroups[0]
p1613
sS'attrChildrenNames'
p1614
(lp1615
sS'attrType'
p1616
VcomponentList
p1617
sg22
I00
sS'isReadable'
p1618
I00
sg12
(lp1619
sS'isElement'
p1620
I00
ssVuiTreatment
p1621
(dp1622
S'isArray'
p1623
I00
sS'attrType'
p1624
Venum
p1625
sS'attrChildrenNames'
p1626
(lp1627
sS'isMulti'
p1628
I00
sS'isCompound'
p1629
I00
sg10
I01
sS'isReadable'
p1630
I01
sg12
(lp1631
sS'isElement'
p1632
I00
ssVrestTranslate.restTranslateZ
p1633
(dp1634
S'isArray'
p1635
I00
sS'attrParentLongName'
p1636
VrestTranslate
p1637
sS'attrChildrenNames'
p1638
(lp1639
sS'attrType'
p1640
VdoubleLinear
p1641
sS'isMulti'
p1642
I00
sS'isCompound'
p1643
I00
sg10
I01
sS'isReadable'
p1644
I01
sg12
(lp1645
sS'isElement'
p1646
I00
ssg1494
(dp1647
g937
I00
sg22
I00
sg938
(lp1648
g935
ag940
ag943
assVrestTranslate.restTranslateX
p1649
(dp1650
S'isArray'
p1651
I00
sS'attrParentLongName'
p1652
VrestTranslate
p1653
sS'attrChildrenNames'
p1654
(lp1655
sS'attrType'
p1656
VdoubleLinear
p1657
sS'isMulti'
p1658
I00
sS'isCompound'
p1659
I00
sg10
I01
sS'isReadable'
p1660
I01
sg12
(lp1661
sS'isElement'
p1662
I00
ssVrestTranslate.restTranslateY
p1663
(dp1664
S'isArray'
p1665
I00
sS'attrParentLongName'
p1666
VrestTranslate
p1667
sS'attrChildrenNames'
p1668
(lp1669
sS'attrType'
p1670
VdoubleLinear
p1671
sS'isMulti'
p1672
I00
sS'isCompound'
p1673
I00
sg10
I01
sS'isReadable'
p1674
I01
sg12
(lp1675
sS'isElement'
p1676
I00
ssVrotate.rotateZ
p1677
(dp1678
S'isArray'
p1679
I00
sS'attrParentLongName'
p1680
Vrotate
p1681
sS'attrChildrenNames'
p1682
(lp1683
sS'attrType'
p1684
VdoubleAngle
p1685
sS'isMulti'
p1686
I00
sS'isCompound'
p1687
I00
sg10
I01
sS'isReadable'
p1688
I01
sg12
(lp1689
sS'isElement'
p1690
I00
ssVrotate.rotateX
p1691
(dp1692
S'isArray'
p1693
I00
sS'attrParentLongName'
p1694
Vrotate
p1695
sS'attrChildrenNames'
p1696
(lp1697
sS'attrType'
p1698
VdoubleAngle
p1699
sS'isMulti'
p1700
I00
sS'isCompound'
p1701
I00
sg10
I01
sS'isReadable'
p1702
I01
sg12
(lp1703
sS'isElement'
p1704
I00
ssVrotate.rotateY
p1705
(dp1706
S'isArray'
p1707
I00
sS'attrParentLongName'
p1708
Vrotate
p1709
sS'attrChildrenNames'
p1710
(lp1711
sS'attrType'
p1712
VdoubleAngle
p1713
sS'isMulti'
p1714
I00
sS'isCompound'
p1715
I00
sg10
I01
sS'isReadable'
p1716
I01
sg12
(lp1717
sS'isElement'
p1718
I00
ssVcaching
p1719
(dp1720
S'isArray'
p1721
I00
sS'attrType'
p1722
Vbool
p1723
sS'attrChildrenNames'
p1724
(lp1725
sS'isMulti'
p1726
I00
sS'isCompound'
p1727
I00
sg10
I01
sS'isReadable'
p1728
I01
sg12
(lp1729
sS'isElement'
p1730
I00
ssVrenderLayerInfo[1].renderLayerRenderable
p1731
(dp1732
g69
I00
sg22
I00
sg12
(lp1733
ssVtranslate.translateZ
p1734
(dp1735
S'isArray'
p1736
I00
sS'attrParentLongName'
p1737
Vtranslate
p1738
sS'attrChildrenNames'
p1739
(lp1740
sS'attrType'
p1741
VdoubleLinear
p1742
sS'isMulti'
p1743
I00
sS'isCompound'
p1744
I00
sg10
I01
sS'isReadable'
p1745
I01
sg12
(lp1746
sS'isElement'
p1747
I00
ssVtranslate.translateX
p1748
(dp1749
S'isArray'
p1750
I00
sS'attrParentLongName'
p1751
Vtranslate
p1752
sS'attrChildrenNames'
p1753
(lp1754
sS'attrType'
p1755
VdoubleLinear
p1756
sS'isMulti'
p1757
I00
sS'isCompound'
p1758
I00
sg10
I01
sS'isReadable'
p1759
I01
sg12
(lp1760
sS'isElement'
p1761
I00
ssVtranslate.translateY
p1762
(dp1763
S'isArray'
p1764
I00
sS'attrParentLongName'
p1765
Vtranslate
p1766
sS'attrChildrenNames'
p1767
(lp1768
sS'attrType'
p1769
VdoubleLinear
p1770
sS'isMulti'
p1771
I00
sS'isCompound'
p1772
I00
sg10
I01
sS'isReadable'
p1773
I01
sg12
(lp1774
sS'isElement'
p1775
I00
ssVinstObjGroups[0].objectGroups[1].objectGroupId
p1776
(dp1777
g69
I00
sg22
I00
sg12
(lp1778
ssVmentalRayControls.miVisible
p1779
(dp1780
S'isArray'
p1781
I00
sS'attrParentLongName'
p1782
VmentalRayControls
p1783
sS'attrChildrenNames'
p1784
(lp1785
sS'attrType'
p1786
Venum
p1787
sS'isMulti'
p1788
I00
sS'isCompound'
p1789
I00
sg10
I01
sS'isReadable'
p1790
I01
sg12
(lp1791
sS'isElement'
p1792
I00
ssVuseObjectColor
p1793
(dp1794
S'isArray'
p1795
I00
sS'attrType'
p1796
Vbool
p1797
sS'attrChildrenNames'
p1798
(lp1799
sS'isMulti'
p1800
I00
sS'isCompound'
p1801
I00
sg10
I01
sS'isReadable'
p1802
I01
sg12
(lp1803
sS'isElement'
p1804
I00
ssVdrawOverride.overrideLevelOfDetail
p1805
(dp1806
S'isArray'
p1807
I00
sS'attrParentLongName'
p1808
VdrawOverride
p1809
sS'attrChildrenNames'
p1810
(lp1811
sS'attrType'
p1812
Venum
p1813
sS'isMulti'
p1814
I00
sS'isCompound'
p1815
I00
sg10
I01
sS'isReadable'
p1816
I01
sg12
(lp1817
sS'isElement'
p1818
I00
ssVinstObjGroups[0].objectGroups[0].objectGroupId
p1819
(dp1820
S'isArray'
p1821
I00
sS'attrParentLongName'
p1822
VinstObjGroups[0].objectGroups[0]
p1823
sS'attrChildrenNames'
p1824
(lp1825
sS'attrType'
p1826
Vlong
p1827
sg22
I00
sS'isReadable'
p1828
I01
sg12
(lp1829
sS'isElement'
p1830
I00
ssVmaxRotLimitEnable.maxRotXLimitEnable
p1831
(dp1832
g69
I00
sg70
Vbool
p1833
sg72
I00
sg73
I00
sg10
I01
sg12
(lp1834
ssVtransMinusRotatePivot
p1835
(dp1836
S'isArray'
p1837
I00
sS'attrType'
p1838
Vdouble3
p1839
sS'attrChildrenNames'
p1840
(lp1841
VtransMinusRotatePivot.transMinusRotatePivotX
p1842
aVtransMinusRotatePivot.transMinusRotatePivotY
p1843
aVtransMinusRotatePivot.transMinusRotatePivotZ
p1844
asS'isMulti'
p1845
I00
sS'isCompound'
p1846
I01
sg10
I01
sS'isReadable'
p1847
I01
sg12
(lp1848
VtransMinusRotatePivot.transMinusRotatePivotX
p1849
aVtransMinusRotatePivot.transMinusRotatePivotY
p1850
aVtransMinusRotatePivot.transMinusRotatePivotZ
p1851
asS'isElement'
p1852
I00
ssVbinMembership
p1853
(dp1854
g69
I00
sg70
Vstring
p1855
sg72
I00
sg73
I00
sg10
I01
sg12
(lp1856
ssVrenderLayerInfo[0].renderLayerRenderable
p1857
(dp1858
S'isArray'
p1859
I00
sS'attrParentLongName'
p1860
VrenderLayerInfo[0]
p1861
sS'attrChildrenNames'
p1862
(lp1863
sS'attrType'
p1864
Vbool
p1865
sg22
I00
sS'isReadable'
p1866
I01
sg12
(lp1867
sS'isElement'
p1868
I00
ssVparentMatrix
p1869
(dp1870
S'isArray'
p1871
I01
sS'attrType'
p1872
Vmatrix
p1873
sS'isMulti'
p1874
I01
sg10
I00
sS'isReadable'
p1875
I00
sS'isElement'
p1876
I00
ssg984
(dp1877
g69
I00
sg70
Vbool
p1878
sg72
I00
sg73
I00
sg10
I01
sg12
(lp1879
ssVscalePivotTranslate
p1880
(dp1881
S'isArray'
p1882
I00
sS'attrType'
p1883
Vdouble3
p1884
sS'attrChildrenNames'
p1885
(lp1886
VscalePivotTranslate.scalePivotTranslateX
p1887
aVscalePivotTranslate.scalePivotTranslateY
p1888
aVscalePivotTranslate.scalePivotTranslateZ
p1889
asS'isMulti'
p1890
I00
sS'isCompound'
p1891
I01
sg10
I01
sS'isReadable'
p1892
I01
sg12
(lp1893
VscalePivotTranslate.scalePivotTranslateX
p1894
aVscalePivotTranslate.scalePivotTranslateY
p1895
aVscalePivotTranslate.scalePivotTranslateZ
p1896
asS'isElement'
p1897
I00
ssg1578
(dp1898
g17
I00
sg408
I00
sg22
I00
sg20
(lp1899
ssg1577
(dp1900
g17
I00
sg408
I00
sg22
I00
sg20
(lp1901
ssg1579
(dp1902
g17
I00
sg408
I00
sg22
I00
sg20
(lp1903
ssVtarget.targetRotatePivot
p1904
(dp1905
S'attrParentLongName'
p1906
Vtarget[0]
p1907
sS'isElement'
p1908
I00
ssVdrawOverride.overrideEnabled
p1909
(dp1910
S'isArray'
p1911
I00
sS'attrParentLongName'
p1912
VdrawOverride
p1913
sS'attrChildrenNames'
p1914
(lp1915
sS'attrType'
p1916
Vbool
p1917
sS'isMulti'
p1918
I00
sS'isCompound'
p1919
I00
sg10
I01
sS'isReadable'
p1920
I01
sg12
(lp1921
sS'isElement'
p1922
I00
ssVboundingBox.boundingBoxMax
p1923
(dp1924
S'isArray'
p1925
I00
sS'attrParentLongName'
p1926
VboundingBox
p1927
sS'attrChildrenNames'
p1928
(lp1929
VboundingBox.boundingBoxMax.boundingBoxMaxX
p1930
aVboundingBox.boundingBoxMax.boundingBoxMaxY
p1931
aVboundingBox.boundingBoxMax.boundingBoxMaxZ
p1932
asS'attrType'
p1933
Vdouble3
p1934
sS'isMulti'
p1935
I00
sS'isCompound'
p1936
I01
sg10
I01
sS'isReadable'
p1937
I01
sg12
(lp1938
VboundingBox.boundingBoxMax.boundingBoxMaxX
p1939
aVboundingBox.boundingBoxMax.boundingBoxMaxY
p1940
aVboundingBox.boundingBoxMax.boundingBoxMaxZ
p1941
asS'isElement'
p1942
I00
ssVconstraintRotateTranslate.constraintRotateTranslateZ
p1943
(dp1944
S'isArray'
p1945
I00
sS'attrParentLongName'
p1946
VconstraintRotateTranslate
p1947
sS'attrChildrenNames'
p1948
(lp1949
sS'attrType'
p1950
VdoubleLinear
p1951
sS'isMulti'
p1952
I00
sS'isCompound'
p1953
I00
sg35
I01
sS'isReadable'
p1954
I01
sg20
(lp1955
sS'isElement'
p1956
I00
ssVconstraintRotateTranslate.constraintRotateTranslateX
p1957
(dp1958
S'isArray'
p1959
I00
sS'attrParentLongName'
p1960
VconstraintRotateTranslate
p1961
sS'attrChildrenNames'
p1962
(lp1963
sS'attrType'
p1964
VdoubleLinear
p1965
sS'isMulti'
p1966
I00
sS'isCompound'
p1967
I00
sg35
I01
sS'isReadable'
p1968
I01
sg20
(lp1969
sS'isElement'
p1970
I00
ssVconstraintRotateTranslate.constraintRotateTranslateY
p1971
(dp1972
S'isArray'
p1973
I00
sS'attrParentLongName'
p1974
VconstraintRotateTranslate
p1975
sS'attrChildrenNames'
p1976
(lp1977
sS'attrType'
p1978
VdoubleLinear
p1979
sS'isMulti'
p1980
I00
sS'isCompound'
p1981
I00
sg35
I01
sS'isReadable'
p1982
I01
sg20
(lp1983
sS'isElement'
p1984
I00
ssVrotateAxis
p1985
(dp1986
S'isArray'
p1987
I00
sS'attrType'
p1988
Vdouble3
p1989
sS'attrChildrenNames'
p1990
(lp1991
VrotateAxis.rotateAxisX
p1992
aVrotateAxis.rotateAxisY
p1993
aVrotateAxis.rotateAxisZ
p1994
asS'isMulti'
p1995
I00
sS'isCompound'
p1996
I01
sg10
I01
sS'isReadable'
p1997
I01
sg12
(lp1998
VrotateAxis.rotateAxisX
p1999
aVrotateAxis.rotateAxisY
p2000
aVrotateAxis.rotateAxisZ
p2001
asS'isElement'
p2002
I00
ssVcreator
p2003
(dp2004
S'isArray'
p2005
I00
sS'attrType'
p2006
Vstring
p2007
sS'attrChildrenNames'
p2008
(lp2009
sS'isMulti'
p2010
I00
sS'isCompound'
p2011
I00
sg10
I01
sS'isReadable'
p2012
I01
sg12
(lp2013
sS'isElement'
p2014
I00
ssVrotateAxis.rotateAxisX
p2015
(dp2016
S'isArray'
p2017
I00
sS'attrParentLongName'
p2018
VrotateAxis
p2019
sS'attrChildrenNames'
p2020
(lp2021
sS'attrType'
p2022
VdoubleAngle
p2023
sS'isMulti'
p2024
I00
sS'isCompound'
p2025
I00
sg10
I01
sS'isReadable'
p2026
I01
sg12
(lp2027
sS'isElement'
p2028
I00
ssVrotateAxis.rotateAxisY
p2029
(dp2030
S'isArray'
p2031
I00
sS'attrParentLongName'
p2032
VrotateAxis
p2033
sS'attrChildrenNames'
p2034
(lp2035
sS'attrType'
p2036
VdoubleAngle
p2037
sS'isMulti'
p2038
I00
sS'isCompound'
p2039
I00
sg10
I01
sS'isReadable'
p2040
I01
sg12
(lp2041
sS'isElement'
p2042
I00
ssVrotateAxis.rotateAxisZ
p2043
(dp2044
S'isArray'
p2045
I00
sS'attrParentLongName'
p2046
VrotateAxis
p2047
sS'attrChildrenNames'
p2048
(lp2049
sS'attrType'
p2050
VdoubleAngle
p2051
sS'isMulti'
p2052
I00
sS'isCompound'
p2053
I00
sg10
I01
sS'isReadable'
p2054
I01
sg12
(lp2055
sS'isElement'
p2056
I00
ssVghostRangeEnd
p2057
(dp2058
S'isArray'
p2059
I00
sS'attrType'
p2060
Vtime
p2061
sS'attrChildrenNames'
p2062
(lp2063
sS'isMulti'
p2064
I00
sS'isCompound'
p2065
I00
sg10
I01
sS'isReadable'
p2066
I01
sg12
(lp2067
sS'isElement'
p2068
I00
ssVtemplateVersion
p2069
(dp2070
S'isArray'
p2071
I00
sS'attrType'
p2072
Vlong
p2073
sS'attrChildrenNames'
p2074
(lp2075
sS'isMulti'
p2076
I00
sS'isCompound'
p2077
I00
sg10
I01
sS'isReadable'
p2078
I01
sg12
(lp2079
sS'isElement'
p2080
I00
ssg884
(dp2081
g69
I00
sg70
Vbool
p2082
sg72
I00
sg73
I00
sg10
I01
sg12
(lp2083
ssVmaxScaleLimitEnable.maxScaleXLimitEnable
p2084
(dp2085
g69
I00
sg70
Vbool
p2086
sg72
I00
sg73
I00
sg10
I01
sg12
(lp2087
ssVscalePivot.scalePivotX
p2088
(dp2089
S'isArray'
p2090
I00
sS'attrParentLongName'
p2091
VscalePivot
p2092
sS'attrChildrenNames'
p2093
(lp2094
sS'attrType'
p2095
VdoubleLinear
p2096
sS'isMulti'
p2097
I00
sS'isCompound'
p2098
I00
sg10
I01
sS'isReadable'
p2099
I01
sg12
(lp2100
sS'isElement'
p2101
I00
ssVscalePivot.scalePivotY
p2102
(dp2103
S'isArray'
p2104
I00
sS'attrParentLongName'
p2105
VscalePivot
p2106
sS'attrChildrenNames'
p2107
(lp2108
sS'attrType'
p2109
VdoubleLinear
p2110
sS'isMulti'
p2111
I00
sS'isCompound'
p2112
I00
sg10
I01
sS'isReadable'
p2113
I01
sg12
(lp2114
sS'isElement'
p2115
I00
ssVscalePivot.scalePivotZ
p2116
(dp2117
S'isArray'
p2118
I00
sS'attrParentLongName'
p2119
VscalePivot
p2120
sS'attrChildrenNames'
p2121
(lp2122
sS'attrType'
p2123
VdoubleLinear
p2124
sS'isMulti'
p2125
I00
sS'isCompound'
p2126
I00
sg10
I01
sS'isReadable'
p2127
I01
sg12
(lp2128
sS'isElement'
p2129
I00
ssVinstObjGroups.objectGroups.objectGrpCompList
p2130
(dp2131
g77
VinstObjGroups.objectGroups
p2132
ssVpublishedNodeInfo.publishedNodeType
p2133
(dp2134
g77
VpublishedNodeInfo
p2135
ssVpublishedNodeInfo[1]
p2136
(dp2137
g69
I00
sg22
I00
sg12
(lp2138
VpublishedNodeInfo[1].publishedNode
p2139
aVpublishedNodeInfo[1].isHierarchicalNode
p2140
ag1350
assVmaxTransLimit
p2141
(dp2142
g69
I00
sg70
Vdouble3
p2143
sg72
I00
sg73
I01
sg10
I01
sg12
(lp2144
VmaxTransLimit.maxTransXLimit
p2145
aVmaxTransLimit.maxTransYLimit
p2146
ag329
assVscale.scaleZ
p2147
(dp2148
S'isArray'
p2149
I00
sS'attrParentLongName'
p2150
Vscale
p2151
sS'attrChildrenNames'
p2152
(lp2153
sS'attrType'
p2154
Vdouble
p2155
sS'isMulti'
p2156
I00
sS'isCompound'
p2157
I00
sg10
I01
sS'isReadable'
p2158
I01
sg12
(lp2159
sS'isElement'
p2160
I00
ssVscale.scaleX
p2161
(dp2162
S'isArray'
p2163
I00
sS'attrParentLongName'
p2164
Vscale
p2165
sS'attrChildrenNames'
p2166
(lp2167
sS'attrType'
p2168
Vdouble
p2169
sS'isMulti'
p2170
I00
sS'isCompound'
p2171
I00
sg10
I01
sS'isReadable'
p2172
I01
sg12
(lp2173
sS'isElement'
p2174
I00
ssVscale.scaleY
p2175
(dp2176
S'isArray'
p2177
I00
sS'attrParentLongName'
p2178
Vscale
p2179
sS'attrChildrenNames'
p2180
(lp2181
sS'attrType'
p2182
Vdouble
p2183
sS'isMulti'
p2184
I00
sS'isCompound'
p2185
I00
sg10
I01
sS'isReadable'
p2186
I01
sg12
(lp2187
sS'isElement'
p2188
I00
ssVghostRangeStart
p2189
(dp2190
S'isArray'
p2191
I00
sS'attrType'
p2192
Vtime
p2193
sS'attrChildrenNames'
p2194
(lp2195
sS'isMulti'
p2196
I00
sS'isCompound'
p2197
I00
sg10
I01
sS'isReadable'
p2198
I01
sg12
(lp2199
sS'isElement'
p2200
I00
ssVpublishedNodeInfo[0].publishedNodeType
p2201
(dp2202
S'isArray'
p2203
I00
sS'attrParentLongName'
p2204
VpublishedNodeInfo[0]
p2205
sS'attrChildrenNames'
p2206
(lp2207
sS'attrType'
p2208
Vstring
p2209
sg22
I00
sS'isReadable'
p2210
I01
sg12
(lp2211
sS'isElement'
p2212
I00
ssVmentalRayControls.miTrace
p2213
(dp2214
S'isArray'
p2215
I00
sS'attrParentLongName'
p2216
VmentalRayControls
p2217
sS'attrChildrenNames'
p2218
(lp2219
sS'attrType'
p2220
Venum
p2221
sS'isMulti'
p2222
I00
sS'isCompound'
p2223
I00
sg10
I01
sS'isReadable'
p2224
I01
sg12
(lp2225
sS'isElement'
p2226
I00
ssg2146
(dp2227
g69
I00
sg70
VdoubleLinear
p2228
sg72
I00
sg73
I00
sg10
I01
sg12
(lp2229
ssVmaxTransLimitEnable
p2230
(dp2231
g69
I00
sg72
I00
sg12
(lp2232
g766
ag250
aVmaxTransLimitEnable.maxTransZLimitEnable
p2233
asg10
I00
sg70
VTdataCompound
p2234
ssVmaxScaleLimit
p2235
(dp2236
g69
I00
sg70
Vdouble3
p2237
sg72
I00
sg73
I01
sg10
I01
sg12
(lp2238
g1496
ag1603
ag1475
assVinheritsTransform
p2239
(dp2240
S'isArray'
p2241
I00
sS'attrType'
p2242
Vbool
p2243
sS'attrChildrenNames'
p2244
(lp2245
sS'isMulti'
p2246
I00
sS'isCompound'
p2247
I00
sg10
I01
sS'isReadable'
p2248
I01
sg12
(lp2249
sS'isElement'
p2250
I00
ssVisHistoricallyInteresting
p2251
(dp2252
S'isArray'
p2253
I00
sS'attrType'
p2254
Vbyte
p2255
sS'attrChildrenNames'
p2256
(lp2257
sS'isMulti'
p2258
I00
sS'isCompound'
p2259
I00
sg10
I00
sS'isReadable'
p2260
I00
sg12
(lp2261
sS'isElement'
p2262
I00
ssVtarget[0]
p2263
(dp2264
g407
I00
sS'attrType'
p2265
VTdataCompound
p2266
sg409
(lp2267
Vtarget[0].targetTranslate
p2268
aVtarget[0].targetRotatePivot
p2269
aVtarget[0].targetRotateTranslate
p2270
aVtarget[0].targetParentMatrix
p2271
aVtarget[0].targetWeight
p2272
asS'isMulti'
p2273
I00
sg35
I00
sg20
(lp2274
Vtarget[0].targetTranslate
p2275
aVtarget[0].targetRotatePivot
p2276
aVtarget[0].targetRotateTranslate
p2277
aVtarget[0].targetParentMatrix
p2278
aVtarget[0].targetWeight
p2279
assVdrawOverride
p2280
(dp2281
S'isArray'
p2282
I00
sS'attrType'
p2283
VTdataCompound
p2284
sS'attrChildrenNames'
p2285
(lp2286
VdrawOverride.overrideDisplayType
p2287
aVdrawOverride.overrideLevelOfDetail
p2288
aVdrawOverride.overrideShading
p2289
aVdrawOverride.overrideTexturing
p2290
aVdrawOverride.overridePlayback
p2291
aVdrawOverride.overrideEnabled
p2292
aVdrawOverride.overrideVisibility
p2293
aVdrawOverride.overrideColor
p2294
asS'isMulti'
p2295
I00
sS'isCompound'
p2296
I01
sg10
I00
sS'isReadable'
p2297
I00
sg12
(lp2298
VdrawOverride.overrideDisplayType
p2299
aVdrawOverride.overrideLevelOfDetail
p2300
aVdrawOverride.overrideShading
p2301
aVdrawOverride.overrideTexturing
p2302
aVdrawOverride.overridePlayback
p2303
aVdrawOverride.overrideEnabled
p2304
aVdrawOverride.overrideVisibility
p2305
aVdrawOverride.overrideColor
p2306
asS'isElement'
p2307
I00
ssVinstObjGroups.objectGroups.objectGroupId
p2308
(dp2309
g77
VinstObjGroups.objectGroups
p2310
ssg983
(dp2311
g69
I00
sg70
Vbool
p2312
sg72
I00
sg73
I00
sg10
I01
sg12
(lp2313
ssg1368
(dp2314
g284
I00
sg285
(lp2315
ssg1367
(dp2316
g284
I00
sg285
(lp2317
ssg1366
(dp2318
g284
I00
sg285
(lp2319
ssVmaxRotLimit.maxRotXLimit
p2320
(dp2321
g69
I00
sg70
VdoubleAngle
p2322
sg72
I00
sg73
I00
sg10
I01
sg12
(lp2323
ssVboundingBox.boundingBoxSize
p2324
(dp2325
S'isArray'
p2326
I00
sS'attrParentLongName'
p2327
VboundingBox
p2328
sS'attrChildrenNames'
p2329
(lp2330
VboundingBox.boundingBoxSize.boundingBoxSizeX
p2331
aVboundingBox.boundingBoxSize.boundingBoxSizeY
p2332
aVboundingBox.boundingBoxSize.boundingBoxSizeZ
p2333
asS'attrType'
p2334
Vdouble3
p2335
sS'isMulti'
p2336
I00
sS'isCompound'
p2337
I01
sg10
I01
sS'isReadable'
p2338
I01
sg12
(lp2339
VboundingBox.boundingBoxSize.boundingBoxSizeX
p2340
aVboundingBox.boundingBoxSize.boundingBoxSizeY
p2341
aVboundingBox.boundingBoxSize.boundingBoxSizeZ
p2342
asS'isElement'
p2343
I00
ssVrenderLayerInfo[0]
p2344
(dp2345
g69
I00
sg22
I00
sg12
(lp2346
VrenderLayerInfo[0].renderLayerId
p2347
aVrenderLayerInfo[0].renderLayerRenderable
p2348
aVrenderLayerInfo[0].renderLayerColor
p2349
assVtarget[1].targetRotatePivot.targetRotatePivotZ
p2350
(dp2351
g17
I00
sg18
VdoubleLinear
p2352
sg23
I00
sS'isCompound'
p2353
I00
sg22
I01
sg20
(lp2354
ssVtarget[1].targetRotatePivot.targetRotatePivotX
p2355
(dp2356
g17
I00
sg18
VdoubleLinear
p2357
sg23
I00
sg2353
I00
sg22
I01
sg20
(lp2358
ssVtarget[1].targetRotatePivot.targetRotatePivotY
p2359
(dp2360
g17
I00
sg18
VdoubleLinear
p2361
sg23
I00
sg2353
I00
sg22
I01
sg20
(lp2362
ssg885
(dp2363
g69
I00
sg70
Vbool
p2364
sg72
I00
sg73
I00
sg10
I01
sg12
(lp2365
ssVmaxScaleLimitEnable
p2366
(dp2367
g69
I00
sg72
I00
sg12
(lp2368
g2084
ag278
aVmaxScaleLimitEnable.maxScaleZLimitEnable
p2369
asg10
I00
sg70
VTdataCompound
p2370
ssg2369
(dp2371
g69
I00
sg70
Vbool
p2372
sg72
I00
sg73
I00
sg10
I01
sg12
(lp2373
ssVspecifiedManipLocation
p2374
(dp2375
S'isArray'
p2376
I00
sS'attrType'
p2377
NsS'attrChildrenNames'
p2378
(lp2379
sS'isMulti'
p2380
I00
sS'isCompound'
p2381
I00
sg10
I00
sS'isReadable'
p2382
I00
sg12
(lp2383
sS'isElement'
p2384
I00
ssVtarget[1].targetRotateTranslate.targetRotateTranslateZ
p2385
(dp2386
g17
I00
sg18
VdoubleLinear
p2387
sg23
I00
sg2353
I00
sg22
I01
sg20
(lp2388
ssVtarget[1].targetRotateTranslate.targetRotateTranslateX
p2389
(dp2390
g17
I00
sg18
VdoubleLinear
p2391
sg23
I00
sg2353
I00
sg22
I01
sg20
(lp2392
ssVtarget[1].targetRotateTranslate.targetRotateTranslateY
p2393
(dp2394
g17
I00
sg18
VdoubleLinear
p2395
sg23
I00
sg2353
I00
sg22
I01
sg20
(lp2396
ssVmaxRotLimitEnable.maxRotYLimitEnable
p2397
(dp2398
g69
I00
sg70
Vbool
p2399
sg72
I00
sg73
I00
sg10
I01
sg12
(lp2400
ssVminScaleLimit
p2401
(dp2402
g69
I00
sg70
Vdouble3
p2403
sg72
I00
sg73
I01
sg10
I01
sg12
(lp2404
g206
ag659
ag1304
assVselectHandle.selectHandleY
p2405
(dp2406
S'isArray'
p2407
I00
sS'attrParentLongName'
p2408
VselectHandle
p2409
sS'attrChildrenNames'
p2410
(lp2411
sS'attrType'
p2412
VdoubleLinear
p2413
sS'isMulti'
p2414
I00
sS'isCompound'
p2415
I00
sg10
I01
sS'isReadable'
p2416
I01
sg12
(lp2417
sS'isElement'
p2418
I00
ssVlodVisibility
p2419
(dp2420
S'isArray'
p2421
I00
sS'attrType'
p2422
Vbool
p2423
sS'attrChildrenNames'
p2424
(lp2425
sS'isMulti'
p2426
I00
sS'isCompound'
p2427
I00
sg10
I01
sS'isReadable'
p2428
I01
sg12
(lp2429
sS'isElement'
p2430
I00
ssVpublishedNodeInfo.isHierarchicalNode
p2431
(dp2432
g77
VpublishedNodeInfo
p2433
ssVinstObjGroups[0].objectGroups[1].objectGrpCompList
p2434
(dp2435
g69
I00
sg22
I00
sg12
(lp2436
ssVdrawOverride.overridePlayback
p2437
(dp2438
S'isArray'
p2439
I00
sS'attrParentLongName'
p2440
VdrawOverride
p2441
sS'attrChildrenNames'
p2442
(lp2443
sS'attrType'
p2444
Vbool
p2445
sS'isMulti'
p2446
I00
sS'isCompound'
p2447
I00
sg10
I01
sS'isReadable'
p2448
I01
sg12
(lp2449
sS'isElement'
p2450
I00
ssVcenter
p2451
(dp2452
S'isArray'
p2453
I00
sS'attrType'
p2454
Vdouble3
p2455
sS'attrChildrenNames'
p2456
(lp2457
Vcenter.boundingBoxCenterX
p2458
aVcenter.boundingBoxCenterY
p2459
aVcenter.boundingBoxCenterZ
p2460
asS'isMulti'
p2461
I00
sS'isCompound'
p2462
I01
sg10
I01
sS'isReadable'
p2463
I01
sg12
(lp2464
Vcenter.boundingBoxCenterX
p2465
aVcenter.boundingBoxCenterY
p2466
aVcenter.boundingBoxCenterZ
p2467
asS'isElement'
p2468
I00
ssVdrawOverride.overrideShading
p2469
(dp2470
S'isArray'
p2471
I00
sS'attrParentLongName'
p2472
VdrawOverride
p2473
sS'attrChildrenNames'
p2474
(lp2475
sS'attrType'
p2476
Vbool
p2477
sS'isMulti'
p2478
I00
sS'isCompound'
p2479
I00
sg10
I01
sS'isReadable'
p2480
I01
sg12
(lp2481
sS'isElement'
p2482
I00
ssVrenderLayerInfo.renderLayerColor
p2483
(dp2484
g77
VrenderLayerInfo
p2485
ssVinstObjGroups[0].objectGroups[1].objectGrpColor
p2486
(dp2487
g69
I00
sg22
I00
sg12
(lp2488
ssVviewMode
p2489
(dp2490
S'isArray'
p2491
I00
sS'attrType'
p2492
Venum
p2493
sS'attrChildrenNames'
p2494
(lp2495
sS'isMulti'
p2496
I00
sS'isCompound'
p2497
I00
sg10
I01
sS'isReadable'
p2498
I01
sg12
(lp2499
sS'isElement'
p2500
I00
ssVrotatePivotTranslate
p2501
(dp2502
S'isArray'
p2503
I00
sS'attrType'
p2504
Vdouble3
p2505
sS'attrChildrenNames'
p2506
(lp2507
VrotatePivotTranslate.rotatePivotTranslateX
p2508
aVrotatePivotTranslate.rotatePivotTranslateY
p2509
aVrotatePivotTranslate.rotatePivotTranslateZ
p2510
asS'isMulti'
p2511
I00
sS'isCompound'
p2512
I01
sg10
I01
sS'isReadable'
p2513
I01
sg12
(lp2514
VrotatePivotTranslate.rotatePivotTranslateX
p2515
aVrotatePivotTranslate.rotatePivotTranslateY
p2516
aVrotatePivotTranslate.rotatePivotTranslateZ
p2517
asS'isElement'
p2518
I00
ssVintermediateObject
p2519
(dp2520
S'isArray'
p2521
I00
sS'attrType'
p2522
Vbool
p2523
sS'attrChildrenNames'
p2524
(lp2525
sS'isMulti'
p2526
I00
sS'isCompound'
p2527
I00
sg10
I01
sS'isReadable'
p2528
I01
sg12
(lp2529
sS'isElement'
p2530
I00
ssg1390
(dp2531
g69
I00
sg70
Vbool
p2532
sg72
I00
sg73
I00
sg10
I01
sg12
(lp2533
ssVtarget[1].targetWeight
p2534
(dp2535
g17
I00
sg18
Vdouble
p2536
sg23
I00
sg2353
I00
sg22
I01
sg20
(lp2537
ssVmaxRotLimit.maxRotYLimit
p2538
(dp2539
g69
I00
sg70
VdoubleAngle
p2540
sg72
I00
sg73
I00
sg10
I01
sg12
(lp2541
ssg1275
(dp2542
g937
I00
sg22
I00
sg938
(lp2543
ssg1276
(dp2544
g937
I00
sg22
I00
sg938
(lp2545
ssg1277
(dp2546
g937
I00
sg22
I00
sg938
(lp2547
ssVboundingBox.boundingBoxMin
p2548
(dp2549
S'isArray'
p2550
I00
sS'attrParentLongName'
p2551
VboundingBox
p2552
sS'attrChildrenNames'
p2553
(lp2554
VboundingBox.boundingBoxMin.boundingBoxMinX
p2555
aVboundingBox.boundingBoxMin.boundingBoxMinY
p2556
aVboundingBox.boundingBoxMin.boundingBoxMinZ
p2557
asS'attrType'
p2558
Vdouble3
p2559
sS'isMulti'
p2560
I00
sS'isCompound'
p2561
I01
sg10
I01
sS'isReadable'
p2562
I01
sg12
(lp2563
VboundingBox.boundingBoxMin.boundingBoxMinX
p2564
aVboundingBox.boundingBoxMin.boundingBoxMinY
p2565
aVboundingBox.boundingBoxMin.boundingBoxMinZ
p2566
asS'isElement'
p2567
I00
ssg2233
(dp2568
g69
I00
sg70
Vbool
p2569
sg72
I00
sg73
I00
sg10
I01
sg12
(lp2570
ssVworldInverseMatrix[1]
p2571
(dp2572
g69
I00
sg22
I00
sg12
(lp2573
ssVrotatePivotTranslate.rotatePivotTranslateZ
p2574
(dp2575
S'isArray'
p2576
I00
sS'attrParentLongName'
p2577
VrotatePivotTranslate
p2578
sS'attrChildrenNames'
p2579
(lp2580
sS'attrType'
p2581
VdoubleLinear
p2582
sS'isMulti'
p2583
I00
sS'isCompound'
p2584
I00
sg10
I01
sS'isReadable'
p2585
I01
sg12
(lp2586
sS'isElement'
p2587
I00
ssVrotatePivotTranslate.rotatePivotTranslateX
p2588
(dp2589
S'isArray'
p2590
I00
sS'attrParentLongName'
p2591
VrotatePivotTranslate
p2592
sS'attrChildrenNames'
p2593
(lp2594
sS'attrType'
p2595
VdoubleLinear
p2596
sS'isMulti'
p2597
I00
sS'isCompound'
p2598
I00
sg10
I01
sS'isReadable'
p2599
I01
sg12
(lp2600
sS'isElement'
p2601
I00
ssVrotatePivotTranslate.rotatePivotTranslateY
p2602
(dp2603
S'isArray'
p2604
I00
sS'attrParentLongName'
p2605
VrotatePivotTranslate
p2606
sS'attrChildrenNames'
p2607
(lp2608
sS'attrType'
p2609
VdoubleLinear
p2610
sS'isMulti'
p2611
I00
sS'isCompound'
p2612
I00
sg10
I01
sS'isReadable'
p2613
I01
sg12
(lp2614
sS'isElement'
p2615
I00
ssVrotate
p2616
(dp2617
S'isArray'
p2618
I00
sS'attrType'
p2619
Vdouble3
p2620
sS'attrChildrenNames'
p2621
(lp2622
Vrotate.rotateX
p2623
aVrotate.rotateY
p2624
aVrotate.rotateZ
p2625
asS'isMulti'
p2626
I00
sS'isCompound'
p2627
I01
sg10
I01
sS'isReadable'
p2628
I01
sg12
(lp2629
Vrotate.rotateX
p2630
aVrotate.rotateY
p2631
aVrotate.rotateZ
p2632
asS'isElement'
p2633
I00
ssg2145
(dp2634
g69
I00
sg70
VdoubleLinear
p2635
sg72
I00
sg73
I00
sg10
I01
sg12
(lp2636
ssVparentInverseMatrix[0]
p2637
(dp2638
g69
I00
sg22
I00
sg12
(lp2639
ssVrenderLayerInfo[1].renderLayerId
p2640
(dp2641
g69
I00
sg22
I00
sg12
(lp2642
ssVobjectColor
p2643
(dp2644
S'isArray'
p2645
I00
sS'attrType'
p2646
Vshort
p2647
sS'attrChildrenNames'
p2648
(lp2649
sS'isMulti'
p2650
I00
sS'isCompound'
p2651
I00
sg10
I01
sS'isReadable'
p2652
I01
sg12
(lp2653
sS'isElement'
p2654
I00
ssVmentalRayControls.miGeoShader
p2655
(dp2656
S'isArray'
p2657
I00
sS'attrParentLongName'
p2658
VmentalRayControls
p2659
sS'attrChildrenNames'
p2660
(lp2661
sS'attrType'
p2662
NsS'isMulti'
p2663
I00
sS'isCompound'
p2664
I00
sg10
I00
sS'isReadable'
p2665
I00
sg12
(lp2666
sS'isElement'
p2667
I00
ssVpublishedNodeInfo[0]
p2668
(dp2669
g69
I00
sg22
I00
sg12
(lp2670
VpublishedNodeInfo[0].publishedNode
p2671
aVpublishedNodeInfo[0].isHierarchicalNode
p2672
aVpublishedNodeInfo[0].publishedNodeType
p2673
assVtarget[1].targetRotateTranslate
p2674
(dp2675
g17
I00
sg18
Vdouble3
p2676
sg23
I00
sg2353
I01
sg22
I01
sg20
(lp2677
g2389
ag2393
ag2385
assVtarget[0].targetWeight
p2678
(dp2679
S'isArray'
p2680
I00
sS'attrParentLongName'
p2681
Vtarget[0]
p2682
sS'attrChildrenNames'
p2683
(lp2684
sS'attrType'
p2685
Vdouble
p2686
sS'isMulti'
p2687
I00
sS'isCompound'
p2688
I00
sg35
I01
sS'isReadable'
p2689
I01
sg20
(lp2690
sS'isElement'
p2691
I00
ssVpublishedNodeInfo[0].publishedNode
p2692
(dp2693
S'isArray'
p2694
I00
sS'attrParentLongName'
p2695
VpublishedNodeInfo[0]
p2696
sS'attrChildrenNames'
p2697
(lp2698
sS'attrType'
p2699
Vmessage
p2700
sg22
I00
sS'isReadable'
p2701
I00
sg12
(lp2702
sS'isElement'
p2703
I00
ssg2140
(dp2704
g69
I00
sg22
I00
sg12
(lp2705
ssVscale
p2706
(dp2707
S'isArray'
p2708
I00
sS'attrType'
p2709
Vdouble3
p2710
sS'attrChildrenNames'
p2711
(lp2712
Vscale.scaleX
p2713
aVscale.scaleY
p2714
aVscale.scaleZ
p2715
asS'isMulti'
p2716
I00
sS'isCompound'
p2717
I01
sg10
I01
sS'isReadable'
p2718
I01
sg12
(lp2719
Vscale.scaleX
p2720
aVscale.scaleY
p2721
aVscale.scaleZ
p2722
asS'isElement'
p2723
I00
ssg419
(dp2724
g17
I00
sg408
I00
sg22
I00
sg20
(lp2725
g1419
ag1416
ag1422
assVviewName
p2726
(dp2727
S'isArray'
p2728
I00
sS'attrType'
p2729
Vstring
p2730
sS'attrChildrenNames'
p2731
(lp2732
sS'isMulti'
p2733
I00
sS'isCompound'
p2734
I00
sg10
I01
sS'isReadable'
p2735
I01
sg12
(lp2736
sS'isElement'
p2737
I00
ssVtarget[1].targetTranslate
p2738
(dp2739
g17
I00
sg18
Vdouble3
p2740
sg23
I00
sg2353
I01
sg22
I01
sg20
(lp2741
g887
ag891
ag874
assVinstObjGroups[0].objectGroups[1]
p2742
(dp2743
g69
I00
sg22
I00
sg12
(lp2744
g2434
ag1776
ag2486
assVoffset
p2745
(dp2746
S'isArray'
p2747
I00
sS'attrType'
p2748
Vdouble3
p2749
sS'attrChildrenNames'
p2750
(lp2751
Voffset.offsetX
p2752
aVoffset.offsetY
p2753
aVoffset.offsetZ
p2754
asS'isMulti'
p2755
I00
sS'isCompound'
p2756
I01
sg10
I01
sS'isReadable'
p2757
I01
sg12
(lp2758
Voffset.offsetX
p2759
aVoffset.offsetY
p2760
aVoffset.offsetZ
p2761
asS'isElement'
p2762
I00
ssViconName
p2763
(dp2764
S'isArray'
p2765
I00
sS'attrType'
p2766
Vstring
p2767
sS'attrChildrenNames'
p2768
(lp2769
sS'isMulti'
p2770
I00
sS'isCompound'
p2771
I00
sg10
I01
sS'isReadable'
p2772
I01
sg12
(lp2773
sS'isElement'
p2774
I00
ssVtarget[0].targetRotatePivot
p2775
(dp2776
S'isArray'
p2777
I00
sS'attrParentLongName'
p2778
Vtarget[0]
p2779
sS'attrChildrenNames'
p2780
(lp2781
Vtarget[0].targetRotatePivot.targetRotatePivotX
p2782
aVtarget[0].targetRotatePivot.targetRotatePivotY
p2783
aVtarget[0].targetRotatePivot.targetRotatePivotZ
p2784
asS'attrType'
p2785
Vdouble3
p2786
sS'isMulti'
p2787
I00
sS'isCompound'
p2788
I01
sg35
I01
sS'isReadable'
p2789
I01
sg20
(lp2790
Vtarget[0].targetRotatePivot.targetRotatePivotX
p2791
aVtarget[0].targetRotatePivot.targetRotatePivotY
p2792
aVtarget[0].targetRotatePivot.targetRotatePivotZ
p2793
asS'isElement'
p2794
I00
ssVinstObjGroups
p2795
(dp2796
S'isArray'
p2797
I01
sS'attrType'
p2798
VTdataCompound
p2799
sS'isMulti'
p2800
I01
sg10
I00
sS'isReadable'
p2801
I00
sS'isElement'
p2802
I00
ssVworldMatrix[0]
p2803
(dp2804
g69
I00
sg22
I00
sg12
(lp2805
ssVdrawOverride.overrideVisibility
p2806
(dp2807
S'isArray'
p2808
I00
sS'attrParentLongName'
p2809
VdrawOverride
p2810
sS'attrChildrenNames'
p2811
(lp2812
sS'attrType'
p2813
Vbool
p2814
sS'isMulti'
p2815
I00
sS'isCompound'
p2816
I00
sg10
I01
sS'isReadable'
p2817
I01
sg12
(lp2818
sS'isElement'
p2819
I00
ssVghosting
p2820
(dp2821
S'isArray'
p2822
I00
sS'attrType'
p2823
Vbool
p2824
sS'attrChildrenNames'
p2825
(lp2826
sS'isMulti'
p2827
I00
sS'isCompound'
p2828
I00
sg10
I01
sS'isReadable'
p2829
I01
sg12
(lp2830
sS'isElement'
p2831
I00
ssVdisplayLocalAxis
p2832
(dp2833
S'isArray'
p2834
I00
sS'attrType'
p2835
Vbool
p2836
sS'attrChildrenNames'
p2837
(lp2838
sS'isMulti'
p2839
I00
sS'isCompound'
p2840
I00
sg10
I01
sS'isReadable'
p2841
I01
sg12
(lp2842
sS'isElement'
p2843
I00
ssg2139
(dp2844
g69
I00
sg22
I00
sg12
(lp2845
ssVmaxRotLimit
p2846
(dp2847
g69
I00
sg70
Vdouble3
p2848
sg72
I00
sg73
I01
sg10
I01
sg12
(lp2849
g2320
ag2538
aVmaxRotLimit.maxRotZLimit
p2850
assVtranslate
p2851
(dp2852
S'isArray'
p2853
I00
sS'attrType'
p2854
Vdouble3
p2855
sS'attrChildrenNames'
p2856
(lp2857
Vtranslate.translateX
p2858
aVtranslate.translateY
p2859
aVtranslate.translateZ
p2860
asS'isMulti'
p2861
I00
sS'isCompound'
p2862
I01
sg10
I01
sS'isReadable'
p2863
I01
sg12
(lp2864
Vtranslate.translateX
p2865
aVtranslate.translateY
p2866
aVtranslate.translateZ
p2867
asS'isElement'
p2868
I00
ssg1281
(dp2869
g937
I00
sg22
I00
sg938
(lp2870
ssVtarget[0].targetRotateTranslate.targetRotateTranslateZ
p2871
(dp2872
S'isArray'
p2873
I00
sS'attrParentLongName'
p2874
Vtarget[0].targetRotateTranslate
p2875
sS'attrChildrenNames'
p2876
(lp2877
sS'attrType'
p2878
VdoubleLinear
p2879
sS'isMulti'
p2880
I00
sS'isCompound'
p2881
I00
sg35
I01
sS'isReadable'
p2882
I01
sg20
(lp2883
sS'isElement'
p2884
I00
ssVtarget[0].targetRotateTranslate.targetRotateTranslateY
p2885
(dp2886
S'isArray'
p2887
I00
sS'attrParentLongName'
p2888
Vtarget[0].targetRotateTranslate
p2889
sS'attrChildrenNames'
p2890
(lp2891
sS'attrType'
p2892
VdoubleLinear
p2893
sS'isMulti'
p2894
I00
sS'isCompound'
p2895
I00
sg35
I01
sS'isReadable'
p2896
I01
sg20
(lp2897
sS'isElement'
p2898
I00
ssVtarget[0].targetRotateTranslate.targetRotateTranslateX
p2899
(dp2900
S'isArray'
p2901
I00
sS'attrParentLongName'
p2902
Vtarget[0].targetRotateTranslate
p2903
sS'attrChildrenNames'
p2904
(lp2905
sS'attrType'
p2906
VdoubleLinear
p2907
sS'isMulti'
p2908
I00
sS'isCompound'
p2909
I00
sg35
I01
sS'isReadable'
p2910
I01
sg20
(lp2911
sS'isElement'
p2912
I00
ssVtarget[0].targetRotatePivot.targetRotatePivotZ
p2913
(dp2914
S'isArray'
p2915
I00
sS'attrParentLongName'
p2916
Vtarget[0].targetRotatePivot
p2917
sS'attrChildrenNames'
p2918
(lp2919
sS'attrType'
p2920
VdoubleLinear
p2921
sS'isMulti'
p2922
I00
sS'isCompound'
p2923
I00
sg35
I01
sS'isReadable'
p2924
I01
sg20
(lp2925
sS'isElement'
p2926
I00
ssg1089
(dp2927
g284
I00
sg285
(lp2928
ssg1088
(dp2929
g284
I00
sg285
(lp2930
ssg1087
(dp2931
g284
I00
sg285
(lp2932
ssVtarget.targetRotatePivotX
p2933
(dp2934
g77
Vtarget.targetRotatePivot
p2935
ssVtarget.targetRotatePivotY
p2936
(dp2937
g77
Vtarget.targetRotatePivot
p2938
ssVtarget.targetRotatePivotZ
p2939
(dp2940
g77
Vtarget.targetRotatePivot
p2941
ssVmaxRotLimitEnable
p2942
(dp2943
g69
I00
sg72
I00
sg12
(lp2944
g1831
ag2397
ag1268
asg10
I00
sg70
VTdataCompound
p2945
ssVtarget[0].targetParentMatrix
p2946
(dp2947
S'isArray'
p2948
I00
sS'attrParentLongName'
p2949
Vtarget[0]
p2950
sS'attrChildrenNames'
p2951
(lp2952
sS'attrType'
p2953
Vmatrix
p2954
sS'isMulti'
p2955
I00
sS'isCompound'
p2956
I00
sg35
I00
sS'isReadable'
p2957
I00
sg20
(lp2958
sS'isElement'
p2959
I00
ssg1495
(dp2960
g937
I00
sg22
I00
sg938
(lp2961
ssVghostCustomSteps.ghostPostSteps
p2962
(dp2963
S'isArray'
p2964
I00
sS'attrParentLongName'
p2965
VghostCustomSteps
p2966
sS'attrChildrenNames'
p2967
(lp2968
sS'attrType'
p2969
Vlong
p2970
sS'isMulti'
p2971
I00
sS'isCompound'
p2972
I00
sg10
I01
sS'isReadable'
p2973
I01
sg12
(lp2974
sS'isElement'
p2975
I00
ssg242
(dp2976
g69
I00
sg70
VdoubleLinear
p2977
sg72
I00
sg73
I00
sg10
I01
sg12
(lp2978
ssg248
(dp2979
g69
I00
sg70
VdoubleAngle
p2980
sg72
I00
sg73
I00
sg10
I01
sg12
(lp2981
ssVtarget[1].targetRotatePivot
p2982
(dp2983
g17
I00
sg18
Vdouble3
p2984
sg23
I00
sg2353
I01
sg22
I01
sg20
(lp2985
g2355
ag2359
ag2350
assVconstraintRotatePivot.constraintRotatePivotZ
p2986
(dp2987
S'isArray'
p2988
I00
sS'attrParentLongName'
p2989
VconstraintRotatePivot
p2990
sS'attrChildrenNames'
p2991
(lp2992
sS'attrType'
p2993
VdoubleLinear
p2994
sS'isMulti'
p2995
I00
sS'isCompound'
p2996
I00
sg35
I01
sS'isReadable'
p2997
I01
sg20
(lp2998
sS'isElement'
p2999
I00
ssVconstraintRotatePivot.constraintRotatePivotX
p3000
(dp3001
S'isArray'
p3002
I00
sS'attrParentLongName'
p3003
VconstraintRotatePivot
p3004
sS'attrChildrenNames'
p3005
(lp3006
sS'attrType'
p3007
VdoubleLinear
p3008
sS'isMulti'
p3009
I00
sS'isCompound'
p3010
I00
sg35
I01
sS'isReadable'
p3011
I01
sg20
(lp3012
sS'isElement'
p3013
I00
ssVconstraintRotatePivot.constraintRotatePivotY
p3014
(dp3015
S'isArray'
p3016
I00
sS'attrParentLongName'
p3017
VconstraintRotatePivot
p3018
sS'attrChildrenNames'
p3019
(lp3020
sS'attrType'
p3021
VdoubleLinear
p3022
sS'isMulti'
p3023
I00
sS'isCompound'
p3024
I00
sg35
I01
sS'isReadable'
p3025
I01
sg20
(lp3026
sS'isElement'
p3027
I00
ssVmentalRayControls
p3028
(dp3029
S'isArray'
p3030
I00
sS'attrType'
p3031
VTdataCompound
p3032
sS'attrChildrenNames'
p3033
(lp3034
VmentalRayControls.miDeriveFromMaya
p3035
aVmentalRayControls.miHide
p3036
aVmentalRayControls.miVisible
p3037
aVmentalRayControls.miTrace
p3038
aVmentalRayControls.miShadow
p3039
aVmentalRayControls.miCaustic
p3040
aVmentalRayControls.miGlobillum
p3041
aVmentalRayControls.miExportGeoShader
p3042
aVmentalRayControls.miGeoShader
p3043
aVmentalRayControls.miProxyRenderable
p3044
asS'isMulti'
p3045
I00
sS'isCompound'
p3046
I01
sg10
I00
sS'isReadable'
p3047
I00
sg12
(lp3048
VmentalRayControls.miDeriveFromMaya
p3049
aVmentalRayControls.miHide
p3050
aVmentalRayControls.miVisible
p3051
aVmentalRayControls.miTrace
p3052
aVmentalRayControls.miShadow
p3053
aVmentalRayControls.miCaustic
p3054
aVmentalRayControls.miGlobillum
p3055
aVmentalRayControls.miExportGeoShader
p3056
aVmentalRayControls.miGeoShader
p3057
aVmentalRayControls.miProxyRenderable
p3058
asS'isElement'
p3059
I00
ssVworldInverseMatrix
p3060
(dp3061
S'isArray'
p3062
I01
sS'attrType'
p3063
Vmatrix
p3064
sS'isMulti'
p3065
I01
sg10
I00
sS'isReadable'
p3066
I00
sS'isElement'
p3067
I00
ssVrenderInfo.identification
p3068
(dp3069
S'isArray'
p3070
I00
sS'attrParentLongName'
p3071
VrenderInfo
p3072
sS'attrChildrenNames'
p3073
(lp3074
sS'attrType'
p3075
Vshort
p3076
sS'isMulti'
p3077
I00
sS'isCompound'
p3078
I00
sg10
I01
sS'isReadable'
p3079
I01
sg12
(lp3080
sS'isElement'
p3081
I00
ssVblackBox
p3082
(dp3083
S'isArray'
p3084
I00
sS'attrType'
p3085
Vbool
p3086
sS'attrChildrenNames'
p3087
(lp3088
sS'isMulti'
p3089
I00
sS'isCompound'
p3090
I00
sg10
I01
sS'isReadable'
p3091
I01
sg12
(lp3092
sS'isElement'
p3093
I00
ssVmentalRayControls.miShadow
p3094
(dp3095
S'isArray'
p3096
I00
sS'attrParentLongName'
p3097
VmentalRayControls
p3098
sS'attrChildrenNames'
p3099
(lp3100
sS'attrType'
p3101
Venum
p3102
sS'isMulti'
p3103
I00
sS'isCompound'
p3104
I00
sg10
I01
sS'isReadable'
p3105
I01
sg12
(lp3106
sS'isElement'
p3107
I00
ssVisHierarchicalConnection[0]
p3108
(dp3109
g69
I00
sg22
I00
sg12
(lp3110
ssVshowManipDefault
p3111
(dp3112
S'isArray'
p3113
I00
sS'attrType'
p3114
Venum
p3115
sS'attrChildrenNames'
p3116
(lp3117
sS'isMulti'
p3118
I00
sS'isCompound'
p3119
I00
sg10
I01
sS'isReadable'
p3120
I01
sg12
(lp3121
sS'isElement'
p3122
I00
ssg2850
(dp3123
g69
I00
sg70
VdoubleAngle
p3124
sg72
I00
sg73
I00
sg10
I01
sg12
(lp3125
ssVrenderLayerInfo[0].renderLayerColor
p3126
(dp3127
S'isArray'
p3128
I00
sS'attrParentLongName'
p3129
VrenderLayerInfo[0]
p3130
sS'attrChildrenNames'
p3131
(lp3132
sS'attrType'
p3133
Vbyte
p3134
sg22
I00
sS'isReadable'
p3135
I00
sg12
(lp3136
sS'isElement'
p3137
I00
ssVrenderLayerInfo[1]
p3138
(dp3139
g69
I00
sg22
I00
sg12
(lp3140
g2640
ag1731
ag1044
assVghostCustomSteps.ghostStepSize
p3141
(dp3142
S'isArray'
p3143
I00
sS'attrParentLongName'
p3144
VghostCustomSteps
p3145
sS'attrChildrenNames'
p3146
(lp3147
sS'attrType'
p3148
Vlong
p3149
sS'isMulti'
p3150
I00
sS'isCompound'
p3151
I00
sg10
I01
sS'isReadable'
p3152
I01
sg12
(lp3153
sS'isElement'
p3154
I00
ssVrenderLayerInfo
p3155
(dp3156
S'isArray'
p3157
I01
sS'attrType'
p3158
VTdataCompound
p3159
sS'isMulti'
p3160
I01
sg10
I00
sS'isReadable'
p3161
I00
sS'isElement'
p3162
I00
ssVtarget[1]
p3163
(dp3164
g407
I00
sg18
VTdataCompound
p3165
sg409
(lp3166
Vtarget[1].targetTranslate
p3167
aVtarget[1].targetRotatePivot
p3168
aVtarget[1].targetRotateTranslate
p3169
aVtarget[1].targetParentMatrix
p3170
aVtarget[1].targetWeight
p3171
asg23
I00
sg22
I00
sg20
(lp3172
g2738
ag2982
ag2674
ag15
ag2534
assVtarget[0].targetRotatePivot.targetRotatePivotY
p3173
(dp3174
S'isArray'
p3175
I00
sS'attrParentLongName'
p3176
Vtarget[0].targetRotatePivot
p3177
sS'attrChildrenNames'
p3178
(lp3179
sS'attrType'
p3180
VdoubleLinear
p3181
sS'isMulti'
p3182
I00
sS'isCompound'
p3183
I00
sg35
I01
sS'isReadable'
p3184
I01
sg20
(lp3185
sS'isElement'
p3186
I00
ssVtarget[0].targetRotatePivot.targetRotatePivotX
p3187
(dp3188
S'isArray'
p3189
I00
sS'attrParentLongName'
p3190
Vtarget[0].targetRotatePivot
p3191
sS'attrChildrenNames'
p3192
(lp3193
sS'attrType'
p3194
VdoubleLinear
p3195
sS'isMulti'
p3196
I00
sS'isCompound'
p3197
I00
sg35
I01
sS'isReadable'
p3198
I01
sg20
(lp3199
sS'isElement'
p3200
I00
ssVmentalRayControls.miProxyRenderable
p3201
(dp3202
S'isArray'
p3203
I00
sS'attrParentLongName'
p3204
VmentalRayControls
p3205
sS'attrChildrenNames'
p3206
(lp3207
sS'attrType'
p3208
Vbool
p3209
sS'isMulti'
p3210
I00
sS'isCompound'
p3211
I00
sg10
I01
sS'isReadable'
p3212
I01
sg12
(lp3213
sS'isElement'
p3214
I00
ssg883
(dp3215
g69
I00
sg70
Vbool
p3216
sg72
I00
sg73
I00
sg10
I01
sg12
(lp3217
ssVinverseMatrix
p3218
(dp3219
S'isArray'
p3220
I00
sS'attrType'
p3221
Vmatrix
p3222
sS'attrChildrenNames'
p3223
(lp3224
sS'isMulti'
p3225
I00
sS'isCompound'
p3226
I00
sg10
I00
sS'isReadable'
p3227
I00
sg12
(lp3228
sS'isElement'
p3229
I00
ssVcenter.boundingBoxCenterY
p3230
(dp3231
S'isArray'
p3232
I00
sS'attrParentLongName'
p3233
Vcenter
p3234
sS'attrChildrenNames'
p3235
(lp3236
sS'attrType'
p3237
VdoubleLinear
p3238
sS'isMulti'
p3239
I00
sS'isCompound'
p3240
I00
sg10
I01
sS'isReadable'
p3241
I01
sg12
(lp3242
sS'isElement'
p3243
I00
ssVcenter.boundingBoxCenterZ
p3244
(dp3245
S'isArray'
p3246
I00
sS'attrParentLongName'
p3247
Vcenter
p3248
sS'attrChildrenNames'
p3249
(lp3250
sS'attrType'
p3251
VdoubleLinear
p3252
sS'isMulti'
p3253
I00
sS'isCompound'
p3254
I00
sg10
I01
sS'isReadable'
p3255
I01
sg12
(lp3256
sS'isElement'
p3257
I00
ssVcenter.boundingBoxCenterX
p3258
(dp3259
S'isArray'
p3260
I00
sS'attrParentLongName'
p3261
Vcenter
p3262
sS'attrChildrenNames'
p3263
(lp3264
sS'attrType'
p3265
VdoubleLinear
p3266
sS'isMulti'
p3267
I00
sS'isCompound'
p3268
I00
sg10
I01
sS'isReadable'
p3269
I01
sg12
(lp3270
sS'isElement'
p3271
I00
ssVmentalRayControls.miGlobillum
p3272
(dp3273
S'isArray'
p3274
I00
sS'attrParentLongName'
p3275
VmentalRayControls
p3276
sS'attrChildrenNames'
p3277
(lp3278
sS'attrType'
p3279
Venum
p3280
sS'isMulti'
p3281
I00
sS'isCompound'
p3282
I00
sg10
I01
sS'isReadable'
p3283
I01
sg12
(lp3284
sS'isElement'
p3285
I00
ss.