(dp0
VrotateOrder
p1
(dp2
S'isArray'
p3
I00
sS'attrType'
p4
Venum
p5
sS'isMulti'
p6
I00
sS'isCompound'
p7
I00
sS'isSimple'
p8
I01
sS'attrChildrenLongNames'
p9
(lp10
ssVtranslate.translateZ
p11
(dp12
g3
I00
sg4
VdoubleLinear
p13
sg6
I00
sg7
I00
sg8
I01
sg9
(lp14
ssVtranslate.translateX
p15
(dp16
g3
I00
sg4
VdoubleLinear
p17
sg6
I00
sg7
I00
sg8
I01
sg9
(lp18
ssVdrawOverride.overrideColor
p19
(dp20
g3
I00
sg6
I00
sg9
(lp21
sg8
I00
sg4
Vbyte
p22
ssVintermediateObject
p23
(dp24
g3
I00
sg4
Vbool
p25
sg6
I00
sg7
I00
sg8
I01
sg9
(lp26
ssVinstObjGroups[0].objectGroups[1].objectGroupId
p27
(dp28
g3
I00
sg9
(lp29
ssVtarget[1].targetParentMatrix
p30
(dp31
g3
I00
sg9
(lp32
ssVrenderLayerInfo.renderLayerId
p33
(dp34
S'attrParentLongName'
p35
VrenderLayerInfo
p36
ssVrestTranslate
p37
(dp38
g3
I00
sg4
Vdouble3
p39
sg6
I00
sg7
I01
sg8
I01
sg9
(lp40
VrestTranslate.restTranslateX
p41
aVrestTranslate.restTranslateY
p42
aVrestTranslate.restTranslateZ
p43
assVmentalRayControls.miVisible
p44
(dp45
g3
I00
sg4
Venum
p46
sg6
I00
sg7
I00
sg8
I01
sg9
(lp47
ssVuseObjectColor
p48
(dp49
g3
I00
sg4
Vbool
p50
sg6
I00
sg7
I00
sg8
I01
sg9
(lp51
ssVdrawOverride.overrideLevelOfDetail
p52
(dp53
g3
I00
sg4
Venum
p54
sg6
I00
sg7
I00
sg8
I01
sg9
(lp55
ssVinstObjGroups[0].objectGroups[0].objectGroupId
p56
(dp57
g3
I00
sg9
(lp58
ssVghostColorPost
p59
(dp60
g3
I00
sg6
I00
sg9
(lp61
VghostColorPost.ghostColorPostR
p62
aVghostColorPost.ghostColorPostG
p63
aVghostColorPost.ghostColorPostB
p64
asg8
I00
sg4
Vfloat3
p65
ssVghostCustomSteps
p66
(dp67
g3
I00
sg6
I00
sg9
(lp68
VghostCustomSteps.ghostPreSteps
p69
aVghostCustomSteps.ghostPostSteps
p70
aVghostCustomSteps.ghostStepSize
p71
asg8
I00
sg4
VTdataCompound
p72
ssVminTransLimitEnable.minTransYLimitEnable
p73
(dp74
g3
I00
sg4
Vbool
p75
sg6
I00
sg7
I00
sg8
I01
sg9
(lp76
ssVtranslate.translateY
p77
(dp78
g3
I00
sg4
VdoubleLinear
p79
sg6
I00
sg7
I00
sg8
I01
sg9
(lp80
ssVrotateQuaternion
p81
(dp82
g3
I00
sg6
I00
sg9
(lp83
VrotateQuaternion.rotateQuaternionX
p84
aVrotateQuaternion.rotateQuaternionY
p85
aVrotateQuaternion.rotateQuaternionZ
p86
aVrotateQuaternion.rotateQuaternionW
p87
asg8
I00
sg4
Vdouble4
p88
ssVmentalRayControls.miProxyRenderable
p89
(dp90
g3
I00
sg4
Vbool
p91
sg6
I00
sg7
I00
sg8
I01
sg9
(lp92
ssVrenderLayerInfo.renderLayerRenderable
p93
(dp94
g35
VrenderLayerInfo
p95
ssVminRotLimitEnable.minRotZLimitEnable
p96
(dp97
g3
I00
sg4
Vbool
p98
sg6
I00
sg7
I00
sg8
I01
sg9
(lp99
ssVparentMatrix[2]
p100
(dp101
S'isArray'
p102
I00
sS'attrChildrenLongNames'
p103
(lp104
ssVtarget.targetRotateTranslateZ
p105
(dp106
g35
Vtarget.targetRotateTranslate
p107
ssVtarget.targetRotateTranslateX
p108
(dp109
g35
Vtarget.targetRotateTranslate
p110
ssVtarget[1].targetWeight
p111
(dp112
g3
I00
sg9
(lp113
ssVmaxRotLimit.maxRotYLimit
p114
(dp115
g3
I00
sg4
VdoubleAngle
p116
sg6
I00
sg7
I00
sg8
I01
sg9
(lp117
ssVtransMinusRotatePivot
p118
(dp119
g3
I00
sg4
Vdouble3
p120
sg6
I00
sg7
I01
sg8
I01
sg9
(lp121
VtransMinusRotatePivot.transMinusRotatePivotX
p122
aVtransMinusRotatePivot.transMinusRotatePivotY
p123
aVtransMinusRotatePivot.transMinusRotatePivotZ
p124
assVrenderLayerInfo[1].renderLayerColor
p125
(dp126
g3
I00
sg9
(lp127
ssVtarget.targetRotateTranslateY
p128
(dp129
g35
Vtarget.targetRotateTranslate
p130
ssVbinMembership
p131
(dp132
g3
I00
sg4
Vstring
p133
sg6
I00
sg7
I00
sg8
I01
sg9
(lp134
ssVpivotSpace
p135
(dp136
g3
I00
sg6
I00
sg9
(lp137
sg8
I00
sg4
Vmatrix
p138
ssVrenderInfo.identification
p139
(dp140
g35
VrenderInfo
p141
sg3
I00
sg4
Vshort
p142
sg6
I00
sg7
I00
sg8
I01
sg9
(lp143
ssVcustomTreatment
p144
(dp145
g3
I00
sg4
Vstring
p146
sg6
I00
sg7
I00
sg8
I01
sg9
(lp147
ssVisHierarchicalConnection[0]
p148
(dp149
g3
I00
sg9
(lp150
ssVrenderLayerInfo[0].renderLayerRenderable
p151
(dp152
g3
I00
sg9
(lp153
ssVtemplatePath
p154
(dp155
g3
I00
sg4
Vstring
p156
sg6
I00
sg7
I00
sg8
I01
sg9
(lp157
ssVshear
p158
(dp159
g3
I00
sg4
Vdouble3
p160
sg6
I00
sg7
I01
sg8
I01
sg9
(lp161
Vshear.shearXY
p162
aVshear.shearXZ
p163
aVshear.shearYZ
p164
assVboundingBox.boundingBoxMin.boundingBoxMinY
p165
(dp166
g35
VboundingBox.boundingBoxMin
p167
ssVboundingBox.boundingBoxMin.boundingBoxMinX
p168
(dp169
g35
VboundingBox.boundingBoxMin
p170
ssVmentalRayControls.miCaustic
p171
(dp172
g3
I00
sg4
Venum
p173
sg6
I00
sg7
I00
sg8
I01
sg9
(lp174
ssVboundingBox.boundingBoxMin.boundingBoxMinZ
p175
(dp176
g35
VboundingBox.boundingBoxMin
p177
ssVminRotLimitEnable.minRotYLimitEnable
p178
(dp179
g3
I00
sg4
Vbool
p180
sg6
I00
sg7
I00
sg8
I01
sg9
(lp181
ssVselectHandle
p182
(dp183
g3
I00
sg4
Vdouble3
p184
sg6
I00
sg7
I01
sg8
I01
sg9
(lp185
VselectHandle.selectHandleX
p186
aVselectHandle.selectHandleY
p187
aVselectHandle.selectHandleZ
p188
assVghostColorPostA
p189
(dp190
g3
I00
sg4
Vfloat
p191
sg6
I00
sg7
I00
sg8
I01
sg9
(lp192
ssVparentMatrix
p193
(dp194
g3
I01
sg6
I01
sg8
I00
sg4
Vmatrix
p195
ssg86
(dp196
g3
I00
sg4
Vdouble
p197
sg6
I00
sg7
I00
sg8
I01
sg9
(lp198
ssVrenderLayerInfo[0].renderLayerId
p199
(dp200
g3
I00
sg9
(lp201
ssg84
(dp202
g3
I00
sg4
Vdouble
p203
sg6
I00
sg7
I00
sg8
I01
sg9
(lp204
ssg85
(dp205
g3
I00
sg4
Vdouble
p206
sg6
I00
sg7
I00
sg8
I01
sg9
(lp207
ssVmaxTransLimitEnable.maxTransZLimitEnable
p208
(dp209
g3
I00
sg4
Vbool
p210
sg6
I00
sg7
I00
sg8
I01
sg9
(lp211
ssVmaxRotLimitEnable.maxRotXLimitEnable
p212
(dp213
g3
I00
sg4
Vbool
p214
sg6
I00
sg7
I00
sg8
I01
sg9
(lp215
ssVminTransLimitEnable.minTransZLimitEnable
p216
(dp217
g3
I00
sg4
Vbool
p218
sg6
I00
sg7
I00
sg8
I01
sg9
(lp219
ssVcreationDate
p220
(dp221
g3
I00
sg4
Vstring
p222
sg6
I00
sg7
I00
sg8
I01
sg9
(lp223
ssVminScaleLimit.minScaleXLimit
p224
(dp225
g3
I00
sg4
Vdouble
p226
sg6
I00
sg7
I00
sg8
I01
sg9
(lp227
ssg87
(dp228
g3
I00
sg4
Vdouble
p229
sg6
I00
sg7
I00
sg8
I01
sg9
(lp230
ssVrotatePivotTranslate.rotatePivotTranslateX
p231
(dp232
g3
I00
sg4
VdoubleLinear
p233
sg6
I00
sg7
I00
sg8
I01
sg9
(lp234
ssVrotatePivotTranslate.rotatePivotTranslateY
p235
(dp236
g3
I00
sg4
VdoubleLinear
p237
sg6
I00
sg7
I00
sg8
I01
sg9
(lp238
ssVworldMatrix[2]
p239
(dp240
g102
I00
sg103
(lp241
ssVminTransLimit
p242
(dp243
g3
I00
sg4
Vdouble3
p244
sg6
I00
sg7
I01
sg8
I01
sg9
(lp245
VminTransLimit.minTransXLimit
p246
aVminTransLimit.minTransYLimit
p247
aVminTransLimit.minTransZLimit
p248
assVrotate
p249
(dp250
g3
I00
sg4
Vdouble3
p251
sg6
I00
sg7
I01
sg8
I01
sg9
(lp252
Vrotate.rotateX
p253
aVrotate.rotateY
p254
aVrotate.rotateZ
p255
assVcenter.boundingBoxCenterY
p256
(dp257
g35
Vcenter
p258
ssVminRotLimit
p259
(dp260
g3
I00
sg4
Vdouble3
p261
sg6
I00
sg7
I01
sg8
I01
sg9
(lp262
VminRotLimit.minRotXLimit
p263
aVminRotLimit.minRotYLimit
p264
aVminRotLimit.minRotZLimit
p265
assVobjectColorRGB
p266
(dp267
g3
I00
sg6
I00
sg9
(lp268
VobjectColorRGB.objectColorR
p269
aVobjectColorRGB.objectColorG
p270
aVobjectColorRGB.objectColorB
p271
asg8
I00
sg4
Vfloat3
p272
ssVtarget[2].targetTranslate.targetTranslateY
p273
(dp274
g3
I00
sg9
(lp275
ssVtarget[2].targetTranslate.targetTranslateX
p276
(dp277
g3
I00
sg9
(lp278
ssVisHierarchicalConnection[1]
p279
(dp280
g3
I00
sg9
(lp281
ssVlockOutput
p282
(dp283
g3
I00
sg4
Vbool
p284
sg6
I00
sg7
I00
sg8
I01
sg9
(lp285
ssVconstraintParentInverseMatrix
p286
(dp287
g3
I00
sg6
I00
sg9
(lp288
sg8
I00
sg4
Vmatrix
p289
ssg265
(dp290
g3
I00
sg4
VdoubleAngle
p291
sg6
I00
sg7
I00
sg8
I01
sg9
(lp292
ssVmaxScaleLimitEnable.maxScaleYLimitEnable
p293
(dp294
g3
I00
sg4
Vbool
p295
sg6
I00
sg7
I00
sg8
I01
sg9
(lp296
ssVdrawOverride.overrideEnabled
p297
(dp298
g3
I00
sg4
Vbool
p299
sg6
I00
sg7
I00
sg8
I01
sg9
(lp300
ssVrotatePivot.rotatePivotZ
p301
(dp302
g3
I00
sg4
VdoubleLinear
p303
sg6
I00
sg7
I00
sg8
I01
sg9
(lp304
ssVboundingBox.boundingBoxSize
p305
(dp306
g35
VboundingBox
p307
ssVboundingBox.boundingBoxMax
p308
(dp309
g35
VboundingBox
p310
ssVrotatePivot.rotatePivotY
p311
(dp312
g3
I00
sg4
VdoubleLinear
p313
sg6
I00
sg7
I00
sg8
I01
sg9
(lp314
ssVconstraintRotateTranslate.constraintRotateTranslateZ
p315
(dp316
g3
I00
sg4
VdoubleLinear
p317
sg6
I00
sg7
I00
sg8
I01
sg9
(lp318
ssVconstraintRotateTranslate.constraintRotateTranslateX
p319
(dp320
g3
I00
sg4
VdoubleLinear
p321
sg6
I00
sg7
I00
sg8
I01
sg9
(lp322
ssVconstraintRotateTranslate.constraintRotateTranslateY
p323
(dp324
g3
I00
sg4
VdoubleLinear
p325
sg6
I00
sg7
I00
sg8
I01
sg9
(lp326
ssVghostColorPre.ghostColorPreR
p327
(dp328
g3
I00
sg4
Vfloat
p329
sg6
I00
sg7
I00
sg8
I01
sg9
(lp330
ssVcreator
p331
(dp332
g3
I00
sg4
Vstring
p333
sg6
I00
sg7
I00
sg8
I01
sg9
(lp334
ssVrotateAxis.rotateAxisX
p335
(dp336
g3
I00
sg4
VdoubleAngle
p337
sg6
I00
sg7
I00
sg8
I01
sg9
(lp338
ssVrotateAxis.rotateAxisY
p339
(dp340
g3
I00
sg4
VdoubleAngle
p341
sg6
I00
sg7
I00
sg8
I01
sg9
(lp342
ssVrotateAxis.rotateAxisZ
p343
(dp344
g3
I00
sg4
VdoubleAngle
p345
sg6
I00
sg7
I00
sg8
I01
sg9
(lp346
ssVconstraintRotatePivot.constraintRotatePivotY
p347
(dp348
g3
I00
sg4
VdoubleLinear
p349
sg6
I00
sg7
I00
sg8
I01
sg9
(lp350
ssVinstObjGroups[0].objectGroups[0]
p351
(dp352
g3
I00
sg9
(lp353
VinstObjGroups[0].objectGroups[0].objectGrpCompList
p354
ag56
aVinstObjGroups[0].objectGroups[0].objectGrpColor
p355
assVtarget[1].targetRotateTranslate
p356
(dp357
g3
I00
sg9
(lp358
Vtarget[1].targetRotateTranslate.targetRotateTranslateX
p359
aVtarget[1].targetRotateTranslate.targetRotateTranslateY
p360
aVtarget[1].targetRotateTranslate.targetRotateTranslateZ
p361
assVconstraintTranslate
p362
(dp363
g3
I00
sg4
Vdouble3
p364
sg6
I00
sg7
I01
sg8
I01
sg9
(lp365
VconstraintTranslate.constraintTranslateX
p366
aVconstraintTranslate.constraintTranslateY
p367
aVconstraintTranslate.constraintTranslateZ
p368
assVmaxTransLimitEnable.maxTransYLimitEnable
p369
(dp370
g3
I00
sg4
Vbool
p371
sg6
I00
sg7
I00
sg8
I01
sg9
(lp372
ssVghostColorPre.ghostColorPreG
p373
(dp374
g3
I00
sg4
Vfloat
p375
sg6
I00
sg7
I00
sg8
I01
sg9
(lp376
ssVscalePivotTranslate
p377
(dp378
g3
I00
sg4
Vdouble3
p379
sg6
I00
sg7
I01
sg8
I01
sg9
(lp380
VscalePivotTranslate.scalePivotTranslateX
p381
aVscalePivotTranslate.scalePivotTranslateY
p382
aVscalePivotTranslate.scalePivotTranslateZ
p383
assVmaxScaleLimit.maxScaleYLimit
p384
(dp385
g3
I00
sg4
Vdouble
p386
sg6
I00
sg7
I00
sg8
I01
sg9
(lp387
ssVghostColorPre.ghostColorPreB
p388
(dp389
g3
I00
sg4
Vfloat
p390
sg6
I00
sg7
I00
sg8
I01
sg9
(lp391
ssVtarget[2].targetRotatePivot.targetRotatePivotX
p392
(dp393
g3
I00
sg9
(lp394
ssVpublishedNodeInfo[0].publishedNode
p395
(dp396
g3
I00
sg9
(lp397
ssVtarget[2].targetRotatePivot.targetRotatePivotZ
p398
(dp399
g3
I00
sg9
(lp400
ssVdynamics
p401
(dp402
g3
I00
sg4
Vbool
p403
sg6
I00
sg7
I00
sg8
I01
sg9
(lp404
ssVpublishedNodeInfo[1].isHierarchicalNode
p405
(dp406
g3
I00
sg9
(lp407
ssVconstraintOffsetPolarity
p408
(dp409
g3
I00
sg4
Vdouble
p410
sg6
I00
sg7
I00
sg8
I01
sg9
(lp411
ssVtemplateVersion
p412
(dp413
g3
I00
sg4
Vlong
p414
sg6
I00
sg7
I00
sg8
I01
sg9
(lp415
ssVmaxTransLimit.maxTransZLimit
p416
(dp417
g3
I00
sg4
VdoubleLinear
p418
sg6
I00
sg7
I00
sg8
I01
sg9
(lp419
ssVinstObjGroups[1].objectGroups
p420
(dp421
g3
I01
ssVscale
p422
(dp423
g3
I00
sg4
Vdouble3
p424
sg6
I00
sg7
I01
sg8
I01
sg9
(lp425
Vscale.scaleX
p426
aVscale.scaleY
p427
aVscale.scaleZ
p428
assVmatrix
p429
(dp430
g3
I00
sg6
I00
sg9
(lp431
sg8
I00
sg4
Vmatrix
p432
ssVoffset.offsetZ
p433
(dp434
g3
I00
sg4
VdoubleLinear
p435
sg6
I00
sg7
I00
sg8
I01
sg9
(lp436
ssVdisplayLocalAxis
p437
(dp438
g3
I00
sg4
Vbool
p439
sg6
I00
sg7
I00
sg8
I01
sg9
(lp440
ssVoffset.offsetX
p441
(dp442
g3
I00
sg4
VdoubleLinear
p443
sg6
I00
sg7
I00
sg8
I01
sg9
(lp444
ssVoffset.offsetY
p445
(dp446
g3
I00
sg4
VdoubleLinear
p447
sg6
I00
sg7
I00
sg8
I01
sg9
(lp448
ssVrotatePivot
p449
(dp450
g3
I00
sg4
Vdouble3
p451
sg6
I00
sg7
I01
sg8
I01
sg9
(lp452
VrotatePivot.rotatePivotX
p453
ag311
ag301
assg187
(dp454
g3
I00
sg4
VdoubleLinear
p455
sg6
I00
sg7
I00
sg8
I01
sg9
(lp456
ssg188
(dp457
g3
I00
sg4
VdoubleLinear
p458
sg6
I00
sg7
I00
sg8
I01
sg9
(lp459
ssVinheritsTransform
p460
(dp461
g3
I00
sg4
Vbool
p462
sg6
I00
sg7
I00
sg8
I01
sg9
(lp463
ssVmaxRotLimitEnable.maxRotZLimitEnable
p464
(dp465
g3
I00
sg4
Vbool
p466
sg6
I00
sg7
I00
sg8
I01
sg9
(lp467
ssVminScaleLimitEnable.minScaleYLimitEnable
p468
(dp469
g3
I00
sg4
Vbool
p470
sg6
I00
sg7
I00
sg8
I01
sg9
(lp471
ssVtarget[2].targetTranslate.targetTranslateZ
p472
(dp473
g3
I00
sg9
(lp474
ssVworldMatrix
p475
(dp476
g3
I01
sg6
I01
sg8
I00
sg4
Vmatrix
p477
ssVtarget[0].targetTranslate.targetTranslateZ
p478
(dp479
g3
I00
sg4
VdoubleLinear
p480
sg6
I00
sg7
I00
sg8
I01
sg9
(lp481
ssVmaxScaleLimitEnable.maxScaleXLimitEnable
p482
(dp483
g3
I00
sg4
Vbool
p484
sg6
I00
sg7
I00
sg8
I01
sg9
(lp485
ssVinstObjGroups[0].objectGroups[1].objectGrpColor
p486
(dp487
g3
I00
sg9
(lp488
ssVcontainerType
p489
(dp490
g3
I00
sg4
Vstring
p491
sg6
I00
sg7
I00
sg8
I01
sg9
(lp492
ssVobjectColorRGB.objectColorR
p493
(dp494
g35
VobjectColorRGB
p495
sg3
I00
sg4
Vfloat
p496
sg6
I00
sg7
I00
sg8
I01
sg9
(lp497
ssVminScaleLimit.minScaleZLimit
p498
(dp499
g3
I00
sg4
Vdouble
p500
sg6
I00
sg7
I00
sg8
I01
sg9
(lp501
ssVparentInverseMatrix[0]
p502
(dp503
g3
I00
sS'isMulti'
p504
I00
sS'attrType'
p505
Vmatrix
p506
sS'isSimple'
p507
I00
sg9
(lp508
ssVscalePivot.scalePivotX
p509
(dp510
g3
I00
sg4
VdoubleLinear
p511
sg6
I00
sg7
I00
sg8
I01
sg9
(lp512
ssVscalePivot.scalePivotY
p513
(dp514
g3
I00
sg4
VdoubleLinear
p515
sg6
I00
sg7
I00
sg8
I01
sg9
(lp516
ssVscalePivot.scalePivotZ
p517
(dp518
g3
I00
sg4
VdoubleLinear
p519
sg6
I00
sg7
I00
sg8
I01
sg9
(lp520
ssVinstObjGroups.objectGroups.objectGrpCompList
p521
(dp522
g35
VinstObjGroups.objectGroups
p523
ssVparentInverseMatrix
p524
(dp525
g3
I01
sg6
I01
sg8
I00
sg4
Vmatrix
p526
ssVrotatePivotTranslate.rotatePivotTranslateZ
p527
(dp528
g3
I00
sg4
VdoubleLinear
p529
sg6
I00
sg7
I00
sg8
I01
sg9
(lp530
ssVviewName
p531
(dp532
g3
I00
sg4
Vstring
p533
sg6
I00
sg7
I00
sg8
I01
sg9
(lp534
ssVlodVisibility
p535
(dp536
g3
I00
sg4
Vbool
p537
sg6
I00
sg7
I00
sg8
I01
sg9
(lp538
ssVtarget[1].targetTranslate
p539
(dp540
g3
I00
sg9
(lp541
Vtarget[1].targetTranslate.targetTranslateX
p542
aVtarget[1].targetTranslate.targetTranslateY
p543
aVtarget[1].targetTranslate.targetTranslateZ
p544
assVpublishedNodeInfo.publishedNodeType
p545
(dp546
g35
VpublishedNodeInfo
p547
ssVparentInverseMatrix[1]
p548
(dp549
g3
I00
sg9
(lp550
ssVpublishedNodeInfo[1]
p551
(dp552
g3
I00
sg9
(lp553
VpublishedNodeInfo[1].publishedNode
p554
ag405
aVpublishedNodeInfo[1].publishedNodeType
p555
assVmaxTransLimit
p556
(dp557
g3
I00
sg4
Vdouble3
p558
sg6
I00
sg7
I01
sg8
I01
sg9
(lp559
VmaxTransLimit.maxTransXLimit
p560
aVmaxTransLimit.maxTransYLimit
p561
ag416
assg246
(dp562
g3
I00
sg4
VdoubleLinear
p563
sg6
I00
sg7
I00
sg8
I01
sg9
(lp564
ssVdisplayScalePivot
p565
(dp566
g3
I00
sg4
Vbool
p567
sg6
I00
sg7
I00
sg8
I01
sg9
(lp568
ssVtarget[2].targetRotatePivot
p569
(dp570
g3
I00
sg9
(lp571
g392
aVtarget[2].targetRotatePivot.targetRotatePivotY
p572
ag398
assVinstObjGroups[0].objectGroups[1]
p573
(dp574
g3
I00
sg9
(lp575
VinstObjGroups[0].objectGroups[1].objectGrpCompList
p576
ag27
ag486
assVminTransLimitEnable.minTransXLimitEnable
p577
(dp578
g3
I00
sg4
Vbool
p579
sg6
I00
sg7
I00
sg8
I01
sg9
(lp580
ssVmaxRotLimit.maxRotZLimit
p581
(dp582
g3
I00
sg4
VdoubleAngle
p583
sg6
I00
sg7
I00
sg8
I01
sg9
(lp584
ssVtarget[0].targetRotateTranslate
p585
(dp586
g3
I00
sg4
Vdouble3
p587
sg6
I00
sg7
I01
sg8
I01
sg9
(lp588
Vtarget[0].targetRotateTranslate.targetRotateTranslateX
p589
aVtarget[0].targetRotateTranslate.targetRotateTranslateY
p590
aVtarget[0].targetRotateTranslate.targetRotateTranslateZ
p591
assg247
(dp592
g3
I00
sg4
VdoubleLinear
p593
sg6
I00
sg7
I00
sg8
I01
sg9
(lp594
ssVrmbCommand
p595
(dp596
g3
I00
sg4
Vstring
p597
sg6
I00
sg7
I00
sg8
I01
sg9
(lp598
ssVmentalRayControls.miHide
p599
(dp600
g3
I00
sg4
Vbool
p601
sg6
I00
sg7
I00
sg8
I01
sg9
(lp602
ssg69
(dp603
g3
I00
sg4
Vlong
p604
sg6
I00
sg7
I00
sg8
I01
sg9
(lp605
ssg555
(dp606
g3
I00
sg9
(lp607
ssVpublishedNodeInfo
p608
(dp609
g3
I01
sg6
I01
sg8
I00
sg4
VTdataCompound
p610
ssVinstObjGroups.objectGroups.objectGroupId
p611
(dp612
g35
VinstObjGroups.objectGroups
p613
ssViconName
p614
(dp615
g3
I00
sg4
Vstring
p616
sg6
I00
sg7
I00
sg8
I01
sg9
(lp617
ssVobjectColor
p618
(dp619
g3
I00
sg4
Vshort
p620
sg6
I00
sg7
I00
sg8
I01
sg9
(lp621
ssVgeometry
p622
(dp623
g3
I00
sg6
I00
sg9
(lp624
sg8
I00
sg4
NssVtarget[2].targetParentMatrix
p625
(dp626
g3
I00
sg9
(lp627
ssg426
(dp628
g3
I00
sg4
Vdouble
p629
sg6
I00
sg7
I00
sg8
I01
sg9
(lp630
ssg427
(dp631
g3
I00
sg4
Vdouble
p632
sg6
I00
sg7
I00
sg8
I01
sg9
(lp633
ssg368
(dp634
g3
I00
sg4
VdoubleLinear
p635
sg6
I00
sg7
I00
sg8
I01
sg9
(lp636
ssVconstraintRotatePivot
p637
(dp638
g3
I00
sg4
Vdouble3
p639
sg6
I00
sg7
I01
sg8
I01
sg9
(lp640
VconstraintRotatePivot.constraintRotatePivotX
p641
ag347
aVconstraintRotatePivot.constraintRotatePivotZ
p642
assg366
(dp643
g3
I00
sg4
VdoubleLinear
p644
sg6
I00
sg7
I00
sg8
I01
sg9
(lp645
ssg367
(dp646
g3
I00
sg4
VdoubleLinear
p647
sg6
I00
sg7
I00
sg8
I01
sg9
(lp648
ssVrenderInfo.layerRenderable
p649
(dp650
g35
VrenderInfo
p651
sg3
I00
sg4
Vbool
p652
sg6
I00
sg7
I00
sg8
I01
sg9
(lp653
ssg453
(dp654
g3
I00
sg4
VdoubleLinear
p655
sg6
I00
sg7
I00
sg8
I01
sg9
(lp656
ssVghostRangeStart
p657
(dp658
g3
I00
sg4
Vtime
p659
sg6
I00
sg7
I00
sg8
I01
sg9
(lp660
ssVpublishedNodeInfo[0].publishedNodeType
p661
(dp662
g3
I00
sg9
(lp663
ssVisHierarchicalConnection
p664
(dp665
g3
I01
sg6
I01
sg8
I00
sg4
VTdataCompound
p666
ssVinstObjGroups.objectGroups.objectGrpColor
p667
(dp668
g35
VinstObjGroups.objectGroups
p669
ssVmentalRayControls.miTrace
p670
(dp671
g3
I00
sg4
Venum
p672
sg6
I00
sg7
I00
sg8
I01
sg9
(lp673
ssVtarget[0].targetRotatePivot
p674
(dp675
g3
I00
sg4
Vdouble3
p676
sg6
I00
sg7
I01
sg8
I01
sg9
(lp677
Vtarget[0].targetRotatePivot.targetRotatePivotX
p678
aVtarget[0].targetRotatePivot.targetRotatePivotY
p679
aVtarget[0].targetRotatePivot.targetRotatePivotZ
p680
assVparentMatrix[0]
p681
(dp682
g3
I00
sg504
I00
sg505
Vmatrix
p683
sg507
I00
sg9
(lp684
ssVinstObjGroups
p685
(dp686
g3
I01
sg6
I01
sg8
I00
sg4
VTdataCompound
p687
ssg561
(dp688
g3
I00
sg4
VdoubleLinear
p689
sg6
I00
sg7
I00
sg8
I01
sg9
(lp690
ssVdisplayHandle
p691
(dp692
g3
I00
sg4
Vbool
p693
sg6
I00
sg7
I00
sg8
I01
sg9
(lp694
ssVselectionChildHighlighting
p695
(dp696
g3
I00
sg4
Vbool
p697
sg6
I00
sg7
I00
sg8
I01
sg9
(lp698
ssVmaxTransLimitEnable
p699
(dp700
g3
I00
sg6
I00
sg9
(lp701
VmaxTransLimitEnable.maxTransXLimitEnable
p702
ag369
ag208
asg8
I00
sg4
VTdataCompound
p703
ssVminRotLimitEnable.minRotXLimitEnable
p704
(dp705
g3
I00
sg4
Vbool
p706
sg6
I00
sg7
I00
sg8
I01
sg9
(lp707
ssVoffset
p708
(dp709
g3
I00
sg4
Vdouble3
p710
sg6
I00
sg7
I01
sg8
I01
sg9
(lp711
g441
ag445
ag433
assVdrawOverride.overrideTexturing
p712
(dp713
g3
I00
sg4
Vbool
p714
sg6
I00
sg7
I00
sg8
I01
sg9
(lp715
ssVrenderLayerInfo
p716
(dp717
g3
I01
sg6
I01
sg8
I00
sg4
VTdataCompound
p718
ssVworldMatrix[0]
p719
(dp720
g3
I00
sg504
I00
sg505
Vmatrix
p721
sg507
I00
sg9
(lp722
ssVdrawOverride.overrideVisibility
p723
(dp724
g3
I00
sg4
Vbool
p725
sg6
I00
sg7
I00
sg8
I01
sg9
(lp726
ssVmaxScaleLimit
p727
(dp728
g3
I00
sg4
Vdouble3
p729
sg6
I00
sg7
I01
sg8
I01
sg9
(lp730
VmaxScaleLimit.maxScaleXLimit
p731
ag384
aVmaxScaleLimit.maxScaleZLimit
p732
assVrotateAxis
p733
(dp734
g3
I00
sg4
Vdouble3
p735
sg6
I00
sg7
I01
sg8
I01
sg9
(lp736
g335
ag339
ag343
assg164
(dp737
g3
I00
sg4
Vdouble
p738
sg6
I00
sg7
I00
sg8
I01
sg9
(lp739
ssVtarget[2]
p740
(dp741
g3
I00
sg9
(lp742
Vtarget[2].targetTranslate
p743
ag569
aVtarget[2].targetRotateTranslate
p744
ag625
aVtarget[2].targetWeight
p745
assg744
(dp746
g3
I00
sg9
(lp747
Vtarget[2].targetRotateTranslate.targetRotateTranslateX
p748
aVtarget[2].targetRotateTranslate.targetRotateTranslateY
p749
aVtarget[2].targetRotateTranslate.targetRotateTranslateZ
p750
assg554
(dp751
g3
I00
sg9
(lp752
ssg122
(dp753
g3
I00
sg4
VdoubleLinear
p754
sg6
I00
sg7
I00
sg8
I01
sg9
(lp755
ssg123
(dp756
g3
I00
sg4
VdoubleLinear
p757
sg6
I00
sg7
I00
sg8
I01
sg9
(lp758
ssVisHistoricallyInteresting
p759
(dp760
g3
I00
sg6
I00
sg9
(lp761
sg8
I00
sg4
Vbyte
p762
ssVrotationInterpolation
p763
(dp764
g3
I00
sg4
Venum
p765
sg6
I00
sg7
I00
sg8
I01
sg9
(lp766
ssVminScaleLimit.minScaleYLimit
p767
(dp768
g3
I00
sg4
Vdouble
p769
sg6
I00
sg7
I00
sg8
I01
sg9
(lp770
ssg263
(dp771
g3
I00
sg4
VdoubleAngle
p772
sg6
I00
sg7
I00
sg8
I01
sg9
(lp773
ssVmaxRotLimit
p774
(dp775
g3
I00
sg4
Vdouble3
p776
sg6
I00
sg7
I01
sg8
I01
sg9
(lp777
VmaxRotLimit.maxRotXLimit
p778
ag114
ag581
assVtarget[0]
p779
(dp780
g3
I00
sg6
I00
sg9
(lp781
Vtarget[0].targetTranslate
p782
ag674
ag585
aVtarget[0].targetParentMatrix
p783
aVtarget[0].targetWeight
p784
asg8
I00
sg4
VTdataCompound
p785
ssg749
(dp786
g3
I00
sg9
(lp787
ssg748
(dp788
g3
I00
sg9
(lp789
ssg750
(dp790
g3
I00
sg9
(lp791
ssVinstObjGroups[2].objectGroups
p792
(dp793
g102
I01
ssVtarget.targetTranslateY
p794
(dp795
g35
Vtarget.targetTranslate
p796
ssVtarget.targetTranslateX
p797
(dp798
g35
Vtarget.targetTranslate
p799
ssVxformMatrix
p800
(dp801
g3
I00
sg6
I00
sg9
(lp802
sg8
I00
sg4
Vmatrix
p803
ssVtarget.targetTranslateZ
p804
(dp805
g35
Vtarget.targetTranslate
p806
ssVinstObjGroups[1]
p807
(dp808
g3
I00
sg9
(lp809
g420
assVghostColorPreA
p810
(dp811
g3
I00
sg4
Vfloat
p812
sg6
I00
sg7
I00
sg8
I01
sg9
(lp813
ssVtranslate
p814
(dp815
g3
I00
sg4
Vdouble3
p816
sg6
I00
sg7
I01
sg8
I01
sg9
(lp817
g15
ag77
ag11
assg591
(dp818
g3
I00
sg4
VdoubleLinear
p819
sg6
I00
sg7
I00
sg8
I01
sg9
(lp820
ssg590
(dp821
g3
I00
sg4
VdoubleLinear
p822
sg6
I00
sg7
I00
sg8
I01
sg9
(lp823
ssg589
(dp824
g3
I00
sg4
VdoubleLinear
p825
sg6
I00
sg7
I00
sg8
I01
sg9
(lp826
ssVinstObjGroups.objectGroups
p827
(dp828
g35
VinstObjGroups
p829
ssVdrawOverride
p830
(dp831
g3
I00
sg6
I00
sg9
(lp832
VdrawOverride.overrideDisplayType
p833
ag52
aVdrawOverride.overrideShading
p834
ag712
aVdrawOverride.overridePlayback
p835
ag297
ag723
ag19
asg8
I00
sg4
VTdataCompound
p836
ssVinstObjGroups[0].objectGroups
p837
(dp838
g3
I01
sg504
I01
sg507
I00
sg505
VTdataCompound
p839
ssg163
(dp840
g3
I00
sg4
Vdouble
p841
sg6
I00
sg7
I00
sg8
I01
sg9
(lp842
ssg162
(dp843
g3
I00
sg4
Vdouble
p844
sg6
I00
sg7
I00
sg8
I01
sg9
(lp845
ssVparentMatrix[1]
p846
(dp847
g3
I00
sg9
(lp848
ssVpublishedNodeInfo[0]
p849
(dp850
g3
I00
sg9
(lp851
g395
aVpublishedNodeInfo[0].isHierarchicalNode
p852
ag661
assVtarget[0].targetTranslate.targetTranslateY
p853
(dp854
g3
I00
sg4
VdoubleLinear
p855
sg6
I00
sg7
I00
sg8
I01
sg9
(lp856
ssVtarget.targetRotatePivotX
p857
(dp858
g35
Vtarget.targetRotatePivot
p859
ssg679
(dp860
g3
I00
sg4
VdoubleLinear
p861
sg6
I00
sg7
I00
sg8
I01
sg9
(lp862
ssVtarget.targetRotatePivotZ
p863
(dp864
g35
Vtarget.targetRotatePivot
p865
ssVenableRestPosition
p866
(dp867
g3
I00
sg4
Vbool
p868
sg6
I00
sg7
I00
sg8
I01
sg9
(lp869
ssVmaxRotLimitEnable
p870
(dp871
g3
I00
sg6
I00
sg9
(lp872
g212
aVmaxRotLimitEnable.maxRotYLimitEnable
p873
ag464
asg8
I00
sg4
VTdataCompound
p874
ssg783
(dp875
g3
I00
sg6
I00
sg9
(lp876
sg8
I00
sg4
Vmatrix
p877
ssVisCollapsed
p878
(dp879
g3
I00
sg4
Vbool
p880
sg6
I00
sg7
I00
sg8
I01
sg9
(lp881
ssVghostRangeEnd
p882
(dp883
g3
I00
sg4
Vtime
p884
sg6
I00
sg7
I00
sg8
I01
sg9
(lp885
ssg70
(dp886
g3
I00
sg4
Vlong
p887
sg6
I00
sg7
I00
sg8
I01
sg9
(lp888
ssg778
(dp889
g3
I00
sg4
VdoubleAngle
p890
sg6
I00
sg7
I00
sg8
I01
sg9
(lp891
ssg782
(dp892
g3
I00
sg4
Vdouble3
p893
sg6
I00
sg7
I01
sg8
I01
sg9
(lp894
Vtarget[0].targetTranslate.targetTranslateX
p895
ag853
ag478
assg732
(dp896
g3
I00
sg4
Vdouble
p897
sg6
I00
sg7
I00
sg8
I01
sg9
(lp898
ssVghostColorPre
p899
(dp900
g3
I00
sg6
I00
sg9
(lp901
g327
ag373
ag388
asg8
I00
sg4
Vfloat3
p902
ssVobjectColorRGB.objectColorG
p903
(dp904
g35
VobjectColorRGB
p905
sg3
I00
sg4
Vfloat
p906
sg6
I00
sg7
I00
sg8
I01
sg9
(lp907
ssg248
(dp908
g3
I00
sg4
VdoubleLinear
p909
sg6
I00
sg7
I00
sg8
I01
sg9
(lp910
ssg264
(dp911
g3
I00
sg4
VdoubleAngle
p912
sg6
I00
sg7
I00
sg8
I01
sg9
(lp913
ssVobjectColorRGB.objectColorB
p914
(dp915
g35
VobjectColorRGB
p916
sg3
I00
sg4
Vfloat
p917
sg6
I00
sg7
I00
sg8
I01
sg9
(lp918
ssVtarget
p919
(dp920
g3
I01
sg6
I01
sg8
I00
sg4
VTdataCompound
p921
ssVtarget[1].targetRotatePivot
p922
(dp923
g3
I00
sg9
(lp924
Vtarget[1].targetRotatePivot.targetRotatePivotX
p925
aVtarget[1].targetRotatePivot.targetRotatePivotY
p926
aVtarget[1].targetRotatePivot.targetRotatePivotZ
p927
assg642
(dp928
g3
I00
sg4
VdoubleLinear
p929
sg6
I00
sg7
I00
sg8
I01
sg9
(lp930
ssg641
(dp931
g3
I00
sg4
VdoubleLinear
p932
sg6
I00
sg7
I00
sg8
I01
sg9
(lp933
ssVrenderInfo.layerOverrideColor
p934
(dp935
g35
VrenderInfo
p936
sg3
I00
sg4
Vbyte
p937
sg6
I00
sg8
I00
sg9
(lp938
ssg784
(dp939
g3
I00
sg4
Vdouble
p940
sg6
I00
sg7
I00
sg8
I01
sg9
(lp941
ssVrenderLayerInfo[0]
p942
(dp943
g3
I00
sg9
(lp944
g199
ag151
aVrenderLayerInfo[0].renderLayerColor
p945
assVtarget[1]
p946
(dp947
g3
I00
sg9
(lp948
g539
ag922
ag356
ag30
ag111
assg927
(dp949
g3
I00
sg9
(lp950
ssg925
(dp951
g3
I00
sg9
(lp952
ssVdisplayRotatePivot
p953
(dp954
g3
I00
sg4
Vbool
p955
sg6
I00
sg7
I00
sg8
I01
sg9
(lp956
ssVminScaleLimitEnable.minScaleZLimitEnable
p957
(dp958
g3
I00
sg4
Vbool
p959
sg6
I00
sg7
I00
sg8
I01
sg9
(lp960
ssg572
(dp961
g3
I00
sg9
(lp962
ssg702
(dp963
g3
I00
sg4
Vbool
p964
sg6
I00
sg7
I00
sg8
I01
sg9
(lp965
ssVmaxScaleLimitEnable
p966
(dp967
g3
I00
sg6
I00
sg9
(lp968
g482
ag293
aVmaxScaleLimitEnable.maxScaleZLimitEnable
p969
asg8
I00
sg4
VTdataCompound
p970
ssg731
(dp971
g3
I00
sg4
Vdouble
p972
sg6
I00
sg7
I00
sg8
I01
sg9
(lp973
ssVmentalRayControls.miGeoShader
p974
(dp975
g3
I00
sg6
I00
sg9
(lp976
sg8
I00
sg4
NssVboundingBox.boundingBoxMax.boundingBoxMaxX
p977
(dp978
g35
VboundingBox.boundingBoxMax
p979
ssg969
(dp980
g3
I00
sg4
Vbool
p981
sg6
I00
sg7
I00
sg8
I01
sg9
(lp982
ssVboundingBox.boundingBoxMin
p983
(dp984
g35
VboundingBox
p985
ssg186
(dp986
g3
I00
sg4
VdoubleLinear
p987
sg6
I00
sg7
I00
sg8
I01
sg9
(lp988
ssVscalePivot
p989
(dp990
g3
I00
sg4
Vdouble3
p991
sg6
I00
sg7
I01
sg8
I01
sg9
(lp992
g509
ag513
ag517
assVspecifiedManipLocation
p993
(dp994
g3
I00
sg6
I00
sg9
(lp995
sg8
I00
sg4
Nssg361
(dp996
g3
I00
sg9
(lp997
ssg359
(dp998
g3
I00
sg9
(lp999
ssg360
(dp1000
g3
I00
sg9
(lp1001
ssVmentalRayControls
p1002
(dp1003
g3
I00
sg6
I00
sg9
(lp1004
VmentalRayControls.miDeriveFromMaya
p1005
ag599
ag44
ag670
aVmentalRayControls.miShadow
p1006
ag171
aVmentalRayControls.miGlobillum
p1007
aVmentalRayControls.miExportGeoShader
p1008
ag974
ag89
asg8
I00
sg4
VTdataCompound
p1009
ssVrenderInfo
p1010
(dp1011
g3
I00
sg6
I00
sg9
(lp1012
VrenderInfo.identification
p1013
aVrenderInfo.layerRenderable
p1014
aVrenderInfo.layerOverrideColor
p1015
asg8
I00
sg4
VTdataCompound
p1016
ssVworldInverseMatrix[0]
p1017
(dp1018
g3
I00
sg504
I00
sg505
Vmatrix
p1019
sg507
I00
sg9
(lp1020
ssVinstObjGroups[2]
p1021
(dp1022
g102
I00
sg103
(lp1023
g792
assVboundingBox.boundingBoxMax.boundingBoxMaxY
p1024
(dp1025
g35
VboundingBox.boundingBoxMax
p1026
ssg895
(dp1027
g3
I00
sg4
VdoubleLinear
p1028
sg6
I00
sg7
I00
sg8
I01
sg9
(lp1029
ssg852
(dp1030
g3
I00
sg9
(lp1031
ssVboundingBox.boundingBoxMax.boundingBoxMaxZ
p1032
(dp1033
g35
VboundingBox.boundingBoxMax
p1034
ssg873
(dp1035
g3
I00
sg4
Vbool
p1036
sg6
I00
sg7
I00
sg8
I01
sg9
(lp1037
ssVminScaleLimit
p1038
(dp1039
g3
I00
sg4
Vdouble3
p1040
sg6
I00
sg7
I01
sg8
I01
sg9
(lp1041
g224
ag767
ag498
assVminScaleLimitEnable.minScaleXLimitEnable
p1042
(dp1043
g3
I00
sg4
Vbool
p1044
sg6
I00
sg7
I00
sg8
I01
sg9
(lp1045
ssVtemplate
p1046
(dp1047
g3
I00
sg4
Vbool
p1048
sg6
I00
sg7
I00
sg8
I01
sg9
(lp1049
ssVboundingBox.boundingBoxSize.boundingBoxSizeY
p1050
(dp1051
g35
VboundingBox.boundingBoxSize
p1052
ssVboundingBox.boundingBoxSize.boundingBoxSizeX
p1053
(dp1054
g35
VboundingBox.boundingBoxSize
p1055
ssg1008
(dp1056
g3
I00
sg4
Vbool
p1057
sg6
I00
sg7
I00
sg8
I01
sg9
(lp1058
ssVboundingBox.boundingBoxSize.boundingBoxSizeZ
p1059
(dp1060
g35
VboundingBox.boundingBoxSize
p1061
ssVblackBox
p1062
(dp1063
g3
I00
sg4
Vbool
p1064
sg6
I00
sg7
I00
sg8
I01
sg9
(lp1065
ssVworldInverseMatrix[2]
p1066
(dp1067
g102
I00
sg103
(lp1068
ssVtemplateName
p1069
(dp1070
g3
I00
sg4
Vstring
p1071
sg6
I00
sg7
I00
sg8
I01
sg9
(lp1072
ssVghostingControl
p1073
(dp1074
g3
I00
sg4
Venum
p1075
sg6
I00
sg7
I00
sg8
I01
sg9
(lp1076
ssg62
(dp1077
g3
I00
sg4
Vfloat
p1078
sg6
I00
sg7
I00
sg8
I01
sg9
(lp1079
ssg64
(dp1080
g3
I00
sg4
Vfloat
p1081
sg6
I00
sg7
I00
sg8
I01
sg9
(lp1082
ssVparentInverseMatrix[2]
p1083
(dp1084
g102
I00
sg103
(lp1085
ssg945
(dp1086
g3
I00
sg9
(lp1087
ssVshowManipDefault
p1088
(dp1089
g3
I00
sg4
Venum
p1090
sg6
I00
sg7
I00
sg8
I01
sg9
(lp1091
ssVrenderLayerInfo[1].renderLayerId
p1092
(dp1093
g3
I00
sg9
(lp1094
ssg544
(dp1095
g3
I00
sg9
(lp1096
ssVminScaleLimitEnable
p1097
(dp1098
g3
I00
sg6
I00
sg9
(lp1099
g1042
ag468
ag957
asg8
I00
sg4
VTdataCompound
p1100
ssg1005
(dp1101
g3
I00
sg4
Vbool
p1102
sg6
I00
sg7
I00
sg8
I01
sg9
(lp1103
ssg543
(dp1104
g3
I00
sg9
(lp1105
ssg560
(dp1106
g3
I00
sg4
VdoubleLinear
p1107
sg6
I00
sg7
I00
sg8
I01
sg9
(lp1108
ssg833
(dp1109
g3
I00
sg4
Venum
p1110
sg6
I00
sg7
I00
sg8
I01
sg9
(lp1111
ssg428
(dp1112
g3
I00
sg4
Vdouble
p1113
sg6
I00
sg7
I00
sg8
I01
sg9
(lp1114
ssg745
(dp1115
g3
I00
sg9
(lp1116
ssVnodeState
p1117
(dp1118
g3
I00
sg4
Venum
p1119
sg6
I00
sg7
I00
sg8
I01
sg9
(lp1120
ssVpublishedNodeInfo.isHierarchicalNode
p1121
(dp1122
g35
VpublishedNodeInfo
p1123
ssVrenderLayerInfo.renderLayerColor
p1124
(dp1125
g35
VrenderLayerInfo
p1126
ssg743
(dp1127
g3
I00
sg9
(lp1128
g276
ag273
ag472
assg576
(dp1129
g3
I00
sg9
(lp1130
ssVconstraintRotateTranslate
p1131
(dp1132
g3
I00
sg4
Vdouble3
p1133
sg6
I00
sg7
I01
sg8
I01
sg9
(lp1134
g319
ag323
ag315
assVrenderLayerInfo[1]
p1135
(dp1136
g3
I00
sg9
(lp1137
g1092
aVrenderLayerInfo[1].renderLayerRenderable
p1138
ag125
assVtarget.targetRotatePivotY
p1139
(dp1140
g35
Vtarget.targetRotatePivot
p1141
ssg71
(dp1142
g3
I00
sg4
Vlong
p1143
sg6
I00
sg7
I00
sg8
I01
sg9
(lp1144
ssg835
(dp1145
g3
I00
sg4
Vbool
p1146
sg6
I00
sg7
I00
sg8
I01
sg9
(lp1147
ssVminRotLimitEnable
p1148
(dp1149
g3
I00
sg6
I00
sg9
(lp1150
g704
ag178
ag96
asg8
I00
sg4
VTdataCompound
p1151
ssVvisibility
p1152
(dp1153
g3
I00
sg4
Vbool
p1154
sg6
I00
sg7
I00
sg8
I01
sg9
(lp1155
ssg124
(dp1156
g3
I00
sg4
VdoubleLinear
p1157
sg6
I00
sg7
I00
sg8
I01
sg9
(lp1158
ssg926
(dp1159
g3
I00
sg9
(lp1160
ssVinstObjGroups[0]
p1161
(dp1162
g3
I00
sg504
I00
sg505
VTdataCompound
p1163
sg507
I00
sg9
(lp1164
g837
assVworldInverseMatrix
p1165
(dp1166
g3
I01
sg6
I01
sg8
I00
sg4
Vmatrix
p1167
ssVworldMatrix[1]
p1168
(dp1169
g3
I00
sg9
(lp1170
ssg354
(dp1171
g3
I00
sg9
(lp1172
ssg382
(dp1173
g3
I00
sg4
VdoubleLinear
p1174
sg6
I00
sg7
I00
sg8
I01
sg9
(lp1175
ssg383
(dp1176
g3
I00
sg4
VdoubleLinear
p1177
sg6
I00
sg7
I00
sg8
I01
sg9
(lp1178
ssg680
(dp1179
g3
I00
sg4
VdoubleLinear
p1180
sg6
I00
sg7
I00
sg8
I01
sg9
(lp1181
ssg381
(dp1182
g3
I00
sg4
VdoubleLinear
p1183
sg6
I00
sg7
I00
sg8
I01
sg9
(lp1184
ssg678
(dp1185
g3
I00
sg4
VdoubleLinear
p1186
sg6
I00
sg7
I00
sg8
I01
sg9
(lp1187
ssVuiTreatment
p1188
(dp1189
g3
I00
sg4
Venum
p1190
sg6
I00
sg7
I00
sg8
I01
sg9
(lp1191
ssg834
(dp1192
g3
I00
sg4
Vbool
p1193
sg6
I00
sg7
I00
sg8
I01
sg9
(lp1194
ssg63
(dp1195
g3
I00
sg4
Vfloat
p1196
sg6
I00
sg7
I00
sg8
I01
sg9
(lp1197
ssVghosting
p1198
(dp1199
g3
I00
sg4
Vbool
p1200
sg6
I00
sg7
I00
sg8
I01
sg9
(lp1201
ssVghostFrames
p1202
(dp1203
g3
I00
sg6
I00
sg9
(lp1204
sg8
I00
sg4
Nssg542
(dp1205
g3
I00
sg9
(lp1206
ssg1006
(dp1207
g3
I00
sg4
Venum
p1208
sg6
I00
sg7
I00
sg8
I01
sg9
(lp1209
ssg43
(dp1210
g3
I00
sg4
VdoubleLinear
p1211
sg6
I00
sg7
I00
sg8
I01
sg9
(lp1212
ssg41
(dp1213
g3
I00
sg4
VdoubleLinear
p1214
sg6
I00
sg7
I00
sg8
I01
sg9
(lp1215
ssg42
(dp1216
g3
I00
sg4
VdoubleLinear
p1217
sg6
I00
sg7
I00
sg8
I01
sg9
(lp1218
ssVminTransLimitEnable
p1219
(dp1220
g3
I00
sg6
I00
sg9
(lp1221
g577
ag73
ag216
asg8
I00
sg4
VTdataCompound
p1222
ssVviewMode
p1223
(dp1224
g3
I00
sg4
Venum
p1225
sg6
I00
sg7
I00
sg8
I01
sg9
(lp1226
ssVrotatePivotTranslate
p1227
(dp1228
g3
I00
sg4
Vdouble3
p1229
sg6
I00
sg7
I01
sg8
I01
sg9
(lp1230
g231
ag235
ag527
assg255
(dp1231
g3
I00
sg4
VdoubleAngle
p1232
sg6
I00
sg7
I00
sg8
I01
sg9
(lp1233
ssg355
(dp1234
g3
I00
sg9
(lp1235
ssg253
(dp1236
g3
I00
sg4
VdoubleAngle
p1237
sg6
I00
sg7
I00
sg8
I01
sg9
(lp1238
ssg254
(dp1239
g3
I00
sg4
VdoubleAngle
p1240
sg6
I00
sg7
I00
sg8
I01
sg9
(lp1241
ssVcaching
p1242
(dp1243
g3
I00
sg4
Vbool
p1244
sg6
I00
sg7
I00
sg8
I01
sg9
(lp1245
ssVinverseMatrix
p1246
(dp1247
g3
I00
sg6
I00
sg9
(lp1248
sg8
I00
sg4
Vmatrix
p1249
ssg1007
(dp1250
g3
I00
sg4
Venum
p1251
sg6
I00
sg7
I00
sg8
I01
sg9
(lp1252
ssVcenter.boundingBoxCenterZ
p1253
(dp1254
g35
Vcenter
p1255
ssg1138
(dp1256
g3
I00
sg9
(lp1257
ssVcenter.boundingBoxCenterX
p1258
(dp1259
g35
Vcenter
p1260
ssVworldInverseMatrix[1]
p1261
(dp1262
g3
I00
sg9
(lp1263
ss.