(dp0
VisHistoricallyInteresting
p1
(dp2
S'isArray'
p3
I00
sS'isMulti'
p4
I00
sS'attrType'
p5
Vbyte
p6
sS'isSimple'
p7
I00
sS'attrChildrenLongNames'
p8
(lp9
ssVnodeState
p10
(dp11
g3
I00
sg5
Venum
p12
sg4
I00
sS'isCompound'
p13
I00
sg7
I01
sg8
(lp14
ssVinputQuat.inputQuatW
p15
(dp16
g3
I00
sg5
Vdouble
p17
sg4
I00
sg13
I00
sg7
I01
sg8
(lp18
ssVinputRotateOrder
p19
(dp20
g3
I00
sg5
Venum
p21
sg4
I00
sg13
I00
sg7
I01
sg8
(lp22
ssVinputQuat.inputQuatZ
p23
(dp24
g3
I00
sg5
Vdouble
p25
sg4
I00
sg13
I00
sg7
I01
sg8
(lp26
ssVinputQuat.inputQuatX
p27
(dp28
g3
I00
sg5
Vdouble
p29
sg4
I00
sg13
I00
sg7
I01
sg8
(lp30
ssVinputQuat.inputQuatY
p31
(dp32
g3
I00
sg5
Vdouble
p33
sg4
I00
sg13
I00
sg7
I01
sg8
(lp34
ssVinputQuat
p35
(dp36
g3
I00
sg4
I00
sg5
VTdataCompound
p37
sg7
I00
sg8
(lp38
g27
ag31
ag23
ag15
assVbinMembership
p39
(dp40
g3
I00
sg5
Vstring
p41
sg4
I00
sg13
I00
sg7
I01
sg8
(lp42
ssVcaching
p43
(dp44
g3
I00
sg5
Vbool
p45
sg4
I00
sg13
I00
sg7
I01
sg8
(lp46
ssVoutputRotate
p47
(dp48
g3
I00
sg5
Vdouble3
p49
sg4
I00
sg13
I01
sg7
I01
sg8
(lp50
VoutputRotate.outputRotateX
p51
aVoutputRotate.outputRotateY
p52
aVoutputRotate.outputRotateZ
p53
assg51
(dp54
g3
I00
sg5
VdoubleAngle
p55
sg4
I00
sg13
I00
sg7
I01
sg8
(lp56
ssg52
(dp57
g3
I00
sg5
VdoubleAngle
p58
sg4
I00
sg13
I00
sg7
I01
sg8
(lp59
ssg53
(dp60
g3
I00
sg5
VdoubleAngle
p61
sg4
I00
sg13
I00
sg7
I01
sg8
(lp62
ss.