(dp0
VisHistoricallyInteresting
p1
(dp2
S'isArray'
p3
I00
sS'isMulti'
p4
I00
sS'attrType'
p5
Vbyte
p6
sS'isSimple'
p7
I00
sS'attrChildrenLongNames'
p8
(lp9
ssVoutputQuat.outputQuatX
p10
(dp11
g3
I00
sg5
Vdouble
p12
sg4
I00
sS'isCompound'
p13
I00
sg7
I01
sg8
(lp14
ssVnodeState
p15
(dp16
g3
I00
sg5
Venum
p17
sg4
I00
sg13
I00
sg7
I01
sg8
(lp18
ssVinputQuat.inputQuatW
p19
(dp20
g3
I00
sg5
Vdouble
p21
sg4
I00
sg13
I00
sg7
I01
sg8
(lp22
ssVoutputQuat.outputQuatY
p23
(dp24
g3
I00
sg5
Vdouble
p25
sg4
I00
sg13
I00
sg7
I01
sg8
(lp26
ssVinputQuat.inputQuatZ
p27
(dp28
g3
I00
sg5
Vdouble
p29
sg4
I00
sg13
I00
sg7
I01
sg8
(lp30
ssVinputQuat.inputQuatX
p31
(dp32
g3
I00
sg5
Vdouble
p33
sg4
I00
sg13
I00
sg7
I01
sg8
(lp34
ssVinputQuat.inputQuatY
p35
(dp36
g3
I00
sg5
Vdouble
p37
sg4
I00
sg13
I00
sg7
I01
sg8
(lp38
ssVoutputQuat.outputQuatZ
p39
(dp40
g3
I00
sg5
Vdouble
p41
sg4
I00
sg13
I00
sg7
I01
sg8
(lp42
ssVoutputQuat.outputQuatW
p43
(dp44
g3
I00
sg5
Vdouble
p45
sg4
I00
sg13
I00
sg7
I01
sg8
(lp46
ssVinputQuat
p47
(dp48
g3
I00
sg4
I00
sg5
VTdataCompound
p49
sg7
I00
sg8
(lp50
g31
ag35
ag27
ag19
assVoutputQuat
p51
(dp52
g3
I00
sg4
I00
sg5
VTdataCompound
p53
sg7
I00
sg8
(lp54
g10
ag23
ag39
ag43
assVbinMembership
p55
(dp56
g3
I00
sg5
Vstring
p57
sg4
I00
sg13
I00
sg7
I01
sg8
(lp58
ssVcaching
p59
(dp60
g3
I00
sg5
Vbool
p61
sg4
I00
sg13
I00
sg7
I01
sg8
(lp62
ss.