(dp0
VisHistoricallyInteresting
p1
(dp2
S'isArray'
p3
I00
sS'isMulti'
p4
I00
sS'attrType'
p5
Vbyte
p6
sS'isSimple'
p7
I00
sS'attrChildrenLongNames'
p8
(lp9
ssVinput2Quat
p10
(dp11
g3
I00
sg4
I00
sg5
VTdataCompound
p12
sg7
I00
sg8
(lp13
Vinput2Quat.input2QuatX
p14
aVinput2Quat.input2QuatY
p15
aVinput2Quat.input2QuatZ
p16
aVinput2Quat.input2QuatW
p17
assVnodeState
p18
(dp19
g3
I00
sg5
Venum
p20
sg4
I00
sS'isCompound'
p21
I00
sg7
I01
sg8
(lp22
ssg17
(dp23
g3
I00
sg5
Vdouble
p24
sg4
I00
sg21
I00
sg7
I01
sg8
(lp25
ssVoutputQuat.outputQuatY
p26
(dp27
g3
I00
sg5
Vdouble
p28
sg4
I00
sg21
I00
sg7
I01
sg8
(lp29
ssg16
(dp30
g3
I00
sg5
Vdouble
p31
sg4
I00
sg21
I00
sg7
I01
sg8
(lp32
ssg14
(dp33
g3
I00
sg5
Vdouble
p34
sg4
I00
sg21
I00
sg7
I01
sg8
(lp35
ssg15
(dp36
g3
I00
sg5
Vdouble
p37
sg4
I00
sg21
I00
sg7
I01
sg8
(lp38
ssVoutputQuat.outputQuatZ
p39
(dp40
g3
I00
sg5
Vdouble
p41
sg4
I00
sg21
I00
sg7
I01
sg8
(lp42
ssVoutputQuat.outputQuatW
p43
(dp44
g3
I00
sg5
Vdouble
p45
sg4
I00
sg21
I00
sg7
I01
sg8
(lp46
ssVinput1Quat.input1QuatX
p47
(dp48
g3
I00
sg5
Vdouble
p49
sg4
I00
sg21
I00
sg7
I01
sg8
(lp50
ssVbinMembership
p51
(dp52
g3
I00
sg5
Vstring
p53
sg4
I00
sg21
I00
sg7
I01
sg8
(lp54
ssVoutputQuat
p55
(dp56
g3
I00
sg4
I00
sg5
VTdataCompound
p57
sg7
I00
sg8
(lp58
VoutputQuat.outputQuatX
p59
ag26
ag39
ag43
assVinput1Quat.input1QuatW
p60
(dp61
g3
I00
sg5
Vdouble
p62
sg4
I00
sg21
I00
sg7
I01
sg8
(lp63
ssVcaching
p64
(dp65
g3
I00
sg5
Vbool
p66
sg4
I00
sg21
I00
sg7
I01
sg8
(lp67
ssVinput1Quat.input1QuatY
p68
(dp69
g3
I00
sg5
Vdouble
p70
sg4
I00
sg21
I00
sg7
I01
sg8
(lp71
ssVinput1Quat
p72
(dp73
g3
I00
sg4
I00
sg5
VTdataCompound
p74
sg7
I00
sg8
(lp75
g47
ag68
aVinput1Quat.input1QuatZ
p76
ag60
assg59
(dp77
g3
I00
sg5
Vdouble
p78
sg4
I00
sg21
I00
sg7
I01
sg8
(lp79
ssg76
(dp80
g3
I00
sg5
Vdouble
p81
sg4
I00
sg21
I00
sg7
I01
sg8
(lp82
ss.