(dp0
Vcolor[3]
p1
(dp2
S'isArray'
p3
I00
sS'attrChildrenLongNames'
p4
(lp5
Vcolor[3].color_Position
p6
aVcolor[3].color_Color
p7
aVcolor[3].color_Interp
p8
assVoutColor.outColorR
p9
(dp10
S'isArray'
p11
I00
sS'attrParentLongName'
p12
VoutColor
p13
sS'attrChildrenNames'
p14
(lp15
sS'attrType'
p16
Vfloat
p17
sS'isMulti'
p18
I00
sS'isCompound'
p19
I00
sS'isSimple'
p20
I01
sg4
(lp21
sS'isElement'
p22
I00
ssVvalue[3].value_Interp
p23
(dp24
g3
I00
sg4
(lp25
ssVvalue[0]
p26
(dp27
g3
I00
sS'isMulti'
p28
I00
sg16
VTdataCompound
p29
sg20
I00
sg4
(lp30
Vvalue[0].value_Position
p31
aVvalue[0].value_FloatValue
p32
aVvalue[0].value_Interp
p33
assVcolor
p34
(dp35
S'isArray'
p36
I01
sS'isElement'
p37
I00
sg16
VTdataCompound
p38
sg20
I00
sS'isMulti'
p39
I01
ssVcolor[1].color_Color
p40
(dp41
g3
I00
sg28
I00
sg16
Vfloat3
p42
sg20
I00
sg4
(lp43
Vcolor[1].color_Color.color_ColorR
p44
aVcolor[1].color_Color.color_ColorG
p45
aVcolor[1].color_Color.color_ColorB
p46
assVoutputMin
p47
(dp48
S'isArray'
p49
I00
sg16
Vfloat
p50
sS'attrChildrenNames'
p51
(lp52
sS'isMulti'
p53
I00
sS'isCompound'
p54
I00
sg20
I01
sg4
(lp55
sS'isElement'
p56
I00
ssg46
(dp57
g3
I00
sg16
Vfloat
p58
sg28
I00
sS'isCompound'
p59
I00
sg20
I01
sg4
(lp60
ssVoutColor.outColorG
p61
(dp62
S'isArray'
p63
I00
sS'attrParentLongName'
p64
VoutColor
p65
sS'attrChildrenNames'
p66
(lp67
sg16
Vfloat
p68
sS'isMulti'
p69
I00
sS'isCompound'
p70
I00
sg20
I01
sg4
(lp71
sS'isElement'
p72
I00
ssVoutColor.outColorB
p73
(dp74
S'isArray'
p75
I00
sS'attrParentLongName'
p76
VoutColor
p77
sS'attrChildrenNames'
p78
(lp79
sg16
Vfloat
p80
sS'isMulti'
p81
I00
sS'isCompound'
p82
I00
sg20
I01
sg4
(lp83
sS'isElement'
p84
I00
ssVcolor[0].color_Interp
p85
(dp86
S'isArray'
p87
I00
sS'attrParentLongName'
p88
Vcolor[0]
p89
sS'attrChildrenNames'
p90
(lp91
sg16
Venum
p92
sS'isMulti'
p93
I00
sS'isCompound'
p94
I00
sg20
I01
sg4
(lp95
sS'isElement'
p96
I00
ssVoutValue
p97
(dp98
S'isArray'
p99
I00
sg16
Vfloat
p100
sS'attrChildrenNames'
p101
(lp102
sS'isMulti'
p103
I00
sS'isCompound'
p104
I00
sg20
I01
sg4
(lp105
sS'isElement'
p106
I00
ssVcolor[2].color_Interp
p107
(dp108
g3
I00
sg4
(lp109
ssVcolor[0].color_Color
p110
(dp111
S'isArray'
p112
I00
sS'attrParentLongName'
p113
Vcolor[0]
p114
sS'attrChildrenNames'
p115
(lp116
Vcolor[0].color_Color.color_ColorR
p117
aVcolor[0].color_Color.color_ColorG
p118
aVcolor[0].color_Color.color_ColorB
p119
asg16
Vfloat3
p120
sS'isMulti'
p121
I00
sS'isCompound'
p122
I01
sg20
I00
sg4
(lp123
Vcolor[0].color_Color.color_ColorR
p124
aVcolor[0].color_Color.color_ColorG
p125
aVcolor[0].color_Color.color_ColorB
p126
asS'isElement'
p127
I00
ssVcolor.color_Color
p128
(dp129
S'attrParentLongName'
p130
Vcolor
p131
ssVvalue[3].value_FloatValue
p132
(dp133
g3
I00
sg4
(lp134
ssVcolor[1]
p135
(dp136
g3
I00
sg28
I00
sg16
VTdataCompound
p137
sg20
I00
sg4
(lp138
Vcolor[1].color_Position
p139
ag40
aVcolor[1].color_Interp
p140
assVcolor[0].color_Position
p141
(dp142
S'isArray'
p143
I00
sS'attrParentLongName'
p144
Vcolor[0]
p145
sS'attrChildrenNames'
p146
(lp147
sg16
Vfloat
p148
sS'isMulti'
p149
I00
sS'isCompound'
p150
I00
sg20
I01
sg4
(lp151
sS'isElement'
p152
I00
ssVisHistoricallyInteresting
p153
(dp154
S'isArray'
p155
I00
sg16
Vbyte
p156
sS'attrChildrenNames'
p157
(lp158
sS'isMulti'
p159
I00
sS'isCompound'
p160
I00
sg20
I00
sg4
(lp161
sS'isElement'
p162
I00
ssVoutputMax
p163
(dp164
S'isArray'
p165
I00
sg16
Vfloat
p166
sS'attrChildrenNames'
p167
(lp168
sS'isMulti'
p169
I00
sS'isCompound'
p170
I00
sg20
I01
sg4
(lp171
sS'isElement'
p172
I00
ssVcolor[2].color_Color
p173
(dp174
g3
I00
sg4
(lp175
Vcolor[2].color_Color.color_ColorR
p176
aVcolor[2].color_Color.color_ColorG
p177
aVcolor[2].color_Color.color_ColorB
p178
assg6
(dp179
g3
I00
sg4
(lp180
ssVvalue[2].value_Position
p181
(dp182
g3
I00
sg4
(lp183
ssg178
(dp184
g3
I00
sg4
(lp185
ssVvalue.value_FloatValue
p186
(dp187
g130
Vvalue
p188
ssVvalue[1]
p189
(dp190
g3
I00
sg28
I00
sg16
VTdataCompound
p191
sg20
I00
sg4
(lp192
Vvalue[1].value_Position
p193
aVvalue[1].value_FloatValue
p194
aVvalue[1].value_Interp
p195
assg193
(dp196
g3
I00
sg16
Vfloat
p197
sg28
I00
sg59
I00
sg20
I01
sg4
(lp198
ssVvalue[0].value_FloatValue
p199
(dp200
S'isArray'
p201
I00
sS'attrParentLongName'
p202
Vvalue[0]
p203
sS'attrChildrenNames'
p204
(lp205
sg16
Vfloat
p206
sS'isMulti'
p207
I00
sS'isCompound'
p208
I00
sg20
I01
sg4
(lp209
sS'isElement'
p210
I00
ssVinputMax
p211
(dp212
S'isArray'
p213
I00
sg16
Vfloat
p214
sS'attrChildrenNames'
p215
(lp216
sS'isMulti'
p217
I00
sS'isCompound'
p218
I00
sg20
I01
sg4
(lp219
sS'isElement'
p220
I00
ssg44
(dp221
g3
I00
sg16
Vfloat
p222
sg28
I00
sg59
I00
sg20
I01
sg4
(lp223
ssg45
(dp224
g3
I00
sg16
Vfloat
p225
sg28
I00
sg59
I00
sg20
I01
sg4
(lp226
ssVbinMembership
p227
(dp228
g3
I00
sg16
Vstring
p229
sg28
I00
sg59
I00
sg20
I01
sg4
(lp230
ssg176
(dp231
g3
I00
sg4
(lp232
ssVvalue[3].value_Position
p233
(dp234
g3
I00
sg4
(lp235
ssVvalue.value_Position
p236
(dp237
g130
Vvalue
p238
ssVvalue.value_Interp
p239
(dp240
g130
Vvalue
p241
ssVvalue[2]
p242
(dp243
g3
I00
sg4
(lp244
g181
aVvalue[2].value_FloatValue
p245
aVvalue[2].value_Interp
p246
assVinputMin
p247
(dp248
S'isArray'
p249
I00
sg16
Vfloat
p250
sS'attrChildrenNames'
p251
(lp252
sS'isMulti'
p253
I00
sS'isCompound'
p254
I00
sg20
I01
sg4
(lp255
sS'isElement'
p256
I00
ssVnodeState
p257
(dp258
S'isArray'
p259
I00
sg16
Venum
p260
sS'attrChildrenNames'
p261
(lp262
sS'isMulti'
p263
I00
sS'isCompound'
p264
I00
sg20
I01
sg4
(lp265
sS'isElement'
p266
I00
ssg195
(dp267
g3
I00
sg16
Venum
p268
sg28
I00
sg59
I00
sg20
I01
sg4
(lp269
ssVcolor[3].color_Color.color_ColorG
p270
(dp271
g3
I00
sg4
(lp272
ssVcolor[2]
p273
(dp274
g3
I00
sg4
(lp275
Vcolor[2].color_Position
p276
ag173
ag107
assVcolor.color_ColorG
p277
(dp278
g130
Vcolor.color_Color
p279
ssVvalue[3]
p280
(dp281
g3
I00
sg4
(lp282
g233
ag132
ag23
assVcolor.color_ColorB
p283
(dp284
g130
Vcolor.color_Color
p285
ssVcolor[0].color_Color.color_ColorR
p286
(dp287
S'isArray'
p288
I00
sS'attrParentLongName'
p289
Vcolor[0].color_Color
p290
sS'attrChildrenNames'
p291
(lp292
sg16
Vfloat
p293
sS'isMulti'
p294
I00
sS'isCompound'
p295
I00
sg20
I01
sg4
(lp296
sS'isElement'
p297
I00
ssg177
(dp298
g3
I00
sg4
(lp299
ssg194
(dp300
g3
I00
sg16
Vfloat
p301
sg28
I00
sg59
I00
sg20
I01
sg4
(lp302
ssVcolor.color_Interp
p303
(dp304
g130
Vcolor
p305
ssVvalue[0].value_Position
p306
(dp307
S'isArray'
p308
I00
sS'attrParentLongName'
p309
Vvalue[0]
p310
sS'attrChildrenNames'
p311
(lp312
sg16
Vfloat
p313
sS'isMulti'
p314
I00
sS'isCompound'
p315
I00
sg20
I01
sg4
(lp316
sS'isElement'
p317
I00
ssVcolor[0]
p318
(dp319
g3
I00
sg28
I00
sg16
VTdataCompound
p320
sg20
I00
sg4
(lp321
Vcolor[0].color_Position
p322
aVcolor[0].color_Color
p323
aVcolor[0].color_Interp
p324
assg276
(dp325
g3
I00
sg4
(lp326
ssVcolor.color_ColorR
p327
(dp328
g130
Vcolor.color_Color
p329
ssg7
(dp330
g3
I00
sg4
(lp331
Vcolor[3].color_Color.color_ColorR
p332
ag270
aVcolor[3].color_Color.color_ColorB
p333
assVcolor.color_Position
p334
(dp335
g130
Vcolor
p336
ssg8
(dp337
g3
I00
sg4
(lp338
ssg332
(dp339
g3
I00
sg4
(lp340
ssVcolor[0].color_Color.color_ColorB
p341
(dp342
S'isArray'
p343
I00
sS'attrParentLongName'
p344
Vcolor[0].color_Color
p345
sS'attrChildrenNames'
p346
(lp347
sg16
Vfloat
p348
sS'isMulti'
p349
I00
sS'isCompound'
p350
I00
sg20
I01
sg4
(lp351
sS'isElement'
p352
I00
ssVcolor[0].color_Color.color_ColorG
p353
(dp354
S'isArray'
p355
I00
sS'attrParentLongName'
p356
Vcolor[0].color_Color
p357
sS'attrChildrenNames'
p358
(lp359
sg16
Vfloat
p360
sS'isMulti'
p361
I00
sS'isCompound'
p362
I00
sg20
I01
sg4
(lp363
sS'isElement'
p364
I00
ssVvalue
p365
(dp366
S'isArray'
p367
I01
sS'isElement'
p368
I00
sg16
VTdataCompound
p369
sg20
I00
sS'isMulti'
p370
I01
ssg140
(dp371
g3
I00
sg16
Venum
p372
sg28
I00
sg59
I00
sg20
I01
sg4
(lp373
ssg246
(dp374
g3
I00
sg4
(lp375
ssVoutColor
p376
(dp377
S'isArray'
p378
I00
sg16
Vfloat3
p379
sS'attrChildrenNames'
p380
(lp381
VoutColor.outColorR
p382
aVoutColor.outColorG
p383
aVoutColor.outColorB
p384
asS'isMulti'
p385
I00
sS'isCompound'
p386
I01
sg20
I00
sg4
(lp387
VoutColor.outColorR
p388
aVoutColor.outColorG
p389
aVoutColor.outColorB
p390
asS'isElement'
p391
I00
ssg333
(dp392
g3
I00
sg4
(lp393
ssVinputValue
p394
(dp395
S'isArray'
p396
I00
sg16
Vfloat
p397
sS'attrChildrenNames'
p398
(lp399
sS'isMulti'
p400
I00
sS'isCompound'
p401
I00
sg20
I01
sg4
(lp402
sS'isElement'
p403
I00
ssg139
(dp404
g3
I00
sg16
Vfloat
p405
sg28
I00
sg59
I00
sg20
I01
sg4
(lp406
ssVcaching
p407
(dp408
S'isArray'
p409
I00
sg16
Vbool
p410
sS'attrChildrenNames'
p411
(lp412
sS'isMulti'
p413
I00
sS'isCompound'
p414
I00
sg20
I01
sg4
(lp415
sS'isElement'
p416
I00
ssg245
(dp417
g3
I00
sg4
(lp418
ssVvalue[0].value_Interp
p419
(dp420
S'isArray'
p421
I00
sS'attrParentLongName'
p422
Vvalue[0]
p423
sS'attrChildrenNames'
p424
(lp425
sg16
Venum
p426
sS'isMulti'
p427
I00
sS'isCompound'
p428
I00
sg20
I01
sg4
(lp429
sS'isElement'
p430
I00
ss.