(dp0
VisHistoricallyInteresting
p1
(dp2
S'isArray'
p3
I00
sS'attrType'
p4
Vbyte
p5
sS'attrChildrenNames'
p6
(lp7
sS'isMulti'
p8
I00
sS'isCompound'
p9
I00
sS'isSimple'
p10
I00
sS'attrChildrenLongNames'
p11
(lp12
sS'isElement'
p13
I00
ssVnodeState
p14
(dp15
S'isArray'
p16
I00
sg4
Venum
p17
sS'attrChildrenNames'
p18
(lp19
sS'isMulti'
p20
I00
sS'isCompound'
p21
I00
sg10
I01
sg11
(lp22
sS'isElement'
p23
I00
ssVinput.inputX
p24
(dp25
S'isArray'
p26
I00
sS'attrParentLongName'
p27
Vinput
p28
sS'attrChildrenNames'
p29
(lp30
sg4
Vfloat
p31
sS'isMulti'
p32
I00
sS'isCompound'
p33
I00
sg10
I01
sg11
(lp34
sS'isElement'
p35
I00
ssVoutput
p36
(dp37
S'isArray'
p38
I00
sg4
Vfloat3
p39
sS'attrChildrenNames'
p40
(lp41
Voutput.outputX
p42
aVoutput.outputY
p43
aVoutput.outputZ
p44
asS'isMulti'
p45
I00
sS'isCompound'
p46
I01
sg10
I00
sg11
(lp47
Voutput.outputX
p48
aVoutput.outputY
p49
aVoutput.outputZ
p50
asS'isElement'
p51
I00
ssVoutput.outputY
p52
(dp53
S'isArray'
p54
I00
sS'attrParentLongName'
p55
Voutput
p56
sS'attrChildrenNames'
p57
(lp58
sg4
Vfloat
p59
sS'isMulti'
p60
I00
sS'isCompound'
p61
I00
sg10
I01
sg11
(lp62
sS'isElement'
p63
I00
ssVbinMembership
p64
(dp65
S'isArray'
p66
I00
sg4
Vstring
p67
sS'isMulti'
p68
I00
sS'isCompound'
p69
I00
sg10
I01
sg11
(lp70
ssVinput.inputZ
p71
(dp72
S'isArray'
p73
I00
sS'attrParentLongName'
p74
Vinput
p75
sS'attrChildrenNames'
p76
(lp77
sg4
Vfloat
p78
sS'isMulti'
p79
I00
sS'isCompound'
p80
I00
sg10
I01
sg11
(lp81
sS'isElement'
p82
I00
ssVoutput.outputX
p83
(dp84
S'isArray'
p85
I00
sS'attrParentLongName'
p86
Voutput
p87
sS'attrChildrenNames'
p88
(lp89
sg4
Vfloat
p90
sS'isMulti'
p91
I00
sS'isCompound'
p92
I00
sg10
I01
sg11
(lp93
sS'isElement'
p94
I00
ssVinput.inputY
p95
(dp96
S'isArray'
p97
I00
sS'attrParentLongName'
p98
Vinput
p99
sS'attrChildrenNames'
p100
(lp101
sg4
Vfloat
p102
sS'isMulti'
p103
I00
sS'isCompound'
p104
I00
sg10
I01
sg11
(lp105
sS'isElement'
p106
I00
ssVcaching
p107
(dp108
S'isArray'
p109
I00
sg4
Vbool
p110
sS'attrChildrenNames'
p111
(lp112
sS'isMulti'
p113
I00
sS'isCompound'
p114
I00
sg10
I01
sg11
(lp115
sS'isElement'
p116
I00
ssVoutput.outputZ
p117
(dp118
S'isArray'
p119
I00
sS'attrParentLongName'
p120
Voutput
p121
sS'attrChildrenNames'
p122
(lp123
sg4
Vfloat
p124
sS'isMulti'
p125
I00
sS'isCompound'
p126
I00
sg10
I01
sg11
(lp127
sS'isElement'
p128
I00
ssVinput
p129
(dp130
S'isArray'
p131
I00
sg4
Vfloat3
p132
sS'attrChildrenNames'
p133
(lp134
Vinput.inputX
p135
aVinput.inputY
p136
aVinput.inputZ
p137
asS'isMulti'
p138
I00
sS'isCompound'
p139
I01
sg10
I00
sg11
(lp140
Vinput.inputX
p141
aVinput.inputY
p142
aVinput.inputZ
p143
asS'isElement'
p144
I00
ss.