(dp0
VrotateOrder
p1
(dp2
S'isArray'
p3
I00
sS'attrType'
p4
Venum
p5
sS'isSimple'
p6
I01
sS'attrChildrenLongNames'
p7
(lp8
ssVtranslate.translateZ
p9
(dp10
g3
I00
sg4
VdoubleLinear
p11
sg6
I01
sg7
(lp12
ssVtranslate.translateX
p13
(dp14
g3
I00
sg4
VdoubleLinear
p15
sg6
I01
sg7
(lp16
ssVdrawOverride.overrideColor
p17
(dp18
g3
I00
sg4
Vbyte
p19
sg6
I00
sg7
(lp20
ssVintermediateObject
p21
(dp22
g3
I00
sg4
Vbool
p23
sg6
I01
sg7
(lp24
ssVghostCustomSteps.ghostPostSteps
p25
(dp26
g3
I00
sg4
Vlong
p27
sg6
I01
sg7
(lp28
ssVrenderLayerInfo.renderLayerId
p29
(dp30
S'attrParentLongName'
p31
VrenderLayerInfo
p32
ssVselectHandle.selectHandleX
p33
(dp34
g3
I00
sg4
VdoubleLinear
p35
sg6
I01
sg7
(lp36
ssVmentalRayControls.miVisible
p37
(dp38
g3
I00
sg4
Venum
p39
sg6
I01
sg7
(lp40
ssVuseObjectColor
p41
(dp42
g3
I00
sg4
Vbool
p43
sg6
I01
sg7
(lp44
ssVdrawOverride.overrideLevelOfDetail
p45
(dp46
g3
I00
sg4
Venum
p47
sg6
I01
sg7
(lp48
ssVinstObjGroups[0].objectGroups[0].objectGroupId
p49
(dp50
g3
I00
sg6
I00
sg7
(lp51
ssVmaxRotLimitEnable.maxRotXLimitEnable
p52
(dp53
g3
I00
sg4
Vbool
p54
sg6
I01
sg7
(lp55
ssVselectHandle.selectHandleY
p56
(dp57
g3
I00
sg4
VdoubleLinear
p58
sg6
I01
sg7
(lp59
ssVminTransLimitEnable.minTransYLimitEnable
p60
(dp61
g3
I00
sg4
Vbool
p62
sg6
I01
sg7
(lp63
ssVtranslate.translateY
p64
(dp65
g3
I00
sg4
VdoubleLinear
p66
sg6
I01
sg7
(lp67
ssVrenderLayerInfo.renderLayerRenderable
p68
(dp69
g31
VrenderLayerInfo
p70
ssVminRotLimitEnable.minRotZLimitEnable
p71
(dp72
g3
I00
sg4
Vbool
p73
sg6
I01
sg7
(lp74
ssVscalePivotTranslate
p75
(dp76
g3
I00
sg4
Vdouble3
p77
sg6
I01
sg7
(lp78
VscalePivotTranslate.scalePivotTranslateX
p79
aVscalePivotTranslate.scalePivotTranslateY
p80
aVscalePivotTranslate.scalePivotTranslateZ
p81
assVmaxRotLimit.maxRotYLimit
p82
(dp83
g3
I00
sg4
VdoubleAngle
p84
sg6
I01
sg7
(lp85
ssVtransMinusRotatePivot
p86
(dp87
g3
I00
sg4
Vdouble3
p88
sg6
I01
sg7
(lp89
VtransMinusRotatePivot.transMinusRotatePivotX
p90
aVtransMinusRotatePivot.transMinusRotatePivotY
p91
aVtransMinusRotatePivot.transMinusRotatePivotZ
p92
assVrenderLayerInfo[1].renderLayerColor
p93
(dp94
g3
I00
sg6
I00
sg7
(lp95
ssVrotateQuaternion.rotateQuaternionW
p96
(dp97
g3
I00
sg4
Vdouble
p98
sg6
I01
sg7
(lp99
ssVbinMembership
p100
(dp101
g3
I00
sg4
Vstring
p102
sg6
I01
sg7
(lp103
ssVcustomTreatment
p104
(dp105
g3
I00
sg4
Vstring
p106
sg6
I01
sg7
(lp107
ssVrenderLayerInfo[0].renderLayerRenderable
p108
(dp109
g3
I00
sg6
I00
sg7
(lp110
ssVtemplatePath
p111
(dp112
g3
I00
sg4
Vstring
p113
sg6
I01
sg7
(lp114
ssVshear
p115
(dp116
g3
I00
sg4
Vdouble3
p117
sg6
I01
sg7
(lp118
Vshear.shearXY
p119
aVshear.shearXZ
p120
aVshear.shearYZ
p121
assVboundingBox.boundingBoxMin.boundingBoxMinY
p122
(dp123
g31
VboundingBox.boundingBoxMin
p124
ssVboundingBox.boundingBoxMin.boundingBoxMinX
p125
(dp126
g31
VboundingBox.boundingBoxMin
p127
ssVboundingBox.boundingBoxMin.boundingBoxMinZ
p128
(dp129
g31
VboundingBox.boundingBoxMin
p130
ssVminRotLimitEnable.minRotYLimitEnable
p131
(dp132
g3
I00
sg4
Vbool
p133
sg6
I01
sg7
(lp134
ssVselectHandle
p135
(dp136
g3
I00
sg4
Vdouble3
p137
sg6
I01
sg7
(lp138
g33
ag56
aVselectHandle.selectHandleZ
p139
assVinstObjGroups.objectGroups.objectGrpColor
p140
(dp141
g31
VinstObjGroups.objectGroups
p142
ssVparentMatrix
p143
(dp144
g3
I01
sg4
Vmatrix
p145
sg6
I00
ssVrotateQuaternion.rotateQuaternionZ
p146
(dp147
g3
I00
sg4
Vdouble
p148
sg6
I01
sg7
(lp149
ssVrenderLayerInfo[0].renderLayerId
p150
(dp151
g3
I00
sg6
I00
sg7
(lp152
ssVrotateQuaternion.rotateQuaternionX
p153
(dp154
g3
I00
sg4
Vdouble
p155
sg6
I01
sg7
(lp156
ssVrotateQuaternion.rotateQuaternionY
p157
(dp158
g3
I00
sg4
Vdouble
p159
sg6
I01
sg7
(lp160
ssVmaxTransLimitEnable.maxTransZLimitEnable
p161
(dp162
g3
I00
sg4
Vbool
p163
sg6
I01
sg7
(lp164
ssVworldInverseMatrix[1]
p165
(dp166
g3
I00
sg6
I00
sg7
(lp167
ssVminTransLimitEnable.minTransZLimitEnable
p168
(dp169
g3
I00
sg4
Vbool
p170
sg6
I01
sg7
(lp171
ssVcreationDate
p172
(dp173
g3
I00
sg4
Vstring
p174
sg6
I01
sg7
(lp175
ssVminScaleLimit.minScaleXLimit
p176
(dp177
g3
I00
sg4
Vdouble
p178
sg6
I01
sg7
(lp179
ssVmentalRayControls.miDeriveFromMaya
p180
(dp181
g3
I00
sg4
Vbool
p182
sg6
I01
sg7
(lp183
ssVrotatePivotTranslate.rotatePivotTranslateX
p184
(dp185
g3
I00
sg4
VdoubleLinear
p186
sg6
I01
sg7
(lp187
ssVrotatePivotTranslate.rotatePivotTranslateY
p188
(dp189
g3
I00
sg4
VdoubleLinear
p190
sg6
I01
sg7
(lp191
ssVminTransLimit
p192
(dp193
g3
I00
sg4
Vdouble3
p194
sg6
I01
sg7
(lp195
VminTransLimit.minTransXLimit
p196
aVminTransLimit.minTransYLimit
p197
aVminTransLimit.minTransZLimit
p198
assVrotate
p199
(dp200
g3
I00
sg4
Vdouble3
p201
sg6
I01
sg7
(lp202
Vrotate.rotateX
p203
aVrotate.rotateY
p204
aVrotate.rotateZ
p205
assVminRotLimit
p206
(dp207
g3
I00
sg4
Vdouble3
p208
sg6
I01
sg7
(lp209
VminRotLimit.minRotXLimit
p210
aVminRotLimit.minRotYLimit
p211
aVminRotLimit.minRotZLimit
p212
assVmaxTransLimitEnable.maxTransYLimitEnable
p213
(dp214
g3
I00
sg4
Vbool
p215
sg6
I01
sg7
(lp216
ssVworldMatrix[0]
p217
(dp218
g3
I00
sg6
I00
sg7
(lp219
ssVisHierarchicalConnection[1]
p220
(dp221
g3
I00
sg6
I00
sg7
(lp222
ssVparentInverseMatrix[0]
p223
(dp224
g3
I00
sg6
I00
sg7
(lp225
ssg212
(dp226
g3
I00
sg4
VdoubleAngle
p227
sg6
I01
sg7
(lp228
ssVmaxScaleLimitEnable.maxScaleYLimitEnable
p229
(dp230
g3
I00
sg4
Vbool
p231
sg6
I01
sg7
(lp232
ssVdrawOverride.overrideEnabled
p233
(dp234
g3
I00
sg4
Vbool
p235
sg6
I01
sg7
(lp236
ssVrotatePivot.rotatePivotZ
p237
(dp238
g3
I00
sg4
VdoubleLinear
p239
sg6
I01
sg7
(lp240
ssVboundingBox.boundingBoxMax
p241
(dp242
g31
VboundingBox
p243
ssVrotatePivot.rotatePivotY
p244
(dp245
g3
I00
sg4
VdoubleLinear
p246
sg6
I01
sg7
(lp247
ssVparentMatrix[0]
p248
(dp249
g3
I00
sg6
I00
sg7
(lp250
ssVscalePivot.scalePivotX
p251
(dp252
g3
I00
sg4
VdoubleLinear
p253
sg6
I01
sg7
(lp254
ssVrotateAxis
p255
(dp256
g3
I00
sg4
Vdouble3
p257
sg6
I01
sg7
(lp258
VrotateAxis.rotateAxisX
p259
aVrotateAxis.rotateAxisY
p260
aVrotateAxis.rotateAxisZ
p261
assVcreator
p262
(dp263
g3
I00
sg4
Vstring
p264
sg6
I01
sg7
(lp265
ssg259
(dp266
g3
I00
sg4
VdoubleAngle
p267
sg6
I01
sg7
(lp268
ssg260
(dp269
g3
I00
sg4
VdoubleAngle
p270
sg6
I01
sg7
(lp271
ssg261
(dp272
g3
I00
sg4
VdoubleAngle
p273
sg6
I01
sg7
(lp274
ssVinstObjGroups[0].objectGroups[0]
p275
(dp276
g3
I00
sg6
I00
sg7
(lp277
VinstObjGroups[0].objectGroups[0].objectGrpCompList
p278
ag49
aVinstObjGroups[0].objectGroups[0].objectGrpColor
p279
assVghostRangeEnd
p280
(dp281
g3
I00
sg4
Vtime
p282
sg6
I01
sg7
(lp283
ssVpublishedNodeInfo.isHierarchicalNode
p284
(dp285
g31
VpublishedNodeInfo
p286
ssVpublishedNodeInfo[0].publishedNode
p287
(dp288
g3
I00
sg6
I00
sg7
(lp289
ssVdynamics
p290
(dp291
g3
I00
sg4
Vbool
p292
sg6
I01
sg7
(lp293
ssVpublishedNodeInfo[1].isHierarchicalNode
p294
(dp295
g3
I00
sg6
I00
sg7
(lp296
ssVtemplateVersion
p297
(dp298
g3
I00
sg4
Vlong
p299
sg6
I01
sg7
(lp300
ssVmaxTransLimit.maxTransZLimit
p301
(dp302
g3
I00
sg4
VdoubleLinear
p303
sg6
I01
sg7
(lp304
ssVinstObjGroups[1].objectGroups
p305
(dp306
g3
I01
sg6
I00
ssVscale
p307
(dp308
g3
I00
sg4
Vdouble3
p309
sg6
I01
sg7
(lp310
Vscale.scaleX
p311
aVscale.scaleY
p312
aVscale.scaleZ
p313
assVmatrix
p314
(dp315
g3
I00
sg4
Vmatrix
p316
sg6
I00
sg7
(lp317
ssg92
(dp318
g3
I00
sg4
VdoubleLinear
p319
sg6
I01
sg7
(lp320
ssVrotatePivot
p321
(dp322
g3
I00
sg4
Vdouble3
p323
sg6
I01
sg7
(lp324
VrotatePivot.rotatePivotX
p325
ag244
ag237
assVghostCustomSteps
p326
(dp327
g3
I00
sg4
VTdataCompound
p328
sg6
I00
sg7
(lp329
VghostCustomSteps.ghostPreSteps
p330
ag25
aVghostCustomSteps.ghostStepSize
p331
assg139
(dp332
g3
I00
sg4
VdoubleLinear
p333
sg6
I01
sg7
(lp334
ssVpublishedNodeInfo[1].publishedNode
p335
(dp336
g3
I00
sg6
I00
sg7
(lp337
ssVmaxRotLimitEnable.maxRotZLimitEnable
p338
(dp339
g3
I00
sg4
Vbool
p340
sg6
I01
sg7
(lp341
ssVminScaleLimitEnable.minScaleYLimitEnable
p342
(dp343
g3
I00
sg4
Vbool
p344
sg6
I01
sg7
(lp345
ssVworldMatrix
p346
(dp347
g3
I01
sg4
Vmatrix
p348
sg6
I00
ssVmaxScaleLimitEnable.maxScaleXLimitEnable
p349
(dp350
g3
I00
sg4
Vbool
p351
sg6
I01
sg7
(lp352
ssVcontainerType
p353
(dp354
g3
I00
sg4
Vstring
p355
sg6
I01
sg7
(lp356
ssVminScaleLimit.minScaleZLimit
p357
(dp358
g3
I00
sg4
Vdouble
p359
sg6
I01
sg7
(lp360
ssVrotatePivotTranslate.rotatePivotTranslateZ
p361
(dp362
g3
I00
sg4
VdoubleLinear
p363
sg6
I01
sg7
(lp364
ssVscalePivot.scalePivotY
p365
(dp366
g3
I00
sg4
VdoubleLinear
p367
sg6
I01
sg7
(lp368
ssVscalePivot.scalePivotZ
p369
(dp370
g3
I00
sg4
VdoubleLinear
p371
sg6
I01
sg7
(lp372
ssVinstObjGroups.objectGroups.objectGrpCompList
p373
(dp374
g31
VinstObjGroups.objectGroups
p375
ssVparentInverseMatrix
p376
(dp377
g3
I01
sg4
Vmatrix
p378
sg6
I00
ssVrenderLayerInfo[1].renderLayerId
p379
(dp380
g3
I00
sg6
I00
sg7
(lp381
ssVviewName
p382
(dp383
g3
I00
sg4
Vstring
p384
sg6
I01
sg7
(lp385
ssVpublishedNodeInfo.publishedNodeType
p386
(dp387
g31
VpublishedNodeInfo
p388
ssVparentInverseMatrix[1]
p389
(dp390
g3
I00
sg6
I00
sg7
(lp391
ssVpublishedNodeInfo[1]
p392
(dp393
g3
I00
sg6
I00
sg7
(lp394
g335
ag294
aVpublishedNodeInfo[1].publishedNodeType
p395
assVmaxTransLimit
p396
(dp397
g3
I00
sg4
Vdouble3
p398
sg6
I01
sg7
(lp399
VmaxTransLimit.maxTransXLimit
p400
aVmaxTransLimit.maxTransYLimit
p401
ag301
assg196
(dp402
g3
I00
sg4
VdoubleLinear
p403
sg6
I01
sg7
(lp404
ssVdisplayScalePivot
p405
(dp406
g3
I00
sg4
Vbool
p407
sg6
I01
sg7
(lp408
ssVinstObjGroups[0].objectGroups[1]
p409
(dp410
g3
I00
sg6
I00
sg7
(lp411
VinstObjGroups[0].objectGroups[1].objectGrpCompList
p412
aVinstObjGroups[0].objectGroups[1].objectGroupId
p413
aVinstObjGroups[0].objectGroups[1].objectGrpColor
p414
assg197
(dp415
g3
I00
sg4
VdoubleLinear
p416
sg6
I01
sg7
(lp417
ssVrmbCommand
p418
(dp419
g3
I00
sg4
Vstring
p420
sg6
I01
sg7
(lp421
ssVmentalRayControls.miHide
p422
(dp423
g3
I00
sg4
Vbool
p424
sg6
I01
sg7
(lp425
ssVinstObjGroups.objectGroups
p426
(dp427
g31
VinstObjGroups
p428
ssg395
(dp429
g3
I00
sg6
I00
sg7
(lp430
ssVpublishedNodeInfo[0]
p431
(dp432
g3
I00
sg6
I00
sg7
(lp433
g287
aVpublishedNodeInfo[0].isHierarchicalNode
p434
aVpublishedNodeInfo[0].publishedNodeType
p435
assVmaxScaleLimitEnable
p436
(dp437
g3
I00
sg4
VTdataCompound
p438
sg6
I00
sg7
(lp439
g349
ag229
aVmaxScaleLimitEnable.maxScaleZLimitEnable
p440
assViconName
p441
(dp442
g3
I00
sg4
Vstring
p443
sg6
I01
sg7
(lp444
ssVobjectColor
p445
(dp446
g3
I00
sg4
Vshort
p447
sg6
I01
sg7
(lp448
ssVgeometry
p449
(dp450
g3
I00
sg4
Nsg6
I00
sg7
(lp451
ssg311
(dp452
g3
I00
sg4
Vdouble
p453
sg6
I01
sg7
(lp454
ssg312
(dp455
g3
I00
sg4
Vdouble
p456
sg6
I01
sg7
(lp457
ssg325
(dp458
g3
I00
sg4
VdoubleLinear
p459
sg6
I01
sg7
(lp460
ssVrenderInfo.layerRenderable
p461
(dp462
g31
VrenderInfo
p463
sg3
I00
sg4
Vbool
p464
sg6
I01
sg7
(lp465
ssVvisibility
p466
(dp467
g3
I00
sg4
Vbool
p468
sg6
I01
sg7
(lp469
ssVmentalRayControls.miGeoShader
p470
(dp471
g3
I00
sg4
Nsg6
I00
sg7
(lp472
ssVghostRangeStart
p473
(dp474
g3
I00
sg4
Vtime
p475
sg6
I01
sg7
(lp476
ssg435
(dp477
g3
I00
sg6
I00
sg7
(lp478
ssVisHierarchicalConnection
p479
(dp480
g3
I01
sg4
VTdataCompound
p481
sg6
I00
ssVmentalRayControls.miTrace
p482
(dp483
g3
I00
sg4
Venum
p484
sg6
I01
sg7
(lp485
ssVinstObjGroups
p486
(dp487
g3
I01
sg4
VTdataCompound
p488
sg6
I00
ssg401
(dp489
g3
I00
sg4
VdoubleLinear
p490
sg6
I01
sg7
(lp491
ssVdisplayHandle
p492
(dp493
g3
I00
sg4
Vbool
p494
sg6
I01
sg7
(lp495
ssVmaxTransLimitEnable
p496
(dp497
g3
I00
sg4
VTdataCompound
p498
sg6
I00
sg7
(lp499
VmaxTransLimitEnable.maxTransXLimitEnable
p500
ag213
ag161
assVminRotLimitEnable.minRotXLimitEnable
p501
(dp502
g3
I00
sg4
Vbool
p503
sg6
I01
sg7
(lp504
ssVrotateQuaternion
p505
(dp506
g3
I00
sg4
Vdouble4
p507
sg6
I00
sg7
(lp508
g153
ag157
ag146
ag96
assVdrawOverride.overrideVisibility
p509
(dp510
g3
I00
sg4
Vbool
p511
sg6
I01
sg7
(lp512
ssVmaxScaleLimit
p513
(dp514
g3
I00
sg4
Vdouble3
p515
sg6
I01
sg7
(lp516
VmaxScaleLimit.maxScaleXLimit
p517
aVmaxScaleLimit.maxScaleYLimit
p518
aVmaxScaleLimit.maxScaleZLimit
p519
assg121
(dp520
g3
I00
sg4
Vdouble
p521
sg6
I01
sg7
(lp522
ssVghosting
p523
(dp524
g3
I00
sg4
Vbool
p525
sg6
I01
sg7
(lp526
ssVdisplayLocalAxis
p527
(dp528
g3
I00
sg4
Vbool
p529
sg6
I01
sg7
(lp530
ssVinheritsTransform
p531
(dp532
g3
I00
sg4
Vbool
p533
sg6
I01
sg7
(lp534
ssg90
(dp535
g3
I00
sg4
VdoubleLinear
p536
sg6
I01
sg7
(lp537
ssg91
(dp538
g3
I00
sg4
VdoubleLinear
p539
sg6
I01
sg7
(lp540
ssVisHistoricallyInteresting
p541
(dp542
g3
I00
sg4
Vbyte
p543
sg6
I00
sg7
(lp544
ssVrotationInterpolation
p545
(dp546
g3
I00
sg4
Venum
p547
sg6
I01
sg7
(lp548
ssVminScaleLimit.minScaleYLimit
p549
(dp550
g3
I00
sg4
Vdouble
p551
sg6
I01
sg7
(lp552
ssg210
(dp553
g3
I00
sg4
VdoubleAngle
p554
sg6
I01
sg7
(lp555
ssVmaxRotLimit
p556
(dp557
g3
I00
sg4
Vdouble3
p558
sg6
I01
sg7
(lp559
VmaxRotLimit.maxRotXLimit
p560
ag82
aVmaxRotLimit.maxRotZLimit
p561
assVxformMatrix
p562
(dp563
g3
I00
sg4
Vmatrix
p564
sg6
I00
sg7
(lp565
ssVinstObjGroups[1]
p566
(dp567
g3
I00
sg6
I00
sg7
(lp568
g305
assVtranslate
p569
(dp570
g3
I00
sg4
Vdouble3
p571
sg6
I01
sg7
(lp572
g13
ag64
ag9
assg330
(dp573
g3
I00
sg4
Vlong
p574
sg6
I01
sg7
(lp575
ssVdrawOverride
p576
(dp577
g3
I00
sg4
VTdataCompound
p578
sg6
I00
sg7
(lp579
VdrawOverride.overrideDisplayType
p580
ag45
aVdrawOverride.overrideShading
p581
aVdrawOverride.overrideTexturing
p582
aVdrawOverride.overridePlayback
p583
ag233
ag509
ag17
assg120
(dp584
g3
I00
sg4
Vdouble
p585
sg6
I01
sg7
(lp586
ssg119
(dp587
g3
I00
sg4
Vdouble
p588
sg6
I01
sg7
(lp589
ssVparentMatrix[1]
p590
(dp591
g3
I00
sg6
I00
sg7
(lp592
ssVinstObjGroups.objectGroups.objectGroupId
p593
(dp594
g31
VinstObjGroups.objectGroups
p595
ssVminTransLimitEnable.minTransXLimitEnable
p596
(dp597
g3
I00
sg4
Vbool
p598
sg6
I01
sg7
(lp599
ssVmaxRotLimitEnable
p600
(dp601
g3
I00
sg4
VTdataCompound
p602
sg6
I00
sg7
(lp603
g52
aVmaxRotLimitEnable.maxRotYLimitEnable
p604
ag338
assVpublishedNodeInfo
p605
(dp606
g3
I01
sg4
VTdataCompound
p607
sg6
I00
ssg413
(dp608
g3
I00
sg6
I00
sg7
(lp609
ssg560
(dp610
g3
I00
sg4
VdoubleAngle
p611
sg6
I01
sg7
(lp612
ssg519
(dp613
g3
I00
sg4
Vdouble
p614
sg6
I01
sg7
(lp615
ssg198
(dp616
g3
I00
sg4
VdoubleLinear
p617
sg6
I01
sg7
(lp618
ssg211
(dp619
g3
I00
sg4
VdoubleAngle
p620
sg6
I01
sg7
(lp621
ssg582
(dp622
g3
I00
sg4
Vbool
p623
sg6
I01
sg7
(lp624
ssVboundingBox.boundingBoxSize
p625
(dp626
g31
VboundingBox
p627
ssVrenderInfo.layerOverrideColor
p628
(dp629
g31
VrenderInfo
p630
sg3
I00
sg4
Vbyte
p631
sg6
I00
sg7
(lp632
ssVrenderLayerInfo[0]
p633
(dp634
g3
I00
sg6
I00
sg7
(lp635
g150
ag108
aVrenderLayerInfo[0].renderLayerColor
p636
assVtemplateName
p637
(dp638
g3
I00
sg4
Vstring
p639
sg6
I01
sg7
(lp640
ssg636
(dp641
g3
I00
sg6
I00
sg7
(lp642
ssVdisplayRotatePivot
p643
(dp644
g3
I00
sg4
Vbool
p645
sg6
I01
sg7
(lp646
ssVminScaleLimitEnable.minScaleZLimitEnable
p647
(dp648
g3
I00
sg4
Vbool
p649
sg6
I01
sg7
(lp650
ssg500
(dp651
g3
I00
sg4
Vbool
p652
sg6
I01
sg7
(lp653
ssVinstObjGroups[0]
p654
(dp655
g3
I00
sg6
I00
sg7
(lp656
VinstObjGroups[0].objectGroups
p657
assg517
(dp658
g3
I00
sg4
Vdouble
p659
sg6
I01
sg7
(lp660
ssg440
(dp661
g3
I00
sg4
Vbool
p662
sg6
I01
sg7
(lp663
ssVboundingBox.boundingBoxMin
p664
(dp665
g31
VboundingBox
p666
ssVscalePivot
p667
(dp668
g3
I00
sg4
Vdouble3
p669
sg6
I01
sg7
(lp670
g251
ag365
ag369
assVspecifiedManipLocation
p671
(dp672
g3
I00
sg4
Nsg6
I00
sg7
(lp673
ssVmentalRayControls.miCaustic
p674
(dp675
g3
I00
sg4
Venum
p676
sg6
I01
sg7
(lp677
ssg657
(dp678
g3
I01
sg6
I00
ssVmentalRayControls
p679
(dp680
g3
I00
sg4
VTdataCompound
p681
sg6
I00
sg7
(lp682
g180
ag422
ag37
ag482
aVmentalRayControls.miShadow
p683
ag674
aVmentalRayControls.miGlobillum
p684
aVmentalRayControls.miExportGeoShader
p685
ag470
aVmentalRayControls.miProxyRenderable
p686
assVworldInverseMatrix[0]
p687
(dp688
g3
I00
sg6
I00
sg7
(lp689
ssVboundingBox.boundingBoxMax.boundingBoxMaxY
p690
(dp691
g31
VboundingBox.boundingBoxMax
p692
ssVboundingBox.boundingBoxMax.boundingBoxMaxX
p693
(dp694
g31
VboundingBox.boundingBoxMax
p695
ssg434
(dp696
g3
I00
sg6
I00
sg7
(lp697
ssVboundingBox.boundingBoxMax.boundingBoxMaxZ
p698
(dp699
g31
VboundingBox.boundingBoxMax
p700
ssg604
(dp701
g3
I00
sg4
Vbool
p702
sg6
I01
sg7
(lp703
ssVminScaleLimit
p704
(dp705
g3
I00
sg4
Vdouble3
p706
sg6
I01
sg7
(lp707
g176
ag549
ag357
assVtemplate
p708
(dp709
g3
I00
sg4
Vbool
p710
sg6
I01
sg7
(lp711
ssVboundingBox.boundingBoxSize.boundingBoxSizeY
p712
(dp713
g31
VboundingBox.boundingBoxSize
p714
ssVboundingBox.boundingBoxSize.boundingBoxSizeX
p715
(dp716
g31
VboundingBox.boundingBoxSize
p717
ssg685
(dp718
g3
I00
sg4
Vbool
p719
sg6
I01
sg7
(lp720
ssVboundingBox.boundingBoxSize.boundingBoxSizeZ
p721
(dp722
g31
VboundingBox.boundingBoxSize
p723
ssVblackBox
p724
(dp725
g3
I00
sg4
Vbool
p726
sg6
I01
sg7
(lp727
ssg683
(dp728
g3
I00
sg4
Venum
p729
sg6
I01
sg7
(lp730
ssVghostingControl
p731
(dp732
g3
I00
sg4
Venum
p733
sg6
I01
sg7
(lp734
ssVworldInverseMatrix
p735
(dp736
g3
I01
sg4
Vmatrix
p737
sg6
I00
ssVisHierarchicalConnection[0]
p738
(dp739
g3
I00
sg6
I00
sg7
(lp740
ssVshowManipDefault
p741
(dp742
g3
I00
sg4
Venum
p743
sg6
I01
sg7
(lp744
ssVminScaleLimitEnable
p745
(dp746
g3
I00
sg4
VTdataCompound
p747
sg6
I00
sg7
(lp748
VminScaleLimitEnable.minScaleXLimitEnable
p749
ag342
ag647
assg561
(dp750
g3
I00
sg4
VdoubleAngle
p751
sg6
I01
sg7
(lp752
ssg400
(dp753
g3
I00
sg4
VdoubleLinear
p754
sg6
I01
sg7
(lp755
ssg580
(dp756
g3
I00
sg4
Venum
p757
sg6
I01
sg7
(lp758
ssg313
(dp759
g3
I00
sg4
Vdouble
p760
sg6
I01
sg7
(lp761
ssVisCollapsed
p762
(dp763
g3
I00
sg4
Vbool
p764
sg6
I01
sg7
(lp765
ssVnodeState
p766
(dp767
g3
I00
sg4
Venum
p768
sg6
I01
sg7
(lp769
ssg518
(dp770
g3
I00
sg4
Vdouble
p771
sg6
I01
sg7
(lp772
ssVrenderInfo.identification
p773
(dp774
g31
VrenderInfo
p775
sg3
I00
sg4
Vshort
p776
sg6
I01
sg7
(lp777
ssg412
(dp778
g3
I00
sg6
I00
sg7
(lp779
ssVrenderLayerInfo[1]
p780
(dp781
g3
I00
sg6
I00
sg7
(lp782
g379
aVrenderLayerInfo[1].renderLayerRenderable
p783
ag93
assg331
(dp784
g3
I00
sg4
Vlong
p785
sg6
I01
sg7
(lp786
ssg583
(dp787
g3
I00
sg4
Vbool
p788
sg6
I01
sg7
(lp789
ssVminRotLimitEnable
p790
(dp791
g3
I00
sg4
VTdataCompound
p792
sg6
I00
sg7
(lp793
g501
ag131
ag71
assVrenderInfo
p794
(dp795
g3
I00
sg4
VTdataCompound
p796
sg6
I00
sg7
(lp797
VrenderInfo.identification
p798
aVrenderInfo.layerRenderable
p799
aVrenderInfo.layerOverrideColor
p800
assVrenderLayerInfo
p801
(dp802
g3
I01
sg4
VTdataCompound
p803
sg6
I00
ssVlodVisibility
p804
(dp805
g3
I00
sg4
Vbool
p806
sg6
I01
sg7
(lp807
ssVworldMatrix[1]
p808
(dp809
g3
I00
sg6
I00
sg7
(lp810
ssg278
(dp811
g3
I00
sg6
I00
sg7
(lp812
ssg81
(dp813
g3
I00
sg4
VdoubleLinear
p814
sg6
I01
sg7
(lp815
ssg79
(dp816
g3
I00
sg4
VdoubleLinear
p817
sg6
I01
sg7
(lp818
ssg80
(dp819
g3
I00
sg4
VdoubleLinear
p820
sg6
I01
sg7
(lp821
ssVuiTreatment
p822
(dp823
g3
I00
sg4
Venum
p824
sg6
I01
sg7
(lp825
ssg581
(dp826
g3
I00
sg4
Vbool
p827
sg6
I01
sg7
(lp828
ssg686
(dp829
g3
I00
sg4
Vbool
p830
sg6
I01
sg7
(lp831
ssVcenter.boundingBoxCenterZ
p832
(dp833
g31
Vcenter
p834
ssVrenderLayerInfo.renderLayerColor
p835
(dp836
g31
VrenderLayerInfo
p837
ssg749
(dp838
g3
I00
sg4
Vbool
p839
sg6
I01
sg7
(lp840
ssg414
(dp841
g3
I00
sg6
I00
sg7
(lp842
ssVminTransLimitEnable
p843
(dp844
g3
I00
sg4
VTdataCompound
p845
sg6
I00
sg7
(lp846
g596
ag60
ag168
assVviewMode
p847
(dp848
g3
I00
sg4
Venum
p849
sg6
I01
sg7
(lp850
ssVrotatePivotTranslate
p851
(dp852
g3
I00
sg4
Vdouble3
p853
sg6
I01
sg7
(lp854
g184
ag188
ag361
assg205
(dp855
g3
I00
sg4
VdoubleAngle
p856
sg6
I01
sg7
(lp857
ssVcenter.boundingBoxCenterX
p858
(dp859
g31
Vcenter
p860
ssg203
(dp861
g3
I00
sg4
VdoubleAngle
p862
sg6
I01
sg7
(lp863
ssg204
(dp864
g3
I00
sg4
VdoubleAngle
p865
sg6
I01
sg7
(lp866
ssVcaching
p867
(dp868
g3
I00
sg4
Vbool
p869
sg6
I01
sg7
(lp870
ssVinverseMatrix
p871
(dp872
g3
I00
sg4
Vmatrix
p873
sg6
I00
sg7
(lp874
ssg684
(dp875
g3
I00
sg4
Venum
p876
sg6
I01
sg7
(lp877
ssVghostFrames
p878
(dp879
g3
I00
sg4
Nsg6
I00
sg7
(lp880
ssg783
(dp881
g3
I00
sg6
I00
sg7
(lp882
ssg279
(dp883
g3
I00
sg6
I00
sg7
(lp884
ssVcenter.boundingBoxCenterY
p885
(dp886
g31
Vcenter
p887
ss.