(dp0
VcolourB
p1
(dp2
S'isArray'
p3
I00
sS'attrParentLongName'
p4
Vcolour
p5
sS'attrChildrenNames'
p6
(lp7
sS'isMulti'
p8
I00
sS'isCompound'
p9
I00
sS'isElement'
p10
I00
ssVlocalScale
p11
(dp12
S'isArray'
p13
I00
sS'attrType'
p14
Vdouble3
p15
sS'attrChildrenNames'
p16
(lp17
VlocalScaleX
p18
aVlocalScaleY
p19
aVlocalScaleZ
p20
asS'isMulti'
p21
I00
sS'isCompound'
p22
I01
sS'isSimple'
p23
I01
sS'attrShortName'
p24
Vlos
p25
sS'attrChildrenLongNames'
p26
(lp27
VlocalScale.localScaleX
p28
aVlocalScale.localScaleY
p29
aVlocalScale.localScaleZ
p30
asS'isElement'
p31
I00
ssVcolourG
p32
(dp33
S'isArray'
p34
I00
sS'attrParentLongName'
p35
Vcolour
p36
sS'attrChildrenNames'
p37
(lp38
sS'isMulti'
p39
I00
sS'isCompound'
p40
I00
sS'isElement'
p41
I00
ssVorientation
p42
(dp43
S'isArray'
p44
I00
sg14
Venum
p45
sS'attrChildrenNames'
p46
(lp47
sS'isMulti'
p48
I00
sS'isCompound'
p49
I00
sg23
I01
sg24
Vor
p50
sg26
(lp51
sS'isElement'
p52
I00
ssVlocalPositionZ
p53
(dp54
S'isArray'
p55
I00
sS'attrParentLongName'
p56
VlocalPosition
p57
sS'attrChildrenNames'
p58
(lp59
sS'isMulti'
p60
I00
sS'isCompound'
p61
I00
sS'isElement'
p62
I00
ssVlocalPositionX
p63
(dp64
S'isArray'
p65
I00
sS'attrParentLongName'
p66
VlocalPosition
p67
sS'attrChildrenNames'
p68
(lp69
sS'isMulti'
p70
I00
sS'isCompound'
p71
I00
sS'isElement'
p72
I00
ssVlocalPositionY
p73
(dp74
S'isArray'
p75
I00
sS'attrParentLongName'
p76
VlocalPosition
p77
sS'attrChildrenNames'
p78
(lp79
sS'isMulti'
p80
I00
sS'isCompound'
p81
I00
sS'isElement'
p82
I00
ssVcolourR
p83
(dp84
S'isArray'
p85
I00
sS'attrParentLongName'
p86
Vcolour
p87
sS'attrChildrenNames'
p88
(lp89
sS'isMulti'
p90
I00
sS'isCompound'
p91
I00
sS'isElement'
p92
I00
ssVshape
p93
(dp94
S'isArray'
p95
I00
sg14
Venum
p96
sS'attrChildrenNames'
p97
(lp98
sS'isMulti'
p99
I00
sS'isCompound'
p100
I00
sg23
I01
sg24
Vsh
p101
sg26
(lp102
sS'isElement'
p103
I00
ssVlocalRotation
p104
(dp105
S'isArray'
p106
I00
sg14
Vdouble3
p107
sS'attrChildrenNames'
p108
(lp109
VlocalRotationX
p110
aVlocalRotationY
p111
aVlocalRotationZ
p112
asS'isMulti'
p113
I00
sS'isCompound'
p114
I01
sg23
I01
sg24
Vlr
p115
sg26
(lp116
VlocalRotation.localRotationX
p117
aVlocalRotation.localRotationY
p118
aVlocalRotation.localRotationZ
p119
asS'isElement'
p120
I00
ssVthickness
p121
(dp122
S'isArray'
p123
I00
sg14
Vdouble
p124
sS'attrChildrenNames'
p125
(lp126
sS'isMulti'
p127
I00
sS'isCompound'
p128
I00
sg23
I01
sg24
Vth
p129
sg26
(lp130
sS'isElement'
p131
I00
ssVlocalScaleX
p132
(dp133
S'isArray'
p134
I00
sS'attrParentLongName'
p135
VlocalScale
p136
sS'attrChildrenNames'
p137
(lp138
sS'isMulti'
p139
I00
sS'isCompound'
p140
I00
sS'isElement'
p141
I00
ssVlocalScaleY
p142
(dp143
S'isArray'
p144
I00
sS'attrParentLongName'
p145
VlocalScale
p146
sS'attrChildrenNames'
p147
(lp148
sS'isMulti'
p149
I00
sS'isCompound'
p150
I00
sS'isElement'
p151
I00
ssVlocalScaleZ
p152
(dp153
S'isArray'
p154
I00
sS'attrParentLongName'
p155
VlocalScale
p156
sS'attrChildrenNames'
p157
(lp158
sS'isMulti'
p159
I00
sS'isCompound'
p160
I00
sS'isElement'
p161
I00
ssVboundingBox.boundingBoxMin.boundingBoxMinY
p162
(dp163
S'attrParentLongName'
p164
VboundingBox.boundingBoxMin
p165
ssVboundingBox.boundingBoxMin.boundingBoxMinX
p166
(dp167
g164
VboundingBox.boundingBoxMin
p168
ssVboundingBox.boundingBoxMin.boundingBoxMinZ
p169
(dp170
g164
VboundingBox.boundingBoxMin
p171
ssVlocalPosition
p172
(dp173
S'isArray'
p174
I00
sg14
Vdouble3
p175
sS'attrChildrenNames'
p176
(lp177
VlocalPositionX
p178
aVlocalPositionY
p179
aVlocalPositionZ
p180
asS'isMulti'
p181
I00
sS'isCompound'
p182
I01
sg23
I01
sg24
Vlp
p183
sg26
(lp184
VlocalPosition.localPositionX
p185
aVlocalPosition.localPositionY
p186
aVlocalPosition.localPositionZ
p187
asS'isElement'
p188
I00
ssVcolour.colourG
p189
(dp190
S'isArray'
p191
I00
sg14
Vfloat
p192
sS'isMulti'
p193
I00
sS'isCompound'
p194
I00
sg23
I01
sg24
Vccg
p195
sg26
(lp196
ssg119
(dp197
g191
I00
sg14
VdoubleAngle
p198
sg193
I00
sg194
I00
sg23
I01
sg24
Vlrz
p199
sg26
(lp200
ssg117
(dp201
g191
I00
sg14
VdoubleAngle
p202
sg193
I00
sg194
I00
sg23
I01
sg24
Vlrx
p203
sg26
(lp204
ssg118
(dp205
g191
I00
sg14
VdoubleAngle
p206
sg193
I00
sg194
I00
sg23
I01
sg24
Vlry
p207
sg26
(lp208
ssValpha
p209
(dp210
S'isArray'
p211
I00
sg14
Vdouble
p212
sS'attrChildrenNames'
p213
(lp214
sS'isMulti'
p215
I00
sS'isCompound'
p216
I00
sg23
I01
sg24
Va
p217
sg26
(lp218
sS'isElement'
p219
I00
ssVlocalRotationZ
p220
(dp221
S'isArray'
p222
I00
sS'attrParentLongName'
p223
VlocalRotation
p224
sS'attrChildrenNames'
p225
(lp226
sS'isMulti'
p227
I00
sS'isCompound'
p228
I00
sS'isElement'
p229
I00
ssVlocalRotationY
p230
(dp231
S'isArray'
p232
I00
sS'attrParentLongName'
p233
VlocalRotation
p234
sS'attrChildrenNames'
p235
(lp236
sS'isMulti'
p237
I00
sS'isCompound'
p238
I00
sS'isElement'
p239
I00
ssVlocalRotationX
p240
(dp241
S'isArray'
p242
I00
sS'attrParentLongName'
p243
VlocalRotation
p244
sS'attrChildrenNames'
p245
(lp246
sS'isMulti'
p247
I00
sS'isCompound'
p248
I00
sS'isElement'
p249
I00
ssg187
(dp250
g191
I00
sg14
VdoubleLinear
p251
sg193
I00
sg194
I00
sg23
I01
sg24
Vlpz
p252
sg26
(lp253
ssVcolour
p254
(dp255
S'isArray'
p256
I00
sg14
Vfloat3
p257
sS'attrChildrenNames'
p258
(lp259
VcolourR
p260
aVcolourG
p261
aVcolourB
p262
asS'isMulti'
p263
I00
sS'isCompound'
p264
I01
sg23
I00
sg24
Vcc
p265
sg26
(lp266
Vcolour.colourR
p267
ag189
aVcolour.colourB
p268
asS'isElement'
p269
I00
ssg186
(dp270
g191
I00
sg14
VdoubleLinear
p271
sg193
I00
sg194
I00
sg23
I01
sg24
Vlpy
p272
sg26
(lp273
ssg267
(dp274
g191
I00
sg14
Vfloat
p275
sg193
I00
sg194
I00
sg23
I01
sg24
Vccr
p276
sg26
(lp277
ssg30
(dp278
g191
I00
sg14
VdoubleLinear
p279
sg193
I00
sg194
I00
sg23
I01
sg24
Vlsz
p280
sg26
(lp281
ssg28
(dp282
g191
I00
sg14
VdoubleLinear
p283
sg193
I00
sg194
I00
sg23
I01
sg24
Vlsx
p284
sg26
(lp285
ssg29
(dp286
g191
I00
sg14
VdoubleLinear
p287
sg193
I00
sg194
I00
sg23
I01
sg24
Vlsy
p288
sg26
(lp289
ssg185
(dp290
g191
I00
sg14
VdoubleLinear
p291
sg193
I00
sg194
I00
sg23
I01
sg24
Vlpx
p292
sg26
(lp293
ssg268
(dp294
g191
I00
sg14
Vfloat
p295
sg193
I00
sg194
I00
sg23
I01
sg24
Vccb
p296
sg26
(lp297
ss.