(dp0
Vpart[10].name
p1
(dp2
S'isArray'
p3
I00
sS'attrType'
p4
Vstring
p5
sS'isMulti'
p6
I00
sS'isCompound'
p7
I00
sS'isSimple'
p8
I01
sS'attrChildrenLongNames'
p9
(lp10
ssVpart[23].controler
p11
(dp12
g3
I00
sg6
I00
sg4
Vmessage
p13
sg8
I00
sg9
(lp14
ssVpart[10].inMatrix
p15
(dp16
g3
I00
sg6
I00
sg4
Nsg8
I00
sg9
(lp17
ssVpart[26].inMatrix
p18
(dp19
g3
I00
sS'isSimple'
p20
I00
sg9
(lp21
ssVpart.offsetMatrix
p22
(dp23
S'attrParentLongName'
p24
Vpart
p25
ssVpart[3].inMatrix
p26
(dp27
g3
I00
sg4
Nsg6
I00
sg8
I00
sS'attrShortName'
p28
Vpart[3].inMatrix
p29
sg9
(lp30
ssVpart[4].operation
p31
(dp32
g3
I00
sg4
Venum
p33
sg6
I00
sg7
I00
sg8
I01
sg28
Vpart[4].operation
p34
sg9
(lp35
ssVpart[4].name
p36
(dp37
g3
I00
sg4
Vstring
p38
sg6
I00
sg7
I00
sg8
I01
sg28
Vpart[4].name
p39
sg9
(lp40
ssVpart[7].controler
p41
(dp42
g3
I00
sg4
Vmessage
p43
sg6
I00
sg8
I00
sg28
Vpart[7].controler
p44
sg9
(lp45
ssVpart[6]
p46
(dp47
g3
I00
sg4
VTdataCompound
p48
sg6
I00
sg8
I00
sg28
Vpart[6]
p49
sg9
(lp50
Vpart[6].operation
p51
aVpart[6].name
p52
aVpart[6].inMatrix
p53
aVpart[6].controler
p54
assVpart[2].controler
p55
(dp56
g3
I00
sg4
Vmessage
p57
sg6
I00
sg8
I00
sg28
Vpart[2].controler
p58
sg9
(lp59
ssVpart[15].inMatrix
p60
(dp61
g3
I00
sg6
I00
sg4
Nsg8
I00
sg9
(lp62
ssVpart[5].name
p63
(dp64
g3
I00
sg4
Vstring
p65
sg6
I00
sg7
I00
sg8
I01
sg28
Vpart[5].name
p66
sg9
(lp67
ssg54
(dp68
g3
I00
sg4
Vmessage
p69
sg6
I00
sg8
I00
sg28
Vpart[6].controler
p70
sg9
(lp71
ssVpart[16]
p72
(dp73
g3
I00
sg6
I00
sg4
VTdataCompound
p74
sg8
I00
sg9
(lp75
Vpart[16].operation
p76
aVpart[16].name
p77
aVpart[16].inMatrix
p78
aVpart[16].controler
p79
assVpart[25]
p80
(dp81
g3
I00
sg6
I00
sg4
VTdataCompound
p82
sg8
I00
sg9
(lp83
Vpart[25].operation
p84
aVpart[25].name
p85
aVpart[25].inMatrix
p86
aVpart[25].controler
p87
assVpart[23].operation
p88
(dp89
g3
I00
sg4
Venum
p90
sg6
I00
sg7
I00
sg8
I01
sg9
(lp91
ssVpart[27].operation
p92
(dp93
g3
I00
sg20
I00
sg9
(lp94
ssVpart.inMatrix
p95
(dp96
S'attrParentLongName'
p97
Vpart
p98
ssVpart[26].operation
p99
(dp100
g3
I00
sg20
I00
sg9
(lp101
ssVpart[12].name
p102
(dp103
g3
I00
sg4
Vstring
p104
sg6
I00
sg7
I00
sg8
I01
sg9
(lp105
ssVpart[27].controler
p106
(dp107
g3
I00
sg20
I00
sg9
(lp108
ssVpart[7]
p109
(dp110
g3
I00
sg4
VTdataCompound
p111
sg6
I00
sg8
I00
sg28
Vpart[7]
p112
sg9
(lp113
Vpart[7].operation
p114
aVpart[7].name
p115
aVpart[7].inMatrix
p116
ag41
assg52
(dp117
g3
I00
sg4
Vstring
p118
sg6
I00
sg7
I00
sg8
I01
sg28
Vpart[6].name
p119
sg9
(lp120
ssVpart[9].name
p121
(dp122
g3
I00
sg4
Vstring
p123
sg6
I00
sg7
I00
sg8
I01
sg9
(lp124
ssVpart[12].inMatrix
p125
(dp126
g3
I00
sg6
I00
sg4
Nsg8
I00
sg9
(lp127
ssVpart[19].inMatrix
p128
(dp129
g3
I00
sg6
I00
sg4
Nsg8
I00
sg9
(lp130
ssVpart[5].operation
p131
(dp132
g3
I00
sg4
Venum
p133
sg6
I00
sg7
I00
sg8
I01
sg28
Vpart[5].operation
p134
sg9
(lp135
ssVpart[4].controler
p136
(dp137
g3
I00
sg4
Vmessage
p138
sg6
I00
sg8
I00
sg28
Vpart[4].controler
p139
sg9
(lp140
ssVpart[1]
p141
(dp142
g3
I00
sg4
VTdataCompound
p143
sg6
I00
sg8
I00
sg28
Vpart[1]
p144
sg9
(lp145
Vpart[1].operation
p146
aVpart[1].name
p147
aVpart[1].inMatrix
p148
aVpart[1].controler
p149
assVpart[5].controler
p150
(dp151
g3
I00
sg4
Vmessage
p152
sg6
I00
sg8
I00
sg28
Vpart[5].controler
p153
sg9
(lp154
ssVpart[0].controler
p155
(dp156
g3
I00
sg4
Vmessage
p157
sg6
I00
sg8
I00
sg28
Vpart[0].controler
p158
sg9
(lp159
ssVpart[0].inMatrix
p160
(dp161
g3
I00
sg4
Nsg6
I00
sg8
I00
sg28
Vpart[0].inMatrix
p162
sg9
(lp163
ssVpart[12].operation
p164
(dp165
g3
I00
sg4
Venum
p166
sg6
I00
sg7
I00
sg8
I01
sg9
(lp167
ssg85
(dp168
g3
I00
sg4
Vstring
p169
sg6
I00
sg7
I00
sg8
I01
sg9
(lp170
ssVpart[26].controler
p171
(dp172
g3
I00
sg20
I00
sg9
(lp173
ssVpart[24].inMatrix
p174
(dp175
g3
I00
sg6
I00
sg4
Nsg8
I00
sg9
(lp176
ssVpart[8].inMatrix
p177
(dp178
g3
I00
sg4
Nsg6
I00
sg8
I00
sg28
Vpart[8].inMatrix
p179
sg9
(lp180
ssVpart.name
p181
(dp182
g97
Vpart
p183
ssVpart[17]
p184
(dp185
g3
I00
sg6
I00
sg4
VTdataCompound
p186
sg8
I00
sg9
(lp187
Vpart[17].operation
p188
aVpart[17].name
p189
aVpart[17].inMatrix
p190
aVpart[17].controler
p191
assVpart[23].inMatrix
p192
(dp193
g3
I00
sg6
I00
sg4
Nsg8
I00
sg9
(lp194
ssVpart[12].controler
p195
(dp196
g3
I00
sg6
I00
sg4
Vmessage
p197
sg8
I00
sg9
(lp198
ssVpart[11].controler
p199
(dp200
g3
I00
sg6
I00
sg4
Vmessage
p201
sg8
I00
sg9
(lp202
ssVpart[15].operation
p203
(dp204
g3
I00
sg4
Venum
p205
sg6
I00
sg7
I00
sg8
I01
sg9
(lp206
ssVpart[15].name
p207
(dp208
g3
I00
sg4
Vstring
p209
sg6
I00
sg7
I00
sg8
I01
sg9
(lp210
ssVpart[20].controler
p211
(dp212
g3
I00
sg6
I00
sg4
Vmessage
p213
sg8
I00
sg9
(lp214
ssVpart[24].operation
p215
(dp216
g3
I00
sg4
Venum
p217
sg6
I00
sg7
I00
sg8
I01
sg9
(lp218
ssVpart[22].inMatrix
p219
(dp220
g3
I00
sg6
I00
sg4
Nsg8
I00
sg9
(lp221
ssg115
(dp222
g3
I00
sg4
Vstring
p223
sg6
I00
sg7
I00
sg8
I01
sg28
Vpart[7].name
p224
sg9
(lp225
ssVpart[24].controler
p226
(dp227
g3
I00
sg6
I00
sg4
Vmessage
p228
sg8
I00
sg9
(lp229
ssVpart[4]
p230
(dp231
g3
I00
sg4
VTdataCompound
p232
sg6
I00
sg8
I00
sg28
Vpart[4]
p233
sg9
(lp234
g31
ag36
aVpart[4].inMatrix
p235
ag136
assVpart[20].name
p236
(dp237
g3
I00
sg4
Vstring
p238
sg6
I00
sg7
I00
sg8
I01
sg9
(lp239
ssVpart[13].name
p240
(dp241
g3
I00
sg4
Vstring
p242
sg6
I00
sg7
I00
sg8
I01
sg9
(lp243
ssVpart[11].inMatrix
p244
(dp245
g3
I00
sg6
I00
sg4
Nsg8
I00
sg9
(lp246
ssVpart[9].inMatrix
p247
(dp248
g3
I00
sg6
I00
sg4
Nsg8
I00
sg9
(lp249
ssg149
(dp250
g3
I00
sg4
Vmessage
p251
sg6
I00
sg8
I00
sg28
Vpart[1].controler
p252
sg9
(lp253
ssg114
(dp254
g3
I00
sg4
Venum
p255
sg6
I00
sg7
I00
sg8
I01
sg28
Vpart[7].operation
p256
sg9
(lp257
ssVpart[8].name
p258
(dp259
g3
I00
sg4
Vstring
p260
sg6
I00
sg7
I00
sg8
I01
sg28
Vpart[8].name
p261
sg9
(lp262
ssVpart[24]
p263
(dp264
g3
I00
sg6
I00
sg4
VTdataCompound
p265
sg8
I00
sg9
(lp266
g215
aVpart[24].name
p267
ag174
ag226
assVpart[22].operation
p268
(dp269
g3
I00
sg4
Venum
p270
sg6
I00
sg7
I00
sg8
I01
sg9
(lp271
ssVpart[2].name
p272
(dp273
g3
I00
sg4
Vstring
p274
sg6
I00
sg7
I00
sg8
I01
sg28
Vpart[2].name
p275
sg9
(lp276
ssg116
(dp277
g3
I00
sg4
Nsg6
I00
sg8
I00
sg28
Vpart[7].inMatrix
p278
sg9
(lp279
ssVpart[27]
p280
(dp281
g3
I00
sg20
I00
sg9
(lp282
g92
aVpart[27].name
p283
aVpart[27].inMatrix
p284
ag106
assVpart[8].operation
p285
(dp286
g3
I00
sg4
Venum
p287
sg6
I00
sg7
I00
sg8
I01
sg28
Vpart[8].operation
p288
sg9
(lp289
ssg78
(dp290
g3
I00
sg6
I00
sg4
Nsg8
I00
sg9
(lp291
ssVpart[18]
p292
(dp293
g3
I00
sg6
I00
sg4
VTdataCompound
p294
sg8
I00
sg9
(lp295
Vpart[18].operation
p296
aVpart[18].name
p297
aVpart[18].inMatrix
p298
aVpart[18].controler
p299
assVpart[22].controler
p300
(dp301
g3
I00
sg6
I00
sg4
Vmessage
p302
sg8
I00
sg9
(lp303
ssVpart[11]
p304
(dp305
g3
I00
sg6
I00
sg4
VTdataCompound
p306
sg8
I00
sg9
(lp307
Vpart[11].operation
p308
aVpart[11].name
p309
ag244
ag199
assVviewName
p310
(dp311
g3
I00
sg4
Vstring
p312
sg6
I00
sg7
I00
sg8
I01
sg28
VviewName
p313
sg9
(lp314
ssVpart[2].operation
p315
(dp316
g3
I00
sg4
Venum
p317
sg6
I00
sg7
I00
sg8
I01
sg28
Vpart[2].operation
p318
sg9
(lp319
ssVpart[21].name
p320
(dp321
g3
I00
sg4
Vstring
p322
sg6
I00
sg7
I00
sg8
I01
sg9
(lp323
ssg188
(dp324
g3
I00
sg4
Venum
p325
sg6
I00
sg7
I00
sg8
I01
sg9
(lp326
ssg86
(dp327
g3
I00
sg6
I00
sg4
Nsg8
I00
sg9
(lp328
ssVpart[9].operation
p329
(dp330
g3
I00
sg4
Venum
p331
sg6
I00
sg7
I00
sg8
I01
sg9
(lp332
ssVpart[21].operation
p333
(dp334
g3
I00
sg4
Venum
p335
sg6
I00
sg7
I00
sg8
I01
sg9
(lp336
ssg77
(dp337
g3
I00
sg4
Vstring
p338
sg6
I00
sg7
I00
sg8
I01
sg9
(lp339
ssVpart[19].controler
p340
(dp341
g3
I00
sg6
I00
sg4
Vmessage
p342
sg8
I00
sg9
(lp343
ssg235
(dp344
g3
I00
sg4
Nsg6
I00
sg8
I00
sg28
Vpart[4].inMatrix
p345
sg9
(lp346
ssVpart[9].controler
p347
(dp348
g3
I00
sg6
I00
sg4
Vmessage
p349
sg8
I00
sg9
(lp350
ssVpart[10].controler
p351
(dp352
g3
I00
sg6
I00
sg4
Vmessage
p353
sg8
I00
sg9
(lp354
ssVpart[10].operation
p355
(dp356
g3
I00
sg4
Venum
p357
sg6
I00
sg7
I00
sg8
I01
sg9
(lp358
ssVpart[14].operation
p359
(dp360
g3
I00
sg4
Venum
p361
sg6
I00
sg7
I00
sg8
I01
sg9
(lp362
ssVpart[19]
p363
(dp364
g3
I00
sg6
I00
sg4
VTdataCompound
p365
sg8
I00
sg9
(lp366
Vpart[19].operation
p367
aVpart[19].name
p368
ag128
ag340
assVpart[0].name
p369
(dp370
g3
I00
sg4
Vstring
p371
sg6
I00
sg7
I00
sg8
I01
sg28
Vpart[0].name
p372
sg9
(lp373
ssVpart[26]
p374
(dp375
g3
I00
sg20
I00
sg9
(lp376
g99
aVpart[26].name
p377
ag18
ag171
assg84
(dp378
g3
I00
sg4
Venum
p379
sg6
I00
sg7
I00
sg8
I01
sg9
(lp380
ssVpart[20].inMatrix
p381
(dp382
g3
I00
sg6
I00
sg4
Nsg8
I00
sg9
(lp383
ssg147
(dp384
g3
I00
sg4
Vstring
p385
sg6
I00
sg7
I00
sg8
I01
sg28
Vpart[1].name
p386
sg9
(lp387
ssg284
(dp388
g3
I00
sg20
I00
sg9
(lp389
ssVpart[12]
p390
(dp391
g3
I00
sg6
I00
sg4
VTdataCompound
p392
sg8
I00
sg9
(lp393
g164
ag102
ag125
ag195
assVpart[21]
p394
(dp395
g3
I00
sg6
I00
sg4
VTdataCompound
p396
sg8
I00
sg9
(lp397
g333
ag320
aVpart[21].inMatrix
p398
aVpart[21].controler
p399
assVpart[14].inMatrix
p400
(dp401
g3
I00
sg6
I00
sg4
Nsg8
I00
sg9
(lp402
ssg148
(dp403
g3
I00
sg4
Nsg6
I00
sg8
I00
sg28
Vpart[1].inMatrix
p404
sg9
(lp405
ssVpart[3].controler
p406
(dp407
g3
I00
sg4
Vmessage
p408
sg6
I00
sg8
I00
sg28
Vpart[3].controler
p409
sg9
(lp410
ssVisHistoricallyInteresting
p411
(dp412
g3
I00
sg4
Vbyte
p413
sg6
I00
sg8
I00
sg28
Vihi
p414
sg9
(lp415
ssVpart[3]
p416
(dp417
g3
I00
sg4
VTdataCompound
p418
sg6
I00
sg8
I00
sg28
Vpart[3]
p419
sg9
(lp420
Vpart[3].operation
p421
aVpart[3].name
p422
ag26
ag406
assVpart[14].name
p423
(dp424
g3
I00
sg4
Vstring
p425
sg6
I00
sg7
I00
sg8
I01
sg9
(lp426
ssg51
(dp427
g3
I00
sg4
Venum
p428
sg6
I00
sg7
I00
sg8
I01
sg28
Vpart[6].operation
p429
sg9
(lp430
ssg267
(dp431
g3
I00
sg4
Vstring
p432
sg6
I00
sg7
I00
sg8
I01
sg9
(lp433
ssg398
(dp434
g3
I00
sg6
I00
sg4
Nsg8
I00
sg9
(lp435
ssVrotationSpace
p436
(dp437
g3
I00
sg4
Venum
p438
sg6
I00
sg7
I00
sg8
I01
sg28
VrotationSpace
p439
sg9
(lp440
ssg76
(dp441
g3
I00
sg4
Venum
p442
sg6
I00
sg7
I00
sg8
I01
sg9
(lp443
ssVpart[13].operation
p444
(dp445
g3
I00
sg4
Venum
p446
sg6
I00
sg7
I00
sg8
I01
sg9
(lp447
ssVpart[13]
p448
(dp449
g3
I00
sg6
I00
sg4
VTdataCompound
p450
sg8
I00
sg9
(lp451
g444
ag240
aVpart[13].inMatrix
p452
aVpart[13].controler
p453
assg191
(dp454
g3
I00
sg6
I00
sg4
Vmessage
p455
sg8
I00
sg9
(lp456
ssVpart[20]
p457
(dp458
g3
I00
sg6
I00
sg4
VTdataCompound
p459
sg8
I00
sg9
(lp460
Vpart[20].operation
p461
ag236
ag381
ag211
assg146
(dp462
g3
I00
sg4
Venum
p463
sg6
I00
sg7
I00
sg8
I01
sg28
Vpart[1].operation
p464
sg9
(lp465
ssVpart
p466
(dp467
g3
I01
sg6
I01
sg28
Vpart
p468
sg8
I00
sg4
VTdataCompound
p469
ssVpart[5]
p470
(dp471
g3
I00
sg4
VTdataCompound
p472
sg6
I00
sg8
I00
sg28
Vpart[5]
p473
sg9
(lp474
g131
ag63
aVpart[5].inMatrix
p475
ag150
assVpart[0]
p476
(dp477
g3
I00
sg4
VTdataCompound
p478
sg6
I00
sg8
I00
sg28
Vpart[0]
p479
sg9
(lp480
Vpart[0].operation
p481
ag369
ag160
ag155
assg452
(dp482
g3
I00
sg6
I00
sg4
Nsg8
I00
sg9
(lp483
ssVpart[2]
p484
(dp485
g3
I00
sg4
VTdataCompound
p486
sg6
I00
sg8
I00
sg28
Vpart[2]
p487
sg9
(lp488
g315
ag272
aVpart[2].inMatrix
p489
ag55
assg489
(dp490
g3
I00
sg4
Nsg6
I00
sg8
I00
sg28
Vpart[2].inMatrix
p491
sg9
(lp492
ssVcompute
p493
(dp494
g3
I00
sg4
Venum
p495
sg6
I00
sg7
I00
sg8
I01
sg28
Vcompute
p496
sg9
(lp497
ssVpart[8].controler
p498
(dp499
g3
I00
sg4
Vmessage
p500
sg6
I00
sg8
I00
sg28
Vpart[8].controler
p501
sg9
(lp502
ssg87
(dp503
g3
I00
sg6
I00
sg4
Vmessage
p504
sg8
I00
sg9
(lp505
ssg399
(dp506
g3
I00
sg6
I00
sg4
Vmessage
p507
sg8
I00
sg9
(lp508
ssg79
(dp509
g3
I00
sg6
I00
sg4
Vmessage
p510
sg8
I00
sg9
(lp511
ssg422
(dp512
g3
I00
sg4
Vstring
p513
sg6
I00
sg7
I00
sg8
I01
sg28
Vpart[3].name
p514
sg9
(lp515
ssVbinMembership
p516
(dp517
S'isArray'
p518
I00
sS'attrType'
p519
Vstring
p520
sS'isMulti'
p521
I00
sS'isCompound'
p522
I00
sS'isSimple'
p523
I01
sg28
Vbnm
p524
sS'attrChildrenLongNames'
p525
(lp526
ssg190
(dp527
g3
I00
sg6
I00
sg4
Nsg8
I00
sg9
(lp528
ssg421
(dp529
g3
I00
sg4
Venum
p530
sg6
I00
sg7
I00
sg8
I01
sg28
Vpart[3].operation
p531
sg9
(lp532
ssg461
(dp533
g3
I00
sg4
Venum
p534
sg6
I00
sg7
I00
sg8
I01
sg9
(lp535
ssg189
(dp536
g3
I00
sg4
Vstring
p537
sg6
I00
sg7
I00
sg8
I01
sg9
(lp538
ssg283
(dp539
g3
I00
sg20
I00
sg9
(lp540
ssVpart.operation
p541
(dp542
g97
Vpart
p543
ssVpart[14]
p544
(dp545
g3
I00
sg6
I00
sg4
VTdataCompound
p546
sg8
I00
sg9
(lp547
g359
ag423
ag400
aVpart[14].controler
p548
assg548
(dp549
g3
I00
sg6
I00
sg4
Vmessage
p550
sg8
I00
sg9
(lp551
ssg377
(dp552
g3
I00
sg20
I00
sg9
(lp553
ssg368
(dp554
g3
I00
sg4
Vstring
p555
sg6
I00
sg7
I00
sg8
I01
sg9
(lp556
ssVoutput
p557
(dp558
g3
I00
sg4
Vdouble
p559
sg6
I00
sg7
I00
sg8
I01
sg28
Voutput
p560
sg9
(lp561
ssg309
(dp562
g3
I00
sg4
Vstring
p563
sg6
I00
sg7
I00
sg8
I01
sg9
(lp564
ssVpart[9]
p565
(dp566
g3
I00
sg6
I00
sg4
VTdataCompound
p567
sg8
I00
sg9
(lp568
g329
ag121
ag247
ag347
assVpart[23]
p569
(dp570
g3
I00
sg6
I00
sg4
VTdataCompound
p571
sg8
I00
sg9
(lp572
g88
aVpart[23].name
p573
ag192
ag11
assVpart[10]
p574
(dp575
g3
I00
sg6
I00
sg4
VTdataCompound
p576
sg8
I00
sg9
(lp577
g355
ag1
ag15
ag351
assVnodeState
p578
(dp579
g3
I00
sg4
Venum
p580
sg6
I00
sg7
I00
sg8
I01
sg28
Vnds
p581
sg9
(lp582
ssVtranslationSpace
p583
(dp584
g3
I00
sg4
Venum
p585
sg6
I00
sg7
I00
sg8
I01
sg28
VtranslationSpace
p586
sg9
(lp587
ssVpart[15]
p588
(dp589
g3
I00
sg6
I00
sg4
VTdataCompound
p590
sg8
I00
sg9
(lp591
g203
ag207
ag60
aVpart[15].controler
p592
assVpart[22]
p593
(dp594
g3
I00
sg6
I00
sg4
VTdataCompound
p595
sg8
I00
sg9
(lp596
g268
aVpart[22].name
p597
ag219
ag300
assg53
(dp598
g3
I00
sg4
Nsg6
I00
sg8
I00
sg28
Vpart[6].inMatrix
p599
sg9
(lp600
ssg296
(dp601
g3
I00
sg4
Venum
p602
sg6
I00
sg7
I00
sg8
I01
sg9
(lp603
ssg297
(dp604
g3
I00
sg4
Vstring
p605
sg6
I00
sg7
I00
sg8
I01
sg9
(lp606
ssg308
(dp607
g3
I00
sg4
Venum
p608
sg6
I00
sg7
I00
sg8
I01
sg9
(lp609
ssg597
(dp610
g3
I00
sg4
Vstring
p611
sg6
I00
sg7
I00
sg8
I01
sg9
(lp612
ssg573
(dp613
g3
I00
sg4
Vstring
p614
sg6
I00
sg7
I00
sg8
I01
sg9
(lp615
ssg475
(dp616
g3
I00
sg4
Nsg6
I00
sg8
I00
sg28
Vpart[5].inMatrix
p617
sg9
(lp618
ssg592
(dp619
g3
I00
sg6
I00
sg4
Vmessage
p620
sg8
I00
sg9
(lp621
ssg299
(dp622
g3
I00
sg6
I00
sg4
Vmessage
p623
sg8
I00
sg9
(lp624
ssg367
(dp625
g3
I00
sg4
Venum
p626
sg6
I00
sg7
I00
sg8
I01
sg9
(lp627
ssg481
(dp628
g3
I00
sg4
Venum
p629
sg6
I00
sg7
I00
sg8
I01
sg28
Vpart[0].operation
p630
sg9
(lp631
ssVcaching
p632
(dp633
g3
I00
sg4
Vbool
p634
sg6
I00
sg7
I00
sg8
I01
sg28
Vcch
p635
sg9
(lp636
ssg453
(dp637
g3
I00
sg6
I00
sg4
Vmessage
p638
sg8
I00
sg9
(lp639
ssg298
(dp640
g3
I00
sg6
I00
sg4
Nsg8
I00
sg9
(lp641
ssVpart[8]
p642
(dp643
g3
I00
sg4
VTdataCompound
p644
sg6
I00
sg8
I00
sg28
Vpart[8]
p645
sg9
(lp646
g285
ag258
ag177
ag498
ass.