(dp0
VrayDirection
p1
(dp2
S'isArray'
p3
I00
sS'isElement'
p4
I00
sS'isMulti'
p5
I00
sS'isCompound'
p6
I01
sS'attrChildrenNames'
p7
(lp8
VrayDirection.rayDirectionX
p9
aVrayDirection.rayDirectionY
p10
aVrayDirection.rayDirectionZ
p11
assVtangentVCamera
p12
(dp13
S'isArray'
p14
I00
sS'isElement'
p15
I00
sS'isMulti'
p16
I00
sS'attrChildrenNames'
p17
(lp18
VtangentVCamera.tangentVx
p19
aVtangentVCamera.tangentVy
p20
aVtangentVCamera.tangentVz
p21
asS'isCompound'
p22
I01
ssVmatrixEyeToWorld
p23
(dp24
S'isArray'
p25
I00
sS'isElement'
p26
I00
sS'isCompound'
p27
I00
sS'attrChildrenNames'
p28
(lp29
sS'isMulti'
p30
I00
ssVnodeState
p31
(dp32
S'isArray'
p33
I00
sS'isElement'
p34
I00
sS'isMulti'
p35
I00
sS'attrChildrenNames'
p36
(lp37
sS'isCompound'
p38
I00
ssVtangentVCamera.tangentVy
p39
(dp40
S'isArray'
p41
I00
sS'attrParentLongName'
p42
VtangentVCamera
p43
sS'attrChildrenNames'
p44
(lp45
sS'isMulti'
p46
I00
sS'isCompound'
p47
I00
sS'isElement'
p48
I00
ssVtangentVCamera.tangentVx
p49
(dp50
S'isArray'
p51
I00
sS'attrParentLongName'
p52
VtangentVCamera
p53
sS'attrChildrenNames'
p54
(lp55
sS'isMulti'
p56
I00
sS'isCompound'
p57
I00
sS'isElement'
p58
I00
ssVtangentVCamera.tangentVz
p59
(dp60
S'isArray'
p61
I00
sS'attrParentLongName'
p62
VtangentVCamera
p63
sS'attrChildrenNames'
p64
(lp65
sS'isMulti'
p66
I00
sS'isCompound'
p67
I00
sS'isElement'
p68
I00
ssVuvCoord.vCoord
p69
(dp70
S'isArray'
p71
I00
sS'attrParentLongName'
p72
VuvCoord
p73
sS'attrChildrenNames'
p74
(lp75
sS'isMulti'
p76
I00
sS'isCompound'
p77
I00
sS'isElement'
p78
I00
ssVisHistoricallyInteresting
p79
(dp80
S'isArray'
p81
I00
sS'isElement'
p82
I00
sS'isMulti'
p83
I00
sS'isCompound'
p84
I00
sS'attrChildrenNames'
p85
(lp86
ssVnormalCamera.normalCameraX
p87
(dp88
S'isArray'
p89
I00
sS'attrParentLongName'
p90
VnormalCamera
p91
sS'attrChildrenNames'
p92
(lp93
sS'isMulti'
p94
I00
sS'isCompound'
p95
I00
sS'isElement'
p96
I00
ssVnormalCamera.normalCameraY
p97
(dp98
S'isArray'
p99
I00
sS'attrParentLongName'
p100
VnormalCamera
p101
sS'attrChildrenNames'
p102
(lp103
sS'isMulti'
p104
I00
sS'isCompound'
p105
I00
sS'isElement'
p106
I00
ssVnormalCamera.normalCameraZ
p107
(dp108
S'isArray'
p109
I00
sS'attrParentLongName'
p110
VnormalCamera
p111
sS'attrChildrenNames'
p112
(lp113
sS'isMulti'
p114
I00
sS'isCompound'
p115
I00
sS'isElement'
p116
I00
ssVfacingRatio
p117
(dp118
S'isArray'
p119
I00
sS'isElement'
p120
I00
sS'isCompound'
p121
I00
sS'attrChildrenNames'
p122
(lp123
sS'isMulti'
p124
I00
ssVuvCoord
p125
(dp126
S'isArray'
p127
I00
sS'isElement'
p128
I00
sS'isMulti'
p129
I00
sS'isCompound'
p130
I01
sS'attrChildrenNames'
p131
(lp132
VuvCoord.uCoord
p133
aVuvCoord.vCoord
p134
assVtangentUCamera
p135
(dp136
S'isArray'
p137
I00
sS'isElement'
p138
I00
sS'attrChildrenNames'
p139
(lp140
VtangentUCamera.tangentUx
p141
aVtangentUCamera.tangentUy
p142
aVtangentUCamera.tangentUz
p143
asS'isCompound'
p144
I01
sS'isMulti'
p145
I00
ssVpointObj.pointObjZ
p146
(dp147
S'isArray'
p148
I00
sS'attrParentLongName'
p149
VpointObj
p150
sS'attrChildrenNames'
p151
(lp152
sS'isMulti'
p153
I00
sS'isCompound'
p154
I00
sS'isElement'
p155
I00
ssVpointObj.pointObjX
p156
(dp157
S'isArray'
p158
I00
sS'attrParentLongName'
p159
VpointObj
p160
sS'attrChildrenNames'
p161
(lp162
sS'isMulti'
p163
I00
sS'isCompound'
p164
I00
sS'isElement'
p165
I00
ssVpointObj.pointObjY
p166
(dp167
S'isArray'
p168
I00
sS'attrParentLongName'
p169
VpointObj
p170
sS'attrChildrenNames'
p171
(lp172
sS'isMulti'
p173
I00
sS'isCompound'
p174
I00
sS'isElement'
p175
I00
ssVpointWorld.pointWorldX
p176
(dp177
S'isArray'
p178
I00
sS'attrParentLongName'
p179
VpointWorld
p180
sS'attrChildrenNames'
p181
(lp182
sS'isMulti'
p183
I00
sS'isCompound'
p184
I00
sS'isElement'
p185
I00
ssVpointWorld.pointWorldY
p186
(dp187
S'isArray'
p188
I00
sS'attrParentLongName'
p189
VpointWorld
p190
sS'attrChildrenNames'
p191
(lp192
sS'isMulti'
p193
I00
sS'isCompound'
p194
I00
sS'isElement'
p195
I00
ssVpointWorld.pointWorldZ
p196
(dp197
S'isArray'
p198
I00
sS'attrParentLongName'
p199
VpointWorld
p200
sS'attrChildrenNames'
p201
(lp202
sS'isMulti'
p203
I00
sS'isCompound'
p204
I00
sS'isElement'
p205
I00
ssVpointObj
p206
(dp207
S'isArray'
p208
I00
sS'isElement'
p209
I00
sS'attrChildrenNames'
p210
(lp211
VpointObj.pointObjX
p212
aVpointObj.pointObjY
p213
aVpointObj.pointObjZ
p214
asS'isCompound'
p215
I01
sS'isMulti'
p216
I00
ssVpointCamera.pointCameraZ
p217
(dp218
S'isArray'
p219
I00
sS'attrParentLongName'
p220
VpointCamera
p221
sS'attrChildrenNames'
p222
(lp223
sS'isMulti'
p224
I00
sS'isCompound'
p225
I00
sS'isElement'
p226
I00
ssVpointCamera.pointCameraX
p227
(dp228
S'isArray'
p229
I00
sS'attrParentLongName'
p230
VpointCamera
p231
sS'attrChildrenNames'
p232
(lp233
sS'isMulti'
p234
I00
sS'isCompound'
p235
I00
sS'isElement'
p236
I00
ssVpointCamera.pointCameraY
p237
(dp238
S'isArray'
p239
I00
sS'attrParentLongName'
p240
VpointCamera
p241
sS'attrChildrenNames'
p242
(lp243
sS'isMulti'
p244
I00
sS'isCompound'
p245
I00
sS'isElement'
p246
I00
ssVflippedNormal
p247
(dp248
S'isArray'
p249
I00
sS'isElement'
p250
I00
sS'attrChildrenNames'
p251
(lp252
sS'isCompound'
p253
I00
sS'isMulti'
p254
I00
ssVrayDirection.rayDirectionZ
p255
(dp256
S'isArray'
p257
I00
sS'attrParentLongName'
p258
VrayDirection
p259
sS'attrChildrenNames'
p260
(lp261
sS'isMulti'
p262
I00
sS'isCompound'
p263
I00
sS'isElement'
p264
I00
ssVrayDirection.rayDirectionX
p265
(dp266
S'isArray'
p267
I00
sS'attrParentLongName'
p268
VrayDirection
p269
sS'attrChildrenNames'
p270
(lp271
sS'isMulti'
p272
I00
sS'isCompound'
p273
I00
sS'isElement'
p274
I00
ssVrayDirection.rayDirectionY
p275
(dp276
S'isArray'
p277
I00
sS'attrParentLongName'
p278
VrayDirection
p279
sS'attrChildrenNames'
p280
(lp281
sS'isMulti'
p282
I00
sS'isCompound'
p283
I00
sS'isElement'
p284
I00
ssVpixelCenter
p285
(dp286
S'isArray'
p287
I00
sS'isElement'
p288
I00
sS'attrChildrenNames'
p289
(lp290
VpixelCenter.pixelCenterX
p291
aVpixelCenter.pixelCenterY
p292
asS'isCompound'
p293
I01
sS'isMulti'
p294
I00
ssVtangentUCamera.tangentUz
p295
(dp296
S'isArray'
p297
I00
sS'attrParentLongName'
p298
VtangentUCamera
p299
sS'attrChildrenNames'
p300
(lp301
sS'isMulti'
p302
I00
sS'isCompound'
p303
I00
sS'isElement'
p304
I00
ssVtangentUCamera.tangentUy
p305
(dp306
S'isArray'
p307
I00
sS'attrParentLongName'
p308
VtangentUCamera
p309
sS'attrChildrenNames'
p310
(lp311
sS'isMulti'
p312
I00
sS'isCompound'
p313
I00
sS'isElement'
p314
I00
ssVtangentUCamera.tangentUx
p315
(dp316
S'isArray'
p317
I00
sS'attrParentLongName'
p318
VtangentUCamera
p319
sS'attrChildrenNames'
p320
(lp321
sS'isMulti'
p322
I00
sS'isCompound'
p323
I00
sS'isElement'
p324
I00
ssVpointCamera
p325
(dp326
S'isArray'
p327
I00
sS'isElement'
p328
I00
sS'isMulti'
p329
I00
sS'isCompound'
p330
I01
sS'attrChildrenNames'
p331
(lp332
VpointCamera.pointCameraX
p333
aVpointCamera.pointCameraY
p334
aVpointCamera.pointCameraZ
p335
assVnormalCamera
p336
(dp337
S'isArray'
p338
I00
sS'isElement'
p339
I00
sS'isCompound'
p340
I01
sS'attrChildrenNames'
p341
(lp342
VnormalCamera.normalCameraX
p343
aVnormalCamera.normalCameraY
p344
aVnormalCamera.normalCameraZ
p345
asS'isMulti'
p346
I00
ssVpixelCenter.pixelCenterX
p347
(dp348
S'isArray'
p349
I00
sS'attrParentLongName'
p350
VpixelCenter
p351
sS'attrChildrenNames'
p352
(lp353
sS'isMulti'
p354
I00
sS'isCompound'
p355
I00
sS'isElement'
p356
I00
ssVpixelCenter.pixelCenterY
p357
(dp358
S'isArray'
p359
I00
sS'attrParentLongName'
p360
VpixelCenter
p361
sS'attrChildrenNames'
p362
(lp363
sS'isMulti'
p364
I00
sS'isCompound'
p365
I00
sS'isElement'
p366
I00
ssVpointWorld
p367
(dp368
S'isArray'
p369
I00
sS'isElement'
p370
I00
sS'isMulti'
p371
I00
sS'attrChildrenNames'
p372
(lp373
VpointWorld.pointWorldX
p374
aVpointWorld.pointWorldY
p375
aVpointWorld.pointWorldZ
p376
asS'isCompound'
p377
I01
ssVcaching
p378
(dp379
S'isArray'
p380
I00
sS'isElement'
p381
I00
sS'isMulti'
p382
I00
sS'attrChildrenNames'
p383
(lp384
sS'isCompound'
p385
I00
ssVuvCoord.uCoord
p386
(dp387
S'isArray'
p388
I00
sS'attrParentLongName'
p389
VuvCoord
p390
sS'attrChildrenNames'
p391
(lp392
sS'isMulti'
p393
I00
sS'isCompound'
p394
I00
sS'isElement'
p395
I00
ss.