(dp0
VrotateOrder
p1
(dp2
S'isArray'
p3
I00
sS'attrType'
p4
Venum
p5
sS'isMulti'
p6
I00
sS'isCompound'
p7
I00
sS'isSimple'
p8
I01
sS'attrChildrenLongNames'
p9
(lp10
ssVtranslate.translateZ
p11
(dp12
g3
I00
sg4
VdoubleLinear
p13
sg6
I00
sg7
I00
sg8
I01
sg9
(lp14
ssVtranslate.translateX
p15
(dp16
g3
I00
sg4
VdoubleLinear
p17
sg6
I00
sg7
I00
sg8
I01
sg9
(lp18
ssVdrawOverride.overrideColor
p19
(dp20
g3
I00
sg6
I00
sg4
Vbyte
p21
sg8
I00
sg9
(lp22
ssVintermediateObject
p23
(dp24
g3
I00
sg4
Vbool
p25
sg6
I00
sg7
I00
sg8
I01
sg9
(lp26
ssVghostCustomSteps.ghostPostSteps
p27
(dp28
g3
I00
sg4
Vlong
p29
sg6
I00
sg7
I00
sg8
I01
sg9
(lp30
ssVtarget[1].targetParentMatrix
p31
(dp32
g3
I00
sg9
(lp33
ssVrenderLayerInfo.renderLayerId
p34
(dp35
S'attrParentLongName'
p36
VrenderLayerInfo
p37
ssVrotatePivot
p38
(dp39
g3
I00
sg6
I00
sg4
Vdouble3
p40
sg8
I01
sg9
(lp41
VrotatePivot.rotatePivotX
p42
aVrotatePivot.rotatePivotY
p43
aVrotatePivot.rotatePivotZ
p44
assVuseObjectColor
p45
(dp46
g3
I00
sg4
Venum
p47
sg6
I00
sg7
I00
sg8
I01
sg9
(lp48
ssVdrawOverride.overrideLevelOfDetail
p49
(dp50
g3
I00
sg4
Venum
p51
sg6
I00
sg7
I00
sg8
I01
sg9
(lp52
ssVinstObjGroups[0].objectGroups[0].objectGroupId
p53
(dp54
g3
I00
sg9
(lp55
ssVghostColorPost
p56
(dp57
g3
I00
sg6
I00
sg4
Vfloat3
p58
sg8
I00
sg9
(lp59
VghostColorPost.ghostColorPostR
p60
aVghostColorPost.ghostColorPostG
p61
aVghostColorPost.ghostColorPostB
p62
assVselectHandle.selectHandleY
p63
(dp64
g3
I00
sg4
VdoubleLinear
p65
sg6
I00
sg7
I00
sg8
I01
sg9
(lp66
ssVminTransLimitEnable.minTransYLimitEnable
p67
(dp68
g3
I00
sg4
Vbool
p69
sg6
I00
sg7
I00
sg8
I01
sg9
(lp70
ssVtranslate.translateY
p71
(dp72
g3
I00
sg4
VdoubleLinear
p73
sg6
I00
sg7
I00
sg8
I01
sg9
(lp74
ssVtarget
p75
(dp76
g3
I01
sg6
I01
sg8
I00
sg4
VTdataCompound
p77
ssVrenderLayerInfo.renderLayerRenderable
p78
(dp79
g36
VrenderLayerInfo
p80
ssVminRotLimitEnable.minRotZLimitEnable
p81
(dp82
g3
I00
sg4
Vbool
p83
sg6
I00
sg7
I00
sg8
I01
sg9
(lp84
ssVtarget[1].targetScale
p85
(dp86
g3
I00
sg9
(lp87
Vtarget[1].targetScale.targetScaleX
p88
aVtarget[1].targetScale.targetScaleY
p89
aVtarget[1].targetScale.targetScaleZ
p90
assVscalePivotTranslate
p91
(dp92
g3
I00
sg6
I00
sg4
Vdouble3
p93
sg8
I01
sg9
(lp94
VscalePivotTranslate.scalePivotTranslateX
p95
aVscalePivotTranslate.scalePivotTranslateY
p96
aVscalePivotTranslate.scalePivotTranslateZ
p97
assVmaxRotLimit.maxRotYLimit
p98
(dp99
g3
I00
sg4
VdoubleAngle
p100
sg6
I00
sg7
I00
sg8
I01
sg9
(lp101
ssVtransMinusRotatePivot
p102
(dp103
g3
I00
sg6
I00
sg4
Vdouble3
p104
sg8
I01
sg9
(lp105
VtransMinusRotatePivot.transMinusRotatePivotX
p106
aVtransMinusRotatePivot.transMinusRotatePivotY
p107
aVtransMinusRotatePivot.transMinusRotatePivotZ
p108
assVrenderLayerInfo[1].renderLayerColor
p109
(dp110
g3
I00
sg9
(lp111
ssVdrawOverride.overrideRGBColors
p112
(dp113
g3
I00
sg4
Vbool
p114
sg6
I00
sg7
I00
sg8
I01
sg9
(lp115
ssVworldInverseMatrix[1]
p116
(dp117
g3
I00
sg9
(lp118
ssVrestScale.restScaleZ
p119
(dp120
g3
I00
sg4
Vdouble
p121
sg6
I00
sg7
I00
sg8
I01
sg9
(lp122
ssVbinMembership
p123
(dp124
g3
I00
sg4
Vstring
p125
sg6
I00
sg7
I00
sg8
I01
sg9
(lp126
ssVrestScale.restScaleY
p127
(dp128
g3
I00
sg4
Vdouble
p129
sg6
I00
sg7
I00
sg8
I01
sg9
(lp130
ssVcustomTreatment
p131
(dp132
g3
I00
sg4
Vstring
p133
sg6
I00
sg7
I00
sg8
I01
sg9
(lp134
ssVrenderLayerInfo[0].renderLayerRenderable
p135
(dp136
g3
I00
sg9
(lp137
ssVtemplatePath
p138
(dp139
g3
I00
sg4
Vstring
p140
sg6
I00
sg7
I00
sg8
I01
sg9
(lp141
ssVtarget[2]
p142
(dp143
g3
I00
sg9
(lp144
Vtarget[2].targetScale
p145
aVtarget[2].targetParentMatrix
p146
aVtarget[2].targetWeight
p147
assVtarget[2].targetScale.targetScaleY
p148
(dp149
g3
I00
sg9
(lp150
ssVshear
p151
(dp152
g3
I00
sg6
I00
sg4
Vdouble3
p153
sg8
I01
sg9
(lp154
Vshear.shearXY
p155
aVshear.shearXZ
p156
aVshear.shearYZ
p157
assVdrawOverride.hideOnPlayback
p158
(dp159
g3
I00
sg4
Vbool
p160
sg6
I00
sg7
I00
sg8
I01
sg9
(lp161
ssVboundingBox.boundingBoxMin.boundingBoxMinY
p162
(dp163
g36
VboundingBox.boundingBoxMin
p164
ssVboundingBox.boundingBoxMin.boundingBoxMinX
p165
(dp166
g36
VboundingBox.boundingBoxMin
p167
ssVboundingBox.boundingBoxMin.boundingBoxMinZ
p168
(dp169
g36
VboundingBox.boundingBoxMin
p170
ssVminRotLimitEnable.minRotYLimitEnable
p171
(dp172
g3
I00
sg4
Vbool
p173
sg6
I00
sg7
I00
sg8
I01
sg9
(lp174
ssVselectHandle
p175
(dp176
g3
I00
sg6
I00
sg4
Vdouble3
p177
sg8
I01
sg9
(lp178
VselectHandle.selectHandleX
p179
ag63
aVselectHandle.selectHandleZ
p180
assVghostColorPostA
p181
(dp182
g3
I00
sg4
Vfloat
p183
sg6
I00
sg7
I00
sg8
I01
sg9
(lp184
ssVparentMatrix
p185
(dp186
g3
I01
sg6
I01
sg8
I00
sg4
Vmatrix
p187
ssVrotateQuaternion.rotateQuaternionZ
p188
(dp189
g3
I00
sg4
Vdouble
p190
sg6
I00
sg7
I00
sg8
I01
sg9
(lp191
ssVrenderLayerInfo[0].renderLayerId
p192
(dp193
g3
I00
sg9
(lp194
ssVrotateQuaternion.rotateQuaternionX
p195
(dp196
g3
I00
sg4
Vdouble
p197
sg6
I00
sg7
I00
sg8
I01
sg9
(lp198
ssVrotateQuaternion.rotateQuaternionY
p199
(dp200
g3
I00
sg4
Vdouble
p201
sg6
I00
sg7
I00
sg8
I01
sg9
(lp202
ssVmaxTransLimitEnable.maxTransZLimitEnable
p203
(dp204
g3
I00
sg4
Vbool
p205
sg6
I00
sg7
I00
sg8
I01
sg9
(lp206
ssVmaxRotLimitEnable.maxRotXLimitEnable
p207
(dp208
g3
I00
sg4
Vbool
p209
sg6
I00
sg7
I00
sg8
I01
sg9
(lp210
ssVoutlinerColor.outlinerColorG
p211
(dp212
g3
I00
sg4
Vfloat
p213
sg6
I00
sg7
I00
sg8
I01
sg9
(lp214
ssVminTransLimitEnable.minTransZLimitEnable
p215
(dp216
g3
I00
sg4
Vbool
p217
sg6
I00
sg7
I00
sg8
I01
sg9
(lp218
ssVtarget[0].targetScale.targetScaleZ
p219
(dp220
g3
I00
sg4
Vdouble
p221
sg6
I00
sg7
I00
sg8
I01
sg9
(lp222
ssVcreationDate
p223
(dp224
g3
I00
sg4
Vstring
p225
sg6
I00
sg7
I00
sg8
I01
sg9
(lp226
ssVminScaleLimit.minScaleXLimit
p227
(dp228
g3
I00
sg4
Vdouble
p229
sg6
I00
sg7
I00
sg8
I01
sg9
(lp230
ssVrotateQuaternion.rotateQuaternionW
p231
(dp232
g3
I00
sg4
Vdouble
p233
sg6
I00
sg7
I00
sg8
I01
sg9
(lp234
ssVrotatePivotTranslate.rotatePivotTranslateX
p235
(dp236
g3
I00
sg4
VdoubleLinear
p237
sg6
I00
sg7
I00
sg8
I01
sg9
(lp238
ssVrotatePivotTranslate.rotatePivotTranslateY
p239
(dp240
g3
I00
sg4
VdoubleLinear
p241
sg6
I00
sg7
I00
sg8
I01
sg9
(lp242
ssVtarget.targetScaleY
p243
(dp244
g36
Vtarget.targetScale
p245
ssVminTransLimit
p246
(dp247
g3
I00
sg6
I00
sg4
Vdouble3
p248
sg8
I01
sg9
(lp249
VminTransLimit.minTransXLimit
p250
aVminTransLimit.minTransYLimit
p251
aVminTransLimit.minTransZLimit
p252
assVrotate
p253
(dp254
g3
I00
sg6
I00
sg4
Vdouble3
p255
sg8
I01
sg9
(lp256
Vrotate.rotateX
p257
aVrotate.rotateY
p258
aVrotate.rotateZ
p259
assVminRotLimit
p260
(dp261
g3
I00
sg6
I00
sg4
Vdouble3
p262
sg8
I01
sg9
(lp263
VminRotLimit.minRotXLimit
p264
aVminRotLimit.minRotYLimit
p265
aVminRotLimit.minRotZLimit
p266
assVmaxTransLimitEnable.maxTransYLimitEnable
p267
(dp268
g3
I00
sg4
Vbool
p269
sg6
I00
sg7
I00
sg8
I01
sg9
(lp270
ssVworldMatrix[0]
p271
(dp272
g3
I00
sg9
(lp273
ssVisHierarchicalConnection[1]
p274
(dp275
g3
I00
sg9
(lp276
ssVlockOutput
p277
(dp278
g3
I00
sg4
Vbool
p279
sg6
I00
sg7
I00
sg8
I01
sg9
(lp280
ssVconstraintParentInverseMatrix
p281
(dp282
g3
I00
sg6
I00
sg4
Nsg8
I00
sg9
(lp283
ssg266
(dp284
g3
I00
sg4
VdoubleAngle
p285
sg6
I00
sg7
I00
sg8
I01
sg9
(lp286
ssVmaxScaleLimitEnable.maxScaleYLimitEnable
p287
(dp288
g3
I00
sg4
Vbool
p289
sg6
I00
sg7
I00
sg8
I01
sg9
(lp290
ssVuseOutlinerColor
p291
(dp292
g3
I00
sg4
Vbool
p293
sg6
I00
sg7
I00
sg8
I01
sg9
(lp294
ssVdrawOverride.overrideEnabled
p295
(dp296
g3
I00
sg4
Vbool
p297
sg6
I00
sg7
I00
sg8
I01
sg9
(lp298
ssg44
(dp299
g3
I00
sg4
VdoubleLinear
p300
sg6
I00
sg7
I00
sg8
I01
sg9
(lp301
ssVboundingBox.boundingBoxMax
p302
(dp303
g36
VboundingBox
p304
ssg43
(dp305
g3
I00
sg4
VdoubleLinear
p306
sg6
I00
sg7
I00
sg8
I01
sg9
(lp307
ssVparentMatrix[0]
p308
(dp309
g3
I00
sg9
(lp310
ssVscalePivot.scalePivotX
p311
(dp312
g3
I00
sg4
VdoubleLinear
p313
sg6
I00
sg7
I00
sg8
I01
sg9
(lp314
ssVtarget.targetScaleZ
p315
(dp316
g36
Vtarget.targetScale
p317
ssVghostColorPre.ghostColorPreR
p318
(dp319
g3
I00
sg4
Vfloat
p320
sg6
I00
sg7
I00
sg8
I01
sg9
(lp321
ssVcreator
p322
(dp323
g3
I00
sg4
Vstring
p324
sg6
I00
sg7
I00
sg8
I01
sg9
(lp325
ssVrotateAxis.rotateAxisX
p326
(dp327
g3
I00
sg4
VdoubleAngle
p328
sg6
I00
sg7
I00
sg8
I01
sg9
(lp329
ssVrotateAxis.rotateAxisY
p330
(dp331
g3
I00
sg4
VdoubleAngle
p332
sg6
I00
sg7
I00
sg8
I01
sg9
(lp333
ssVrotateAxis.rotateAxisZ
p334
(dp335
g3
I00
sg4
VdoubleAngle
p336
sg6
I00
sg7
I00
sg8
I01
sg9
(lp337
ssVinstObjGroups[0].objectGroups[0]
p338
(dp339
g3
I00
sg9
(lp340
VinstObjGroups[0].objectGroups[0].objectGrpCompList
p341
ag53
aVinstObjGroups[0].objectGroups[0].objectGrpColor
p342
assVghostRangeEnd
p343
(dp344
g3
I00
sg4
Vtime
p345
sg6
I00
sg7
I00
sg8
I01
sg9
(lp346
ssVobjectColorRGB
p347
(dp348
g3
I00
sg6
I00
sg4
Vfloat3
p349
sg8
I00
sg9
(lp350
VobjectColorRGB.objectColorR
p351
aVobjectColorRGB.objectColorG
p352
aVobjectColorRGB.objectColorB
p353
assVghostColorPre.ghostColorPreG
p354
(dp355
g3
I00
sg4
Vfloat
p356
sg6
I00
sg7
I00
sg8
I01
sg9
(lp357
ssVtarget[0].targetWeight
p358
(dp359
g3
I00
sg4
Vdouble
p360
sg6
I00
sg7
I00
sg8
I01
sg9
(lp361
ssVpublishedNodeInfo.isHierarchicalNode
p362
(dp363
g36
VpublishedNodeInfo
p364
ssVghostColorPre.ghostColorPreB
p365
(dp366
g3
I00
sg4
Vfloat
p367
sg6
I00
sg7
I00
sg8
I01
sg9
(lp368
ssg145
(dp369
g3
I00
sg9
(lp370
Vtarget[2].targetScale.targetScaleX
p371
ag148
aVtarget[2].targetScale.targetScaleZ
p372
assVpublishedNodeInfo[0].publishedNode
p373
(dp374
g3
I00
sg9
(lp375
ssVdynamics
p376
(dp377
g3
I00
sg4
Vbool
p378
sg6
I00
sg7
I00
sg8
I01
sg9
(lp379
ssVpublishedNodeInfo[1].isHierarchicalNode
p380
(dp381
g3
I00
sg9
(lp382
ssVtemplateVersion
p383
(dp384
g3
I00
sg4
Vlong
p385
sg6
I00
sg7
I00
sg8
I01
sg9
(lp386
ssVmaxTransLimit.maxTransZLimit
p387
(dp388
g3
I00
sg4
VdoubleLinear
p389
sg6
I00
sg7
I00
sg8
I01
sg9
(lp390
ssVconstraintScale
p391
(dp392
g3
I00
sg6
I00
sg4
Vdouble3
p393
sg8
I01
sg9
(lp394
VconstraintScale.constraintScaleX
p395
aVconstraintScale.constraintScaleY
p396
aVconstraintScale.constraintScaleZ
p397
assVscale
p398
(dp399
g3
I00
sg6
I00
sg4
Vdouble3
p400
sg8
I01
sg9
(lp401
Vscale.scaleX
p402
aVscale.scaleY
p403
aVscale.scaleZ
p404
assVmatrix
p405
(dp406
g3
I00
sg6
I00
sg4
Vmatrix
p407
sg8
I00
sg9
(lp408
ssVoffset.offsetZ
p409
(dp410
g3
I00
sg4
Vdouble
p411
sg6
I00
sg7
I00
sg8
I01
sg9
(lp412
ssg108
(dp413
g3
I00
sg4
VdoubleLinear
p414
sg6
I00
sg7
I00
sg8
I01
sg9
(lp415
ssVoffset.offsetX
p416
(dp417
g3
I00
sg4
Vdouble
p418
sg6
I00
sg7
I00
sg8
I01
sg9
(lp419
ssVoffset.offsetY
p420
(dp421
g3
I00
sg4
Vdouble
p422
sg6
I00
sg7
I00
sg8
I01
sg9
(lp423
ssVoutlinerColor.outlinerColorR
p424
(dp425
g3
I00
sg4
Vfloat
p426
sg6
I00
sg7
I00
sg8
I01
sg9
(lp427
ssVghostCustomSteps
p428
(dp429
g3
I00
sg6
I00
sg4
VTdataCompound
p430
sg8
I00
sg9
(lp431
VghostCustomSteps.ghostPreSteps
p432
ag27
aVghostCustomSteps.ghostStepSize
p433
assg180
(dp434
g3
I00
sg4
VdoubleLinear
p435
sg6
I00
sg7
I00
sg8
I01
sg9
(lp436
ssVpublishedNodeInfo[1].publishedNode
p437
(dp438
g3
I00
sg9
(lp439
ssVmaxRotLimitEnable.maxRotZLimitEnable
p440
(dp441
g3
I00
sg4
Vbool
p442
sg6
I00
sg7
I00
sg8
I01
sg9
(lp443
ssVinstObjGroups[0].objectGroups[1].objectGrpCompList
p444
(dp445
g3
I00
sg9
(lp446
ssVworldMatrix
p447
(dp448
g3
I01
sg6
I01
sg8
I00
sg4
Vmatrix
p449
ssVwireColorRGB.wireColorR
p450
(dp451
g36
VwireColorRGB
p452
sg3
I00
sg4
Vfloat
p453
sg6
I00
sg7
I00
sg8
I01
sg9
(lp454
ssVmaxScaleLimitEnable.maxScaleXLimitEnable
p455
(dp456
g3
I00
sg4
Vbool
p457
sg6
I00
sg7
I00
sg8
I01
sg9
(lp458
ssVcontainerType
p459
(dp460
g3
I00
sg4
Vstring
p461
sg6
I00
sg7
I00
sg8
I01
sg9
(lp462
ssVobjectColorRGB.objectColorR
p463
(dp464
g36
VobjectColorRGB
p465
sg3
I00
sg4
Vfloat
p466
sg6
I00
sg7
I00
sg8
I01
sg9
(lp467
ssVoutlinerColor.outlinerColorB
p468
(dp469
g3
I00
sg4
Vfloat
p470
sg6
I00
sg7
I00
sg8
I01
sg9
(lp471
ssVminScaleLimit.minScaleZLimit
p472
(dp473
g3
I00
sg4
Vdouble
p474
sg6
I00
sg7
I00
sg8
I01
sg9
(lp475
ssVparentInverseMatrix[0]
p476
(dp477
g3
I00
sg9
(lp478
ssVrotatePivotTranslate.rotatePivotTranslateZ
p479
(dp480
g3
I00
sg4
VdoubleLinear
p481
sg6
I00
sg7
I00
sg8
I01
sg9
(lp482
ssVscalePivot.scalePivotY
p483
(dp484
g3
I00
sg4
VdoubleLinear
p485
sg6
I00
sg7
I00
sg8
I01
sg9
(lp486
ssVscalePivot.scalePivotZ
p487
(dp488
g3
I00
sg4
VdoubleLinear
p489
sg6
I00
sg7
I00
sg8
I01
sg9
(lp490
ssVinstObjGroups.objectGroups.objectGrpCompList
p491
(dp492
g36
VinstObjGroups.objectGroups
p493
ssVparentInverseMatrix
p494
(dp495
g3
I01
sg6
I01
sg8
I00
sg4
Vmatrix
p496
ssVrenderLayerInfo[1].renderLayerId
p497
(dp498
g3
I00
sg9
(lp499
ssVviewName
p500
(dp501
g3
I00
sg4
Vstring
p502
sg6
I00
sg7
I00
sg8
I01
sg9
(lp503
ssVtarget.targetWeight
p504
(dp505
g36
Vtarget
p506
ssVpublishedNodeInfo.publishedNodeType
p507
(dp508
g36
VpublishedNodeInfo
p509
ssVparentInverseMatrix[1]
p510
(dp511
g3
I00
sg9
(lp512
ssVpublishedNodeInfo[1]
p513
(dp514
g3
I00
sg9
(lp515
g437
ag380
aVpublishedNodeInfo[1].publishedNodeType
p516
assVmaxTransLimit
p517
(dp518
g3
I00
sg6
I00
sg4
Vdouble3
p519
sg8
I01
sg9
(lp520
VmaxTransLimit.maxTransXLimit
p521
aVmaxTransLimit.maxTransYLimit
p522
ag387
assg250
(dp523
g3
I00
sg4
VdoubleLinear
p524
sg6
I00
sg7
I00
sg8
I01
sg9
(lp525
ssVdisplayScalePivot
p526
(dp527
g3
I00
sg4
Vbool
p528
sg6
I00
sg7
I00
sg8
I01
sg9
(lp529
ssVinstObjGroups[0].objectGroups[1]
p530
(dp531
g3
I00
sg9
(lp532
g444
aVinstObjGroups[0].objectGroups[1].objectGroupId
p533
aVinstObjGroups[0].objectGroups[1].objectGrpColor
p534
assg251
(dp535
g3
I00
sg4
VdoubleLinear
p536
sg6
I00
sg7
I00
sg8
I01
sg9
(lp537
ssVrmbCommand
p538
(dp539
g3
I00
sg4
Vstring
p540
sg6
I00
sg7
I00
sg8
I01
sg9
(lp541
ssg404
(dp542
g3
I00
sg4
Vdouble
p543
sg6
I00
sg7
I00
sg8
I01
sg9
(lp544
ssg432
(dp545
g3
I00
sg4
Vlong
p546
sg6
I00
sg7
I00
sg8
I01
sg9
(lp547
ssg516
(dp548
g3
I00
sg9
(lp549
ssVpublishedNodeInfo[0]
p550
(dp551
g3
I00
sg9
(lp552
g373
aVpublishedNodeInfo[0].isHierarchicalNode
p553
aVpublishedNodeInfo[0].publishedNodeType
p554
assVmaxScaleLimitEnable
p555
(dp556
g3
I00
sg6
I00
sg4
VTdataCompound
p557
sg8
I00
sg9
(lp558
g455
ag287
aVmaxScaleLimitEnable.maxScaleZLimitEnable
p559
assViconName
p560
(dp561
g3
I00
sg4
Vstring
p562
sg6
I00
sg7
I00
sg8
I01
sg9
(lp563
ssVobjectColor
p564
(dp565
g3
I00
sg4
Vshort
p566
sg6
I00
sg7
I00
sg8
I01
sg9
(lp567
ssVgeometry
p568
(dp569
g3
I00
sg6
I00
sg4
Nsg8
I00
sg9
(lp570
ssg146
(dp571
g3
I00
sg9
(lp572
ssg402
(dp573
g3
I00
sg4
Vdouble
p574
sg6
I00
sg7
I00
sg8
I01
sg9
(lp575
ssg403
(dp576
g3
I00
sg4
Vdouble
p577
sg6
I00
sg7
I00
sg8
I01
sg9
(lp578
ssg88
(dp579
g3
I00
sg9
(lp580
ssVrenderInfo.layerRenderable
p581
(dp582
g36
VrenderInfo
p583
sg3
I00
sg4
Vbool
p584
sg6
I00
sg7
I00
sg8
I01
sg9
(lp585
ssVvisibility
p586
(dp587
g3
I00
sg4
Vbool
p588
sg6
I00
sg7
I00
sg8
I01
sg9
(lp589
ssg42
(dp590
g3
I00
sg4
VdoubleLinear
p591
sg6
I00
sg7
I00
sg8
I01
sg9
(lp592
ssVghostRangeStart
p593
(dp594
g3
I00
sg4
Vtime
p595
sg6
I00
sg7
I00
sg8
I01
sg9
(lp596
ssg554
(dp597
g3
I00
sg9
(lp598
ssVdrawOverride.overrideColorRGB
p599
(dp600
g3
I00
sg6
I00
sg4
Vfloat3
p601
sg8
I00
sg9
(lp602
VdrawOverride.overrideColorRGB.overrideColorR
p603
aVdrawOverride.overrideColorRGB.overrideColorG
p604
aVdrawOverride.overrideColorRGB.overrideColorB
p605
assVwireColorRGB
p606
(dp607
g3
I00
sg6
I00
sg4
Vfloat3
p608
sg8
I00
sg9
(lp609
VwireColorRGB.wireColorR
p610
aVwireColorRGB.wireColorG
p611
aVwireColorRGB.wireColorB
p612
assg147
(dp613
g3
I00
sg9
(lp614
ssg559
(dp615
g3
I00
sg4
Vbool
p616
sg6
I00
sg7
I00
sg8
I01
sg9
(lp617
ssVinstObjGroups
p618
(dp619
g3
I01
sg6
I01
sg8
I00
sg4
VTdataCompound
p620
ssg522
(dp621
g3
I00
sg4
VdoubleLinear
p622
sg6
I00
sg7
I00
sg8
I01
sg9
(lp623
ssVdisplayHandle
p624
(dp625
g3
I00
sg4
Vbool
p626
sg6
I00
sg7
I00
sg8
I01
sg9
(lp627
ssVselectionChildHighlighting
p628
(dp629
g3
I00
sg4
Vbool
p630
sg6
I00
sg7
I00
sg8
I01
sg9
(lp631
ssVmaxTransLimitEnable
p632
(dp633
g3
I00
sg6
I00
sg4
VTdataCompound
p634
sg8
I00
sg9
(lp635
VmaxTransLimitEnable.maxTransXLimitEnable
p636
ag267
ag203
assVminRotLimitEnable.minRotXLimitEnable
p637
(dp638
g3
I00
sg4
Vbool
p639
sg6
I00
sg7
I00
sg8
I01
sg9
(lp640
ssVoffset
p641
(dp642
g3
I00
sg6
I00
sg4
Vdouble3
p643
sg8
I01
sg9
(lp644
g416
ag420
ag409
assg89
(dp645
g3
I00
sg9
(lp646
ssVtarget.targetScaleX
p647
(dp648
g36
Vtarget.targetScale
p649
ssVrotateQuaternion
p650
(dp651
g3
I00
sg6
I00
sg4
Vdouble4
p652
sg8
I00
sg9
(lp653
g195
ag199
ag188
ag231
assVdrawOverride.overrideVisibility
p654
(dp655
g3
I00
sg4
Vbool
p656
sg6
I00
sg7
I00
sg8
I01
sg9
(lp657
ssVmaxScaleLimit
p658
(dp659
g3
I00
sg6
I00
sg4
Vdouble3
p660
sg8
I01
sg9
(lp661
VmaxScaleLimit.maxScaleXLimit
p662
aVmaxScaleLimit.maxScaleYLimit
p663
aVmaxScaleLimit.maxScaleZLimit
p664
assVrotateAxis
p665
(dp666
g3
I00
sg6
I00
sg4
Vdouble3
p667
sg8
I01
sg9
(lp668
g326
ag330
ag334
assg157
(dp669
g3
I00
sg4
Vdouble
p670
sg6
I00
sg7
I00
sg8
I01
sg9
(lp671
ssVghosting
p672
(dp673
g3
I00
sg4
Vbool
p674
sg6
I00
sg7
I00
sg8
I01
sg9
(lp675
ssVdisplayLocalAxis
p676
(dp677
g3
I00
sg4
Vbool
p678
sg6
I00
sg7
I00
sg8
I01
sg9
(lp679
ssVinheritsTransform
p680
(dp681
g3
I00
sg4
Vbool
p682
sg6
I00
sg7
I00
sg8
I01
sg9
(lp683
ssg106
(dp684
g3
I00
sg4
VdoubleLinear
p685
sg6
I00
sg7
I00
sg8
I01
sg9
(lp686
ssg107
(dp687
g3
I00
sg4
VdoubleLinear
p688
sg6
I00
sg7
I00
sg8
I01
sg9
(lp689
ssVisHistoricallyInteresting
p690
(dp691
g3
I00
sg6
I00
sg4
Vbyte
p692
sg8
I00
sg9
(lp693
ssVrotationInterpolation
p694
(dp695
g3
I00
sg4
Venum
p696
sg6
I00
sg7
I00
sg8
I01
sg9
(lp697
ssVminScaleLimit.minScaleYLimit
p698
(dp699
g3
I00
sg4
Vdouble
p700
sg6
I00
sg7
I00
sg8
I01
sg9
(lp701
ssg264
(dp702
g3
I00
sg4
VdoubleAngle
p703
sg6
I00
sg7
I00
sg8
I01
sg9
(lp704
ssVmaxRotLimit
p705
(dp706
g3
I00
sg6
I00
sg4
Vdouble3
p707
sg8
I01
sg9
(lp708
VmaxRotLimit.maxRotXLimit
p709
ag98
aVmaxRotLimit.maxRotZLimit
p710
assVtarget[0]
p711
(dp712
g3
I00
sg6
I00
sg4
VTdataCompound
p713
sg8
I00
sg9
(lp714
Vtarget[0].targetScale
p715
aVtarget[0].targetParentMatrix
p716
ag358
assVrestScale.restScaleX
p717
(dp718
g3
I00
sg4
Vdouble
p719
sg6
I00
sg7
I00
sg8
I01
sg9
(lp720
ssVxformMatrix
p721
(dp722
g3
I00
sg6
I00
sg4
Vmatrix
p723
sg8
I00
sg9
(lp724
ssVinstObjGroups[1]
p725
(dp726
g3
I00
sg9
(lp727
VinstObjGroups[1].objectGroups
p728
assg715
(dp729
g3
I00
sg6
I00
sg4
Vdouble3
p730
sg8
I01
sg9
(lp731
Vtarget[0].targetScale.targetScaleX
p732
aVtarget[0].targetScale.targetScaleY
p733
ag219
assVtranslate
p734
(dp735
g3
I00
sg6
I00
sg4
Vdouble3
p736
sg8
I01
sg9
(lp737
g15
ag71
ag11
assVwireColorRGB.wireColorB
p738
(dp739
g36
VwireColorRGB
p740
sg3
I00
sg4
Vfloat
p741
sg6
I00
sg7
I00
sg8
I01
sg9
(lp742
ssVinstObjGroups.objectGroups
p743
(dp744
g36
VinstObjGroups
p745
ssVdrawOverride
p746
(dp747
g3
I00
sg6
I00
sg4
VTdataCompound
p748
sg8
I00
sg9
(lp749
VdrawOverride.overrideDisplayType
p750
ag49
aVdrawOverride.overrideShading
p751
aVdrawOverride.overrideTexturing
p752
aVdrawOverride.overridePlayback
p753
ag295
ag654
ag158
ag112
ag19
ag599
assg156
(dp754
g3
I00
sg4
Vdouble
p755
sg6
I00
sg7
I00
sg8
I01
sg9
(lp756
ssg155
(dp757
g3
I00
sg4
Vdouble
p758
sg6
I00
sg7
I00
sg8
I01
sg9
(lp759
ssVparentMatrix[1]
p760
(dp761
g3
I00
sg9
(lp762
ssVinstObjGroups.objectGroups.objectGroupId
p763
(dp764
g36
VinstObjGroups.objectGroups
p765
ssg95
(dp766
g3
I00
sg4
VdoubleLinear
p767
sg6
I00
sg7
I00
sg8
I01
sg9
(lp768
ssVminTransLimitEnable.minTransXLimitEnable
p769
(dp770
g3
I00
sg4
Vbool
p771
sg6
I00
sg7
I00
sg8
I01
sg9
(lp772
ssVenableRestPosition
p773
(dp774
g3
I00
sg4
Vbool
p775
sg6
I00
sg7
I00
sg8
I01
sg9
(lp776
ssVmaxRotLimitEnable
p777
(dp778
g3
I00
sg6
I00
sg4
VTdataCompound
p779
sg8
I00
sg9
(lp780
g207
aVmaxRotLimitEnable.maxRotYLimitEnable
p781
ag440
assVpublishedNodeInfo
p782
(dp783
g3
I01
sg6
I01
sg8
I00
sg4
VTdataCompound
p784
ssg533
(dp785
g3
I00
sg9
(lp786
ssg709
(dp787
g3
I00
sg4
VdoubleAngle
p788
sg6
I00
sg7
I00
sg8
I01
sg9
(lp789
ssg664
(dp790
g3
I00
sg4
Vdouble
p791
sg6
I00
sg7
I00
sg8
I01
sg9
(lp792
ssVghostColorPre
p793
(dp794
g3
I00
sg6
I00
sg4
Vfloat3
p795
sg8
I00
sg9
(lp796
g318
ag354
ag365
assVobjectColorRGB.objectColorG
p797
(dp798
g36
VobjectColorRGB
p799
sg3
I00
sg4
Vfloat
p800
sg6
I00
sg7
I00
sg8
I01
sg9
(lp801
ssg252
(dp802
g3
I00
sg4
VdoubleLinear
p803
sg6
I00
sg7
I00
sg8
I01
sg9
(lp804
ssg265
(dp805
g3
I00
sg4
VdoubleAngle
p806
sg6
I00
sg7
I00
sg8
I01
sg9
(lp807
ssVobjectColorRGB.objectColorB
p808
(dp809
g36
VobjectColorRGB
p810
sg3
I00
sg4
Vfloat
p811
sg6
I00
sg7
I00
sg8
I01
sg9
(lp812
ssg752
(dp813
g3
I00
sg4
Vbool
p814
sg6
I00
sg7
I00
sg8
I01
sg9
(lp815
ssVfrozen
p816
(dp817
g3
I00
sg4
Vbool
p818
sg6
I00
sg7
I00
sg8
I01
sg9
(lp819
ssVminScaleLimitEnable.minScaleYLimitEnable
p820
(dp821
g3
I00
sg4
Vbool
p822
sg6
I00
sg7
I00
sg8
I01
sg9
(lp823
ssVboundingBox.boundingBoxSize
p824
(dp825
g36
VboundingBox
p826
ssVrenderInfo.layerOverrideColor
p827
(dp828
g36
VrenderInfo
p829
sg3
I00
sg4
Vbyte
p830
sg6
I00
sg8
I00
sg9
(lp831
ssg603
(dp832
g3
I00
sg4
Vfloat
p833
sg6
I00
sg7
I00
sg8
I01
sg9
(lp834
ssVrenderLayerInfo[0]
p835
(dp836
g3
I00
sg9
(lp837
g192
ag135
aVrenderLayerInfo[0].renderLayerColor
p838
assVtemplateName
p839
(dp840
g3
I00
sg4
Vstring
p841
sg6
I00
sg7
I00
sg8
I01
sg9
(lp842
ssg728
(dp843
g3
I01
ssg838
(dp844
g3
I00
sg9
(lp845
ssVdisplayRotatePivot
p846
(dp847
g3
I00
sg4
Vbool
p848
sg6
I00
sg7
I00
sg8
I01
sg9
(lp849
ssg604
(dp850
g3
I00
sg4
Vfloat
p851
sg6
I00
sg7
I00
sg8
I01
sg9
(lp852
ssg636
(dp853
g3
I00
sg4
Vbool
p854
sg6
I00
sg7
I00
sg8
I01
sg9
(lp855
ssVinstObjGroups[0]
p856
(dp857
g3
I00
sg9
(lp858
VinstObjGroups[0].objectGroups
p859
assg662
(dp860
g3
I00
sg4
Vdouble
p861
sg6
I00
sg7
I00
sg8
I01
sg9
(lp862
ssg605
(dp863
g3
I00
sg4
Vfloat
p864
sg6
I00
sg7
I00
sg8
I01
sg9
(lp865
ssg397
(dp866
g3
I00
sg4
Vdouble
p867
sg6
I00
sg7
I00
sg8
I01
sg9
(lp868
ssVboundingBox.boundingBoxMin
p869
(dp870
g36
VboundingBox
p871
ssg395
(dp872
g3
I00
sg4
Vdouble
p873
sg6
I00
sg7
I00
sg8
I01
sg9
(lp874
ssg396
(dp875
g3
I00
sg4
Vdouble
p876
sg6
I00
sg7
I00
sg8
I01
sg9
(lp877
ssVscalePivot
p878
(dp879
g3
I00
sg6
I00
sg4
Vdouble3
p880
sg8
I01
sg9
(lp881
g311
ag483
ag487
assVspecifiedManipLocation
p882
(dp883
g3
I00
sg6
I00
sg4
Nsg8
I00
sg9
(lp884
ssg859
(dp885
g3
I01
ssVrenderInfo
p886
(dp887
g3
I00
sg6
I00
sg4
VTdataCompound
p888
sg8
I00
sg9
(lp889
VrenderInfo.identification
p890
aVrenderInfo.layerRenderable
p891
aVrenderInfo.layerOverrideColor
p892
assVviewMode
p893
(dp894
g3
I00
sg4
Venum
p895
sg6
I00
sg7
I00
sg8
I01
sg9
(lp896
ssVworldInverseMatrix[0]
p897
(dp898
g3
I00
sg9
(lp899
ssVboundingBox.boundingBoxMax.boundingBoxMaxY
p900
(dp901
g36
VboundingBox.boundingBoxMax
p902
ssVboundingBox.boundingBoxMax.boundingBoxMaxX
p903
(dp904
g36
VboundingBox.boundingBoxMax
p905
ssg553
(dp906
g3
I00
sg9
(lp907
ssVboundingBox.boundingBoxMax.boundingBoxMaxZ
p908
(dp909
g36
VboundingBox.boundingBoxMax
p910
ssg781
(dp911
g3
I00
sg4
Vbool
p912
sg6
I00
sg7
I00
sg8
I01
sg9
(lp913
ssVminScaleLimit
p914
(dp915
g3
I00
sg6
I00
sg4
Vdouble3
p916
sg8
I01
sg9
(lp917
g227
ag698
ag472
assVoutlinerColor
p918
(dp919
g3
I00
sg6
I00
sg4
Vfloat3
p920
sg8
I00
sg9
(lp921
g424
ag211
ag468
assVtemplate
p922
(dp923
g3
I00
sg4
Vbool
p924
sg6
I00
sg7
I00
sg8
I01
sg9
(lp925
ssVboundingBox.boundingBoxSize.boundingBoxSizeY
p926
(dp927
g36
VboundingBox.boundingBoxSize
p928
ssVboundingBox.boundingBoxSize.boundingBoxSizeX
p929
(dp930
g36
VboundingBox.boundingBoxSize
p931
ssVboundingBox.boundingBoxSize.boundingBoxSizeZ
p932
(dp933
g36
VboundingBox.boundingBoxSize
p934
ssVblackBox
p935
(dp936
g3
I00
sg4
Vbool
p937
sg6
I00
sg7
I00
sg8
I01
sg9
(lp938
ssVrenderLayerInfo.renderLayerColor
p939
(dp940
g36
VrenderLayerInfo
p941
ssVghostingControl
p942
(dp943
g3
I00
sg4
Venum
p944
sg6
I00
sg7
I00
sg8
I01
sg9
(lp945
ssVrestScale
p946
(dp947
g3
I00
sg6
I00
sg4
Vdouble3
p948
sg8
I01
sg9
(lp949
g717
ag127
ag119
assg733
(dp950
g3
I00
sg4
Vdouble
p951
sg6
I00
sg7
I00
sg8
I01
sg9
(lp952
ssg732
(dp953
g3
I00
sg4
Vdouble
p954
sg6
I00
sg7
I00
sg8
I01
sg9
(lp955
ssVworldInverseMatrix
p956
(dp957
g3
I01
sg6
I01
sg8
I00
sg4
Vmatrix
p958
ssg179
(dp959
g3
I00
sg4
VdoubleLinear
p960
sg6
I00
sg7
I00
sg8
I01
sg9
(lp961
ssVminScaleLimitEnable.minScaleZLimitEnable
p962
(dp963
g3
I00
sg4
Vbool
p964
sg6
I00
sg7
I00
sg8
I01
sg9
(lp965
ssVisHierarchicalConnection[0]
p966
(dp967
g3
I00
sg9
(lp968
ssVshowManipDefault
p969
(dp970
g3
I00
sg4
Venum
p971
sg6
I00
sg7
I00
sg8
I01
sg9
(lp972
ssVminScaleLimitEnable
p973
(dp974
g3
I00
sg6
I00
sg4
VTdataCompound
p975
sg8
I00
sg9
(lp976
VminScaleLimitEnable.minScaleXLimitEnable
p977
ag820
ag962
assg710
(dp978
g3
I00
sg4
VdoubleAngle
p979
sg6
I00
sg7
I00
sg8
I01
sg9
(lp980
ssg521
(dp981
g3
I00
sg4
VdoubleLinear
p982
sg6
I00
sg7
I00
sg8
I01
sg9
(lp983
ssg750
(dp984
g3
I00
sg4
Venum
p985
sg6
I00
sg7
I00
sg8
I01
sg9
(lp986
ssVwireColorRGB.wireColorG
p987
(dp988
g36
VwireColorRGB
p989
sg3
I00
sg4
Vfloat
p990
sg6
I00
sg7
I00
sg8
I01
sg9
(lp991
ssVisCollapsed
p992
(dp993
g3
I00
sg4
Vbool
p994
sg6
I00
sg7
I00
sg8
I01
sg9
(lp995
ssVnodeState
p996
(dp997
g3
I00
sg4
Venum
p998
sg6
I00
sg7
I00
sg8
I01
sg9
(lp999
ssg663
(dp1000
g3
I00
sg4
Vdouble
p1001
sg6
I00
sg7
I00
sg8
I01
sg9
(lp1002
ssVconstraintScaleCompensate
p1003
(dp1004
g3
I00
sg4
Vbool
p1005
sg6
I00
sg7
I00
sg8
I01
sg9
(lp1006
ssVtarget.targetScale
p1007
(dp1008
g36
Vtarget
p1009
ssVrenderInfo.identification
p1010
(dp1011
g36
VrenderInfo
p1012
sg3
I00
sg4
Vshort
p1013
sg6
I00
sg7
I00
sg8
I01
sg9
(lp1014
ssVghostColorPreA
p1015
(dp1016
g3
I00
sg4
Vfloat
p1017
sg6
I00
sg7
I00
sg8
I01
sg9
(lp1018
ssVhiddenInOutliner
p1019
(dp1020
g3
I00
sg4
Vbool
p1021
sg6
I00
sg7
I00
sg8
I01
sg9
(lp1022
ssVrenderLayerInfo[1]
p1023
(dp1024
g3
I00
sg9
(lp1025
g497
aVrenderLayerInfo[1].renderLayerRenderable
p1026
ag109
assg433
(dp1027
g3
I00
sg4
Vlong
p1028
sg6
I00
sg7
I00
sg8
I01
sg9
(lp1029
ssg753
(dp1030
g3
I00
sg4
Vbool
p1031
sg6
I00
sg7
I00
sg8
I01
sg9
(lp1032
ssVminRotLimitEnable
p1033
(dp1034
g3
I00
sg6
I00
sg4
VTdataCompound
p1035
sg8
I00
sg9
(lp1036
g637
ag171
ag81
assVinstObjGroups.objectGroups.objectGrpColor
p1037
(dp1038
g36
VinstObjGroups.objectGroups
p1039
ssVrenderLayerInfo
p1040
(dp1041
g3
I01
sg6
I01
sg8
I00
sg4
VTdataCompound
p1042
ssVlodVisibility
p1043
(dp1044
g3
I00
sg4
Vbool
p1045
sg6
I00
sg7
I00
sg8
I01
sg9
(lp1046
ssVworldMatrix[1]
p1047
(dp1048
g3
I00
sg9
(lp1049
ssg341
(dp1050
g3
I00
sg9
(lp1051
ssg96
(dp1052
g3
I00
sg4
VdoubleLinear
p1053
sg6
I00
sg7
I00
sg8
I01
sg9
(lp1054
ssg716
(dp1055
g3
I00
sg6
I00
sg4
Vmatrix
p1056
sg8
I00
sg9
(lp1057
ssg97
(dp1058
g3
I00
sg4
VdoubleLinear
p1059
sg6
I00
sg7
I00
sg8
I01
sg9
(lp1060
ssVtarget[1]
p1061
(dp1062
g3
I00
sg9
(lp1063
g85
ag31
aVtarget[1].targetWeight
p1064
assg62
(dp1065
g3
I00
sg4
Vfloat
p1066
sg6
I00
sg7
I00
sg8
I01
sg9
(lp1067
ssVisHierarchicalConnection
p1068
(dp1069
g3
I01
sg6
I01
sg8
I00
sg4
VTdataCompound
p1070
ssVuiTreatment
p1071
(dp1072
g3
I00
sg4
Venum
p1073
sg6
I00
sg7
I00
sg8
I01
sg9
(lp1074
ssg751
(dp1075
g3
I00
sg4
Vbool
p1076
sg6
I00
sg7
I00
sg8
I01
sg9
(lp1077
ssg61
(dp1078
g3
I00
sg4
Vfloat
p1079
sg6
I00
sg7
I00
sg8
I01
sg9
(lp1080
ssVcenter.boundingBoxCenterZ
p1081
(dp1082
g36
Vcenter
p1083
ssg1064
(dp1084
g3
I00
sg9
(lp1085
ssg977
(dp1086
g3
I00
sg4
Vbool
p1087
sg6
I00
sg7
I00
sg8
I01
sg9
(lp1088
ssg534
(dp1089
g3
I00
sg9
(lp1090
ssg90
(dp1091
g3
I00
sg9
(lp1092
ssVminTransLimitEnable
p1093
(dp1094
g3
I00
sg6
I00
sg4
VTdataCompound
p1095
sg8
I00
sg9
(lp1096
g769
ag67
ag215
assg60
(dp1097
g3
I00
sg4
Vfloat
p1098
sg6
I00
sg7
I00
sg8
I01
sg9
(lp1099
ssVrotatePivotTranslate
p1100
(dp1101
g3
I00
sg6
I00
sg4
Vdouble3
p1102
sg8
I01
sg9
(lp1103
g235
ag239
ag479
assg259
(dp1104
g3
I00
sg4
VdoubleAngle
p1105
sg6
I00
sg7
I00
sg8
I01
sg9
(lp1106
ssVcenter.boundingBoxCenterX
p1107
(dp1108
g36
Vcenter
p1109
ssg257
(dp1110
g3
I00
sg4
VdoubleAngle
p1111
sg6
I00
sg7
I00
sg8
I01
sg9
(lp1112
ssg258
(dp1113
g3
I00
sg4
VdoubleAngle
p1114
sg6
I00
sg7
I00
sg8
I01
sg9
(lp1115
ssVcaching
p1116
(dp1117
g3
I00
sg4
Vbool
p1118
sg6
I00
sg7
I00
sg8
I01
sg9
(lp1119
ssg371
(dp1120
g3
I00
sg9
(lp1121
ssVinverseMatrix
p1122
(dp1123
g3
I00
sg6
I00
sg4
Vmatrix
p1124
sg8
I00
sg9
(lp1125
ssg372
(dp1126
g3
I00
sg9
(lp1127
ssVghostFrames
p1128
(dp1129
g3
I00
sg6
I00
sg4
Nsg8
I00
sg9
(lp1130
ssg1026
(dp1131
g3
I00
sg9
(lp1132
ssg342
(dp1133
g3
I00
sg9
(lp1134
ssVcenter.boundingBoxCenterY
p1135
(dp1136
g36
Vcenter
p1137
ss.