(dp0
Vmin.minZ
p1
(dp2
S'isArray'
p3
I00
sS'attrParentLongName'
p4
Vmin
p5
sS'attrChildrenNames'
p6
(lp7
sS'attrType'
p8
Vfloat
p9
sS'isMulti'
p10
I00
sS'isCompound'
p11
I00
sS'isSimple'
p12
I01
sS'attrChildrenLongNames'
p13
(lp14
sS'isElement'
p15
I00
ssVmin.minX
p16
(dp17
S'isArray'
p18
I00
sS'attrParentLongName'
p19
Vmin
p20
sS'attrChildrenNames'
p21
(lp22
sg8
Vfloat
p23
sS'isMulti'
p24
I00
sS'isCompound'
p25
I00
sg12
I01
sg13
(lp26
sS'isElement'
p27
I00
ssVmin.minY
p28
(dp29
S'isArray'
p30
I00
sS'attrParentLongName'
p31
Vmin
p32
sS'attrChildrenNames'
p33
(lp34
sg8
Vfloat
p35
sS'isMulti'
p36
I00
sS'isCompound'
p37
I00
sg12
I01
sg13
(lp38
sS'isElement'
p39
I00
ssVoutValue
p40
(dp41
S'isArray'
p42
I00
sg8
Vfloat3
p43
sS'attrChildrenNames'
p44
(lp45
VoutValue.outValueX
p46
aVoutValue.outValueY
p47
aVoutValue.outValueZ
p48
asS'isMulti'
p49
I00
sS'isCompound'
p50
I01
sg12
I00
sg13
(lp51
VoutValue.outValueX
p52
aVoutValue.outValueY
p53
aVoutValue.outValueZ
p54
asS'isElement'
p55
I00
ssVoutValue.outValueZ
p56
(dp57
S'isArray'
p58
I00
sS'attrParentLongName'
p59
VoutValue
p60
sS'attrChildrenNames'
p61
(lp62
sg8
Vfloat
p63
sS'isMulti'
p64
I00
sS'isCompound'
p65
I00
sg12
I01
sg13
(lp66
sS'isElement'
p67
I00
ssVoutValue.outValueX
p68
(dp69
S'isArray'
p70
I00
sS'attrParentLongName'
p71
VoutValue
p72
sS'attrChildrenNames'
p73
(lp74
sg8
Vfloat
p75
sS'isMulti'
p76
I00
sS'isCompound'
p77
I00
sg12
I01
sg13
(lp78
sS'isElement'
p79
I00
ssVoutValue.outValueY
p80
(dp81
S'isArray'
p82
I00
sS'attrParentLongName'
p83
VoutValue
p84
sS'attrChildrenNames'
p85
(lp86
sg8
Vfloat
p87
sS'isMulti'
p88
I00
sS'isCompound'
p89
I00
sg12
I01
sg13
(lp90
sS'isElement'
p91
I00
ssVisHistoricallyInteresting
p92
(dp93
S'isArray'
p94
I00
sS'attrType'
p95
Vbyte
p96
sS'attrChildrenNames'
p97
(lp98
sS'isMulti'
p99
I00
sS'isCompound'
p100
I00
sS'isSimple'
p101
I00
sS'attrChildrenLongNames'
p102
(lp103
sS'isElement'
p104
I00
ssVmin
p105
(dp106
S'isArray'
p107
I00
sg8
Vfloat3
p108
sS'attrChildrenNames'
p109
(lp110
Vmin.minX
p111
aVmin.minY
p112
aVmin.minZ
p113
asS'isMulti'
p114
I00
sS'isCompound'
p115
I01
sg12
I00
sg13
(lp116
Vmin.minX
p117
aVmin.minY
p118
aVmin.minZ
p119
asS'isElement'
p120
I00
ssVbinMembership
p121
(dp122
S'isArray'
p123
I00
sg95
Vstring
p124
sS'isMulti'
p125
I00
sS'isCompound'
p126
I00
sg101
I01
sg102
(lp127
ssVoldMax.oldMaxZ
p128
(dp129
S'isArray'
p130
I00
sS'attrParentLongName'
p131
VoldMax
p132
sS'attrChildrenNames'
p133
(lp134
sg8
Vfloat
p135
sS'isMulti'
p136
I00
sS'isCompound'
p137
I00
sg12
I01
sg13
(lp138
sS'isElement'
p139
I00
ssVoldMax.oldMaxX
p140
(dp141
S'isArray'
p142
I00
sS'attrParentLongName'
p143
VoldMax
p144
sS'attrChildrenNames'
p145
(lp146
sg8
Vfloat
p147
sS'isMulti'
p148
I00
sS'isCompound'
p149
I00
sg12
I01
sg13
(lp150
sS'isElement'
p151
I00
ssVoldMax.oldMaxY
p152
(dp153
S'isArray'
p154
I00
sS'attrParentLongName'
p155
VoldMax
p156
sS'attrChildrenNames'
p157
(lp158
sg8
Vfloat
p159
sS'isMulti'
p160
I00
sS'isCompound'
p161
I00
sg12
I01
sg13
(lp162
sS'isElement'
p163
I00
ssVnodeState
p164
(dp165
S'isArray'
p166
I00
sg95
Venum
p167
sS'attrChildrenNames'
p168
(lp169
sS'isMulti'
p170
I00
sS'isCompound'
p171
I00
sg101
I01
sg102
(lp172
sS'isElement'
p173
I00
ssVvalue.valueZ
p174
(dp175
S'isArray'
p176
I00
sS'attrParentLongName'
p177
Vvalue
p178
sS'attrChildrenNames'
p179
(lp180
sg8
Vfloat
p181
sS'isMulti'
p182
I00
sS'isCompound'
p183
I00
sg12
I01
sg13
(lp184
sS'isElement'
p185
I00
ssVoldMax
p186
(dp187
S'isArray'
p188
I00
sg8
Vfloat3
p189
sS'attrChildrenNames'
p190
(lp191
VoldMax.oldMaxX
p192
aVoldMax.oldMaxY
p193
aVoldMax.oldMaxZ
p194
asS'isMulti'
p195
I00
sS'isCompound'
p196
I01
sg12
I00
sg13
(lp197
VoldMax.oldMaxX
p198
aVoldMax.oldMaxY
p199
aVoldMax.oldMaxZ
p200
asS'isElement'
p201
I00
ssVvalue.valueX
p202
(dp203
S'isArray'
p204
I00
sS'attrParentLongName'
p205
Vvalue
p206
sS'attrChildrenNames'
p207
(lp208
sg8
Vfloat
p209
sS'isMulti'
p210
I00
sS'isCompound'
p211
I00
sg12
I01
sg13
(lp212
sS'isElement'
p213
I00
ssVvalue.valueY
p214
(dp215
S'isArray'
p216
I00
sS'attrParentLongName'
p217
Vvalue
p218
sS'attrChildrenNames'
p219
(lp220
sg8
Vfloat
p221
sS'isMulti'
p222
I00
sS'isCompound'
p223
I00
sg12
I01
sg13
(lp224
sS'isElement'
p225
I00
ssVmax
p226
(dp227
S'isArray'
p228
I00
sg8
Vfloat3
p229
sS'attrChildrenNames'
p230
(lp231
Vmax.maxX
p232
aVmax.maxY
p233
aVmax.maxZ
p234
asS'isMulti'
p235
I00
sS'isCompound'
p236
I01
sg12
I00
sg13
(lp237
Vmax.maxX
p238
aVmax.maxY
p239
aVmax.maxZ
p240
asS'isElement'
p241
I00
ssVoldMin
p242
(dp243
S'isArray'
p244
I00
sg8
Vfloat3
p245
sS'attrChildrenNames'
p246
(lp247
VoldMin.oldMinX
p248
aVoldMin.oldMinY
p249
aVoldMin.oldMinZ
p250
asS'isMulti'
p251
I00
sS'isCompound'
p252
I01
sg12
I00
sg13
(lp253
VoldMin.oldMinX
p254
aVoldMin.oldMinY
p255
aVoldMin.oldMinZ
p256
asS'isElement'
p257
I00
ssVvalue
p258
(dp259
S'isArray'
p260
I00
sg8
Vfloat3
p261
sS'attrChildrenNames'
p262
(lp263
Vvalue.valueX
p264
aVvalue.valueY
p265
aVvalue.valueZ
p266
asS'isMulti'
p267
I00
sS'isCompound'
p268
I01
sg12
I00
sg13
(lp269
Vvalue.valueX
p270
aVvalue.valueY
p271
aVvalue.valueZ
p272
asS'isElement'
p273
I00
ssVoldMin.oldMinZ
p274
(dp275
S'isArray'
p276
I00
sS'attrParentLongName'
p277
VoldMin
p278
sS'attrChildrenNames'
p279
(lp280
sg8
Vfloat
p281
sS'isMulti'
p282
I00
sS'isCompound'
p283
I00
sg12
I01
sg13
(lp284
sS'isElement'
p285
I00
ssVoldMin.oldMinX
p286
(dp287
S'isArray'
p288
I00
sS'attrParentLongName'
p289
VoldMin
p290
sS'attrChildrenNames'
p291
(lp292
sg8
Vfloat
p293
sS'isMulti'
p294
I00
sS'isCompound'
p295
I00
sg12
I01
sg13
(lp296
sS'isElement'
p297
I00
ssVoldMin.oldMinY
p298
(dp299
S'isArray'
p300
I00
sS'attrParentLongName'
p301
VoldMin
p302
sS'attrChildrenNames'
p303
(lp304
sg8
Vfloat
p305
sS'isMulti'
p306
I00
sS'isCompound'
p307
I00
sg12
I01
sg13
(lp308
sS'isElement'
p309
I00
ssVcaching
p310
(dp311
S'isArray'
p312
I00
sg95
Vbool
p313
sS'attrChildrenNames'
p314
(lp315
sS'isMulti'
p316
I00
sS'isCompound'
p317
I00
sg101
I01
sg102
(lp318
sS'isElement'
p319
I00
ssVmax.maxZ
p320
(dp321
S'isArray'
p322
I00
sS'attrParentLongName'
p323
Vmax
p324
sS'attrChildrenNames'
p325
(lp326
sg8
Vfloat
p327
sS'isMulti'
p328
I00
sS'isCompound'
p329
I00
sg12
I01
sg13
(lp330
sS'isElement'
p331
I00
ssVmax.maxX
p332
(dp333
S'isArray'
p334
I00
sS'attrParentLongName'
p335
Vmax
p336
sS'attrChildrenNames'
p337
(lp338
sg8
Vfloat
p339
sS'isMulti'
p340
I00
sS'isCompound'
p341
I00
sg12
I01
sg13
(lp342
sS'isElement'
p343
I00
ssVmax.maxY
p344
(dp345
S'isArray'
p346
I00
sS'attrParentLongName'
p347
Vmax
p348
sS'attrChildrenNames'
p349
(lp350
sg8
Vfloat
p351
sS'isMulti'
p352
I00
sS'isCompound'
p353
I00
sg12
I01
sg13
(lp354
sS'isElement'
p355
I00
ss.