(dp0
VedgeBlend
p1
(dp2
S'isArray'
p3
I00
sS'isElement'
p4
I00
sS'isMulti'
p5
I00
sS'attrChildrenNames'
p6
(lp7
sS'isCompound'
p8
I00
ssVoutColor.outColorR
p9
(dp10
S'isArray'
p11
I00
sS'attrParentLongName'
p12
VoutColor
p13
sS'attrChildrenNames'
p14
(lp15
sS'isMulti'
p16
I00
sS'isCompound'
p17
I00
sS'isElement'
p18
I00
ssVuvFilterSize.uvFilterSizeY
p19
(dp20
S'isArray'
p21
I00
sS'attrParentLongName'
p22
VuvFilterSize
p23
sS'attrChildrenNames'
p24
(lp25
sS'isMulti'
p26
I00
sS'isCompound'
p27
I00
sS'isElement'
p28
I00
ssVcolorOffset.colorOffsetB
p29
(dp30
S'isArray'
p31
I00
sS'attrParentLongName'
p32
VcolorOffset
p33
sS'attrChildrenNames'
p34
(lp35
sS'isMulti'
p36
I00
sS'isCompound'
p37
I00
sS'isElement'
p38
I00
ssVimage
p39
(dp40
S'isArray'
p41
I00
sS'isElement'
p42
I00
sS'isCompound'
p43
I01
sS'attrChildrenNames'
p44
(lp45
Vimage.imageR
p46
aVimage.imageG
p47
aVimage.imageB
p48
asS'isMulti'
p49
I00
ssVfilterOffset
p50
(dp51
S'isArray'
p52
I00
sS'isElement'
p53
I00
sS'isCompound'
p54
I00
sS'attrChildrenNames'
p55
(lp56
sS'isMulti'
p57
I00
ssVoutColor.outColorG
p58
(dp59
S'isArray'
p60
I00
sS'attrParentLongName'
p61
VoutColor
p62
sS'attrChildrenNames'
p63
(lp64
sS'isMulti'
p65
I00
sS'isCompound'
p66
I00
sS'isElement'
p67
I00
ssVcolorKey
p68
(dp69
S'isArray'
p70
I00
sS'isElement'
p71
I00
sS'isMulti'
p72
I00
sS'isCompound'
p73
I01
sS'attrChildrenNames'
p74
(lp75
VcolorKey.colorKeyR
p76
aVcolorKey.colorKeyG
p77
aVcolorKey.colorKeyB
p78
assVoutColor.outColorB
p79
(dp80
S'isArray'
p81
I00
sS'attrParentLongName'
p82
VoutColor
p83
sS'attrChildrenNames'
p84
(lp85
sS'isMulti'
p86
I00
sS'isCompound'
p87
I00
sS'isElement'
p88
I00
ssVcolorKey.colorKeyR
p89
(dp90
S'isArray'
p91
I00
sS'attrParentLongName'
p92
VcolorKey
p93
sS'attrChildrenNames'
p94
(lp95
sS'isMulti'
p96
I00
sS'isCompound'
p97
I00
sS'isElement'
p98
I00
ssValphaGain
p99
(dp100
S'isArray'
p101
I00
sS'isElement'
p102
I00
sS'isCompound'
p103
I00
sS'attrChildrenNames'
p104
(lp105
sS'isMulti'
p106
I00
ssVuvCoord.vCoord
p107
(dp108
S'isArray'
p109
I00
sS'attrParentLongName'
p110
VuvCoord
p111
sS'attrChildrenNames'
p112
(lp113
sS'isMulti'
p114
I00
sS'isCompound'
p115
I00
sS'isElement'
p116
I00
ssVthreshold
p117
(dp118
S'isArray'
p119
I00
sS'isElement'
p120
I00
sS'isCompound'
p121
I00
sS'attrChildrenNames'
p122
(lp123
sS'isMulti'
p124
I00
ssVuvFilterSize.uvFilterSizeX
p125
(dp126
S'isArray'
p127
I00
sS'attrParentLongName'
p128
VuvFilterSize
p129
sS'attrChildrenNames'
p130
(lp131
sS'isMulti'
p132
I00
sS'isCompound'
p133
I00
sS'isElement'
p134
I00
ssVisHistoricallyInteresting
p135
(dp136
S'isArray'
p137
I00
sS'isElement'
p138
I00
sS'attrChildrenNames'
p139
(lp140
sS'isCompound'
p141
I00
sS'isMulti'
p142
I00
ssVimage.imageR
p143
(dp144
S'isArray'
p145
I00
sS'attrParentLongName'
p146
Vimage
p147
sS'attrChildrenNames'
p148
(lp149
sS'isMulti'
p150
I00
sS'isCompound'
p151
I00
sS'isElement'
p152
I00
ssVkeyMasking
p153
(dp154
S'isArray'
p155
I00
sS'isElement'
p156
I00
sS'isMulti'
p157
I00
sS'isCompound'
p158
I00
sS'attrChildrenNames'
p159
(lp160
ssValphaIsLuminance
p161
(dp162
S'isArray'
p163
I00
sS'isElement'
p164
I00
sS'isCompound'
p165
I00
sS'attrChildrenNames'
p166
(lp167
sS'isMulti'
p168
I00
ssVinvert
p169
(dp170
S'isArray'
p171
I00
sS'isElement'
p172
I00
sS'attrChildrenNames'
p173
(lp174
sS'isCompound'
p175
I00
sS'isMulti'
p176
I00
ssVdefaultColor
p177
(dp178
S'isArray'
p179
I00
sS'isElement'
p180
I00
sS'isCompound'
p181
I01
sS'attrChildrenNames'
p182
(lp183
VdefaultColor.defaultColorR
p184
aVdefaultColor.defaultColorG
p185
aVdefaultColor.defaultColorB
p186
asS'isMulti'
p187
I00
ssVcolorOffset
p188
(dp189
S'isArray'
p190
I00
sS'isElement'
p191
I00
sS'isMulti'
p192
I00
sS'attrChildrenNames'
p193
(lp194
VcolorOffset.colorOffsetR
p195
aVcolorOffset.colorOffsetG
p196
aVcolorOffset.colorOffsetB
p197
asS'isCompound'
p198
I01
ssVoutAlpha
p199
(dp200
S'isArray'
p201
I00
sS'isElement'
p202
I00
sS'attrChildrenNames'
p203
(lp204
sS'isCompound'
p205
I00
sS'isMulti'
p206
I00
ssVuvCoord.uCoord
p207
(dp208
S'isArray'
p209
I00
sS'attrParentLongName'
p210
VuvCoord
p211
sS'attrChildrenNames'
p212
(lp213
sS'isMulti'
p214
I00
sS'isCompound'
p215
I00
sS'isElement'
p216
I00
ssVuvCoord
p217
(dp218
S'isArray'
p219
I00
sS'isElement'
p220
I00
sS'attrChildrenNames'
p221
(lp222
VuvCoord.uCoord
p223
aVuvCoord.vCoord
p224
asS'isCompound'
p225
I01
sS'isMulti'
p226
I00
ssVcolorGain
p227
(dp228
S'isArray'
p229
I00
sS'isElement'
p230
I00
sS'attrChildrenNames'
p231
(lp232
VcolorGain.colorGainR
p233
aVcolorGain.colorGainG
p234
aVcolorGain.colorGainB
p235
asS'isCompound'
p236
I01
sS'isMulti'
p237
I00
ssVsaturationRange
p238
(dp239
S'isArray'
p240
I00
sS'isElement'
p241
I00
sS'isCompound'
p242
I00
sS'attrChildrenNames'
p243
(lp244
sS'isMulti'
p245
I00
ssVcolorGain.colorGainR
p246
(dp247
S'isArray'
p248
I00
sS'attrParentLongName'
p249
VcolorGain
p250
sS'attrChildrenNames'
p251
(lp252
sS'isMulti'
p253
I00
sS'isCompound'
p254
I00
sS'isElement'
p255
I00
ssVnodeState
p256
(dp257
S'isArray'
p258
I00
sS'isElement'
p259
I00
sS'isCompound'
p260
I00
sS'attrChildrenNames'
p261
(lp262
sS'isMulti'
p263
I00
ssVuvFilterSize
p264
(dp265
S'isArray'
p266
I00
sS'isElement'
p267
I00
sS'attrChildrenNames'
p268
(lp269
VuvFilterSize.uvFilterSizeX
p270
aVuvFilterSize.uvFilterSizeY
p271
asS'isCompound'
p272
I01
sS'isMulti'
p273
I00
ssVhueRange
p274
(dp275
S'isArray'
p276
I00
sS'isElement'
p277
I00
sS'attrChildrenNames'
p278
(lp279
sS'isCompound'
p280
I00
sS'isMulti'
p281
I00
ssVcolorGain.colorGainB
p282
(dp283
S'isArray'
p284
I00
sS'attrParentLongName'
p285
VcolorGain
p286
sS'attrChildrenNames'
p287
(lp288
sS'isMulti'
p289
I00
sS'isCompound'
p290
I00
sS'isElement'
p291
I00
ssVcolorGain.colorGainG
p292
(dp293
S'isArray'
p294
I00
sS'attrParentLongName'
p295
VcolorGain
p296
sS'attrChildrenNames'
p297
(lp298
sS'isMulti'
p299
I00
sS'isCompound'
p300
I00
sS'isElement'
p301
I00
ssValphaOffset
p302
(dp303
S'isArray'
p304
I00
sS'isElement'
p305
I00
sS'attrChildrenNames'
p306
(lp307
sS'isCompound'
p308
I00
sS'isMulti'
p309
I00
ssVpositiveKey
p310
(dp311
S'isArray'
p312
I00
sS'isElement'
p313
I00
sS'isMulti'
p314
I00
sS'attrChildrenNames'
p315
(lp316
sS'isCompound'
p317
I00
ssVimage.imageB
p318
(dp319
S'isArray'
p320
I00
sS'attrParentLongName'
p321
Vimage
p322
sS'attrChildrenNames'
p323
(lp324
sS'isMulti'
p325
I00
sS'isCompound'
p326
I00
sS'isElement'
p327
I00
ssVvalueRange
p328
(dp329
S'isArray'
p330
I00
sS'isElement'
p331
I00
sS'attrChildrenNames'
p332
(lp333
sS'isCompound'
p334
I00
sS'isMulti'
p335
I00
ssVimage.imageG
p336
(dp337
S'isArray'
p338
I00
sS'attrParentLongName'
p339
Vimage
p340
sS'attrChildrenNames'
p341
(lp342
sS'isMulti'
p343
I00
sS'isCompound'
p344
I00
sS'isElement'
p345
I00
ssVcolorOffset.colorOffsetG
p346
(dp347
S'isArray'
p348
I00
sS'attrParentLongName'
p349
VcolorOffset
p350
sS'attrChildrenNames'
p351
(lp352
sS'isMulti'
p353
I00
sS'isCompound'
p354
I00
sS'isElement'
p355
I00
ssVdefaultColor.defaultColorG
p356
(dp357
S'isArray'
p358
I00
sS'attrParentLongName'
p359
VdefaultColor
p360
sS'attrChildrenNames'
p361
(lp362
sS'isMulti'
p363
I00
sS'isCompound'
p364
I00
sS'isElement'
p365
I00
ssVmask
p366
(dp367
S'isArray'
p368
I00
sS'isElement'
p369
I00
sS'isMulti'
p370
I00
sS'isCompound'
p371
I00
sS'attrChildrenNames'
p372
(lp373
ssVdefaultColor.defaultColorB
p374
(dp375
S'isArray'
p376
I00
sS'attrParentLongName'
p377
VdefaultColor
p378
sS'attrChildrenNames'
p379
(lp380
sS'isMulti'
p381
I00
sS'isCompound'
p382
I00
sS'isElement'
p383
I00
ssVfilter
p384
(dp385
S'isArray'
p386
I00
sS'isElement'
p387
I00
sS'attrChildrenNames'
p388
(lp389
sS'isCompound'
p390
I00
sS'isMulti'
p391
I00
ssVoutColor
p392
(dp393
S'isArray'
p394
I00
sS'isElement'
p395
I00
sS'isMulti'
p396
I00
sS'isCompound'
p397
I01
sS'attrChildrenNames'
p398
(lp399
VoutColor.outColorR
p400
aVoutColor.outColorG
p401
aVoutColor.outColorB
p402
assVcolorKey.colorKeyB
p403
(dp404
S'isArray'
p405
I00
sS'attrParentLongName'
p406
VcolorKey
p407
sS'attrChildrenNames'
p408
(lp409
sS'isMulti'
p410
I00
sS'isCompound'
p411
I00
sS'isElement'
p412
I00
ssVcaching
p413
(dp414
S'isArray'
p415
I00
sS'isElement'
p416
I00
sS'isCompound'
p417
I00
sS'attrChildrenNames'
p418
(lp419
sS'isMulti'
p420
I00
ssVcolorKey.colorKeyG
p421
(dp422
S'isArray'
p423
I00
sS'attrParentLongName'
p424
VcolorKey
p425
sS'attrChildrenNames'
p426
(lp427
sS'isMulti'
p428
I00
sS'isCompound'
p429
I00
sS'isElement'
p430
I00
ssVcolorOffset.colorOffsetR
p431
(dp432
S'isArray'
p433
I00
sS'attrParentLongName'
p434
VcolorOffset
p435
sS'attrChildrenNames'
p436
(lp437
sS'isMulti'
p438
I00
sS'isCompound'
p439
I00
sS'isElement'
p440
I00
ssVdefaultColor.defaultColorR
p441
(dp442
S'isArray'
p443
I00
sS'attrParentLongName'
p444
VdefaultColor
p445
sS'attrChildrenNames'
p446
(lp447
sS'isMulti'
p448
I00
sS'isCompound'
p449
I00
sS'isElement'
p450
I00
ss.