(dp0
VcontrolPoints[1]
p1
(dp2
S'isArray'
p3
I00
sS'attrChildrenLongNames'
p4
(lp5
VcontrolPoints[1].xValue
p6
aVcontrolPoints[1].yValue
p7
aVcontrolPoints[1].zValue
p8
assVcontrolPoints[0].xValue
p9
(dp10
S'isArray'
p11
I00
sS'isElement'
p12
I00
sS'attrParentLongName'
p13
VcontrolPoints[0]
p14
sS'attrChildrenNames'
p15
(lp16
sg4
(lp17
ssVknotsV[0]
p18
(dp19
g3
I00
sg4
(lp20
ssg6
(dp21
g3
I00
sg4
(lp22
ssVcontrolPoints.yValue
p23
(dp24
S'attrParentLongName'
p25
VcontrolPoints
p26
ssVknotsU
p27
(dp28
S'isArray'
p29
I01
sS'isElement'
p30
I00
sS'attrType'
p31
VTdataCompound
p32
sS'isSimple'
p33
I00
sS'isMulti'
p34
I01
ssVknotsV
p35
(dp36
S'isArray'
p37
I01
sS'isElement'
p38
I00
sg31
VTdataCompound
p39
sg33
I00
sS'isMulti'
p40
I01
ssVisHistoricallyInteresting
p41
(dp42
S'isArray'
p43
I00
sg31
Vbyte
p44
sS'attrChildrenNames'
p45
(lp46
sS'isMulti'
p47
I00
sS'isCompound'
p48
I00
sg33
I00
sg4
(lp49
sS'isElement'
p50
I00
ssVbinMembership
p51
(dp52
g3
I00
sg31
Vstring
p53
sS'isMulti'
p54
I00
sS'isCompound'
p55
I00
sg33
I01
sg4
(lp56
ssVweights[0]
p57
(dp58
g3
I00
sg4
(lp59
ssVinputSurface
p60
(dp61
S'isArray'
p62
I00
sg31
NsS'attrChildrenNames'
p63
(lp64
sS'isMulti'
p65
I00
sS'isCompound'
p66
I00
sg33
I00
sg4
(lp67
sS'isElement'
p68
I00
ssg7
(dp69
g3
I00
sg4
(lp70
ssVknotsU[1]
p71
(dp72
g3
I00
sg4
(lp73
ssVcontrolPoints
p74
(dp75
S'isArray'
p76
I01
sS'isElement'
p77
I00
sg31
VTdataCompound
p78
sg33
I00
sS'isMulti'
p79
I01
ssVnodeState
p80
(dp81
S'isArray'
p82
I00
sg31
Venum
p83
sS'attrChildrenNames'
p84
(lp85
sS'isMulti'
p86
I00
sS'isCompound'
p87
I00
sg33
I01
sg4
(lp88
sS'isElement'
p89
I00
ssVcontrolPoints[0].zValue
p90
(dp91
S'isArray'
p92
I00
sS'isElement'
p93
I00
sS'attrParentLongName'
p94
VcontrolPoints[0]
p95
sS'attrChildrenNames'
p96
(lp97
sg4
(lp98
ssVcontrolPoints[0]
p99
(dp100
g3
I00
sg4
(lp101
VcontrolPoints[0].xValue
p102
aVcontrolPoints[0].yValue
p103
aVcontrolPoints[0].zValue
p104
assVcontrolPoints[0].yValue
p105
(dp106
S'isArray'
p107
I00
sS'isElement'
p108
I00
sS'attrParentLongName'
p109
VcontrolPoints[0]
p110
sS'attrChildrenNames'
p111
(lp112
sg4
(lp113
ssVknotsV[1]
p114
(dp115
g3
I00
sg4
(lp116
ssVcontrolPoints.zValue
p117
(dp118
g25
VcontrolPoints
p119
ssg8
(dp120
g3
I00
sg4
(lp121
ssVfrozen
p122
(dp123
g3
I00
sg31
Vbool
p124
sg54
I00
sg55
I00
sg33
I01
sg4
(lp125
ssVcontrolPoints.xValue
p126
(dp127
g25
VcontrolPoints
p128
ssVweights[1]
p129
(dp130
g3
I00
sg4
(lp131
ssVweights
p132
(dp133
S'isArray'
p134
I01
sS'isElement'
p135
I00
sg31
VTdataCompound
p136
sg33
I00
sS'isMulti'
p137
I01
ssVcaching
p138
(dp139
S'isArray'
p140
I00
sg31
Vbool
p141
sS'attrChildrenNames'
p142
(lp143
sS'isMulti'
p144
I00
sS'isCompound'
p145
I00
sg33
I01
sg4
(lp146
sS'isElement'
p147
I00
ssVknotsU[0]
p148
(dp149
g3
I00
sg4
(lp150
ss.