(dp0
VrotateOrder
p1
(dp2
S'isArray'
p3
I00
sS'attrType'
p4
Venum
p5
sS'attrChildrenNames'
p6
(lp7
sS'isMulti'
p8
I00
sS'isCompound'
p9
I00
sS'isSimple'
p10
I01
sS'attrShortName'
p11
Vro
p12
sS'isReadable'
p13
I00
sS'attrChildrenLongNames'
p14
(lp15
sS'isElement'
p16
I00
ssVworldMatrix[4]
p17
(dp18
S'isArray'
p19
I00
sS'isMulti'
p20
I00
sS'attrChildrenNames'
p21
(lp22
sS'isSimple'
p23
I00
sS'attrType'
p24
NssVghostCustomSteps
p25
(dp26
S'isArray'
p27
I00
sS'attrType'
p28
VTdataCompound
p29
sS'attrChildrenNames'
p30
(lp31
VghostCustomSteps.ghostPreSteps
p32
aVghostCustomSteps.ghostPostSteps
p33
aVghostCustomSteps.ghostStepSize
p34
asS'isMulti'
p35
I00
sS'isCompound'
p36
I01
sS'isSimple'
p37
I00
sS'attrShortName'
p38
Vgcs
p39
sg14
(lp40
VghostCustomSteps.ghostPreSteps
p41
aVghostCustomSteps.ghostPostSteps
p42
aVghostCustomSteps.ghostStepSize
p43
asS'isElement'
p44
I00
ssVminTransLimitEnable.minTransYLimitEnable
p45
(dp46
S'isArray'
p47
I00
sS'attrType'
p48
Vbool
p49
sS'isMulti'
p50
I00
sS'isCompound'
p51
I00
sS'isSimple'
p52
I01
sg38
Vmtye
p53
sS'attrChildrenLongNames'
p54
(lp55
ssVparentInverseMatrix[10]
p56
(dp57
S'isArray'
p58
I00
sS'isMulti'
p59
I00
sS'attrChildrenNames'
p60
(lp61
sS'isSimple'
p62
I00
sS'attrType'
p63
NssVrenderLayerInfo.renderLayerRenderable
p64
(dp65
S'attrParentLongName'
p66
VrenderLayerInfo
p67
sS'isElement'
p68
I00
ssVboundingBox.boundingBoxMin.boundingBoxMinY
p69
(dp70
S'isArray'
p71
I00
sS'attrParentLongName'
p72
VboundingBox.boundingBoxMin
p73
sS'attrChildrenNames'
p74
(lp75
sg28
VdoubleLinear
p76
sS'isMulti'
p77
I00
sS'isCompound'
p78
I00
sg37
I01
sg14
(lp79
sS'isElement'
p80
I00
ssVboundingBox.boundingBoxMin.boundingBoxMinX
p81
(dp82
S'isArray'
p83
I00
sS'attrParentLongName'
p84
VboundingBox.boundingBoxMin
p85
sS'attrChildrenNames'
p86
(lp87
sg28
VdoubleLinear
p88
sS'isMulti'
p89
I00
sS'isCompound'
p90
I00
sg37
I01
sg14
(lp91
sS'isElement'
p92
I00
ssVboundingBox.boundingBoxMin.boundingBoxMinZ
p93
(dp94
S'isArray'
p95
I00
sS'attrParentLongName'
p96
VboundingBox.boundingBoxMin
p97
sS'attrChildrenNames'
p98
(lp99
sg28
VdoubleLinear
p100
sS'isMulti'
p101
I00
sS'isCompound'
p102
I00
sg37
I01
sg14
(lp103
sS'isElement'
p104
I00
ssVminRotLimitEnable.minRotYLimitEnable
p105
(dp106
g47
I00
sg48
Vbool
p107
sg50
I00
sg51
I00
sg52
I01
sg38
Vmrye
p108
sg54
(lp109
ssVselectHandle
p110
(dp111
S'isArray'
p112
I00
sg28
Vdouble3
p113
sS'attrChildrenNames'
p114
(lp115
VselectHandle.selectHandleX
p116
aVselectHandle.selectHandleY
p117
aVselectHandle.selectHandleZ
p118
asS'isMulti'
p119
I00
sS'isCompound'
p120
I01
sg37
I01
sg38
Vhdl
p121
sg14
(lp122
VselectHandle.selectHandleX
p123
aVselectHandle.selectHandleY
p124
aVselectHandle.selectHandleZ
p125
asS'isElement'
p126
I00
ssVrotateQuaternion.rotateQuaternionZ
p127
(dp128
S'isArray'
p129
I00
sS'attrParentLongName'
p130
VrotateQuaternion
p131
sS'attrChildrenNames'
p132
(lp133
sg28
Vdouble
p134
sS'isMulti'
p135
I00
sS'isCompound'
p136
I00
sg37
I01
sg38
Vrqz
p137
sg14
(lp138
sS'isElement'
p139
I00
ssVrenderLayerInfo[0].renderLayerId
p140
(dp141
S'isArray'
p142
I00
sS'attrParentLongName'
p143
VrenderLayerInfo[0]
p144
sS'attrChildrenNames'
p145
(lp146
sS'attrType'
p147
Vshort
p148
sS'isSimple'
p149
I00
sg38
Vrlio[0].rli
p150
sg14
(lp151
sS'isElement'
p152
I00
ssVrotateQuaternion.rotateQuaternionX
p153
(dp154
S'isArray'
p155
I00
sS'attrParentLongName'
p156
VrotateQuaternion
p157
sS'attrChildrenNames'
p158
(lp159
sg28
Vdouble
p160
sS'isMulti'
p161
I00
sS'isCompound'
p162
I00
sg37
I01
sg38
Vrqx
p163
sg14
(lp164
sS'isElement'
p165
I00
ssVrotateQuaternion.rotateQuaternionY
p166
(dp167
S'isArray'
p168
I00
sS'attrParentLongName'
p169
VrotateQuaternion
p170
sS'attrChildrenNames'
p171
(lp172
sg28
Vdouble
p173
sS'isMulti'
p174
I00
sS'isCompound'
p175
I00
sg37
I01
sg38
Vrqy
p176
sg14
(lp177
sS'isElement'
p178
I00
ssVminScaleLimit.minScaleXLimit
p179
(dp180
g47
I00
sg48
Vdouble
p181
sg50
I00
sg51
I00
sg52
I01
sg38
Vmsxl
p182
sg54
(lp183
ssVrotateQuaternion.rotateQuaternionW
p184
(dp185
S'isArray'
p186
I00
sS'attrParentLongName'
p187
VrotateQuaternion
p188
sS'attrChildrenNames'
p189
(lp190
sg28
Vdouble
p191
sS'isMulti'
p192
I00
sS'isCompound'
p193
I00
sg37
I01
sg38
Vrqw
p194
sg14
(lp195
sS'isElement'
p196
I00
ssVtemplatePath
p197
(dp198
S'isArray'
p199
I00
sg28
Vstring
p200
sS'attrChildrenNames'
p201
(lp202
sS'isMulti'
p203
I00
sS'isCompound'
p204
I00
sg37
I01
sg38
Vtpt
p205
sg14
(lp206
sS'isElement'
p207
I00
ssVminTransLimit
p208
(dp209
g47
I00
sg48
Vdouble3
p210
sg50
I00
sg51
I01
sg52
I01
sg38
Vmntl
p211
sg54
(lp212
VminTransLimit.minTransXLimit
p213
aVminTransLimit.minTransYLimit
p214
aVminTransLimit.minTransZLimit
p215
assVparentMatrix[16]
p216
(dp217
S'isArray'
p218
I00
sS'attrChildrenNames'
p219
(lp220
ssVminRotLimit
p221
(dp222
g47
I00
sg48
Vdouble3
p223
sg50
I00
sg51
I01
sg52
I01
sg38
Vmnrl
p224
sg54
(lp225
VminRotLimit.minRotXLimit
p226
aVminRotLimit.minRotYLimit
p227
aVminRotLimit.minRotZLimit
p228
assVmaxTransLimitEnable.maxTransYLimitEnable
p229
(dp230
g47
I00
sg48
Vbool
p231
sg50
I00
sg51
I00
sg52
I01
sg38
Vxtye
p232
sg54
(lp233
ssVmaxScaleLimitEnable.maxScaleYLimitEnable
p234
(dp235
g47
I00
sg48
Vbool
p236
sg50
I00
sg51
I00
sg52
I01
sg38
Vxsye
p237
sg54
(lp238
ssVuseOutlinerColor
p239
(dp240
S'isArray'
p241
I00
sg147
Vbool
p242
sS'isSimple'
p243
I01
sS'attrChildrenLongNames'
p244
(lp245
ssVparentMatrix[0]
p246
(dp247
S'isArray'
p248
I00
sS'attrType'
p249
Vmatrix
p250
sS'attrParentLongName'
p251
VparentMatrix
p252
sS'attrChildrenNames'
p253
(lp254
sg20
I00
sg23
I00
sg11
Vpm[0]
p255
sS'isReadable'
p256
I00
sg14
(lp257
ssVinstObjGroups[0].objectGroups[0]
p258
(dp259
S'isArray'
p260
I00
sg147
VTdataCompound
p261
sS'attrChildrenNames'
p262
(lp263
VinstObjGroups[0].objectGroups[0].objectGrpCompList
p264
aVinstObjGroups[0].objectGroups[0].objectGroupId
p265
aVinstObjGroups[0].objectGroups[0].objectGrpColor
p266
asg149
I00
sg38
Viog[0].og[0]
p267
sg14
(lp268
VinstObjGroups[0].objectGroups[0].objectGrpCompList
p269
aVinstObjGroups[0].objectGroups[0].objectGroupId
p270
aVinstObjGroups[0].objectGroups[0].objectGrpColor
p271
assVdynamics
p272
(dp273
S'isArray'
p274
I00
sg28
Vbool
p275
sS'attrChildrenNames'
p276
(lp277
sS'isMulti'
p278
I00
sS'isCompound'
p279
I00
sg37
I01
sg38
Vdyn
p280
sg14
(lp281
sS'isElement'
p282
I00
ssVmaxTransLimit.maxTransZLimit
p283
(dp284
g47
I00
sg48
VdoubleLinear
p285
sg50
I00
sg51
I00
sg52
I01
sg38
Vxtzl
p286
sg54
(lp287
ssVdrawOverride.overrideColorRGB.overrideColorG
p288
(dp289
S'attrParentLongName'
p290
VdrawOverride.overrideColorRGB
p291
ssVrotatePivot
p292
(dp293
S'isArray'
p294
I00
sg28
Vdouble3
p295
sS'attrChildrenNames'
p296
(lp297
VrotatePivot.rotatePivotX
p298
aVrotatePivot.rotatePivotY
p299
aVrotatePivot.rotatePivotZ
p300
asS'isMulti'
p301
I00
sS'isCompound'
p302
I01
sg37
I01
sg38
Vrp
p303
sg14
(lp304
VrotatePivot.rotatePivotX
p305
aVrotatePivot.rotatePivotY
p306
aVrotatePivot.rotatePivotZ
p307
asS'isElement'
p308
I00
ssVworldInverseMatrix[17]
p309
(dp310
g218
I00
sg219
(lp311
ssVtemplate
p312
(dp313
S'isArray'
p314
I00
sg28
Vbool
p315
sS'attrChildrenNames'
p316
(lp317
sS'isMulti'
p318
I00
sS'isCompound'
p319
I00
sg37
I01
sg38
Vtmp
p320
sg14
(lp321
sS'isElement'
p322
I00
ssVoutlinerColor.outlinerColorG
p323
(dp324
g241
I00
sg147
Vfloat
p325
sg243
I01
sg244
(lp326
ssVoutlinerColor.outlinerColorB
p327
(dp328
g241
I00
sg147
Vfloat
p329
sg243
I01
sg244
(lp330
ssVworldInverseMatrix[7]
p331
(dp332
g19
I00
sS'isMulti'
p333
I00
sg21
(lp334
sS'isSimple'
p335
I00
sS'attrType'
p336
NssVparentInverseMatrix[1]
p337
(dp338
g248
I00
sg249
Nsg253
(lp339
sg20
I00
sg23
I00
sg11
Vpim[1]
p340
sg256
I00
sg14
(lp341
ssg213
(dp342
g47
I00
sg48
VdoubleLinear
p343
sg50
I00
sg51
I00
sg52
I01
sg38
Vmtxl
p344
sg54
(lp345
ssVdisplayScalePivot
p346
(dp347
S'isArray'
p348
I00
sg28
Vbool
p349
sS'attrChildrenNames'
p350
(lp351
sS'isMulti'
p352
I00
sS'isCompound'
p353
I00
sg37
I01
sg38
Vdsp
p354
sg14
(lp355
sS'isElement'
p356
I00
ssVmentalRayControls.miHide
p357
(dp358
S'isArray'
p359
I00
sS'attrParentLongName'
p360
VmentalRayControls
p361
sS'attrChildrenNames'
p362
(lp363
sg28
Vbool
p364
sS'isMulti'
p365
I00
sS'isCompound'
p366
I00
sg37
I01
sg38
Vhde
p367
sg14
(lp368
sS'isElement'
p369
I00
ssVinstObjGroups.objectGroups
p370
(dp371
S'attrParentLongName'
p372
VinstObjGroups
p373
sS'isElement'
p374
I00
ssVpublishedNodeInfo
p375
(dp376
S'isArray'
p377
I01
sg28
VTdataCompound
p378
sS'isMulti'
p379
I01
sg37
I00
sg38
Vpni
p380
sS'isElement'
p381
I00
ssVdrawOverride.overrideTexturing
p382
(dp383
S'isArray'
p384
I00
sS'attrParentLongName'
p385
VdrawOverride
p386
sS'attrChildrenNames'
p387
(lp388
sg28
Vbool
p389
sS'isMulti'
p390
I00
sS'isCompound'
p391
I00
sg37
I01
sg38
Vovt
p392
sg14
(lp393
sS'isElement'
p394
I00
ssVworldMatrix[17]
p395
(dp396
g218
I00
sg219
(lp397
ssVdrawOverride.overrideColorRGB
p398
(dp399
g290
VdrawOverride
p400
ssVdisplayHandle
p401
(dp402
S'isArray'
p403
I00
sg28
Vbool
p404
sS'attrChildrenNames'
p405
(lp406
sS'isMulti'
p407
I00
sS'isCompound'
p408
I00
sg37
I01
sg38
Vdh
p409
sg14
(lp410
sS'isElement'
p411
I00
ssVselectionChildHighlighting
p412
(dp413
S'isArray'
p414
I00
sS'attrType'
p415
Vbool
p416
sS'isMulti'
p417
I00
sS'isCompound'
p418
I00
sS'isSimple'
p419
I01
sS'attrChildrenLongNames'
p420
(lp421
ssVminRotLimitEnable.minRotXLimitEnable
p422
(dp423
g47
I00
sg48
Vbool
p424
sg50
I00
sg51
I00
sg52
I01
sg38
Vmrxe
p425
sg54
(lp426
ssVworldMatrix[8]
p427
(dp428
S'isArray'
p429
I00
sg59
I00
sS'attrChildrenNames'
p430
(lp431
sg62
I00
sg63
NssVrotateQuaternion
p432
(dp433
S'isArray'
p434
I00
sg28
Vdouble4
p435
sS'attrChildrenNames'
p436
(lp437
VrotateQuaternion.rotateQuaternionX
p438
aVrotateQuaternion.rotateQuaternionY
p439
aVrotateQuaternion.rotateQuaternionZ
p440
aVrotateQuaternion.rotateQuaternionW
p441
asS'isMulti'
p442
I00
sS'isCompound'
p443
I01
sg37
I00
sg38
Vrq
p444
sg14
(lp445
VrotateQuaternion.rotateQuaternionX
p446
aVrotateQuaternion.rotateQuaternionY
p447
aVrotateQuaternion.rotateQuaternionZ
p448
aVrotateQuaternion.rotateQuaternionW
p449
asS'isElement'
p450
I00
ssVtransMinusRotatePivot.transMinusRotatePivotZ
p451
(dp452
S'isArray'
p453
I00
sS'attrParentLongName'
p454
VtransMinusRotatePivot
p455
sS'attrChildrenNames'
p456
(lp457
sg28
VdoubleLinear
p458
sS'isMulti'
p459
I00
sS'isCompound'
p460
I00
sg37
I01
sg38
Vtmrz
p461
sg14
(lp462
sS'isElement'
p463
I00
ssVtransMinusRotatePivot.transMinusRotatePivotX
p464
(dp465
S'isArray'
p466
I00
sS'attrParentLongName'
p467
VtransMinusRotatePivot
p468
sS'attrChildrenNames'
p469
(lp470
sg28
VdoubleLinear
p471
sS'isMulti'
p472
I00
sS'isCompound'
p473
I00
sg37
I01
sg38
Vtmrx
p474
sg14
(lp475
sS'isElement'
p476
I00
ssVtransMinusRotatePivot.transMinusRotatePivotY
p477
(dp478
S'isArray'
p479
I00
sS'attrParentLongName'
p480
VtransMinusRotatePivot
p481
sS'attrChildrenNames'
p482
(lp483
sg28
VdoubleLinear
p484
sS'isMulti'
p485
I00
sS'isCompound'
p486
I00
sg37
I01
sg38
Vtmry
p487
sg14
(lp488
sS'isElement'
p489
I00
ssVrotationInterpolation
p490
(dp491
S'isArray'
p492
I00
sg28
Venum
p493
sS'attrChildrenNames'
p494
(lp495
sS'isMulti'
p496
I00
sS'isCompound'
p497
I00
sg37
I01
sg38
Vroi
p498
sg14
(lp499
sS'isElement'
p500
I00
ssVminScaleLimit.minScaleYLimit
p501
(dp502
g47
I00
sg48
Vdouble
p503
sg50
I00
sg51
I00
sg52
I01
sg38
Vmsyl
p504
sg54
(lp505
ssVscaleX
p506
(dp507
S'isArray'
p508
I00
sS'attrParentLongName'
p509
Vscale
p510
sS'attrChildrenNames'
p511
(lp512
sS'attrType'
p513
Vdouble
p514
sS'isMulti'
p515
I00
sS'isWritable'
p516
I01
sS'isCompound'
p517
I00
sg10
I01
sS'isReadable'
p518
I00
sS'isElement'
p519
I00
ssVinstObjGroups[2].objectGroups
p520
(dp521
S'isArray'
p522
I01
sS'isSimple'
p523
I00
ssVscaleZ
p524
(dp525
S'isArray'
p526
I00
sS'attrParentLongName'
p527
Vscale
p528
sS'attrChildrenNames'
p529
(lp530
sS'attrType'
p531
Vdouble
p532
sS'isMulti'
p533
I00
sS'isCompound'
p534
I00
sg10
I01
sS'isReadable'
p535
I00
sS'isElement'
p536
I00
ssVshear.shearXZ
p537
(dp538
S'isArray'
p539
I00
sS'attrType'
p540
Vdouble
p541
sS'attrChildrenNames'
p542
(lp543
sS'isMulti'
p544
I00
sS'isCompound'
p545
I00
sS'isSimple'
p546
I01
sg11
Vshxz
p547
sg14
(lp548
ssVshear.shearXY
p549
(dp550
g539
I00
sg540
Vdouble
p551
sg542
(lp552
sg544
I00
sg545
I00
sg546
I01
sg11
Vshxy
p553
sg14
(lp554
ssVvisibility
p555
(dp556
S'isArray'
p557
I00
sS'attrType'
p558
Vbool
p559
sS'attrChildrenNames'
p560
(lp561
sS'isMulti'
p562
I00
sS'isCompound'
p563
I00
sg10
I01
sg11
Vv
p564
sS'isReadable'
p565
I00
sg14
(lp566
sS'isElement'
p567
I00
ssVrenderInfo.layerOverrideColor
p568
(dp569
S'isArray'
p570
I00
sS'attrParentLongName'
p571
VrenderInfo
p572
sS'attrChildrenNames'
p573
(lp574
sg28
Vbyte
p575
sS'isMulti'
p576
I00
sS'isCompound'
p577
I00
sg37
I00
sg38
Vlovc
p578
sg14
(lp579
sS'isElement'
p580
I00
ssVdrawOverride.overrideColorRGB.overrideColorR
p581
(dp582
g290
VdrawOverride.overrideColorRGB
p583
ssVdisplayRotatePivot
p584
(dp585
S'isArray'
p586
I00
sg28
Vbool
p587
sS'attrChildrenNames'
p588
(lp589
sS'isMulti'
p590
I00
sS'isCompound'
p591
I00
sg37
I01
sg38
Vdrp
p592
sg14
(lp593
sS'isElement'
p594
I00
ssVparentMatrix[12]
p595
(dp596
g58
I00
sS'isMulti'
p597
I00
sg60
(lp598
sS'isSimple'
p599
I00
sS'attrType'
p600
NssVmaxTransLimitEnable.maxTransXLimitEnable
p601
(dp602
g47
I00
sg48
Vbool
p603
sg50
I00
sg51
I00
sg52
I01
sg38
Vxtxe
p604
sg54
(lp605
ssVinstObjGroups[0]
p606
(dp607
g260
I00
sS'attrType'
p608
VTdataCompound
p609
sg262
(lp610
VinstObjGroups[0].objectGroups
p611
asS'isMulti'
p612
I00
sS'isSimple'
p613
I00
sg38
Viog[0]
p614
sg14
(lp615
VinstObjGroups[0].objectGroups
p616
assVdrawOverride.overrideColorRGB.overrideColorB
p617
(dp618
g290
VdrawOverride.overrideColorRGB
p619
ssVmentalRayControls.miCaustic
p620
(dp621
S'isArray'
p622
I00
sS'attrParentLongName'
p623
VmentalRayControls
p624
sS'attrChildrenNames'
p625
(lp626
sg28
Venum
p627
sS'isMulti'
p628
I00
sS'isCompound'
p629
I00
sg37
I01
sg38
Vcst
p630
sg14
(lp631
sS'isElement'
p632
I00
ssVworldInverseMatrix[8]
p633
(dp634
g429
I00
sg59
I00
sg430
(lp635
sg62
I00
sg63
NssVparentMatrix[15]
p636
(dp637
g218
I00
sg597
I00
sg219
(lp638
sg599
I00
sg600
NssVpublishedNodeInfo[0].isHierarchicalNode
p639
(dp640
S'isArray'
p641
I00
sS'attrParentLongName'
p642
VpublishedNodeInfo[0]
p643
sS'attrChildrenNames'
p644
(lp645
sg149
I00
sg38
Vpni[0].ihn
p646
sg14
(lp647
sS'isElement'
p648
I00
ssVboundingBox.boundingBoxSize.boundingBoxSizeY
p649
(dp650
S'isArray'
p651
I00
sS'attrParentLongName'
p652
VboundingBox.boundingBoxSize
p653
sS'attrChildrenNames'
p654
(lp655
sg28
VdoubleLinear
p656
sS'isMulti'
p657
I00
sS'isCompound'
p658
I00
sg37
I01
sg14
(lp659
sS'isElement'
p660
I00
ssVboundingBox.boundingBoxSize.boundingBoxSizeX
p661
(dp662
S'isArray'
p663
I00
sS'attrParentLongName'
p664
VboundingBox.boundingBoxSize
p665
sS'attrChildrenNames'
p666
(lp667
sg28
VdoubleLinear
p668
sS'isMulti'
p669
I00
sS'isCompound'
p670
I00
sg37
I01
sg14
(lp671
sS'isElement'
p672
I00
ssVmentalRayControls.miExportGeoShader
p673
(dp674
S'isArray'
p675
I00
sS'attrParentLongName'
p676
VmentalRayControls
p677
sS'attrChildrenNames'
p678
(lp679
sg28
Vbool
p680
sS'isMulti'
p681
I00
sS'isCompound'
p682
I00
sg37
I01
sg38
Vmieg
p683
sg14
(lp684
sS'isElement'
p685
I00
ssVboundingBox.boundingBoxSize.boundingBoxSizeZ
p686
(dp687
S'isArray'
p688
I00
sS'attrParentLongName'
p689
VboundingBox.boundingBoxSize
p690
sS'attrChildrenNames'
p691
(lp692
sg28
VdoubleLinear
p693
sS'isMulti'
p694
I00
sS'isCompound'
p695
I00
sg37
I01
sg14
(lp696
sS'isElement'
p697
I00
ssVtemplateName
p698
(dp699
S'isArray'
p700
I00
sg28
Vstring
p701
sS'attrChildrenNames'
p702
(lp703
sS'isMulti'
p704
I00
sS'isCompound'
p705
I00
sg37
I01
sg38
Vtna
p706
sg14
(lp707
sS'isElement'
p708
I00
ssVghostingControl
p709
(dp710
S'isArray'
p711
I00
sg28
Venum
p712
sS'attrChildrenNames'
p713
(lp714
sS'isMulti'
p715
I00
sS'isCompound'
p716
I00
sg37
I01
sg38
Vgc
p717
sg14
(lp718
sS'isElement'
p719
I00
ssVminScaleLimitEnable
p720
(dp721
g47
I00
sg48
VTdataCompound
p722
sg50
I00
sg52
I00
sg38
Vmsle
p723
sg54
(lp724
VminScaleLimitEnable.minScaleXLimitEnable
p725
aVminScaleLimitEnable.minScaleYLimitEnable
p726
aVminScaleLimitEnable.minScaleZLimitEnable
p727
assVmentalRayControls.miDeriveFromMaya
p728
(dp729
S'isArray'
p730
I00
sS'attrParentLongName'
p731
VmentalRayControls
p732
sS'attrChildrenNames'
p733
(lp734
sg28
Vbool
p735
sS'isMulti'
p736
I00
sS'isCompound'
p737
I00
sg37
I01
sg38
Vdfm
p738
sg14
(lp739
sS'isElement'
p740
I00
ssVdrawOverride.overrideDisplayType
p741
(dp742
S'isArray'
p743
I00
sS'attrParentLongName'
p744
VdrawOverride
p745
sS'attrChildrenNames'
p746
(lp747
sg28
Venum
p748
sS'isMulti'
p749
I00
sS'isCompound'
p750
I00
sg37
I01
sg38
Vovdt
p751
sg14
(lp752
sS'isElement'
p753
I00
ssVnodeState
p754
(dp755
S'isArray'
p756
I00
sg28
Venum
p757
sS'attrChildrenNames'
p758
(lp759
sS'isMulti'
p760
I00
sS'isCompound'
p761
I00
sg37
I01
sg38
Vnds
p762
sg14
(lp763
sS'isElement'
p764
I00
ssVparentInverseMatrix[5]
p765
(dp766
g19
I00
sg20
I00
sg21
(lp767
sg23
I00
sg24
NssVhiddenInOutliner
p768
(dp769
g241
I00
sg147
Vbool
p770
sg243
I01
sg244
(lp771
ssVworldMatrix[12]
p772
(dp773
g58
I00
sg597
I00
sg60
(lp774
sg599
I00
sg600
NssVminRotLimitEnable
p775
(dp776
g47
I00
sg48
VTdataCompound
p777
sg50
I00
sg52
I00
sg38
Vmrle
p778
sg54
(lp779
g422
ag105
aVminRotLimitEnable.minRotZLimitEnable
p780
assVworldMatrix[1]
p781
(dp782
g248
I00
sg249
Nsg253
(lp783
sg20
I00
sg23
I00
sg11
Vwm[1]
p784
sg256
I00
sg14
(lp785
ssVworldInverseMatrix[3]
p786
(dp787
g19
I00
sg20
I00
sg21
(lp788
sg23
I00
sg24
NssVscalePivotTranslate.scalePivotTranslateZ
p789
(dp790
S'isArray'
p791
I00
sS'attrParentLongName'
p792
VscalePivotTranslate
p793
sS'attrChildrenNames'
p794
(lp795
sg28
VdoubleLinear
p796
sS'isMulti'
p797
I00
sS'isCompound'
p798
I00
sg37
I01
sg38
Vsptz
p799
sg14
(lp800
sS'isElement'
p801
I00
ssVscalePivotTranslate.scalePivotTranslateX
p802
(dp803
S'isArray'
p804
I00
sS'attrParentLongName'
p805
VscalePivotTranslate
p806
sS'attrChildrenNames'
p807
(lp808
sg28
VdoubleLinear
p809
sS'isMulti'
p810
I00
sS'isCompound'
p811
I00
sg37
I01
sg38
Vsptx
p812
sg14
(lp813
sS'isElement'
p814
I00
ssVscalePivotTranslate.scalePivotTranslateY
p815
(dp816
S'isArray'
p817
I00
sS'attrParentLongName'
p818
VscalePivotTranslate
p819
sS'attrChildrenNames'
p820
(lp821
sg28
VdoubleLinear
p822
sS'isMulti'
p823
I00
sS'isCompound'
p824
I00
sg37
I01
sg38
Vspty
p825
sg14
(lp826
sS'isElement'
p827
I00
ssVminTransLimitEnable
p828
(dp829
g47
I00
sg48
VTdataCompound
p830
sg50
I00
sg52
I00
sg38
Vmtle
p831
sg54
(lp832
VminTransLimitEnable.minTransXLimitEnable
p833
ag45
aVminTransLimitEnable.minTransZLimitEnable
p834
assVparentInverseMatrix[2]
p835
(dp836
g19
I00
sg24
Nsg21
(lp837
sg20
I00
sg23
I00
sS'attrShortName'
p838
Vpim[2]
p839
sS'attrChildrenLongNames'
p840
(lp841
ssVghostFrames
p842
(dp843
S'isArray'
p844
I00
sg28
NsS'attrChildrenNames'
p845
(lp846
sS'isMulti'
p847
I00
sS'isCompound'
p848
I00
sg37
I00
sg38
Vgf
p849
sg14
(lp850
sS'isElement'
p851
I00
ssVinstObjGroups[0].objectGroups[0].objectGrpColor
p852
(dp853
S'isArray'
p854
I00
sS'attrParentLongName'
p855
VinstObjGroups[0].objectGroups[0]
p856
sS'attrChildrenNames'
p857
(lp858
sg147
Vshort
p859
sg149
I00
sg38
Viog[0].og[0].gco
p860
sg14
(lp861
sS'isElement'
p862
I00
ssVdrawOverride.overrideColor
p863
(dp864
S'isArray'
p865
I00
sS'attrParentLongName'
p866
VdrawOverride
p867
sS'attrChildrenNames'
p868
(lp869
sg28
Vbyte
p870
sS'isMulti'
p871
I00
sS'isCompound'
p872
I00
sg37
I00
sg38
Vovc
p873
sg14
(lp874
sS'isElement'
p875
I00
ssVrenderLayerInfo.renderLayerId
p876
(dp877
S'attrParentLongName'
p878
VrenderLayerInfo
p879
sS'isElement'
p880
I00
ssVparentMatrix[11]
p881
(dp882
g58
I00
sg59
I00
sg60
(lp883
sg62
I00
sg63
NssVrenderLayerInfo[1].renderLayerColor
p884
(dp885
S'isArray'
p886
I00
sg147
Vbyte
p887
sg38
Vrlio[1].rlc
p888
sg149
I00
sg14
(lp889
ssVcustomTreatment
p890
(dp891
S'isArray'
p892
I00
sg28
Vstring
p893
sS'attrChildrenNames'
p894
(lp895
sS'isMulti'
p896
I00
sS'isCompound'
p897
I00
sg37
I01
sg38
Vctrt
p898
sg14
(lp899
sS'isElement'
p900
I00
ssVshear
p901
(dp902
S'isArray'
p903
I00
sS'attrType'
p904
Vdouble3
p905
sS'attrChildrenNames'
p906
(lp907
VshearXY
p908
aVshearXZ
p909
aVshearYZ
p910
asS'isMulti'
p911
I00
sS'isCompound'
p912
I01
sg10
I01
sg11
Vsh
p913
sS'isReadable'
p914
I00
sg14
(lp915
Vshear.shearXY
p916
aVshear.shearXZ
p917
aVshear.shearYZ
p918
asS'isElement'
p919
I00
ssVworldInverseMatrix[13]
p920
(dp921
g58
I00
sg597
I00
sg60
(lp922
sg599
I00
sg600
NssVinstObjGroups.objectGroups.objectGrpColor
p923
(dp924
S'attrParentLongName'
p925
VinstObjGroups.objectGroups
p926
sS'isElement'
p927
I00
ssVparentMatrix[5]
p928
(dp929
g19
I00
sg20
I00
sg21
(lp930
sg23
I00
sg24
NssVisHierarchicalConnection[1]
p931
(dp932
g47
I00
sg38
Vish[1]
p933
sg52
I00
sg54
(lp934
ssg228
(dp935
g47
I00
sg48
VdoubleAngle
p936
sg50
I00
sg51
I00
sg52
I01
sg38
Vmrzl
p937
sg54
(lp938
ssVrotatePivot.rotatePivotZ
p939
(dp940
S'isArray'
p941
I00
sS'attrParentLongName'
p942
VrotatePivot
p943
sS'attrChildrenNames'
p944
(lp945
sg28
VdoubleLinear
p946
sS'isMulti'
p947
I00
sS'isCompound'
p948
I00
sg37
I01
sg38
Vrpz
p949
sg14
(lp950
sS'isElement'
p951
I00
ssVrotatePivot.rotatePivotX
p952
(dp953
S'isArray'
p954
I00
sS'attrParentLongName'
p955
VrotatePivot
p956
sS'attrChildrenNames'
p957
(lp958
sg28
VdoubleLinear
p959
sS'isMulti'
p960
I00
sS'isCompound'
p961
I00
sg37
I01
sg38
Vrpx
p962
sg14
(lp963
sS'isElement'
p964
I00
ssVrotatePivot.rotatePivotY
p965
(dp966
S'isArray'
p967
I00
sS'attrParentLongName'
p968
VrotatePivot
p969
sS'attrChildrenNames'
p970
(lp971
sg28
VdoubleLinear
p972
sS'isMulti'
p973
I00
sS'isCompound'
p974
I00
sg37
I01
sg38
Vrpy
p975
sg14
(lp976
sS'isElement'
p977
I00
ssVworldInverseMatrix[4]
p978
(dp979
g19
I00
sg20
I00
sg21
(lp980
sg23
I00
sg24
NssVparentInverseMatrix[6]
p981
(dp982
g19
I00
sg333
I00
sg21
(lp983
sg335
I00
sg336
NssVworldMatrix[2]
p984
(dp985
g19
I00
sg24
Nsg21
(lp986
sg20
I00
sg23
I00
sg14
(lp987
ssVinstObjGroups[1].objectGroups
p988
(dp989
g886
I01
sg147
VTdataCompound
p990
sg38
Viog[1].og
p991
sg149
I00
ssVmatrix
p992
(dp993
S'isArray'
p994
I00
sS'attrType'
p995
Vmatrix
p996
sS'attrChildrenNames'
p997
(lp998
sS'isMulti'
p999
I00
sS'isCompound'
p1000
I00
sg10
I00
sg11
Vm
p1001
sS'isReadable'
p1002
I00
sg14
(lp1003
sS'isElement'
p1004
I00
ssVdisplayLocalAxis
p1005
(dp1006
S'isArray'
p1007
I00
sg28
Vbool
p1008
sS'attrChildrenNames'
p1009
(lp1010
sS'isMulti'
p1011
I00
sS'isCompound'
p1012
I00
sg37
I01
sg38
Vdla
p1013
sg14
(lp1014
sS'isElement'
p1015
I00
ssVselectHandle.selectHandleX
p1016
(dp1017
S'isArray'
p1018
I00
sS'attrParentLongName'
p1019
VselectHandle
p1020
sS'attrChildrenNames'
p1021
(lp1022
sg28
VdoubleLinear
p1023
sS'isMulti'
p1024
I00
sS'isCompound'
p1025
I00
sg37
I01
sg38
Vhdlx
p1026
sg14
(lp1027
sS'isElement'
p1028
I00
ssVselectHandle.selectHandleY
p1029
(dp1030
S'isArray'
p1031
I00
sS'attrParentLongName'
p1032
VselectHandle
p1033
sS'attrChildrenNames'
p1034
(lp1035
sg28
VdoubleLinear
p1036
sS'isMulti'
p1037
I00
sS'isCompound'
p1038
I00
sg37
I01
sg38
Vhdly
p1039
sg14
(lp1040
sS'isElement'
p1041
I00
ssVselectHandle.selectHandleZ
p1042
(dp1043
S'isArray'
p1044
I00
sS'attrParentLongName'
p1045
VselectHandle
p1046
sS'attrChildrenNames'
p1047
(lp1048
sg28
VdoubleLinear
p1049
sS'isMulti'
p1050
I00
sS'isCompound'
p1051
I00
sg37
I01
sg38
Vhdlz
p1052
sg14
(lp1053
sS'isElement'
p1054
I00
ssVworldMatrix[16]
p1055
(dp1056
g218
I00
sg219
(lp1057
ssVmaxRotLimitEnable.maxRotZLimitEnable
p1058
(dp1059
g47
I00
sg48
Vbool
p1060
sg50
I00
sg51
I00
sg52
I01
sg38
Vxrze
p1061
sg54
(lp1062
ssVinstObjGroups[0].objectGroups[1].objectGrpCompList
p1063
(dp1064
g886
I00
sg147
VcomponentList
p1065
sg38
Viog[0].og[1].gcl
p1066
sg149
I00
sg14
(lp1067
ssVworldMatrix
p1068
(dp1069
S'isArray'
p1070
I01
sS'attrType'
p1071
Vmatrix
p1072
sS'attrChildrenNames'
p1073
(lp1074
sS'isMulti'
p1075
I01
sg10
I00
sg11
Vwm
p1076
sS'isReadable'
p1077
I00
sS'isElement'
p1078
I00
ssVcontainerType
p1079
(dp1080
S'isArray'
p1081
I00
sg28
Vstring
p1082
sS'attrChildrenNames'
p1083
(lp1084
sS'isMulti'
p1085
I00
sS'isCompound'
p1086
I00
sg37
I01
sg38
Vctyp
p1087
sg14
(lp1088
sS'isElement'
p1089
I00
ssVminScaleLimit.minScaleZLimit
p1090
(dp1091
g47
I00
sg48
Vdouble
p1092
sg50
I00
sg51
I00
sg52
I01
sg38
Vmszl
p1093
sg54
(lp1094
ssVparentInverseMatrix
p1095
(dp1096
S'isArray'
p1097
I01
sS'attrType'
p1098
Vmatrix
p1099
sS'attrChildrenNames'
p1100
(lp1101
sS'isMulti'
p1102
I01
sg10
I00
sg11
Vpim
p1103
sS'isReadable'
p1104
I00
sS'isElement'
p1105
I00
ssVworldMatrix[5]
p1106
(dp1107
g19
I00
sg20
I00
sg21
(lp1108
sg23
I00
sg24
NssVrenderInfo.layerRenderable
p1109
(dp1110
S'isArray'
p1111
I00
sS'attrParentLongName'
p1112
VrenderInfo
p1113
sS'attrChildrenNames'
p1114
(lp1115
sg28
Vbool
p1116
sS'isMulti'
p1117
I00
sS'isCompound'
p1118
I00
sg37
I01
sg38
Vrndr
p1119
sg14
(lp1120
sS'isElement'
p1121
I00
ssVrmbCommand
p1122
(dp1123
g47
I00
sg48
Vstring
p1124
sg50
I00
sg51
I00
sg52
I01
sg38
Vrmc
p1125
sg54
(lp1126
ssVparentInverseMatrix[13]
p1127
(dp1128
g58
I00
sg597
I00
sg60
(lp1129
sg599
I00
sg600
NssVghostCustomSteps.ghostPreSteps
p1130
(dp1131
S'isArray'
p1132
I00
sS'attrParentLongName'
p1133
VghostCustomSteps
p1134
sS'attrChildrenNames'
p1135
(lp1136
sg28
Vlong
p1137
sS'isMulti'
p1138
I00
sS'isCompound'
p1139
I00
sg37
I01
sg38
Vgpr
p1140
sg14
(lp1141
sS'isElement'
p1142
I00
ssVpublishedNodeInfo[1].publishedNodeType
p1143
(dp1144
g886
I00
sg38
Vpni[1].pntp
p1145
sg149
I00
sg14
(lp1146
ssVgeometry
p1147
(dp1148
S'isArray'
p1149
I00
sg28
NsS'attrChildrenNames'
p1150
(lp1151
sS'isMulti'
p1152
I00
sS'isCompound'
p1153
I00
sg37
I00
sg38
Vg
p1154
sg14
(lp1155
sS'isElement'
p1156
I00
ssVisHierarchicalConnection
p1157
(dp1158
g47
I01
sg48
VTdataCompound
p1159
sg38
Vish
p1160
sg52
I00
sg50
I01
ssVshear.shearYZ
p1161
(dp1162
g539
I00
sg540
Vdouble
p1163
sg542
(lp1164
sg544
I00
sg545
I00
sg546
I01
sg11
Vshyz
p1165
sg14
(lp1166
ssVworldInverseMatrix[16]
p1167
(dp1168
g218
I00
sg219
(lp1169
ssVparentMatrix[6]
p1170
(dp1171
g19
I00
sg333
I00
sg21
(lp1172
sg335
I00
sg336
Nssg226
(dp1173
g47
I00
sg48
VdoubleAngle
p1174
sg50
I00
sg51
I00
sg52
I01
sg38
Vmrxl
p1175
sg54
(lp1176
ssVshearYZ
p1177
(dp1178
S'isArray'
p1179
I00
sS'attrParentLongName'
p1180
Vshear
p1181
sS'attrChildrenNames'
p1182
(lp1183
sS'attrType'
p1184
Vdouble
p1185
sS'isMulti'
p1186
I00
sS'isCompound'
p1187
I00
sg10
I01
sS'isReadable'
p1188
I00
sS'isElement'
p1189
I00
ssVxformMatrix
p1190
(dp1191
S'isArray'
p1192
I00
sg28
Vmatrix
p1193
sS'attrChildrenNames'
p1194
(lp1195
sS'isMulti'
p1196
I00
sS'isCompound'
p1197
I00
sg37
I00
sg38
Vxm
p1198
sg14
(lp1199
sS'isElement'
p1200
I00
ssVinstObjGroups[1]
p1201
(dp1202
g260
I00
sg147
VTdataCompound
p1203
sg262
(lp1204
VinstObjGroups[1].objectGroups
p1205
asg149
I00
sg38
Viog[1]
p1206
sg14
(lp1207
g988
assVparentMatrix[1]
p1208
(dp1209
g248
I00
sg249
Nsg253
(lp1210
sg20
I00
sg23
I00
sg11
Vpm[1]
p1211
sg256
I00
sg14
(lp1212
ssVrenderInfo
p1213
(dp1214
S'isArray'
p1215
I00
sg28
VTdataCompound
p1216
sS'attrChildrenNames'
p1217
(lp1218
VrenderInfo.identification
p1219
aVrenderInfo.layerRenderable
p1220
aVrenderInfo.layerOverrideColor
p1221
asS'isMulti'
p1222
I00
sS'isCompound'
p1223
I01
sg37
I00
sg38
Vri
p1224
sg14
(lp1225
VrenderInfo.identification
p1226
aVrenderInfo.layerRenderable
p1227
aVrenderInfo.layerOverrideColor
p1228
asS'isElement'
p1229
I00
ssVmaxScaleLimit.maxScaleZLimit
p1230
(dp1231
g47
I00
sg48
Vdouble
p1232
sg50
I00
sg51
I00
sg52
I01
sg38
Vxszl
p1233
sg54
(lp1234
ssVcenter
p1235
(dp1236
S'isArray'
p1237
I00
sg28
Vdouble3
p1238
sS'attrChildrenNames'
p1239
(lp1240
Vcenter.boundingBoxCenterX
p1241
aVcenter.boundingBoxCenterY
p1242
aVcenter.boundingBoxCenterZ
p1243
asS'isMulti'
p1244
I00
sS'isCompound'
p1245
I01
sg37
I01
sg14
(lp1246
Vcenter.boundingBoxCenterX
p1247
aVcenter.boundingBoxCenterY
p1248
aVcenter.boundingBoxCenterZ
p1249
asS'isElement'
p1250
I00
ssVdrawOverride.overrideShading
p1251
(dp1252
S'isArray'
p1253
I00
sS'attrParentLongName'
p1254
VdrawOverride
p1255
sS'attrChildrenNames'
p1256
(lp1257
sg28
Vbool
p1258
sS'isMulti'
p1259
I00
sS'isCompound'
p1260
I00
sg37
I01
sg38
Vovs
p1261
sg14
(lp1262
sS'isElement'
p1263
I00
ssVworldMatrix[11]
p1264
(dp1265
g58
I00
sg59
I00
sg60
(lp1266
sg62
I00
sg63
NssVmaxScaleLimit.maxScaleXLimit
p1267
(dp1268
g47
I00
sg48
Vdouble
p1269
sg50
I00
sg51
I00
sg52
I01
sg38
Vxsxl
p1270
sg54
(lp1271
ssVscalePivot
p1272
(dp1273
S'isArray'
p1274
I00
sg28
Vdouble3
p1275
sS'attrChildrenNames'
p1276
(lp1277
VscalePivot.scalePivotX
p1278
aVscalePivot.scalePivotY
p1279
aVscalePivot.scalePivotZ
p1280
asS'isMulti'
p1281
I00
sS'isCompound'
p1282
I01
sg37
I01
sg38
Vsp
p1283
sg14
(lp1284
VscalePivot.scalePivotX
p1285
aVscalePivot.scalePivotY
p1286
aVscalePivot.scalePivotZ
p1287
asS'isElement'
p1288
I00
ssVworldInverseMatrix[0]
p1289
(dp1290
g248
I00
sg249
Vmatrix
p1291
sS'attrParentLongName'
p1292
VworldInverseMatrix
p1293
sg253
(lp1294
sg20
I00
sg23
I00
sg11
Vwim[0]
p1295
sg256
I00
sg14
(lp1296
ssVboundingBox.boundingBoxMax.boundingBoxMaxY
p1297
(dp1298
S'isArray'
p1299
I00
sS'attrParentLongName'
p1300
VboundingBox.boundingBoxMax
p1301
sS'attrChildrenNames'
p1302
(lp1303
sg28
VdoubleLinear
p1304
sS'isMulti'
p1305
I00
sS'isCompound'
p1306
I00
sg37
I01
sg14
(lp1307
sS'isElement'
p1308
I00
ssVboundingBox.boundingBoxMax.boundingBoxMaxX
p1309
(dp1310
S'isArray'
p1311
I00
sS'attrParentLongName'
p1312
VboundingBox.boundingBoxMax
p1313
sS'attrChildrenNames'
p1314
(lp1315
sg28
VdoubleLinear
p1316
sS'isMulti'
p1317
I00
sS'isCompound'
p1318
I00
sg37
I01
sg14
(lp1319
sS'isElement'
p1320
I00
ssVboundingBox.boundingBoxMax.boundingBoxMaxZ
p1321
(dp1322
S'isArray'
p1323
I00
sS'attrParentLongName'
p1324
VboundingBox.boundingBoxMax
p1325
sS'attrChildrenNames'
p1326
(lp1327
sg28
VdoubleLinear
p1328
sS'isMulti'
p1329
I00
sS'isCompound'
p1330
I00
sg37
I01
sg14
(lp1331
sS'isElement'
p1332
I00
ssVinstObjGroups[0].objectGroups[1].objectGrpColor
p1333
(dp1334
g886
I00
sg147
Vshort
p1335
sg38
Viog[0].og[1].gco
p1336
sg149
I00
sg14
(lp1337
ssVworldMatrix[6]
p1338
(dp1339
g19
I00
sg333
I00
sg21
(lp1340
sg335
I00
sg336
NssVisCollapsed
p1341
(dp1342
S'isArray'
p1343
I00
sg28
Vbool
p1344
sS'attrChildrenNames'
p1345
(lp1346
sS'isMulti'
p1347
I00
sS'isCompound'
p1348
I00
sg37
I01
sg38
Visc
p1349
sg14
(lp1350
sS'isElement'
p1351
I00
ssVboundingBox
p1352
(dp1353
S'isArray'
p1354
I00
sg28
VTdataCompound
p1355
sS'attrChildrenNames'
p1356
(lp1357
VboundingBox.boundingBoxMin
p1358
aVboundingBox.boundingBoxMax
p1359
aVboundingBox.boundingBoxSize
p1360
asS'isMulti'
p1361
I00
sS'isCompound'
p1362
I01
sg37
I00
sg14
(lp1363
VboundingBox.boundingBoxMin
p1364
aVboundingBox.boundingBoxMax
p1365
aVboundingBox.boundingBoxSize
p1366
asS'isElement'
p1367
I00
ssVviewMode
p1368
(dp1369
S'isArray'
p1370
I00
sg28
Venum
p1371
sS'attrChildrenNames'
p1372
(lp1373
sS'isMulti'
p1374
I00
sS'isCompound'
p1375
I00
sg37
I01
sg38
Vvwm
p1376
sg14
(lp1377
sS'isElement'
p1378
I00
ssVparentInverseMatrix[3]
p1379
(dp1380
g19
I00
sg20
I00
sg21
(lp1381
sg23
I00
sg24
NssVmaxTransLimit.maxTransXLimit
p1382
(dp1383
g47
I00
sg48
VdoubleLinear
p1384
sg50
I00
sg51
I00
sg52
I01
sg38
Vxtxl
p1385
sg54
(lp1386
ssVmaxScaleLimit.maxScaleYLimit
p1387
(dp1388
g47
I00
sg48
Vdouble
p1389
sg50
I00
sg51
I00
sg52
I01
sg38
Vxsyl
p1390
sg54
(lp1391
ssVwireColorRGB
p1392
(dp1393
g241
I00
sg147
Vfloat3
p1394
sg243
I00
sg244
(lp1395
VwireColorRGB.wireColorR
p1396
aVwireColorRGB.wireColorG
p1397
aVwireColorRGB.wireColorB
p1398
assVinstObjGroups[0].objectGroups[0].objectGrpCompList
p1399
(dp1400
S'isArray'
p1401
I00
sS'attrParentLongName'
p1402
VinstObjGroups[0].objectGroups[0]
p1403
sS'attrChildrenNames'
p1404
(lp1405
sg147
VcomponentList
p1406
sg149
I00
sg38
Viog[0].og[0].gcl
p1407
sg14
(lp1408
sS'isElement'
p1409
I00
ssVuiTreatment
p1410
(dp1411
S'isArray'
p1412
I00
sg28
Venum
p1413
sS'attrChildrenNames'
p1414
(lp1415
sS'isMulti'
p1416
I00
sS'isCompound'
p1417
I00
sg37
I01
sg38
Vuit
p1418
sg14
(lp1419
sS'isElement'
p1420
I00
ssVparentInverseMatrix[17]
p1421
(dp1422
g218
I00
sg219
(lp1423
ssVparentMatrix[14]
p1424
(dp1425
g218
I00
sg597
I00
sg219
(lp1426
sg599
I00
sg600
NssVobjectColorRGB
p1427
(dp1428
g414
I00
sg417
I00
sg415
Vfloat3
p1429
sg419
I00
sg420
(lp1430
VobjectColorRGB.objectColorR
p1431
aVobjectColorRGB.objectColorG
p1432
aVobjectColorRGB.objectColorB
p1433
assVworldMatrix[9]
p1434
(dp1435
g429
I00
sg59
I00
sg430
(lp1436
sg62
I00
sg63
NssVrotate.rotateZ
p1437
(dp1438
g539
I00
sS'attrType'
p1439
VdoubleAngle
p1440
sg542
(lp1441
sS'isMulti'
p1442
I00
sS'isWritable'
p1443
Nsg545
I00
sg546
I01
sg11
Vrz
p1444
sg14
(lp1445
ssVrotate.rotateX
p1446
(dp1447
g539
I00
sS'attrType'
p1448
VdoubleAngle
p1449
sS'attrParentLongName'
p1450
Vrotate
p1451
sg542
(lp1452
sS'isMulti'
p1453
I00
sg1443
Nsg545
I00
sg546
I01
sg11
Vrx
p1454
sg14
(lp1455
ssVrotate.rotateY
p1456
(dp1457
g539
I00
sS'attrType'
p1458
VdoubleAngle
p1459
sg542
(lp1460
sS'isMulti'
p1461
I00
sg1443
Nsg545
I00
sg546
I01
sg11
Vry
p1462
sg14
(lp1463
ssVcaching
p1464
(dp1465
S'isArray'
p1466
I00
sg28
Vbool
p1467
sS'attrChildrenNames'
p1468
(lp1469
sS'isMulti'
p1470
I00
sS'isCompound'
p1471
I00
sg37
I01
sg38
Vcch
p1472
sg14
(lp1473
sS'isElement'
p1474
I00
ssVrenderLayerInfo[1].renderLayerRenderable
p1475
(dp1476
g886
I00
sg147
Vbool
p1477
sg38
Vrlio[1].rlr
p1478
sg149
I00
sg14
(lp1479
ssVtranslate.translateZ
p1480
(dp1481
g539
I00
sS'attrType'
p1482
VdoubleLinear
p1483
sg542
(lp1484
sS'isMulti'
p1485
I00
sg1443
Nsg545
I00
sg546
I01
sg11
Vtz
p1486
sg14
(lp1487
ssVtranslate.translateX
p1488
(dp1489
g539
I00
sS'attrType'
p1490
VdoubleLinear
p1491
sS'attrParentLongName'
p1492
Vtranslate
p1493
sg542
(lp1494
sS'isMulti'
p1495
I00
sg1443
Nsg545
I00
sg546
I01
sg11
Vtx
p1496
sg14
(lp1497
ssVtranslate.translateY
p1498
(dp1499
g539
I00
sg1482
VdoubleLinear
p1500
sS'attrParentLongName'
p1501
Vtranslate
p1502
sg542
(lp1503
sg1485
I00
sg1443
Nsg545
I00
sg546
I01
sg11
Vty
p1504
sg14
(lp1505
ssVghostCustomSteps.ghostPostSteps
p1506
(dp1507
S'isArray'
p1508
I00
sS'attrParentLongName'
p1509
VghostCustomSteps
p1510
sS'attrChildrenNames'
p1511
(lp1512
sg28
Vlong
p1513
sS'isMulti'
p1514
I00
sS'isCompound'
p1515
I00
sg37
I01
sg38
Vgps
p1516
sg14
(lp1517
sS'isElement'
p1518
I00
ssVworldInverseMatrix[12]
p1519
(dp1520
g58
I00
sg597
I00
sg60
(lp1521
sg599
I00
sg600
NssVoutlinerColor.outlinerColorR
p1522
(dp1523
g241
I00
sg147
Vfloat
p1524
sg243
I01
sg244
(lp1525
ssVmentalRayControls.miVisible
p1526
(dp1527
S'isArray'
p1528
I00
sS'attrParentLongName'
p1529
VmentalRayControls
p1530
sS'attrChildrenNames'
p1531
(lp1532
sg28
Venum
p1533
sS'isMulti'
p1534
I00
sS'isCompound'
p1535
I00
sg37
I01
sg38
Vvsb
p1536
sg14
(lp1537
sS'isElement'
p1538
I00
ssVuseObjectColor
p1539
(dp1540
S'isArray'
p1541
I00
sg28
Vbool
p1542
sS'attrChildrenNames'
p1543
(lp1544
sS'isMulti'
p1545
I00
sS'isCompound'
p1546
I00
sg37
I01
sg38
Vuoc
p1547
sg14
(lp1548
sS'isElement'
p1549
I00
ssVdrawOverride.overrideLevelOfDetail
p1550
(dp1551
S'isArray'
p1552
I00
sS'attrParentLongName'
p1553
VdrawOverride
p1554
sS'attrChildrenNames'
p1555
(lp1556
sg28
Venum
p1557
sS'isMulti'
p1558
I00
sS'isCompound'
p1559
I00
sg37
I01
sg38
Vovlod
p1560
sg14
(lp1561
sS'isElement'
p1562
I00
ssVinstObjGroups[0].objectGroups[0].objectGroupId
p1563
(dp1564
S'isArray'
p1565
I00
sS'attrParentLongName'
p1566
VinstObjGroups[0].objectGroups[0]
p1567
sS'attrChildrenNames'
p1568
(lp1569
sg147
Vlong
p1570
sg149
I00
sg38
Viog[0].og[0].gid
p1571
sg14
(lp1572
sS'isElement'
p1573
I00
ssVmaxRotLimitEnable.maxRotXLimitEnable
p1574
(dp1575
g47
I00
sg48
Vbool
p1576
sg50
I00
sg51
I00
sg52
I01
sg38
Vxrxe
p1577
sg54
(lp1578
ssVparentMatrix[2]
p1579
(dp1580
g19
I00
sg24
Nsg21
(lp1581
sg20
I00
sg23
I00
sg11
Vpm[2]
p1582
sg14
(lp1583
ssVtransMinusRotatePivot
p1584
(dp1585
S'isArray'
p1586
I00
sg28
Vdouble3
p1587
sS'attrChildrenNames'
p1588
(lp1589
VtransMinusRotatePivot.transMinusRotatePivotX
p1590
aVtransMinusRotatePivot.transMinusRotatePivotY
p1591
aVtransMinusRotatePivot.transMinusRotatePivotZ
p1592
asS'isMulti'
p1593
I00
sS'isCompound'
p1594
I01
sg37
I01
sg38
Vtmrp
p1595
sg14
(lp1596
VtransMinusRotatePivot.transMinusRotatePivotX
p1597
aVtransMinusRotatePivot.transMinusRotatePivotY
p1598
aVtransMinusRotatePivot.transMinusRotatePivotZ
p1599
asS'isElement'
p1600
I00
ssVdrawOverride.overrideRGBColors
p1601
(dp1602
g290
VdrawOverride
p1603
ssVbinMembership
p1604
(dp1605
g47
I00
sg48
Vstring
p1606
sg50
I00
sg51
I00
sg52
I01
sg38
Vbnm
p1607
sg54
(lp1608
ssVworldInverseMatrix[15]
p1609
(dp1610
g218
I00
sg597
I00
sg219
(lp1611
sg599
I00
sg600
NssVrenderLayerInfo[0].renderLayerRenderable
p1612
(dp1613
S'isArray'
p1614
I00
sS'attrParentLongName'
p1615
VrenderLayerInfo[0]
p1616
sS'attrChildrenNames'
p1617
(lp1618
sg147
Vbool
p1619
sg149
I00
sg38
Vrlio[0].rlr
p1620
sg14
(lp1621
sS'isElement'
p1622
I00
ssVworldInverseMatrix[9]
p1623
(dp1624
g429
I00
sg59
I00
sg430
(lp1625
sg62
I00
sg63
NssVparentMatrix
p1626
(dp1627
S'isArray'
p1628
I01
sS'attrType'
p1629
Vmatrix
p1630
sS'attrChildrenNames'
p1631
(lp1632
sS'isMulti'
p1633
I01
sg10
I00
sg11
Vpm
p1634
sS'isReadable'
p1635
I00
sS'isElement'
p1636
I00
ssg834
(dp1637
g47
I00
sg48
Vbool
p1638
sg50
I00
sg51
I00
sg52
I01
sg38
Vmtze
p1639
sg54
(lp1640
ssVscalePivotTranslate
p1641
(dp1642
S'isArray'
p1643
I00
sg28
Vdouble3
p1644
sS'attrChildrenNames'
p1645
(lp1646
VscalePivotTranslate.scalePivotTranslateX
p1647
aVscalePivotTranslate.scalePivotTranslateY
p1648
aVscalePivotTranslate.scalePivotTranslateZ
p1649
asS'isMulti'
p1650
I00
sS'isCompound'
p1651
I01
sg37
I01
sg38
Vspt
p1652
sg14
(lp1653
VscalePivotTranslate.scalePivotTranslateX
p1654
aVscalePivotTranslate.scalePivotTranslateY
p1655
aVscalePivotTranslate.scalePivotTranslateZ
p1656
asS'isElement'
p1657
I00
ssVworldMatrix[15]
p1658
(dp1659
g218
I00
sg597
I00
sg219
(lp1660
sg599
I00
sg600
NssVparentInverseMatrix[8]
p1661
(dp1662
g429
I00
sg59
I00
sg430
(lp1663
sg62
I00
sg63
NssVdrawOverride.overrideEnabled
p1664
(dp1665
S'isArray'
p1666
I00
sS'attrParentLongName'
p1667
VdrawOverride
p1668
sS'attrChildrenNames'
p1669
(lp1670
sg28
Vbool
p1671
sS'isMulti'
p1672
I00
sS'isCompound'
p1673
I00
sg37
I01
sg38
Vove
p1674
sg14
(lp1675
sS'isElement'
p1676
I00
ssVboundingBox.boundingBoxMax
p1677
(dp1678
S'isArray'
p1679
I00
sS'attrParentLongName'
p1680
VboundingBox
p1681
sS'attrChildrenNames'
p1682
(lp1683
VboundingBox.boundingBoxMax.boundingBoxMaxX
p1684
aVboundingBox.boundingBoxMax.boundingBoxMaxY
p1685
aVboundingBox.boundingBoxMax.boundingBoxMaxZ
p1686
asg28
Vdouble3
p1687
sS'isMulti'
p1688
I00
sS'isCompound'
p1689
I01
sg37
I01
sg14
(lp1690
VboundingBox.boundingBoxMax.boundingBoxMaxX
p1691
aVboundingBox.boundingBoxMax.boundingBoxMaxY
p1692
aVboundingBox.boundingBoxMax.boundingBoxMaxZ
p1693
asS'isElement'
p1694
I00
ssVrotateAxis
p1695
(dp1696
S'isArray'
p1697
I00
sg28
Vdouble3
p1698
sS'attrChildrenNames'
p1699
(lp1700
VrotateAxis.rotateAxisX
p1701
aVrotateAxis.rotateAxisY
p1702
aVrotateAxis.rotateAxisZ
p1703
asS'isMulti'
p1704
I00
sS'isCompound'
p1705
I01
sg37
I01
sg38
Vra
p1706
sg14
(lp1707
VrotateAxis.rotateAxisX
p1708
aVrotateAxis.rotateAxisY
p1709
aVrotateAxis.rotateAxisZ
p1710
asS'isElement'
p1711
I00
ssVcreator
p1712
(dp1713
S'isArray'
p1714
I00
sg28
Vstring
p1715
sS'attrChildrenNames'
p1716
(lp1717
sS'isMulti'
p1718
I00
sS'isCompound'
p1719
I00
sg37
I01
sg38
Vctor
p1720
sg14
(lp1721
sS'isElement'
p1722
I00
ssVrotateAxis.rotateAxisX
p1723
(dp1724
S'isArray'
p1725
I00
sS'attrParentLongName'
p1726
VrotateAxis
p1727
sS'attrChildrenNames'
p1728
(lp1729
sg28
VdoubleAngle
p1730
sS'isMulti'
p1731
I00
sS'isCompound'
p1732
I00
sg37
I01
sg38
Vrax
p1733
sg14
(lp1734
sS'isElement'
p1735
I00
ssVrotateAxis.rotateAxisY
p1736
(dp1737
S'isArray'
p1738
I00
sS'attrParentLongName'
p1739
VrotateAxis
p1740
sS'attrChildrenNames'
p1741
(lp1742
sg28
VdoubleAngle
p1743
sS'isMulti'
p1744
I00
sS'isCompound'
p1745
I00
sg37
I01
sg38
Vray
p1746
sg14
(lp1747
sS'isElement'
p1748
I00
ssVrotateAxis.rotateAxisZ
p1749
(dp1750
S'isArray'
p1751
I00
sS'attrParentLongName'
p1752
VrotateAxis
p1753
sS'attrChildrenNames'
p1754
(lp1755
sg28
VdoubleAngle
p1756
sS'isMulti'
p1757
I00
sS'isCompound'
p1758
I00
sg37
I01
sg38
Vraz
p1759
sg14
(lp1760
sS'isElement'
p1761
I00
ssVghostRangeEnd
p1762
(dp1763
S'isArray'
p1764
I00
sg28
Vtime
p1765
sS'attrChildrenNames'
p1766
(lp1767
sS'isMulti'
p1768
I00
sS'isCompound'
p1769
I00
sg37
I01
sg38
Vgre
p1770
sg14
(lp1771
sS'isElement'
p1772
I00
ssVparentInverseMatrix[12]
p1773
(dp1774
g58
I00
sg597
I00
sg60
(lp1775
sg599
I00
sg600
NssVtemplateVersion
p1776
(dp1777
S'isArray'
p1778
I00
sg28
Vlong
p1779
sS'attrChildrenNames'
p1780
(lp1781
sS'isMulti'
p1782
I00
sS'isCompound'
p1783
I00
sg37
I01
sg38
Vtpv
p1784
sg14
(lp1785
sS'isElement'
p1786
I00
ssg726
(dp1787
g47
I00
sg48
Vbool
p1788
sg50
I00
sg51
I00
sg52
I01
sg38
Vmsye
p1789
sg54
(lp1790
ssVmaxScaleLimitEnable.maxScaleXLimitEnable
p1791
(dp1792
g47
I00
sg48
Vbool
p1793
sg50
I00
sg51
I00
sg52
I01
sg38
Vxsxe
p1794
sg54
(lp1795
ssVscalePivot.scalePivotX
p1796
(dp1797
S'isArray'
p1798
I00
sS'attrParentLongName'
p1799
VscalePivot
p1800
sS'attrChildrenNames'
p1801
(lp1802
sg28
VdoubleLinear
p1803
sS'isMulti'
p1804
I00
sS'isCompound'
p1805
I00
sg37
I01
sg38
Vspx
p1806
sg14
(lp1807
sS'isElement'
p1808
I00
ssVscalePivot.scalePivotY
p1809
(dp1810
S'isArray'
p1811
I00
sS'attrParentLongName'
p1812
VscalePivot
p1813
sS'attrChildrenNames'
p1814
(lp1815
sg28
VdoubleLinear
p1816
sS'isMulti'
p1817
I00
sS'isCompound'
p1818
I00
sg37
I01
sg38
Vspy
p1819
sg14
(lp1820
sS'isElement'
p1821
I00
ssVscalePivot.scalePivotZ
p1822
(dp1823
S'isArray'
p1824
I00
sS'attrParentLongName'
p1825
VscalePivot
p1826
sS'attrChildrenNames'
p1827
(lp1828
sg28
VdoubleLinear
p1829
sS'isMulti'
p1830
I00
sS'isCompound'
p1831
I00
sg37
I01
sg38
Vspz
p1832
sg14
(lp1833
sS'isElement'
p1834
I00
ssVinstObjGroups.objectGroups.objectGrpCompList
p1835
(dp1836
S'attrParentLongName'
p1837
VinstObjGroups.objectGroups
p1838
ssVpublishedNodeInfo.publishedNodeType
p1839
(dp1840
g1837
VpublishedNodeInfo
p1841
ssVpublishedNodeInfo[1]
p1842
(dp1843
g260
I00
sg262
(lp1844
VpublishedNodeInfo[1].publishedNode
p1845
aVpublishedNodeInfo[1].isHierarchicalNode
p1846
aVpublishedNodeInfo[1].publishedNodeType
p1847
asg38
Vpni[1]
p1848
sg149
I00
sg14
(lp1849
VpublishedNodeInfo[1].publishedNode
p1850
aVpublishedNodeInfo[1].isHierarchicalNode
p1851
ag1143
assVmaxTransLimit
p1852
(dp1853
g47
I00
sg48
Vdouble3
p1854
sg50
I00
sg51
I01
sg52
I01
sg38
Vmxtl
p1855
sg54
(lp1856
g1382
aVmaxTransLimit.maxTransYLimit
p1857
ag283
assVparentMatrix[10]
p1858
(dp1859
g58
I00
sg59
I00
sg60
(lp1860
sg62
I00
sg63
NssVscale.scaleZ
p1861
(dp1862
g539
I00
sS'attrType'
p1863
Vdouble
p1864
sg542
(lp1865
sS'isMulti'
p1866
I00
sg1443
Nsg545
I00
sg546
I01
sg11
Vsz
p1867
sg14
(lp1868
ssVscale.scaleX
p1869
(dp1870
g539
I00
sS'attrType'
p1871
Vdouble
p1872
sS'attrParentLongName'
p1873
Vscale
p1874
sg542
(lp1875
sS'isMulti'
p1876
I00
sg1443
Nsg545
I00
sg546
I01
sg11
Vsx
p1877
sg14
(lp1878
ssVscale.scaleY
p1879
(dp1880
g539
I00
sg1863
Vdouble
p1881
sg542
(lp1882
sg1866
I00
sg1443
Nsg545
I00
sg546
I01
sg11
Vsy
p1883
sg14
(lp1884
ssVghostRangeStart
p1885
(dp1886
S'isArray'
p1887
I00
sg28
Vtime
p1888
sS'attrChildrenNames'
p1889
(lp1890
sS'isMulti'
p1891
I00
sS'isCompound'
p1892
I00
sg37
I01
sg38
Vgrs
p1893
sg14
(lp1894
sS'isElement'
p1895
I00
ssVpublishedNodeInfo[0].publishedNodeType
p1896
(dp1897
S'isArray'
p1898
I00
sS'attrParentLongName'
p1899
VpublishedNodeInfo[0]
p1900
sS'attrChildrenNames'
p1901
(lp1902
sg149
I00
sg38
Vpni[0].pntp
p1903
sg14
(lp1904
sS'isElement'
p1905
I00
ssVmentalRayControls.miTrace
p1906
(dp1907
S'isArray'
p1908
I00
sS'attrParentLongName'
p1909
VmentalRayControls
p1910
sS'attrChildrenNames'
p1911
(lp1912
sg28
Venum
p1913
sS'isMulti'
p1914
I00
sS'isCompound'
p1915
I00
sg37
I01
sg38
Vtrc
p1916
sg14
(lp1917
sS'isElement'
p1918
I00
ssg1857
(dp1919
g47
I00
sg48
VdoubleLinear
p1920
sg50
I00
sg51
I00
sg52
I01
sg38
Vxtyl
p1921
sg54
(lp1922
ssVmaxTransLimitEnable
p1923
(dp1924
g47
I00
sg48
VTdataCompound
p1925
sg50
I00
sg52
I00
sg38
Vxtle
p1926
sg54
(lp1927
g601
ag229
aVmaxTransLimitEnable.maxTransZLimitEnable
p1928
assVmaxScaleLimit
p1929
(dp1930
g47
I00
sg48
Vdouble3
p1931
sg50
I00
sg51
I01
sg52
I01
sg38
Vmxsl
p1932
sg54
(lp1933
g1267
ag1387
ag1230
assVinheritsTransform
p1934
(dp1935
S'isArray'
p1936
I00
sS'attrType'
p1937
Vbool
p1938
sS'attrChildrenNames'
p1939
(lp1940
sS'isMulti'
p1941
I00
sS'isCompound'
p1942
I00
sg10
I01
sg11
Vit
p1943
sS'isReadable'
p1944
I00
sg14
(lp1945
sS'isElement'
p1946
I00
ssVisHistoricallyInteresting
p1947
(dp1948
S'isArray'
p1949
I00
sg28
Vbyte
p1950
sS'attrChildrenNames'
p1951
(lp1952
sS'isMulti'
p1953
I00
sS'isCompound'
p1954
I00
sg37
I00
sg38
Vihi
p1955
sg14
(lp1956
sS'isElement'
p1957
I00
ssVworldMatrix[10]
p1958
(dp1959
g58
I00
sg59
I00
sg60
(lp1960
sg62
I00
sg63
NssVdrawOverride
p1961
(dp1962
S'isArray'
p1963
I00
sg28
VTdataCompound
p1964
sS'attrChildrenNames'
p1965
(lp1966
VdrawOverride.overrideDisplayType
p1967
aVdrawOverride.overrideLevelOfDetail
p1968
aVdrawOverride.overrideShading
p1969
aVdrawOverride.overrideTexturing
p1970
aVdrawOverride.overridePlayback
p1971
aVdrawOverride.overrideEnabled
p1972
aVdrawOverride.overrideVisibility
p1973
aVdrawOverride.overrideColor
p1974
asS'isMulti'
p1975
I00
sS'isCompound'
p1976
I01
sg37
I00
sg38
Vdo
p1977
sg14
(lp1978
VdrawOverride.overrideDisplayType
p1979
aVdrawOverride.overrideLevelOfDetail
p1980
aVdrawOverride.overrideShading
p1981
aVdrawOverride.overrideTexturing
p1982
aVdrawOverride.overridePlayback
p1983
aVdrawOverride.overrideEnabled
p1984
aVdrawOverride.overrideVisibility
p1985
aVdrawOverride.overrideColor
p1986
asS'isElement'
p1987
I00
ssVinstObjGroups.objectGroups.objectGroupId
p1988
(dp1989
S'attrParentLongName'
p1990
VinstObjGroups.objectGroups
p1991
sS'isElement'
p1992
I00
ssVparentInverseMatrix[7]
p1993
(dp1994
g19
I00
sg333
I00
sg21
(lp1995
sg335
I00
sg336
Nssg833
(dp1996
g47
I00
sg48
Vbool
p1997
sg50
I00
sg51
I00
sg52
I01
sg38
Vmtxe
p1998
sg54
(lp1999
ssVworldMatrix[3]
p2000
(dp2001
g19
I00
sg20
I00
sg21
(lp2002
sg23
I00
sg24
NssVparentInverseMatrix[15]
p2003
(dp2004
g218
I00
sg597
I00
sg219
(lp2005
sg599
I00
sg600
NssVmaxRotLimit.maxRotXLimit
p2006
(dp2007
g47
I00
sg48
VdoubleAngle
p2008
sg50
I00
sg51
I00
sg52
I01
sg38
Vxrxl
p2009
sg54
(lp2010
ssVworldInverseMatrix[5]
p2011
(dp2012
g19
I00
sg20
I00
sg21
(lp2013
sg23
I00
sg24
NssVghostColorPre
p2014
(dp2015
g414
I00
sg417
I00
sg415
Vfloat3
p2016
sg419
I00
sg420
(lp2017
VghostColorPre.ghostColorPreR
p2018
aVghostColorPre.ghostColorPreG
p2019
aVghostColorPre.ghostColorPreB
p2020
assVfrozen
p2021
(dp2022
g241
I00
sg147
Vbool
p2023
sg243
I01
sg244
(lp2024
ssVboundingBox.boundingBoxSize
p2025
(dp2026
S'isArray'
p2027
I00
sS'attrParentLongName'
p2028
VboundingBox
p2029
sS'attrChildrenNames'
p2030
(lp2031
VboundingBox.boundingBoxSize.boundingBoxSizeX
p2032
aVboundingBox.boundingBoxSize.boundingBoxSizeY
p2033
aVboundingBox.boundingBoxSize.boundingBoxSizeZ
p2034
asg28
Vdouble3
p2035
sS'isMulti'
p2036
I00
sS'isCompound'
p2037
I01
sg37
I01
sg14
(lp2038
VboundingBox.boundingBoxSize.boundingBoxSizeX
p2039
aVboundingBox.boundingBoxSize.boundingBoxSizeY
p2040
aVboundingBox.boundingBoxSize.boundingBoxSizeZ
p2041
asS'isElement'
p2042
I00
ssVrenderLayerInfo[0]
p2043
(dp2044
g260
I00
sg147
VTdataCompound
p2045
sg262
(lp2046
VrenderLayerInfo[0].renderLayerId
p2047
aVrenderLayerInfo[0].renderLayerRenderable
p2048
aVrenderLayerInfo[0].renderLayerColor
p2049
asg149
I00
sg38
Vrlio[0]
p2050
sg14
(lp2051
VrenderLayerInfo[0].renderLayerId
p2052
aVrenderLayerInfo[0].renderLayerRenderable
p2053
aVrenderLayerInfo[0].renderLayerColor
p2054
assg727
(dp2055
g47
I00
sg48
Vbool
p2056
sg50
I00
sg51
I00
sg52
I01
sg38
Vmsze
p2057
sg54
(lp2058
ssVmaxScaleLimitEnable
p2059
(dp2060
g47
I00
sg48
VTdataCompound
p2061
sg50
I00
sg52
I00
sg38
Vxsle
p2062
sg54
(lp2063
g1791
ag234
aVmaxScaleLimitEnable.maxScaleZLimitEnable
p2064
assVparentMatrix[9]
p2065
(dp2066
g429
I00
sg59
I00
sg430
(lp2067
sg62
I00
sg63
Nssg2064
(dp2068
g47
I00
sg48
Vbool
p2069
sg50
I00
sg51
I00
sg52
I01
sg38
Vxsze
p2070
sg54
(lp2071
ssVspecifiedManipLocation
p2072
(dp2073
S'isArray'
p2074
I00
sg28
NsS'attrChildrenNames'
p2075
(lp2076
sS'isMulti'
p2077
I00
sS'isCompound'
p2078
I00
sg37
I00
sg38
Vsml
p2079
sg14
(lp2080
sS'isElement'
p2081
I00
ssVinstObjGroups[0].objectGroups
p2082
(dp2083
S'isArray'
p2084
I01
sS'attrParentLongName'
p2085
VinstObjGroups[0]
p2086
sg608
VTdataCompound
p2087
sg612
I01
sg613
I00
sg38
Viog[0].og
p2088
sS'isElement'
p2089
I00
ssVmaxRotLimitEnable.maxRotYLimitEnable
p2090
(dp2091
g47
I00
sg48
Vbool
p2092
sg50
I00
sg51
I00
sg52
I01
sg38
Vxrye
p2093
sg54
(lp2094
ssVminScaleLimit
p2095
(dp2096
g47
I00
sg48
Vdouble3
p2097
sg50
I00
sg51
I01
sg52
I01
sg38
Vmnsl
p2098
sg54
(lp2099
g179
ag501
ag1090
assVlodVisibility
p2100
(dp2101
S'isArray'
p2102
I00
sg28
Vbool
p2103
sS'attrChildrenNames'
p2104
(lp2105
sS'isMulti'
p2106
I00
sS'isCompound'
p2107
I00
sg37
I01
sg38
Vlodv
p2108
sg14
(lp2109
sS'isElement'
p2110
I00
ssVparentMatrix[17]
p2111
(dp2112
g218
I00
sg219
(lp2113
ssVparentInverseMatrix[16]
p2114
(dp2115
g218
I00
sg219
(lp2116
ssVpublishedNodeInfo.isHierarchicalNode
p2117
(dp2118
g1837
VpublishedNodeInfo
p2119
ssVghostColorPreA
p2120
(dp2121
g414
I00
sg415
Vfloat
p2122
sg417
I00
sg418
I00
sg419
I01
sg420
(lp2123
ssVworldInverseMatrix[11]
p2124
(dp2125
g58
I00
sg59
I00
sg60
(lp2126
sg62
I00
sg63
NssVparentMatrix[7]
p2127
(dp2128
g19
I00
sg333
I00
sg21
(lp2129
sg335
I00
sg336
NssVdrawOverride.overridePlayback
p2130
(dp2131
S'isArray'
p2132
I00
sS'attrParentLongName'
p2133
VdrawOverride
p2134
sS'attrChildrenNames'
p2135
(lp2136
sg28
Vbool
p2137
sS'isMulti'
p2138
I00
sS'isCompound'
p2139
I00
sg37
I01
sg38
Vovp
p2140
sg14
(lp2141
sS'isElement'
p2142
I00
ssVghostColorPostA
p2143
(dp2144
g414
I00
sg415
Vfloat
p2145
sg417
I00
sg418
I00
sg419
I01
sg420
(lp2146
ssVwireColorRGB.wireColorR
p2147
(dp2148
g290
VwireColorRGB
p2149
sg241
I00
sg147
Vfloat
p2150
sg243
I01
sg244
(lp2151
ssVghostColorPost.ghostColorPostB
p2152
(dp2153
g414
I00
sg415
Vfloat
p2154
sg417
I00
sg418
I00
sg419
I01
sg420
(lp2155
ssVshearXY
p2156
(dp2157
S'isArray'
p2158
I00
sS'attrParentLongName'
p2159
Vshear
p2160
sS'attrChildrenNames'
p2161
(lp2162
sS'attrType'
p2163
Vdouble
p2164
sS'isMulti'
p2165
I00
sS'isCompound'
p2166
I00
sg10
I01
sS'isReadable'
p2167
I00
sS'isElement'
p2168
I00
ssVshearXZ
p2169
(dp2170
S'isArray'
p2171
I00
sS'attrParentLongName'
p2172
Vshear
p2173
sS'attrChildrenNames'
p2174
(lp2175
sS'attrType'
p2176
Vdouble
p2177
sS'isMulti'
p2178
I00
sS'isCompound'
p2179
I00
sg10
I01
sS'isReadable'
p2180
I00
sS'isElement'
p2181
I00
ssVghostColorPost.ghostColorPostG
p2182
(dp2183
g414
I00
sg415
Vfloat
p2184
sg417
I00
sg418
I00
sg419
I01
sg420
(lp2185
ssVrenderLayerInfo.renderLayerColor
p2186
(dp2187
S'attrParentLongName'
p2188
VrenderLayerInfo
p2189
sS'isElement'
p2190
I00
ssVinstObjGroups[2]
p2191
(dp2192
S'isArray'
p2193
I00
sS'attrChildrenNames'
p2194
(lp2195
VinstObjGroups[2].objectGroups
p2196
asg523
I00
sS'attrChildrenLongNames'
p2197
(lp2198
g520
assVwireColorRGB.wireColorB
p2199
(dp2200
g290
VwireColorRGB
p2201
sg241
I00
sg147
Vfloat
p2202
sg243
I01
sg244
(lp2203
ssVghostColorPost.ghostColorPostR
p2204
(dp2205
g414
I00
sg415
Vfloat
p2206
sg417
I00
sg418
I00
sg419
I01
sg420
(lp2207
ssVrotatePivotTranslate
p2208
(dp2209
S'isArray'
p2210
I00
sg28
Vdouble3
p2211
sS'attrChildrenNames'
p2212
(lp2213
VrotatePivotTranslate.rotatePivotTranslateX
p2214
aVrotatePivotTranslate.rotatePivotTranslateY
p2215
aVrotatePivotTranslate.rotatePivotTranslateZ
p2216
asS'isMulti'
p2217
I00
sS'isCompound'
p2218
I01
sg37
I01
sg38
Vrpt
p2219
sg14
(lp2220
VrotatePivotTranslate.rotatePivotTranslateX
p2221
aVrotatePivotTranslate.rotatePivotTranslateY
p2222
aVrotatePivotTranslate.rotatePivotTranslateZ
p2223
asS'isElement'
p2224
I00
ssVwireColorRGB.wireColorG
p2225
(dp2226
g290
VwireColorRGB
p2227
sg241
I00
sg147
Vfloat
p2228
sg243
I01
sg244
(lp2229
ssVworldInverseMatrix[6]
p2230
(dp2231
g19
I00
sg333
I00
sg21
(lp2232
sg335
I00
sg336
NssVintermediateObject
p2233
(dp2234
S'isArray'
p2235
I00
sg28
Vbool
p2236
sS'attrChildrenNames'
p2237
(lp2238
sS'isMulti'
p2239
I00
sS'isCompound'
p2240
I00
sg37
I01
sg38
Vio
p2241
sg14
(lp2242
sS'isElement'
p2243
I00
ssVghostColorPost
p2244
(dp2245
g414
I00
sg417
I00
sg415
Vfloat3
p2246
sg419
I00
sg420
(lp2247
g2204
ag2182
ag2152
assg780
(dp2248
g47
I00
sg48
Vbool
p2249
sg50
I00
sg51
I00
sg52
I01
sg38
Vmrze
p2250
sg54
(lp2251
ssVparentInverseMatrix[9]
p2252
(dp2253
g429
I00
sg59
I00
sg430
(lp2254
sg62
I00
sg63
NssVcreationDate
p2255
(dp2256
S'isArray'
p2257
I00
sg28
Vstring
p2258
sS'attrChildrenNames'
p2259
(lp2260
sS'isMulti'
p2261
I00
sS'isCompound'
p2262
I00
sg37
I01
sg38
Vcdat
p2263
sg14
(lp2264
sS'isElement'
p2265
I00
ssVworldMatrix[14]
p2266
(dp2267
g218
I00
sg597
I00
sg219
(lp2268
sg599
I00
sg600
NssVmaxRotLimit.maxRotYLimit
p2269
(dp2270
g47
I00
sg48
VdoubleAngle
p2271
sg50
I00
sg51
I00
sg52
I01
sg38
Vxryl
p2272
sg54
(lp2273
ssVrotatePivotTranslate.rotatePivotTranslateZ
p2274
(dp2275
S'isArray'
p2276
I00
sS'attrParentLongName'
p2277
VrotatePivotTranslate
p2278
sS'attrChildrenNames'
p2279
(lp2280
sg28
VdoubleLinear
p2281
sS'isMulti'
p2282
I00
sS'isCompound'
p2283
I00
sg37
I01
sg38
Vrptz
p2284
sg14
(lp2285
sS'isElement'
p2286
I00
ssVrotateX
p2287
(dp2288
S'isArray'
p2289
I00
sS'attrParentLongName'
p2290
Vrotate
p2291
sS'attrChildrenNames'
p2292
(lp2293
sS'attrType'
p2294
VdoubleAngle
p2295
sS'isMulti'
p2296
I00
sS'isWritable'
p2297
I01
sS'isCompound'
p2298
I00
sg10
I01
sS'isReadable'
p2299
I00
sS'isElement'
p2300
I00
ssVrotateY
p2301
(dp2302
S'isArray'
p2303
I00
sS'attrParentLongName'
p2304
Vrotate
p2305
sS'attrChildrenNames'
p2306
(lp2307
sS'attrType'
p2308
VdoubleAngle
p2309
sS'isMulti'
p2310
I00
sS'isWritable'
p2311
I01
sS'isCompound'
p2312
I00
sg10
I01
sS'isReadable'
p2313
I00
sS'isElement'
p2314
I00
ssVrotateZ
p2315
(dp2316
S'isArray'
p2317
I00
sS'attrParentLongName'
p2318
Vrotate
p2319
sS'attrChildrenNames'
p2320
(lp2321
sS'attrType'
p2322
VdoubleAngle
p2323
sS'isMulti'
p2324
I00
sS'isCompound'
p2325
I00
sg10
I01
sS'isReadable'
p2326
I00
sS'isElement'
p2327
I00
ssVdrawOverride.hideOnPlayback
p2328
(dp2329
g290
VdrawOverride
p2330
ssVboundingBox.boundingBoxMin
p2331
(dp2332
S'isArray'
p2333
I00
sS'attrParentLongName'
p2334
VboundingBox
p2335
sS'attrChildrenNames'
p2336
(lp2337
VboundingBox.boundingBoxMin.boundingBoxMinX
p2338
aVboundingBox.boundingBoxMin.boundingBoxMinY
p2339
aVboundingBox.boundingBoxMin.boundingBoxMinZ
p2340
asg28
Vdouble3
p2341
sS'isMulti'
p2342
I00
sS'isCompound'
p2343
I01
sg37
I01
sg14
(lp2344
VboundingBox.boundingBoxMin.boundingBoxMinX
p2345
aVboundingBox.boundingBoxMin.boundingBoxMinY
p2346
aVboundingBox.boundingBoxMin.boundingBoxMinZ
p2347
asS'isElement'
p2348
I00
ssVtranslateX
p2349
(dp2350
S'isArray'
p2351
I00
sS'attrParentLongName'
p2352
Vtranslate
p2353
sS'attrChildrenNames'
p2354
(lp2355
sS'attrType'
p2356
VdoubleLinear
p2357
sS'isMulti'
p2358
I00
sS'isWritable'
p2359
I01
sS'isCompound'
p2360
I00
sg10
I01
sS'isReadable'
p2361
I00
sS'isElement'
p2362
I00
ssVtranslateY
p2363
(dp2364
S'isArray'
p2365
I00
sS'attrParentLongName'
p2366
Vtranslate
p2367
sS'attrChildrenNames'
p2368
(lp2369
sS'attrType'
p2370
VdoubleLinear
p2371
sS'isMulti'
p2372
I00
sS'isCompound'
p2373
I00
sg10
I01
sS'isReadable'
p2374
I00
sS'isElement'
p2375
I00
ssVtranslateZ
p2376
(dp2377
S'isArray'
p2378
I00
sS'attrParentLongName'
p2379
Vtranslate
p2380
sS'attrChildrenNames'
p2381
(lp2382
sS'attrType'
p2383
VdoubleLinear
p2384
sS'isMulti'
p2385
I00
sS'isCompound'
p2386
I00
sg10
I01
sS'isReadable'
p2387
I00
sS'isElement'
p2388
I00
ssg1928
(dp2389
g47
I00
sg48
Vbool
p2390
sg50
I00
sg51
I00
sg52
I01
sg38
Vxtze
p2391
sg54
(lp2392
ssVworldInverseMatrix[1]
p2393
(dp2394
g248
I00
sg249
Nsg253
(lp2395
sg20
I00
sg23
I00
sg11
Vwim[1]
p2396
sg256
I00
sg14
(lp2397
ssVparentInverseMatrix[11]
p2398
(dp2399
g58
I00
sg59
I00
sg60
(lp2400
sg62
I00
sg63
NssVworldMatrix[7]
p2401
(dp2402
g19
I00
sg333
I00
sg21
(lp2403
sg335
I00
sg336
NssVrotatePivotTranslate.rotatePivotTranslateX
p2404
(dp2405
S'isArray'
p2406
I00
sS'attrParentLongName'
p2407
VrotatePivotTranslate
p2408
sS'attrChildrenNames'
p2409
(lp2410
sg28
VdoubleLinear
p2411
sS'isMulti'
p2412
I00
sS'isCompound'
p2413
I00
sg37
I01
sg38
Vrptx
p2414
sg14
(lp2415
sS'isElement'
p2416
I00
ssVrotatePivotTranslate.rotatePivotTranslateY
p2417
(dp2418
S'isArray'
p2419
I00
sS'attrParentLongName'
p2420
VrotatePivotTranslate
p2421
sS'attrChildrenNames'
p2422
(lp2423
sg28
VdoubleLinear
p2424
sS'isMulti'
p2425
I00
sS'isCompound'
p2426
I00
sg37
I01
sg38
Vrpty
p2427
sg14
(lp2428
sS'isElement'
p2429
I00
ssVrotate
p2430
(dp2431
S'isArray'
p2432
I00
sS'attrType'
p2433
Vdouble3
p2434
sS'attrChildrenNames'
p2435
(lp2436
VrotateX
p2437
aVrotateY
p2438
aVrotateZ
p2439
asS'isMulti'
p2440
I00
sS'isCompound'
p2441
I01
sg10
I01
sg11
Vr
p2442
sS'isReadable'
p2443
I00
sg14
(lp2444
Vrotate.rotateX
p2445
aVrotate.rotateY
p2446
aVrotate.rotateZ
p2447
asS'isElement'
p2448
I00
ssVparentInverseMatrix[0]
p2449
(dp2450
g248
I00
sg249
Vmatrix
p2451
sS'attrParentLongName'
p2452
VparentInverseMatrix
p2453
sg253
(lp2454
sg20
I00
sg23
I00
sg11
Vpim[0]
p2455
sg256
I00
sg14
(lp2456
ssVrenderLayerInfo[1].renderLayerId
p2457
(dp2458
g886
I00
sg147
Vshort
p2459
sg38
Vrlio[1].rli
p2460
sg149
I00
sg14
(lp2461
ssVobjectColor
p2462
(dp2463
S'isArray'
p2464
I00
sg28
Vshort
p2465
sS'attrChildrenNames'
p2466
(lp2467
sS'isMulti'
p2468
I00
sS'isCompound'
p2469
I00
sg37
I01
sg38
Voc
p2470
sg14
(lp2471
sS'isElement'
p2472
I00
ssVmentalRayControls.miGeoShader
p2473
(dp2474
S'isArray'
p2475
I00
sS'attrParentLongName'
p2476
VmentalRayControls
p2477
sS'attrChildrenNames'
p2478
(lp2479
sg28
NsS'isMulti'
p2480
I00
sS'isCompound'
p2481
I00
sg37
I00
sg38
Vmigs
p2482
sg14
(lp2483
sS'isElement'
p2484
I00
ssVparentInverseMatrix[14]
p2485
(dp2486
g218
I00
sg597
I00
sg219
(lp2487
sg599
I00
sg600
Nssg2018
(dp2488
g414
I00
sg415
Vfloat
p2489
sg417
I00
sg418
I00
sg419
I01
sg420
(lp2490
ssVpublishedNodeInfo[0]
p2491
(dp2492
g260
I00
sg262
(lp2493
VpublishedNodeInfo[0].publishedNode
p2494
aVpublishedNodeInfo[0].isHierarchicalNode
p2495
aVpublishedNodeInfo[0].publishedNodeType
p2496
asg38
Vpni[0]
p2497
sg149
I00
sg14
(lp2498
VpublishedNodeInfo[0].publishedNode
p2499
aVpublishedNodeInfo[0].isHierarchicalNode
p2500
aVpublishedNodeInfo[0].publishedNodeType
p2501
assg2019
(dp2502
g414
I00
sg415
Vfloat
p2503
sg417
I00
sg418
I00
sg419
I01
sg420
(lp2504
ssg2020
(dp2505
g414
I00
sg415
Vfloat
p2506
sg417
I00
sg418
I00
sg419
I01
sg420
(lp2507
ssVpublishedNodeInfo[0].publishedNode
p2508
(dp2509
S'isArray'
p2510
I00
sS'attrParentLongName'
p2511
VpublishedNodeInfo[0]
p2512
sS'attrChildrenNames'
p2513
(lp2514
sg149
I00
sg38
Vpni[0].pnod
p2515
sg14
(lp2516
sS'isElement'
p2517
I00
ssg1851
(dp2518
g886
I00
sg38
Vpni[1].ihn
p2519
sg149
I00
sg14
(lp2520
ssVscale
p2521
(dp2522
S'isArray'
p2523
I00
sS'attrType'
p2524
Vdouble3
p2525
sS'attrChildrenNames'
p2526
(lp2527
VscaleX
p2528
aVscaleY
p2529
aVscaleZ
p2530
asS'isMulti'
p2531
I00
sS'isCompound'
p2532
I01
sg10
I01
sg11
Vs
p2533
sS'isReadable'
p2534
I00
sg14
(lp2535
Vscale.scaleX
p2536
aVscale.scaleY
p2537
aVscale.scaleZ
p2538
asS'isElement'
p2539
I00
ssVparentMatrix[13]
p2540
(dp2541
g58
I00
sg597
I00
sg60
(lp2542
sg599
I00
sg600
NssVviewName
p2543
(dp2544
S'isArray'
p2545
I00
sg28
Vstring
p2546
sS'attrChildrenNames'
p2547
(lp2548
sS'isMulti'
p2549
I00
sS'isCompound'
p2550
I00
sg37
I01
sg38
Vvwn
p2551
sg14
(lp2552
sS'isElement'
p2553
I00
ssVmaxTriangles
p2554
(dp2555
S'isArray'
p2556
I00
sS'isElement'
p2557
I00
sS'isMulti'
p2558
I00
sS'attrShortName'
p2559
Vtsl
p2560
sS'isCompound'
p2561
I00
ssVinstObjGroups[0].objectGroups[1]
p2562
(dp2563
g260
I00
sg147
VTdataCompound
p2564
sg262
(lp2565
VinstObjGroups[0].objectGroups[1].objectGrpCompList
p2566
aVinstObjGroups[0].objectGroups[1].objectGroupId
p2567
aVinstObjGroups[0].objectGroups[1].objectGrpColor
p2568
asg149
I00
sg38
Viog[0].og[1]
p2569
sg14
(lp2570
g1063
aVinstObjGroups[0].objectGroups[1].objectGroupId
p2571
ag1333
assg214
(dp2572
g47
I00
sg48
VdoubleLinear
p2573
sg50
I00
sg51
I00
sg52
I01
sg38
Vmtyl
p2574
sg54
(lp2575
ssVparentMatrix[3]
p2576
(dp2577
g19
I00
sg24
Nsg21
(lp2578
sg20
I00
sg23
I00
sS'attrChildrenLongNames'
p2579
(lp2580
ssViconName
p2581
(dp2582
S'isArray'
p2583
I00
sg28
Vstring
p2584
sS'attrChildrenNames'
p2585
(lp2586
sS'isMulti'
p2587
I00
sS'isCompound'
p2588
I00
sg37
I01
sg38
Vicn
p2589
sg14
(lp2590
sS'isElement'
p2591
I00
ssVworldInverseMatrix[14]
p2592
(dp2593
g218
I00
sg597
I00
sg219
(lp2594
sg599
I00
sg600
NssVparentInverseMatrix[4]
p2595
(dp2596
g19
I00
sg20
I00
sg21
(lp2597
sg23
I00
sg24
NssVinstObjGroups
p2598
(dp2599
S'isArray'
p2600
I01
sg28
VTdataCompound
p2601
sS'isMulti'
p2602
I01
sg37
I00
sg38
Viog
p2603
sS'isElement'
p2604
I00
ssVscaleY
p2605
(dp2606
S'isArray'
p2607
I00
sS'attrParentLongName'
p2608
Vscale
p2609
sS'attrChildrenNames'
p2610
(lp2611
sS'attrType'
p2612
Vdouble
p2613
sS'isMulti'
p2614
I00
sS'isCompound'
p2615
I00
sg10
I01
sS'isReadable'
p2616
I00
sS'isElement'
p2617
I00
ssVworldMatrix[0]
p2618
(dp2619
g248
I00
sg249
Vmatrix
p2620
sS'attrParentLongName'
p2621
VworldMatrix
p2622
sg253
(lp2623
sS'isMulti'
p2624
I00
sS'isCompound'
p2625
I00
sg23
I00
sS'attrShortName'
p2626
Vwm[0]
p2627
sg256
I00
sS'attrChildrenLongNames'
p2628
(lp2629
sS'isElement'
p2630
I01
sS'attrParentName'
p2631
VworldMatrix
p2632
ssVdrawOverride.overrideVisibility
p2633
(dp2634
S'isArray'
p2635
I00
sS'attrParentLongName'
p2636
VdrawOverride
p2637
sS'attrChildrenNames'
p2638
(lp2639
sg28
Vbool
p2640
sS'isMulti'
p2641
I00
sS'isCompound'
p2642
I00
sg37
I01
sg38
Vovv
p2643
sg14
(lp2644
sS'isElement'
p2645
I00
ssVghosting
p2646
(dp2647
S'isArray'
p2648
I00
sg28
Vbool
p2649
sS'attrChildrenNames'
p2650
(lp2651
sS'isMulti'
p2652
I00
sS'isCompound'
p2653
I00
sg37
I01
sg38
Vgh
p2654
sg14
(lp2655
sS'isElement'
p2656
I00
ssVworldInverseMatrix[2]
p2657
(dp2658
g19
I00
sg24
Nsg21
(lp2659
sg20
I00
sg23
I00
sS'attrChildrenLongNames'
p2660
(lp2661
ssg1850
(dp2662
g886
I00
sg38
Vpni[1].pnod
p2663
sg149
I00
sg14
(lp2664
ssVmaxRotLimit
p2665
(dp2666
g47
I00
sg48
Vdouble3
p2667
sg50
I00
sg51
I01
sg52
I01
sg38
Vmxrl
p2668
sg54
(lp2669
g2006
ag2269
aVmaxRotLimit.maxRotZLimit
p2670
assVtranslate
p2671
(dp2672
S'isArray'
p2673
I00
sS'attrType'
p2674
Vdouble3
p2675
sS'attrChildrenNames'
p2676
(lp2677
VtranslateX
p2678
aVtranslateY
p2679
aVtranslateZ
p2680
asS'isMulti'
p2681
I00
sS'isCompound'
p2682
I01
sg10
I01
sg11
Vt
p2683
sS'isReadable'
p2684
I00
sg14
(lp2685
Vtranslate.translateX
p2686
aVtranslate.translateY
p2687
aVtranslate.translateZ
p2688
asS'isElement'
p2689
I00
ssVmaxRotLimitEnable
p2690
(dp2691
g47
I00
sg48
VTdataCompound
p2692
sg50
I00
sg52
I00
sg38
Vxrle
p2693
sg54
(lp2694
g1574
ag2090
ag1058
assg2571
(dp2695
g886
I00
sg147
Vlong
p2696
sg38
Viog[0].og[1].gid
p2697
sg149
I00
sg14
(lp2698
ssVobjectColorRGB.objectColorG
p2699
(dp2700
S'attrParentLongName'
p2701
VobjectColorRGB
p2702
sg414
I00
sg415
Vfloat
p2703
sg417
I00
sg418
I00
sg419
I01
sg420
(lp2704
ssg215
(dp2705
g47
I00
sg48
VdoubleLinear
p2706
sg50
I00
sg51
I00
sg52
I01
sg38
Vmtzl
p2707
sg54
(lp2708
ssg227
(dp2709
g47
I00
sg48
VdoubleAngle
p2710
sg50
I00
sg51
I00
sg52
I01
sg38
Vmryl
p2711
sg54
(lp2712
ssVobjectColorRGB.objectColorB
p2713
(dp2714
g2701
VobjectColorRGB
p2715
sg414
I00
sg415
Vfloat
p2716
sg417
I00
sg418
I00
sg419
I01
sg420
(lp2717
ssVparentMatrix[8]
p2718
(dp2719
g429
I00
sg59
I00
sg430
(lp2720
sg62
I00
sg63
NssVobjectColorRGB.objectColorR
p2721
(dp2722
g2701
VobjectColorRGB
p2723
sg414
I00
sg415
Vfloat
p2724
sg417
I00
sg418
I00
sg419
I01
sg420
(lp2725
ssVworldInverseMatrix[10]
p2726
(dp2727
g58
I00
sg59
I00
sg60
(lp2728
sg62
I00
sg63
NssVmentalRayControls
p2729
(dp2730
S'isArray'
p2731
I00
sg28
VTdataCompound
p2732
sS'attrChildrenNames'
p2733
(lp2734
VmentalRayControls.miDeriveFromMaya
p2735
aVmentalRayControls.miHide
p2736
aVmentalRayControls.miVisible
p2737
aVmentalRayControls.miTrace
p2738
aVmentalRayControls.miShadow
p2739
aVmentalRayControls.miCaustic
p2740
aVmentalRayControls.miGlobillum
p2741
aVmentalRayControls.miExportGeoShader
p2742
aVmentalRayControls.miGeoShader
p2743
aVmentalRayControls.miProxyRenderable
p2744
asS'isMulti'
p2745
I00
sS'isCompound'
p2746
I01
sg37
I00
sg38
Vmrc
p2747
sg14
(lp2748
VmentalRayControls.miDeriveFromMaya
p2749
aVmentalRayControls.miHide
p2750
aVmentalRayControls.miVisible
p2751
aVmentalRayControls.miTrace
p2752
aVmentalRayControls.miShadow
p2753
aVmentalRayControls.miCaustic
p2754
aVmentalRayControls.miGlobillum
p2755
aVmentalRayControls.miExportGeoShader
p2756
aVmentalRayControls.miGeoShader
p2757
aVmentalRayControls.miProxyRenderable
p2758
asS'isElement'
p2759
I00
ssVparentMatrix[4]
p2760
(dp2761
g19
I00
sg20
I00
sg21
(lp2762
sg23
I00
sg24
NssVworldInverseMatrix
p2763
(dp2764
S'isArray'
p2765
I01
sS'attrType'
p2766
Vmatrix
p2767
sS'attrChildrenNames'
p2768
(lp2769
sS'isMulti'
p2770
I01
sg10
I00
sg11
Vwim
p2771
sS'isReadable'
p2772
I00
sS'isElement'
p2773
I00
ssVoutlinerColor
p2774
(dp2775
g241
I00
sg147
Vfloat3
p2776
sg243
I00
sg244
(lp2777
g1522
ag323
ag327
assVrenderInfo.identification
p2778
(dp2779
S'isArray'
p2780
I00
sS'attrParentLongName'
p2781
VrenderInfo
p2782
sS'attrChildrenNames'
p2783
(lp2784
sg28
Vshort
p2785
sS'isMulti'
p2786
I00
sS'isCompound'
p2787
I00
sg37
I01
sg38
Vrlid
p2788
sg14
(lp2789
sS'isElement'
p2790
I00
ssVblackBox
p2791
(dp2792
S'isArray'
p2793
I00
sg28
Vbool
p2794
sS'attrChildrenNames'
p2795
(lp2796
sS'isMulti'
p2797
I00
sS'isCompound'
p2798
I00
sg37
I01
sg38
Vbbx
p2799
sg14
(lp2800
sS'isElement'
p2801
I00
ssVmentalRayControls.miShadow
p2802
(dp2803
S'isArray'
p2804
I00
sS'attrParentLongName'
p2805
VmentalRayControls
p2806
sS'attrChildrenNames'
p2807
(lp2808
sg28
Venum
p2809
sS'isMulti'
p2810
I00
sS'isCompound'
p2811
I00
sg37
I01
sg38
Vshd
p2812
sg14
(lp2813
sS'isElement'
p2814
I00
ssVisHierarchicalConnection[0]
p2815
(dp2816
g47
I00
sg38
Vish[0]
p2817
sg52
I00
sg54
(lp2818
ssVshowManipDefault
p2819
(dp2820
S'isArray'
p2821
I00
sg28
Venum
p2822
sS'attrChildrenNames'
p2823
(lp2824
sS'isMulti'
p2825
I00
sS'isCompound'
p2826
I00
sg37
I01
sg38
Vsmd
p2827
sg14
(lp2828
sS'isElement'
p2829
I00
ssg2670
(dp2830
g47
I00
sg48
VdoubleAngle
p2831
sg50
I00
sg51
I00
sg52
I01
sg38
Vxrzl
p2832
sg54
(lp2833
ssVrenderLayerInfo[0].renderLayerColor
p2834
(dp2835
S'isArray'
p2836
I00
sS'attrParentLongName'
p2837
VrenderLayerInfo[0]
p2838
sS'attrChildrenNames'
p2839
(lp2840
sg147
Vbyte
p2841
sg149
I00
sg38
Vrlio[0].rlc
p2842
sg14
(lp2843
sS'isElement'
p2844
I00
ssVrenderLayerInfo[1]
p2845
(dp2846
g260
I00
sg147
VTdataCompound
p2847
sg262
(lp2848
VrenderLayerInfo[1].renderLayerId
p2849
aVrenderLayerInfo[1].renderLayerRenderable
p2850
aVrenderLayerInfo[1].renderLayerColor
p2851
asg149
I00
sg38
Vrlio[1]
p2852
sg14
(lp2853
g2457
ag1475
ag884
assVghostCustomSteps.ghostStepSize
p2854
(dp2855
S'isArray'
p2856
I00
sS'attrParentLongName'
p2857
VghostCustomSteps
p2858
sS'attrChildrenNames'
p2859
(lp2860
sg28
Vlong
p2861
sS'isMulti'
p2862
I00
sS'isCompound'
p2863
I00
sg37
I01
sg38
Vgss
p2864
sg14
(lp2865
sS'isElement'
p2866
I00
ssVrenderLayerInfo
p2867
(dp2868
S'isArray'
p2869
I01
sg28
VTdataCompound
p2870
sS'isMulti'
p2871
I01
sg37
I00
sg38
Vrlio
p2872
sS'isElement'
p2873
I00
ssVmentalRayControls.miProxyRenderable
p2874
(dp2875
S'isArray'
p2876
I00
sS'attrParentLongName'
p2877
VmentalRayControls
p2878
sS'attrChildrenNames'
p2879
(lp2880
sg28
Vbool
p2881
sS'isMulti'
p2882
I00
sS'isCompound'
p2883
I00
sg37
I01
sg38
Vmrof
p2884
sg14
(lp2885
sS'isElement'
p2886
I00
ssVcenter.boundingBoxCenterZ
p2887
(dp2888
S'isArray'
p2889
I00
sS'attrParentLongName'
p2890
Vcenter
p2891
sS'attrChildrenNames'
p2892
(lp2893
sg28
VdoubleLinear
p2894
sS'isMulti'
p2895
I00
sS'isCompound'
p2896
I00
sg37
I01
sg14
(lp2897
sS'isElement'
p2898
I00
ssg725
(dp2899
g47
I00
sg48
Vbool
p2900
sg50
I00
sg51
I00
sg52
I01
sg38
Vmsxe
p2901
sg54
(lp2902
ssVinverseMatrix
p2903
(dp2904
S'isArray'
p2905
I00
sS'attrType'
p2906
Vmatrix
p2907
sS'attrChildrenNames'
p2908
(lp2909
sS'isMulti'
p2910
I00
sS'isCompound'
p2911
I00
sg10
I00
sg11
Vim
p2912
sS'isReadable'
p2913
I00
sg14
(lp2914
sS'isElement'
p2915
I00
ssVmentalRayControls.miGlobillum
p2916
(dp2917
S'isArray'
p2918
I00
sS'attrParentLongName'
p2919
VmentalRayControls
p2920
sS'attrChildrenNames'
p2921
(lp2922
sg28
Venum
p2923
sS'isMulti'
p2924
I00
sS'isCompound'
p2925
I00
sg37
I01
sg38
Vglb
p2926
sg14
(lp2927
sS'isElement'
p2928
I00
ssVworldMatrix[13]
p2929
(dp2930
g58
I00
sg597
I00
sg60
(lp2931
sg599
I00
sg600
NssVcenter.boundingBoxCenterX
p2932
(dp2933
S'isArray'
p2934
I00
sS'attrParentLongName'
p2935
Vcenter
p2936
sS'attrChildrenNames'
p2937
(lp2938
sg28
VdoubleLinear
p2939
sS'isMulti'
p2940
I00
sS'isCompound'
p2941
I00
sg37
I01
sg14
(lp2942
sS'isElement'
p2943
I00
ssVcenter.boundingBoxCenterY
p2944
(dp2945
S'isArray'
p2946
I00
sS'attrParentLongName'
p2947
Vcenter
p2948
sS'attrChildrenNames'
p2949
(lp2950
sg28
VdoubleLinear
p2951
sS'isMulti'
p2952
I00
sS'isCompound'
p2953
I00
sg37
I01
sg14
(lp2954
sS'isElement'
p2955
I00
ss.