(dp0
VisHistoricallyInteresting
p1
(dp2
S'isArray'
p3
I00
sS'attrType'
p4
Vbyte
p5
sS'attrChildrenNames'
p6
(lp7
sS'isMulti'
p8
I00
sS'isCompound'
p9
I00
sS'isSimple'
p10
I00
sS'attrChildrenLongNames'
p11
(lp12
sS'isElement'
p13
I00
ssVinput2
p14
(dp15
S'isArray'
p16
I00
sS'attrType'
p17
Vfloat3
p18
sS'attrChildrenNames'
p19
(lp20
Vinput2.input2X
p21
aVinput2.input2Y
p22
aVinput2.input2Z
p23
asS'isMulti'
p24
I00
sS'isCompound'
p25
I01
sS'isSimple'
p26
I00
sS'attrChildrenLongNames'
p27
(lp28
Vinput2.input2X
p29
aVinput2.input2Y
p30
aVinput2.input2Z
p31
asS'isElement'
p32
I00
ssVnodeState
p33
(dp34
S'isArray'
p35
I00
sg4
Venum
p36
sS'attrChildrenNames'
p37
(lp38
sS'isMulti'
p39
I00
sS'isCompound'
p40
I00
sg10
I01
sg11
(lp41
sS'isElement'
p42
I00
ssVinput1
p43
(dp44
S'isArray'
p45
I00
sg17
Vfloat3
p46
sS'attrChildrenNames'
p47
(lp48
Vinput1.input1X
p49
aVinput1.input1Y
p50
aVinput1.input1Z
p51
asS'isMulti'
p52
I00
sS'isCompound'
p53
I01
sg26
I00
sg27
(lp54
Vinput1.input1X
p55
aVinput1.input1Y
p56
aVinput1.input1Z
p57
asS'isElement'
p58
I00
ssVinput1.input1Z
p59
(dp60
S'isArray'
p61
I00
sS'attrParentLongName'
p62
Vinput1
p63
sS'attrChildrenNames'
p64
(lp65
sg17
Vfloat
p66
sS'isMulti'
p67
I00
sS'isWritable'
p68
NsS'isCompound'
p69
I00
sg26
I01
sg27
(lp70
sS'isElement'
p71
I00
ssVmatrix
p72
(dp73
S'isArray'
p74
I00
sg17
Vmatrix
p75
sS'attrChildrenNames'
p76
(lp77
sS'isMulti'
p78
I00
sS'isCompound'
p79
I00
sg26
I00
sg27
(lp80
sS'isElement'
p81
I00
ssVinput1.input1X
p82
(dp83
S'isArray'
p84
I00
sS'attrParentLongName'
p85
Vinput1
p86
sS'attrChildrenNames'
p87
(lp88
sg17
Vfloat
p89
sS'isMulti'
p90
I00
sg68
NsS'isCompound'
p91
I00
sg26
I01
sg27
(lp92
sS'isElement'
p93
I00
ssVinput1.input1Y
p94
(dp95
S'isArray'
p96
I00
sS'attrParentLongName'
p97
Vinput1
p98
sS'attrChildrenNames'
p99
(lp100
sg17
Vfloat
p101
sS'isMulti'
p102
I00
sg68
NsS'isCompound'
p103
I00
sg26
I01
sg27
(lp104
sS'isElement'
p105
I00
ssVnormalizeOutput
p106
(dp107
S'isArray'
p108
I00
sg17
Vbool
p109
sS'attrChildrenNames'
p110
(lp111
sS'isMulti'
p112
I00
sg68
NsS'isCompound'
p113
I00
sg26
I01
sg27
(lp114
sS'isElement'
p115
I00
ssVinput2.input2X
p116
(dp117
S'isArray'
p118
I00
sS'attrParentLongName'
p119
Vinput2
p120
sS'attrChildrenNames'
p121
(lp122
sg17
Vfloat
p123
sS'isMulti'
p124
I00
sS'isCompound'
p125
I00
sg26
I01
sg27
(lp126
sS'isElement'
p127
I00
ssVbinMembership
p128
(dp129
S'isArray'
p130
I00
sg4
Vstring
p131
sg10
I01
sg11
(lp132
ssVoutput.outputZ
p133
(dp134
S'isArray'
p135
I00
sS'attrParentLongName'
p136
Voutput
p137
sS'attrChildrenNames'
p138
(lp139
sg17
Vfloat
p140
sS'isMulti'
p141
I00
sg68
NsS'isCompound'
p142
I00
sg26
I01
sg27
(lp143
sS'isElement'
p144
I00
ssVoutput.outputX
p145
(dp146
S'isArray'
p147
I00
sS'attrParentLongName'
p148
Voutput
p149
sS'attrChildrenNames'
p150
(lp151
sg17
Vfloat
p152
sS'isMulti'
p153
I00
sg68
NsS'isCompound'
p154
I00
sg26
I01
sg27
(lp155
sS'isElement'
p156
I00
ssVoutput.outputY
p157
(dp158
S'isArray'
p159
I00
sS'attrParentLongName'
p160
Voutput
p161
sS'attrChildrenNames'
p162
(lp163
sg17
Vfloat
p164
sS'isMulti'
p165
I00
sg68
NsS'isCompound'
p166
I00
sg26
I01
sg27
(lp167
sS'isElement'
p168
I00
ssVcaching
p169
(dp170
S'isArray'
p171
I00
sg4
Vbool
p172
sS'attrChildrenNames'
p173
(lp174
sS'isMulti'
p175
I00
sS'isCompound'
p176
I00
sg10
I01
sg11
(lp177
sS'isElement'
p178
I00
ssVoutput
p179
(dp180
S'isArray'
p181
I00
sg17
Vfloat3
p182
sS'attrChildrenNames'
p183
(lp184
Voutput.outputX
p185
aVoutput.outputY
p186
aVoutput.outputZ
p187
asS'isMulti'
p188
I00
sS'isCompound'
p189
I01
sg26
I00
sg27
(lp190
Voutput.outputX
p191
aVoutput.outputY
p192
aVoutput.outputZ
p193
asS'isElement'
p194
I00
ssVoperation
p195
(dp196
S'isArray'
p197
I00
sg17
Venum
p198
sS'attrChildrenNames'
p199
(lp200
sS'isMulti'
p201
I00
sg68
NsS'isCompound'
p202
I00
sg26
I01
sg27
(lp203
sS'isElement'
p204
I00
ssVinput2.input2Z
p205
(dp206
S'isArray'
p207
I00
sS'attrParentLongName'
p208
Vinput2
p209
sS'attrChildrenNames'
p210
(lp211
sg17
Vfloat
p212
sS'isMulti'
p213
I00
sS'isCompound'
p214
I00
sg26
I01
sg27
(lp215
sS'isElement'
p216
I00
ssVinput2.input2Y
p217
(dp218
S'isArray'
p219
I00
sS'attrParentLongName'
p220
Vinput2
p221
sS'attrChildrenNames'
p222
(lp223
sg17
Vfloat
p224
sS'isMulti'
p225
I00
sg68
NsS'isCompound'
p226
I00
sg26
I01
sg27
(lp227
sS'isElement'
p228
I00
ss.