(dp0
VisHistoricallyInteresting
p1
(dp2
S'isArray'
p3
I00
sS'isMulti'
p4
I00
sS'attrType'
p5
Vbyte
p6
sS'isSimple'
p7
I00
sS'attrChildrenLongNames'
p8
(lp9
ssVwtMatrix[1].matrixIn
p10
(dp11
g3
I00
sg8
(lp12
ssVnodeState
p13
(dp14
g3
I00
sg5
Venum
p15
sg4
I00
sS'isCompound'
p16
I00
sg7
I01
sg8
(lp17
ssVwtMatrix[0]
p18
(dp19
g3
I00
sg8
(lp20
VwtMatrix[0].matrixIn
p21
aVwtMatrix[0].weightIn
p22
assVwtMatrix[1]
p23
(dp24
g3
I00
sg8
(lp25
g10
aVwtMatrix[1].weightIn
p26
assg26
(dp27
g3
I00
sg8
(lp28
ssVwtMatrix
p29
(dp30
g3
I01
sg4
I01
sg7
I00
sg5
VTdataCompound
p31
ssVwtMatrix.weightIn
p32
(dp33
S'attrParentLongName'
p34
VwtMatrix
p35
ssg21
(dp36
g3
I00
sg8
(lp37
ssVbinMembership
p38
(dp39
g3
I00
sg5
Vstring
p40
sg4
I00
sg16
I00
sg7
I01
sg8
(lp41
ssg22
(dp42
g3
I00
sg8
(lp43
ssVmatrixSum
p44
(dp45
g3
I00
sg4
I00
sg5
Vmatrix
p46
sg7
I00
sg8
(lp47
ssVwtMatrix.matrixIn
p48
(dp49
g34
VwtMatrix
p50
ssVcaching
p51
(dp52
g3
I00
sg5
Vbool
p53
sg4
I00
sg16
I00
sg7
I01
sg8
(lp54
ss.