(dp0
VrotateOrder
p1
(dp2
S'isArray'
p3
I00
sS'attrType'
p4
Venum
p5
sS'attrChildrenNames'
p6
(lp7
sS'isMulti'
p8
I00
sS'isCompound'
p9
I00
sS'isSimple'
p10
I01
sS'attrChildrenLongNames'
p11
(lp12
sS'isElement'
p13
I00
ssVtarget[1].targetParentMatrix
p14
(dp15
S'isArray'
p16
I00
sS'attrType'
p17
NsS'isSimple'
p18
I00
sS'attrChildrenLongNames'
p19
(lp20
ssVtarget[0].targetTranslate.targetTranslateZ
p21
(dp22
S'isArray'
p23
I00
sS'attrParentLongName'
p24
Vtarget[0].targetTranslate
p25
sS'attrChildrenNames'
p26
(lp27
sS'attrType'
p28
VdoubleLinear
p29
sS'isMulti'
p30
I00
sS'isWritable'
p31
NsS'isCompound'
p32
I00
sg18
I01
sg19
(lp33
sS'isElement'
p34
I00
ssVtarget[0].targetTranslate.targetTranslateY
p35
(dp36
S'isArray'
p37
I00
sS'attrParentLongName'
p38
Vtarget[0].targetTranslate
p39
sS'attrChildrenNames'
p40
(lp41
sg28
VdoubleLinear
p42
sS'isMulti'
p43
I00
sg31
NsS'isCompound'
p44
I00
sg18
I01
sg19
(lp45
sS'isElement'
p46
I00
ssVtarget[0].targetTranslate.targetTranslateX
p47
(dp48
S'isArray'
p49
I00
sS'attrParentLongName'
p50
Vtarget[0].targetTranslate
p51
sS'attrChildrenNames'
p52
(lp53
sg28
VdoubleLinear
p54
sS'isMulti'
p55
I00
sg31
NsS'isCompound'
p56
I00
sg18
I01
sg19
(lp57
sS'isElement'
p58
I00
ssVminTransLimitEnable.minTransYLimitEnable
p59
(dp60
S'isArray'
p61
I00
sg4
Vbool
p62
sS'isMulti'
p63
I00
sS'isCompound'
p64
I00
sg10
I01
sg11
(lp65
ssVrenderLayerInfo.renderLayerRenderable
p66
(dp67
S'attrParentLongName'
p68
VrenderLayerInfo
p69
ssVtarget.targetRotateTranslateZ
p70
(dp71
g68
Vtarget.targetRotateTranslate
p72
ssVtarget.targetRotateTranslateX
p73
(dp74
g68
Vtarget.targetRotateTranslate
p75
ssVtarget.targetRotateTranslateY
p76
(dp77
g68
Vtarget.targetRotateTranslate
p78
ssVupVector.upVectorX
p79
(dp80
S'isArray'
p81
I00
sS'attrParentLongName'
p82
VupVector
p83
sS'attrChildrenNames'
p84
(lp85
sg28
Vdouble
p86
sS'isMulti'
p87
I00
sS'isCompound'
p88
I00
sg18
I01
sg19
(lp89
sS'isElement'
p90
I00
ssVboundingBox.boundingBoxMin.boundingBoxMinY
p91
(dp92
S'isArray'
p93
I00
sS'attrParentLongName'
p94
VboundingBox.boundingBoxMin
p95
sS'attrChildrenNames'
p96
(lp97
sg4
VdoubleLinear
p98
sS'isMulti'
p99
I00
sS'isCompound'
p100
I00
sg10
I01
sg11
(lp101
sS'isElement'
p102
I00
ssVboundingBox.boundingBoxMin.boundingBoxMinX
p103
(dp104
S'isArray'
p105
I00
sS'attrParentLongName'
p106
VboundingBox.boundingBoxMin
p107
sS'attrChildrenNames'
p108
(lp109
sg4
VdoubleLinear
p110
sS'isMulti'
p111
I00
sS'isCompound'
p112
I00
sg10
I01
sg11
(lp113
sS'isElement'
p114
I00
ssVboundingBox.boundingBoxMin.boundingBoxMinZ
p115
(dp116
S'isArray'
p117
I00
sS'attrParentLongName'
p118
VboundingBox.boundingBoxMin
p119
sS'attrChildrenNames'
p120
(lp121
sg4
VdoubleLinear
p122
sS'isMulti'
p123
I00
sS'isCompound'
p124
I00
sg10
I01
sg11
(lp125
sS'isElement'
p126
I00
ssVminRotLimitEnable.minRotYLimitEnable
p127
(dp128
g61
I00
sg4
Vbool
p129
sg63
I00
sg64
I00
sg10
I01
sg11
(lp130
ssVselectHandle
p131
(dp132
S'isArray'
p133
I00
sg4
Vdouble3
p134
sS'attrChildrenNames'
p135
(lp136
VselectHandle.selectHandleX
p137
aVselectHandle.selectHandleY
p138
aVselectHandle.selectHandleZ
p139
asS'isMulti'
p140
I00
sS'isCompound'
p141
I01
sg10
I01
sg11
(lp142
VselectHandle.selectHandleX
p143
aVselectHandle.selectHandleY
p144
aVselectHandle.selectHandleZ
p145
asS'isElement'
p146
I00
ssVrotateQuaternion.rotateQuaternionZ
p147
(dp148
S'isArray'
p149
I00
sS'attrParentLongName'
p150
VrotateQuaternion
p151
sS'attrChildrenNames'
p152
(lp153
sg4
Vdouble
p154
sS'isMulti'
p155
I00
sS'isCompound'
p156
I00
sg10
I01
sg11
(lp157
sS'isElement'
p158
I00
ssVrenderLayerInfo[0].renderLayerId
p159
(dp160
S'isArray'
p161
I00
sS'attrParentLongName'
p162
VrenderLayerInfo[0]
p163
sS'attrChildrenNames'
p164
(lp165
sg17
Vshort
p166
sg10
I00
sg11
(lp167
sS'isElement'
p168
I00
ssVrotateQuaternion.rotateQuaternionX
p169
(dp170
S'isArray'
p171
I00
sS'attrParentLongName'
p172
VrotateQuaternion
p173
sS'attrChildrenNames'
p174
(lp175
sg4
Vdouble
p176
sS'isMulti'
p177
I00
sS'isCompound'
p178
I00
sg10
I01
sg11
(lp179
sS'isElement'
p180
I00
ssVrotateQuaternion.rotateQuaternionY
p181
(dp182
S'isArray'
p183
I00
sS'attrParentLongName'
p184
VrotateQuaternion
p185
sS'attrChildrenNames'
p186
(lp187
sg4
Vdouble
p188
sS'isMulti'
p189
I00
sS'isCompound'
p190
I00
sg10
I01
sg11
(lp191
sS'isElement'
p192
I00
ssVminScaleLimit.minScaleXLimit
p193
(dp194
g61
I00
sg4
Vdouble
p195
sg63
I00
sg64
I00
sg10
I01
sg11
(lp196
ssVrotateQuaternion.rotateQuaternionW
p197
(dp198
S'isArray'
p199
I00
sS'attrParentLongName'
p200
VrotateQuaternion
p201
sS'attrChildrenNames'
p202
(lp203
sg4
Vdouble
p204
sS'isMulti'
p205
I00
sS'isCompound'
p206
I00
sg10
I01
sg11
(lp207
sS'isElement'
p208
I00
ssVtemplatePath
p209
(dp210
S'isArray'
p211
I00
sg4
Vstring
p212
sS'attrChildrenNames'
p213
(lp214
sS'isMulti'
p215
I00
sS'isCompound'
p216
I00
sg10
I01
sg11
(lp217
sS'isElement'
p218
I00
ssVminTransLimit
p219
(dp220
g61
I00
sg4
Vdouble3
p221
sg63
I00
sg64
I01
sg10
I01
sg11
(lp222
VminTransLimit.minTransXLimit
p223
aVminTransLimit.minTransYLimit
p224
aVminTransLimit.minTransZLimit
p225
assVminRotLimit
p226
(dp227
g61
I00
sg4
Vdouble3
p228
sg63
I00
sg64
I01
sg10
I01
sg11
(lp229
VminRotLimit.minRotXLimit
p230
aVminRotLimit.minRotYLimit
p231
aVminRotLimit.minRotZLimit
p232
assVconstraintRotate
p233
(dp234
S'isArray'
p235
I00
sg28
Vdouble3
p236
sS'attrChildrenNames'
p237
(lp238
VconstraintRotate.constraintRotateX
p239
aVconstraintRotate.constraintRotateY
p240
aVconstraintRotate.constraintRotateZ
p241
asS'isMulti'
p242
I00
sS'isCompound'
p243
I01
sg18
I01
sg19
(lp244
VconstraintRotate.constraintRotateX
p245
aVconstraintRotate.constraintRotateY
p246
aVconstraintRotate.constraintRotateZ
p247
asS'isElement'
p248
I00
ssVmaxTransLimitEnable.maxTransYLimitEnable
p249
(dp250
g61
I00
sg4
Vbool
p251
sg63
I00
sg64
I00
sg10
I01
sg11
(lp252
ssVlockOutput
p253
(dp254
S'isArray'
p255
I00
sg4
Vbool
p256
sS'attrChildrenNames'
p257
(lp258
sS'isMulti'
p259
I00
sS'isCompound'
p260
I00
sg10
I01
sg11
(lp261
sS'isElement'
p262
I00
ssVconstraintParentInverseMatrix
p263
(dp264
S'isArray'
p265
I00
sg28
Vmatrix
p266
sS'attrChildrenNames'
p267
(lp268
sS'isMulti'
p269
I00
sS'isCompound'
p270
I00
sg18
I00
sg19
(lp271
sS'isElement'
p272
I00
ssVmaxScaleLimitEnable.maxScaleYLimitEnable
p273
(dp274
g61
I00
sg4
Vbool
p275
sg63
I00
sg64
I00
sg10
I01
sg11
(lp276
ssVuseOutlinerColor
p277
(dp278
S'isArray'
p279
I00
sg17
Vbool
p280
sS'isSimple'
p281
I01
sS'attrChildrenLongNames'
p282
(lp283
ssVparentMatrix[0]
p284
(dp285
g61
I00
sg17
Nsg10
I00
sg11
(lp286
ssVinstObjGroups[0].objectGroups[0]
p287
(dp288
g61
I00
sg17
VTdataCompound
p289
sg10
I00
sg11
(lp290
VinstObjGroups[0].objectGroups[0].objectGrpCompList
p291
aVinstObjGroups[0].objectGroups[0].objectGroupId
p292
aVinstObjGroups[0].objectGroups[0].objectGrpColor
p293
assVconstraintTranslate
p294
(dp295
S'isArray'
p296
I00
sg28
Vdouble3
p297
sS'attrChildrenNames'
p298
(lp299
VconstraintTranslate.constraintTranslateX
p300
aVconstraintTranslate.constraintTranslateY
p301
aVconstraintTranslate.constraintTranslateZ
p302
asS'isMulti'
p303
I00
sS'isCompound'
p304
I01
sg18
I01
sg19
(lp305
VconstraintTranslate.constraintTranslateX
p306
aVconstraintTranslate.constraintTranslateY
p307
aVconstraintTranslate.constraintTranslateZ
p308
asS'isElement'
p309
I00
ssVdynamics
p310
(dp311
S'isArray'
p312
I00
sg4
Vbool
p313
sS'attrChildrenNames'
p314
(lp315
sS'isMulti'
p316
I00
sS'isCompound'
p317
I00
sg10
I01
sg11
(lp318
sS'isElement'
p319
I00
ssVmaxTransLimit.maxTransZLimit
p320
(dp321
g61
I00
sg4
VdoubleLinear
p322
sg63
I00
sg64
I00
sg10
I01
sg11
(lp323
ssVoffset.offsetZ
p324
(dp325
S'isArray'
p326
I00
sS'attrParentLongName'
p327
Voffset
p328
sS'attrChildrenNames'
p329
(lp330
sg4
VdoubleAngle
p331
sS'isMulti'
p332
I00
sS'isCompound'
p333
I00
sg10
I01
sg11
(lp334
sS'isElement'
p335
I00
ssVoffset.offsetX
p336
(dp337
S'isArray'
p338
I00
sS'attrParentLongName'
p339
Voffset
p340
sS'attrChildrenNames'
p341
(lp342
sg4
VdoubleAngle
p343
sS'isMulti'
p344
I00
sS'isCompound'
p345
I00
sg10
I01
sg11
(lp346
sS'isElement'
p347
I00
ssVoffset.offsetY
p348
(dp349
S'isArray'
p350
I00
sS'attrParentLongName'
p351
Voffset
p352
sS'attrChildrenNames'
p353
(lp354
sg4
VdoubleAngle
p355
sS'isMulti'
p356
I00
sS'isCompound'
p357
I00
sg10
I01
sg11
(lp358
sS'isElement'
p359
I00
ssVrotatePivot
p360
(dp361
S'isArray'
p362
I00
sg4
Vdouble3
p363
sS'attrChildrenNames'
p364
(lp365
VrotatePivot.rotatePivotX
p366
aVrotatePivot.rotatePivotY
p367
aVrotatePivot.rotatePivotZ
p368
asS'isMulti'
p369
I00
sS'isCompound'
p370
I01
sg10
I01
sg11
(lp371
VrotatePivot.rotatePivotX
p372
aVrotatePivot.rotatePivotY
p373
aVrotatePivot.rotatePivotZ
p374
asS'isElement'
p375
I00
ssVtemplate
p376
(dp377
S'isArray'
p378
I00
sg4
Vbool
p379
sS'attrChildrenNames'
p380
(lp381
sS'isMulti'
p382
I00
sS'isCompound'
p383
I00
sg10
I01
sg11
(lp384
sS'isElement'
p385
I00
ssVtarget[2]
p386
(dp387
g16
I00
sg17
VTdataCompound
p388
sg18
I00
sg19
(lp389
Vtarget[2].targetTranslate
p390
aVtarget[2].targetRotatePivot
p391
aVtarget[2].targetRotateTranslate
p392
aVtarget[2].targetParentMatrix
p393
aVtarget[2].targetWeight
p394
assVoutlinerColor.outlinerColorG
p395
(dp396
g279
I00
sg17
Vfloat
p397
sg281
I01
sg282
(lp398
ssVoutlinerColor.outlinerColorB
p399
(dp400
g279
I00
sg17
Vfloat
p401
sg281
I01
sg282
(lp402
ssVparentInverseMatrix[1]
p403
(dp404
g61
I00
sg17
Nsg10
I00
sg11
(lp405
ssg223
(dp406
g61
I00
sg4
VdoubleLinear
p407
sg63
I00
sg64
I00
sg10
I01
sg11
(lp408
ssVdisplayScalePivot
p409
(dp410
S'isArray'
p411
I00
sg4
Vbool
p412
sS'attrChildrenNames'
p413
(lp414
sS'isMulti'
p415
I00
sS'isCompound'
p416
I00
sg10
I01
sg11
(lp417
sS'isElement'
p418
I00
ssVtarget[0].targetRotateTranslate
p419
(dp420
S'isArray'
p421
I00
sS'attrParentLongName'
p422
Vtarget[0]
p423
sS'attrChildrenNames'
p424
(lp425
Vtarget[0].targetRotateTranslate.targetRotateTranslateX
p426
aVtarget[0].targetRotateTranslate.targetRotateTranslateY
p427
aVtarget[0].targetRotateTranslate.targetRotateTranslateZ
p428
asg28
Vdouble3
p429
sS'isMulti'
p430
I00
sS'isCompound'
p431
I01
sg18
I01
sg19
(lp432
Vtarget[0].targetRotateTranslate.targetRotateTranslateX
p433
aVtarget[0].targetRotateTranslate.targetRotateTranslateY
p434
aVtarget[0].targetRotateTranslate.targetRotateTranslateZ
p435
asS'isElement'
p436
I00
ssVmentalRayControls.miHide
p437
(dp438
S'isArray'
p439
I00
sS'attrParentLongName'
p440
VmentalRayControls
p441
sS'attrChildrenNames'
p442
(lp443
sg4
Vbool
p444
sS'isMulti'
p445
I00
sS'isCompound'
p446
I00
sg10
I01
sg11
(lp447
sS'isElement'
p448
I00
ssVinstObjGroups.objectGroups
p449
(dp450
g68
VinstObjGroups
p451
ssVpublishedNodeInfo
p452
(dp453
S'isArray'
p454
I01
sS'isElement'
p455
I00
sg4
VTdataCompound
p456
sg10
I00
sS'isMulti'
p457
I01
ssVdrawOverride.overrideTexturing
p458
(dp459
S'isArray'
p460
I00
sS'attrParentLongName'
p461
VdrawOverride
p462
sS'attrChildrenNames'
p463
(lp464
sg4
Vbool
p465
sS'isMulti'
p466
I00
sS'isCompound'
p467
I00
sg10
I01
sg11
(lp468
sS'isElement'
p469
I00
ssg393
(dp470
g16
I00
sg17
Nsg18
I00
sg19
(lp471
ssVconstraintTranslate.constraintTranslateZ
p472
(dp473
S'isArray'
p474
I00
sS'attrParentLongName'
p475
VconstraintTranslate
p476
sS'attrChildrenNames'
p477
(lp478
sg28
VdoubleLinear
p479
sS'isMulti'
p480
I00
sg31
NsS'isCompound'
p481
I00
sg18
I01
sg19
(lp482
sS'isElement'
p483
I00
ssVconstraintRotatePivot
p484
(dp485
S'isArray'
p486
I00
sg28
Vdouble3
p487
sS'attrChildrenNames'
p488
(lp489
VconstraintRotatePivot.constraintRotatePivotX
p490
aVconstraintRotatePivot.constraintRotatePivotY
p491
aVconstraintRotatePivot.constraintRotatePivotZ
p492
asS'isMulti'
p493
I00
sS'isCompound'
p494
I01
sg18
I01
sg19
(lp495
VconstraintRotatePivot.constraintRotatePivotX
p496
aVconstraintRotatePivot.constraintRotatePivotY
p497
aVconstraintRotatePivot.constraintRotatePivotZ
p498
asS'isElement'
p499
I00
ssVconstraintTranslate.constraintTranslateX
p500
(dp501
S'isArray'
p502
I00
sS'attrParentLongName'
p503
VconstraintTranslate
p504
sS'attrChildrenNames'
p505
(lp506
sg28
VdoubleLinear
p507
sS'isMulti'
p508
I00
sg31
NsS'isCompound'
p509
I00
sg18
I01
sg19
(lp510
sS'isElement'
p511
I00
ssVconstraintTranslate.constraintTranslateY
p512
(dp513
S'isArray'
p514
I00
sS'attrParentLongName'
p515
VconstraintTranslate
p516
sS'attrChildrenNames'
p517
(lp518
sg28
VdoubleLinear
p519
sS'isMulti'
p520
I00
sg31
NsS'isCompound'
p521
I00
sg18
I01
sg19
(lp522
sS'isElement'
p523
I00
ssVdrawOverride.overrideColorRGB
p524
(dp525
S'attrParentLongName'
p526
VdrawOverride
p527
ssVdisplayHandle
p528
(dp529
S'isArray'
p530
I00
sg4
Vbool
p531
sS'attrChildrenNames'
p532
(lp533
sS'isMulti'
p534
I00
sS'isCompound'
p535
I00
sg10
I01
sg11
(lp536
sS'isElement'
p537
I00
ssVselectionChildHighlighting
p538
(dp539
g279
I00
sg17
Vbool
p540
sg281
I01
sg282
(lp541
ssVminRotLimitEnable.minRotXLimitEnable
p542
(dp543
g61
I00
sg4
Vbool
p544
sg63
I00
sg64
I00
sg10
I01
sg11
(lp545
ssg224
(dp546
g61
I00
sg4
VdoubleLinear
p547
sg63
I00
sg64
I00
sg10
I01
sg11
(lp548
ssVinverseScale.inverseScaleX
p549
(dp550
g279
I00
sg17
Vdouble
p551
sg281
I01
sg282
(lp552
ssVinverseScale.inverseScaleY
p553
(dp554
g279
I00
sg17
Vdouble
p555
sg281
I01
sg282
(lp556
ssVinverseScale.inverseScaleZ
p557
(dp558
g279
I00
sg17
Vdouble
p559
sg281
I01
sg282
(lp560
ssVtarget.targetRotateTranslate
p561
(dp562
S'attrParentLongName'
p563
Vtarget
p564
ssVrotateQuaternion
p565
(dp566
S'isArray'
p567
I00
sg4
Vdouble4
p568
sS'attrChildrenNames'
p569
(lp570
VrotateQuaternion.rotateQuaternionX
p571
aVrotateQuaternion.rotateQuaternionY
p572
aVrotateQuaternion.rotateQuaternionZ
p573
aVrotateQuaternion.rotateQuaternionW
p574
asS'isMulti'
p575
I00
sS'isCompound'
p576
I01
sg10
I00
sg11
(lp577
VrotateQuaternion.rotateQuaternionX
p578
aVrotateQuaternion.rotateQuaternionY
p579
aVrotateQuaternion.rotateQuaternionZ
p580
aVrotateQuaternion.rotateQuaternionW
p581
asS'isElement'
p582
I00
ssg392
(dp583
g16
I00
sg17
Vdouble3
p584
sg18
I00
sg19
(lp585
Vtarget[2].targetRotateTranslate.targetRotateTranslateX
p586
aVtarget[2].targetRotateTranslate.targetRotateTranslateY
p587
aVtarget[2].targetRotateTranslate.targetRotateTranslateZ
p588
assVtransMinusRotatePivot.transMinusRotatePivotX
p589
(dp590
S'isArray'
p591
I00
sS'attrParentLongName'
p592
VtransMinusRotatePivot
p593
sS'attrChildrenNames'
p594
(lp595
sg4
VdoubleLinear
p596
sS'isMulti'
p597
I00
sS'isCompound'
p598
I00
sg10
I01
sg11
(lp599
sS'isElement'
p600
I00
ssVworldUpVector
p601
(dp602
S'isArray'
p603
I00
sg28
Vdouble3
p604
sS'attrChildrenNames'
p605
(lp606
VworldUpVector.worldUpVectorX
p607
aVworldUpVector.worldUpVectorY
p608
aVworldUpVector.worldUpVectorZ
p609
asS'isMulti'
p610
I00
sS'isCompound'
p611
I01
sg18
I01
sg19
(lp612
VworldUpVector.worldUpVectorX
p613
aVworldUpVector.worldUpVectorY
p614
aVworldUpVector.worldUpVectorZ
p615
asS'isElement'
p616
I00
ssVrotationInterpolation
p617
(dp618
S'isArray'
p619
I00
sg4
Venum
p620
sS'attrChildrenNames'
p621
(lp622
sS'isMulti'
p623
I00
sS'isCompound'
p624
I00
sg10
I01
sg11
(lp625
sS'isElement'
p626
I00
ssVminScaleLimit.minScaleYLimit
p627
(dp628
g61
I00
sg4
Vdouble
p629
sg63
I00
sg64
I00
sg10
I01
sg11
(lp630
ssVinstObjGroups[2].objectGroups
p631
(dp632
S'isArray'
p633
I01
sS'isSimple'
p634
I00
ssVtarget.targetTranslateY
p635
(dp636
g68
Vtarget.targetTranslate
p637
ssVtarget.targetTranslateX
p638
(dp639
g68
Vtarget.targetTranslate
p640
ssVtarget.targetTranslateZ
p641
(dp642
g68
Vtarget.targetTranslate
p643
ssVtarget[1].targetRotateTranslate.targetRotateTranslateY
p644
(dp645
g16
I00
sg17
VdoubleLinear
p646
sg18
I00
sg19
(lp647
ssVshear.shearXZ
p648
(dp649
S'isArray'
p650
I00
sS'attrParentLongName'
p651
Vshear
p652
sS'attrChildrenNames'
p653
(lp654
sg4
Vdouble
p655
sS'isMulti'
p656
I00
sS'isCompound'
p657
I00
sg10
I01
sg11
(lp658
sS'isElement'
p659
I00
ssVshear.shearXY
p660
(dp661
S'isArray'
p662
I00
sS'attrParentLongName'
p663
Vshear
p664
sS'attrChildrenNames'
p665
(lp666
sg4
Vdouble
p667
sS'isMulti'
p668
I00
sS'isCompound'
p669
I00
sg10
I01
sg11
(lp670
sS'isElement'
p671
I00
ssVvisibility
p672
(dp673
S'isArray'
p674
I00
sg4
Vbool
p675
sS'attrChildrenNames'
p676
(lp677
sS'isMulti'
p678
I00
sS'isCompound'
p679
I00
sg10
I01
sg11
(lp680
sS'isElement'
p681
I00
ssVenableRestPosition
p682
(dp683
S'isArray'
p684
I00
sg4
Vbool
p685
sS'attrChildrenNames'
p686
(lp687
sS'isMulti'
p688
I00
sS'isCompound'
p689
I00
sg10
I01
sg11
(lp690
sS'isElement'
p691
I00
ssVrenderInfo.layerOverrideColor
p692
(dp693
S'isArray'
p694
I00
sS'attrParentLongName'
p695
VrenderInfo
p696
sS'attrChildrenNames'
p697
(lp698
sg4
Vbyte
p699
sS'isMulti'
p700
I00
sS'isCompound'
p701
I00
sg10
I00
sg11
(lp702
sS'isElement'
p703
I00
ssVdrawOverride.overrideColorRGB.overrideColorR
p704
(dp705
g526
VdrawOverride.overrideColorRGB
p706
ssVdisplayRotatePivot
p707
(dp708
S'isArray'
p709
I00
sg4
Vbool
p710
sS'attrChildrenNames'
p711
(lp712
sS'isMulti'
p713
I00
sS'isCompound'
p714
I00
sg10
I01
sg11
(lp715
sS'isElement'
p716
I00
ssVdrawOverride.overrideColorRGB.overrideColorG
p717
(dp718
g526
VdrawOverride.overrideColorRGB
p719
ssVmaxTransLimitEnable.maxTransXLimitEnable
p720
(dp721
g61
I00
sg4
Vbool
p722
sg63
I00
sg64
I00
sg10
I01
sg11
(lp723
ssVinstObjGroups[0]
p724
(dp725
g61
I00
sg17
VTdataCompound
p726
sg10
I00
sg11
(lp727
VinstObjGroups[0].objectGroups
p728
assVdrawOverride.overrideColorRGB.overrideColorB
p729
(dp730
g526
VdrawOverride.overrideColorRGB
p731
ssVmentalRayControls.miCaustic
p732
(dp733
S'isArray'
p734
I00
sS'attrParentLongName'
p735
VmentalRayControls
p736
sS'attrChildrenNames'
p737
(lp738
sg4
Venum
p739
sS'isMulti'
p740
I00
sS'isCompound'
p741
I00
sg10
I01
sg11
(lp742
sS'isElement'
p743
I00
ssVpublishedNodeInfo[0].isHierarchicalNode
p744
(dp745
S'isArray'
p746
I00
sS'attrParentLongName'
p747
VpublishedNodeInfo[0]
p748
sS'attrChildrenNames'
p749
(lp750
sg10
I00
sg11
(lp751
sS'isElement'
p752
I00
ssVboundingBox.boundingBoxSize.boundingBoxSizeY
p753
(dp754
S'isArray'
p755
I00
sS'attrParentLongName'
p756
VboundingBox.boundingBoxSize
p757
sS'attrChildrenNames'
p758
(lp759
sg4
VdoubleLinear
p760
sS'isMulti'
p761
I00
sS'isCompound'
p762
I00
sg10
I01
sg11
(lp763
sS'isElement'
p764
I00
ssVboundingBox.boundingBoxSize.boundingBoxSizeX
p765
(dp766
S'isArray'
p767
I00
sS'attrParentLongName'
p768
VboundingBox.boundingBoxSize
p769
sS'attrChildrenNames'
p770
(lp771
sg4
VdoubleLinear
p772
sS'isMulti'
p773
I00
sS'isCompound'
p774
I00
sg10
I01
sg11
(lp775
sS'isElement'
p776
I00
ssVmentalRayControls.miExportGeoShader
p777
(dp778
S'isArray'
p779
I00
sS'attrParentLongName'
p780
VmentalRayControls
p781
sS'attrChildrenNames'
p782
(lp783
sg4
Vbool
p784
sS'isMulti'
p785
I00
sS'isCompound'
p786
I00
sg10
I01
sg11
(lp787
sS'isElement'
p788
I00
ssVboundingBox.boundingBoxSize.boundingBoxSizeZ
p789
(dp790
S'isArray'
p791
I00
sS'attrParentLongName'
p792
VboundingBox.boundingBoxSize
p793
sS'attrChildrenNames'
p794
(lp795
sg4
VdoubleLinear
p796
sS'isMulti'
p797
I00
sS'isCompound'
p798
I00
sg10
I01
sg11
(lp799
sS'isElement'
p800
I00
ssVtemplateName
p801
(dp802
S'isArray'
p803
I00
sg4
Vstring
p804
sS'attrChildrenNames'
p805
(lp806
sS'isMulti'
p807
I00
sS'isCompound'
p808
I00
sg10
I01
sg11
(lp809
sS'isElement'
p810
I00
ssVghostingControl
p811
(dp812
S'isArray'
p813
I00
sg4
Venum
p814
sS'attrChildrenNames'
p815
(lp816
sS'isMulti'
p817
I00
sS'isCompound'
p818
I00
sg10
I01
sg11
(lp819
sS'isElement'
p820
I00
ssVtarget[1].targetTranslate.targetTranslateZ
p821
(dp822
g16
I00
sg17
VdoubleLinear
p823
sg18
I00
sg19
(lp824
ssVminScaleLimitEnable
p825
(dp826
g61
I00
sg4
VTdataCompound
p827
sg11
(lp828
VminScaleLimitEnable.minScaleXLimitEnable
p829
aVminScaleLimitEnable.minScaleYLimitEnable
p830
aVminScaleLimitEnable.minScaleZLimitEnable
p831
asg10
I00
sg63
I00
ssVmentalRayControls.miDeriveFromMaya
p832
(dp833
S'isArray'
p834
I00
sS'attrParentLongName'
p835
VmentalRayControls
p836
sS'attrChildrenNames'
p837
(lp838
sg4
Vbool
p839
sS'isMulti'
p840
I00
sS'isCompound'
p841
I00
sg10
I01
sg11
(lp842
sS'isElement'
p843
I00
ssVtarget[1].targetTranslate.targetTranslateY
p844
(dp845
g16
I00
sg17
VdoubleLinear
p846
sg18
I00
sg19
(lp847
ssVdrawOverride.overrideDisplayType
p848
(dp849
S'isArray'
p850
I00
sS'attrParentLongName'
p851
VdrawOverride
p852
sS'attrChildrenNames'
p853
(lp854
sg4
Venum
p855
sS'isMulti'
p856
I00
sS'isCompound'
p857
I00
sg10
I01
sg11
(lp858
sS'isElement'
p859
I00
ssg394
(dp860
g16
I00
sg17
Vdouble
p861
sg18
I00
sg19
(lp862
ssVnodeState
p863
(dp864
S'isArray'
p865
I00
sg4
Venum
p866
sS'attrChildrenNames'
p867
(lp868
sS'isMulti'
p869
I00
sS'isCompound'
p870
I00
sg10
I01
sg11
(lp871
sS'isElement'
p872
I00
ssVhiddenInOutliner
p873
(dp874
g279
I00
sg17
Vbool
p875
sg281
I01
sg282
(lp876
ssVminRotLimitEnable
p877
(dp878
g61
I00
sg4
VTdataCompound
p879
sg11
(lp880
g542
ag127
aVminRotLimitEnable.minRotZLimitEnable
p881
asg10
I00
sg63
I00
ssVworldMatrix[1]
p882
(dp883
g61
I00
sg17
Nsg10
I00
sg11
(lp884
ssVscalePivotTranslate.scalePivotTranslateZ
p885
(dp886
S'isArray'
p887
I00
sS'attrParentLongName'
p888
VscalePivotTranslate
p889
sS'attrChildrenNames'
p890
(lp891
sg4
VdoubleLinear
p892
sS'isMulti'
p893
I00
sS'isCompound'
p894
I00
sg10
I01
sg11
(lp895
sS'isElement'
p896
I00
ssVworldUpType
p897
(dp898
S'isArray'
p899
I00
sg28
Venum
p900
sS'attrChildrenNames'
p901
(lp902
sS'isMulti'
p903
I00
sS'isCompound'
p904
I00
sg18
I01
sg19
(lp905
sS'isElement'
p906
I00
ssVscalePivotTranslate.scalePivotTranslateX
p907
(dp908
S'isArray'
p909
I00
sS'attrParentLongName'
p910
VscalePivotTranslate
p911
sS'attrChildrenNames'
p912
(lp913
sg4
VdoubleLinear
p914
sS'isMulti'
p915
I00
sS'isCompound'
p916
I00
sg10
I01
sg11
(lp917
sS'isElement'
p918
I00
ssVscalePivotTranslate.scalePivotTranslateY
p919
(dp920
S'isArray'
p921
I00
sS'attrParentLongName'
p922
VscalePivotTranslate
p923
sS'attrChildrenNames'
p924
(lp925
sg4
VdoubleLinear
p926
sS'isMulti'
p927
I00
sS'isCompound'
p928
I00
sg10
I01
sg11
(lp929
sS'isElement'
p930
I00
ssVminTransLimitEnable
p931
(dp932
g61
I00
sg4
VTdataCompound
p933
sg11
(lp934
VminTransLimitEnable.minTransXLimitEnable
p935
ag59
aVminTransLimitEnable.minTransZLimitEnable
p936
asg10
I00
sg63
I00
ssVparentInverseMatrix[2]
p937
(dp938
g633
I00
sg634
I00
sS'attrChildrenLongNames'
p939
(lp940
ssVghostFrames
p941
(dp942
S'isArray'
p943
I00
sg4
NsS'attrChildrenNames'
p944
(lp945
sS'isMulti'
p946
I00
sS'isCompound'
p947
I00
sg10
I00
sg11
(lp948
sS'isElement'
p949
I00
ssVinstObjGroups[0].objectGroups[0].objectGrpColor
p950
(dp951
S'isArray'
p952
I00
sS'attrParentLongName'
p953
VinstObjGroups[0].objectGroups[0]
p954
sS'attrChildrenNames'
p955
(lp956
sg17
Vshort
p957
sg10
I00
sg11
(lp958
sS'isElement'
p959
I00
ssVtarget.targetWeight
p960
(dp961
g563
Vtarget
p962
ssVdrawOverride.overrideColor
p963
(dp964
S'isArray'
p965
I00
sS'attrParentLongName'
p966
VdrawOverride
p967
sS'attrChildrenNames'
p968
(lp969
sg4
Vbyte
p970
sS'isMulti'
p971
I00
sS'isCompound'
p972
I00
sg10
I00
sg11
(lp973
sS'isElement'
p974
I00
ssVrenderLayerInfo.renderLayerId
p975
(dp976
g68
VrenderLayerInfo
p977
ssVrenderLayerInfo[1].renderLayerColor
p978
(dp979
g61
I00
sg17
Vbyte
p980
sg10
I00
sg11
(lp981
ssVtarget.targetParentMatrix
p982
(dp983
g563
Vtarget
p984
ssVcustomTreatment
p985
(dp986
S'isArray'
p987
I00
sg4
Vstring
p988
sS'attrChildrenNames'
p989
(lp990
sS'isMulti'
p991
I00
sS'isCompound'
p992
I00
sg10
I01
sg11
(lp993
sS'isElement'
p994
I00
ssVshear
p995
(dp996
S'isArray'
p997
I00
sg4
Vdouble3
p998
sS'attrChildrenNames'
p999
(lp1000
Vshear.shearXY
p1001
aVshear.shearXZ
p1002
aVshear.shearYZ
p1003
asS'isMulti'
p1004
I00
sS'isCompound'
p1005
I01
sg10
I01
sg11
(lp1006
Vshear.shearXY
p1007
aVshear.shearXZ
p1008
aVshear.shearYZ
p1009
asS'isElement'
p1010
I00
ssVinstObjGroups.objectGroups.objectGrpColor
p1011
(dp1012
g68
VinstObjGroups.objectGroups
p1013
ssVcreationDate
p1014
(dp1015
S'isArray'
p1016
I00
sg4
Vstring
p1017
sS'attrChildrenNames'
p1018
(lp1019
sS'isMulti'
p1020
I00
sS'isCompound'
p1021
I00
sg10
I01
sg11
(lp1022
sS'isElement'
p1023
I00
ssVtarget[1].targetTranslate.targetTranslateX
p1024
(dp1025
g16
I00
sg17
VdoubleLinear
p1026
sg18
I00
sg19
(lp1027
ssVisHierarchicalConnection[1]
p1028
(dp1029
g61
I00
sg10
I00
sg11
(lp1030
ssg232
(dp1031
g61
I00
sg4
VdoubleAngle
p1032
sg63
I00
sg64
I00
sg10
I01
sg11
(lp1033
ssVrotatePivot.rotatePivotZ
p1034
(dp1035
S'isArray'
p1036
I00
sS'attrParentLongName'
p1037
VrotatePivot
p1038
sS'attrChildrenNames'
p1039
(lp1040
sg4
VdoubleLinear
p1041
sS'isMulti'
p1042
I00
sS'isCompound'
p1043
I00
sg10
I01
sg11
(lp1044
sS'isElement'
p1045
I00
ssVrotatePivot.rotatePivotX
p1046
(dp1047
S'isArray'
p1048
I00
sS'attrParentLongName'
p1049
VrotatePivot
p1050
sS'attrChildrenNames'
p1051
(lp1052
sg4
VdoubleLinear
p1053
sS'isMulti'
p1054
I00
sS'isCompound'
p1055
I00
sg10
I01
sg11
(lp1056
sS'isElement'
p1057
I00
ssVrotatePivot.rotatePivotY
p1058
(dp1059
S'isArray'
p1060
I00
sS'attrParentLongName'
p1061
VrotatePivot
p1062
sS'attrChildrenNames'
p1063
(lp1064
sg4
VdoubleLinear
p1065
sS'isMulti'
p1066
I00
sS'isCompound'
p1067
I00
sg10
I01
sg11
(lp1068
sS'isElement'
p1069
I00
ssVtarget[0].targetTranslate
p1070
(dp1071
S'isArray'
p1072
I00
sS'attrParentLongName'
p1073
Vtarget[0]
p1074
sS'attrChildrenNames'
p1075
(lp1076
Vtarget[0].targetTranslate.targetTranslateX
p1077
aVtarget[0].targetTranslate.targetTranslateY
p1078
aVtarget[0].targetTranslate.targetTranslateZ
p1079
asg28
Vdouble3
p1080
sS'isMulti'
p1081
I00
sS'isCompound'
p1082
I01
sg18
I01
sg19
(lp1083
Vtarget[0].targetTranslate.targetTranslateX
p1084
aVtarget[0].targetTranslate.targetTranslateY
p1085
aVtarget[0].targetTranslate.targetTranslateZ
p1086
asS'isElement'
p1087
I00
ssVworldMatrix[2]
p1088
(dp1089
g633
I00
sg634
I00
sg939
(lp1090
ssVtarget[2].targetRotatePivot.targetRotatePivotY
p1091
(dp1092
g16
I00
sg17
VdoubleLinear
p1093
sg18
I00
sg19
(lp1094
ssVtarget[2].targetRotatePivot.targetRotatePivotX
p1095
(dp1096
g16
I00
sg17
VdoubleLinear
p1097
sg18
I00
sg19
(lp1098
ssVtarget[2].targetRotatePivot.targetRotatePivotZ
p1099
(dp1100
g16
I00
sg17
VdoubleLinear
p1101
sg18
I00
sg19
(lp1102
ssVinstObjGroups[1].objectGroups
p1103
(dp1104
g61
I01
sg17
VTdataCompound
p1105
sg10
I00
ssVmatrix
p1106
(dp1107
S'isArray'
p1108
I00
sg4
Vmatrix
p1109
sS'attrChildrenNames'
p1110
(lp1111
sS'isMulti'
p1112
I00
sS'isCompound'
p1113
I00
sg10
I00
sg11
(lp1114
sS'isElement'
p1115
I00
ssVdisplayLocalAxis
p1116
(dp1117
S'isArray'
p1118
I00
sg4
Vbool
p1119
sS'attrChildrenNames'
p1120
(lp1121
sS'isMulti'
p1122
I00
sS'isCompound'
p1123
I00
sg10
I01
sg11
(lp1124
sS'isElement'
p1125
I00
ssVselectHandle.selectHandleX
p1126
(dp1127
S'isArray'
p1128
I00
sS'attrParentLongName'
p1129
VselectHandle
p1130
sS'attrChildrenNames'
p1131
(lp1132
sg4
VdoubleLinear
p1133
sS'isMulti'
p1134
I00
sS'isCompound'
p1135
I00
sg10
I01
sg11
(lp1136
sS'isElement'
p1137
I00
ssVselectHandle.selectHandleY
p1138
(dp1139
S'isArray'
p1140
I00
sS'attrParentLongName'
p1141
VselectHandle
p1142
sS'attrChildrenNames'
p1143
(lp1144
sg4
VdoubleLinear
p1145
sS'isMulti'
p1146
I00
sS'isCompound'
p1147
I00
sg10
I01
sg11
(lp1148
sS'isElement'
p1149
I00
ssVselectHandle.selectHandleZ
p1150
(dp1151
S'isArray'
p1152
I00
sS'attrParentLongName'
p1153
VselectHandle
p1154
sS'attrChildrenNames'
p1155
(lp1156
sg4
VdoubleLinear
p1157
sS'isMulti'
p1158
I00
sS'isCompound'
p1159
I00
sg10
I01
sg11
(lp1160
sS'isElement'
p1161
I00
ssVmaxRotLimitEnable.maxRotZLimitEnable
p1162
(dp1163
g61
I00
sg4
Vbool
p1164
sg63
I00
sg64
I00
sg10
I01
sg11
(lp1165
ssVghostColorPreA
p1166
(dp1167
g279
I00
sg17
Vfloat
p1168
sg281
I01
sg282
(lp1169
ssVworldMatrix
p1170
(dp1171
S'isArray'
p1172
I01
sS'isElement'
p1173
I00
sg4
Vmatrix
p1174
sg10
I00
sS'isMulti'
p1175
I01
ssVupVector.upVectorY
p1176
(dp1177
S'isArray'
p1178
I00
sS'attrParentLongName'
p1179
VupVector
p1180
sS'attrChildrenNames'
p1181
(lp1182
sg28
Vdouble
p1183
sS'isMulti'
p1184
I00
sg31
NsS'isCompound'
p1185
I00
sg18
I01
sg19
(lp1186
sS'isElement'
p1187
I00
ssVupVector.upVectorZ
p1188
(dp1189
S'isArray'
p1190
I00
sS'attrParentLongName'
p1191
VupVector
p1192
sS'attrChildrenNames'
p1193
(lp1194
sg28
Vdouble
p1195
sS'isMulti'
p1196
I00
sg31
NsS'isCompound'
p1197
I00
sg18
I01
sg19
(lp1198
sS'isElement'
p1199
I00
ssVcontainerType
p1200
(dp1201
S'isArray'
p1202
I00
sg4
Vstring
p1203
sS'attrChildrenNames'
p1204
(lp1205
sS'isMulti'
p1206
I00
sS'isCompound'
p1207
I00
sg10
I01
sg11
(lp1208
sS'isElement'
p1209
I00
ssVminScaleLimit.minScaleZLimit
p1210
(dp1211
g61
I00
sg4
Vdouble
p1212
sg63
I00
sg64
I00
sg10
I01
sg11
(lp1213
ssVparentInverseMatrix
p1214
(dp1215
S'isArray'
p1216
I01
sS'isElement'
p1217
I00
sg4
Vmatrix
p1218
sg10
I00
sS'isMulti'
p1219
I01
ssg391
(dp1220
g16
I00
sg17
Vdouble3
p1221
sg18
I00
sg19
(lp1222
g1095
ag1091
ag1099
assVrenderInfo.layerRenderable
p1223
(dp1224
S'isArray'
p1225
I00
sS'attrParentLongName'
p1226
VrenderInfo
p1227
sS'attrChildrenNames'
p1228
(lp1229
sg4
Vbool
p1230
sS'isMulti'
p1231
I00
sS'isCompound'
p1232
I00
sg10
I01
sg11
(lp1233
sS'isElement'
p1234
I00
ssVrmbCommand
p1235
(dp1236
g61
I00
sg4
Vstring
p1237
sg63
I00
sg64
I00
sg10
I01
sg11
(lp1238
ssVghostCustomSteps.ghostPreSteps
p1239
(dp1240
S'isArray'
p1241
I00
sS'attrParentLongName'
p1242
VghostCustomSteps
p1243
sS'attrChildrenNames'
p1244
(lp1245
sg4
Vlong
p1246
sS'isMulti'
p1247
I00
sS'isCompound'
p1248
I00
sg10
I01
sg11
(lp1249
sS'isElement'
p1250
I00
ssVpublishedNodeInfo[1].publishedNodeType
p1251
(dp1252
g61
I00
sg10
I00
sg11
(lp1253
ssVgeometry
p1254
(dp1255
S'isArray'
p1256
I00
sg4
NsS'attrChildrenNames'
p1257
(lp1258
sS'isMulti'
p1259
I00
sS'isCompound'
p1260
I00
sg10
I00
sg11
(lp1261
sS'isElement'
p1262
I00
ssVconstraintRotateTranslate
p1263
(dp1264
S'isArray'
p1265
I00
sg28
Vdouble3
p1266
sS'attrChildrenNames'
p1267
(lp1268
VconstraintRotateTranslate.constraintRotateTranslateX
p1269
aVconstraintRotateTranslate.constraintRotateTranslateY
p1270
aVconstraintRotateTranslate.constraintRotateTranslateZ
p1271
asS'isMulti'
p1272
I00
sS'isCompound'
p1273
I01
sg18
I01
sg19
(lp1274
VconstraintRotateTranslate.constraintRotateTranslateX
p1275
aVconstraintRotateTranslate.constraintRotateTranslateY
p1276
aVconstraintRotateTranslate.constraintRotateTranslateZ
p1277
asS'isElement'
p1278
I00
ssVisHierarchicalConnection
p1279
(dp1280
g61
I01
sg4
VTdataCompound
p1281
sg10
I00
sg63
I01
ssVshear.shearYZ
p1282
(dp1283
S'isArray'
p1284
I00
sS'attrParentLongName'
p1285
Vshear
p1286
sS'attrChildrenNames'
p1287
(lp1288
sg4
Vdouble
p1289
sS'isMulti'
p1290
I00
sS'isCompound'
p1291
I00
sg10
I01
sg11
(lp1292
sS'isElement'
p1293
I00
ssg230
(dp1294
g61
I00
sg4
VdoubleAngle
p1295
sg63
I00
sg64
I00
sg10
I01
sg11
(lp1296
ssg587
(dp1297
g16
I00
sg17
VdoubleLinear
p1298
sg18
I00
sg19
(lp1299
ssg586
(dp1300
g16
I00
sg17
VdoubleLinear
p1301
sg18
I00
sg19
(lp1302
ssg588
(dp1303
g16
I00
sg17
VdoubleLinear
p1304
sg18
I00
sg19
(lp1305
ssVxformMatrix
p1306
(dp1307
S'isArray'
p1308
I00
sg4
Vmatrix
p1309
sS'attrChildrenNames'
p1310
(lp1311
sS'isMulti'
p1312
I00
sS'isCompound'
p1313
I00
sg10
I00
sg11
(lp1314
sS'isElement'
p1315
I00
ssVinstObjGroups[1]
p1316
(dp1317
g61
I00
sg17
VTdataCompound
p1318
sg10
I00
sg11
(lp1319
g1103
assVparentMatrix[1]
p1320
(dp1321
g61
I00
sg17
Nsg10
I00
sg11
(lp1322
ssVrenderInfo
p1323
(dp1324
S'isArray'
p1325
I00
sg4
VTdataCompound
p1326
sS'attrChildrenNames'
p1327
(lp1328
VrenderInfo.identification
p1329
aVrenderInfo.layerRenderable
p1330
aVrenderInfo.layerOverrideColor
p1331
asS'isMulti'
p1332
I00
sS'isCompound'
p1333
I01
sg10
I00
sg11
(lp1334
VrenderInfo.identification
p1335
aVrenderInfo.layerRenderable
p1336
aVrenderInfo.layerOverrideColor
p1337
asS'isElement'
p1338
I00
ssVmaxScaleLimit.maxScaleZLimit
p1339
(dp1340
g61
I00
sg4
Vdouble
p1341
sg63
I00
sg64
I00
sg10
I01
sg11
(lp1342
ssVtarget
p1343
(dp1344
S'isArray'
p1345
I01
sS'isElement'
p1346
I00
sg28
VTdataCompound
p1347
sg18
I00
sS'isMulti'
p1348
I01
ssVmaxScaleLimit.maxScaleXLimit
p1349
(dp1350
g61
I00
sg4
Vdouble
p1351
sg63
I00
sg64
I00
sg10
I01
sg11
(lp1352
ssVinverseScale
p1353
(dp1354
g279
I00
sg17
Vdouble3
p1355
sg281
I01
sg282
(lp1356
g549
ag553
ag557
assVscalePivot
p1357
(dp1358
S'isArray'
p1359
I00
sg4
Vdouble3
p1360
sS'attrChildrenNames'
p1361
(lp1362
VscalePivot.scalePivotX
p1363
aVscalePivot.scalePivotY
p1364
aVscalePivot.scalePivotZ
p1365
asS'isMulti'
p1366
I00
sS'isCompound'
p1367
I01
sg10
I01
sg11
(lp1368
VscalePivot.scalePivotX
p1369
aVscalePivot.scalePivotY
p1370
aVscalePivot.scalePivotZ
p1371
asS'isElement'
p1372
I00
ssVscaleCompensate
p1373
(dp1374
g279
I00
sg17
Vbool
p1375
sg281
I01
sg282
(lp1376
ssVworldInverseMatrix[0]
p1377
(dp1378
g61
I00
sg17
Nsg10
I00
sg11
(lp1379
ssVboundingBox.boundingBoxMax.boundingBoxMaxY
p1380
(dp1381
S'isArray'
p1382
I00
sS'attrParentLongName'
p1383
VboundingBox.boundingBoxMax
p1384
sS'attrChildrenNames'
p1385
(lp1386
sg4
VdoubleLinear
p1387
sS'isMulti'
p1388
I00
sS'isCompound'
p1389
I00
sg10
I01
sg11
(lp1390
sS'isElement'
p1391
I00
ssVboundingBox.boundingBoxMax.boundingBoxMaxX
p1392
(dp1393
S'isArray'
p1394
I00
sS'attrParentLongName'
p1395
VboundingBox.boundingBoxMax
p1396
sS'attrChildrenNames'
p1397
(lp1398
sg4
VdoubleLinear
p1399
sS'isMulti'
p1400
I00
sS'isCompound'
p1401
I00
sg10
I01
sg11
(lp1402
sS'isElement'
p1403
I00
ssVboundingBox.boundingBoxMax.boundingBoxMaxZ
p1404
(dp1405
S'isArray'
p1406
I00
sS'attrParentLongName'
p1407
VboundingBox.boundingBoxMax
p1408
sS'attrChildrenNames'
p1409
(lp1410
sg4
VdoubleLinear
p1411
sS'isMulti'
p1412
I00
sS'isCompound'
p1413
I00
sg10
I01
sg11
(lp1414
sS'isElement'
p1415
I00
ssVinstObjGroups[0].objectGroups[1].objectGrpColor
p1416
(dp1417
g61
I00
sg17
Vshort
p1418
sg10
I00
sg11
(lp1419
ssVisCollapsed
p1420
(dp1421
S'isArray'
p1422
I00
sg4
Vbool
p1423
sS'attrChildrenNames'
p1424
(lp1425
sS'isMulti'
p1426
I00
sS'isCompound'
p1427
I00
sg10
I01
sg11
(lp1428
sS'isElement'
p1429
I00
ssg390
(dp1430
g16
I00
sg17
Vdouble3
p1431
sg18
I00
sg19
(lp1432
Vtarget[2].targetTranslate.targetTranslateX
p1433
aVtarget[2].targetTranslate.targetTranslateY
p1434
aVtarget[2].targetTranslate.targetTranslateZ
p1435
assVghostColorPost.ghostColorPostR
p1436
(dp1437
g279
I00
sg17
Vfloat
p1438
sg281
I01
sg282
(lp1439
ssVworldUpMatrix
p1440
(dp1441
S'isArray'
p1442
I00
sg28
Vmatrix
p1443
sS'attrChildrenNames'
p1444
(lp1445
sS'isMulti'
p1446
I00
sS'isCompound'
p1447
I00
sg18
I00
sg19
(lp1448
sS'isElement'
p1449
I00
ssVuseOldOffsetCalculation
p1450
(dp1451
S'isArray'
p1452
I00
sg4
Vbool
p1453
sS'attrChildrenNames'
p1454
(lp1455
sS'isMulti'
p1456
I00
sS'isCompound'
p1457
I00
sg10
I01
sg11
(lp1458
sS'isElement'
p1459
I00
ssVmaxTransLimit.maxTransXLimit
p1460
(dp1461
g61
I00
sg4
VdoubleLinear
p1462
sg63
I00
sg64
I00
sg10
I01
sg11
(lp1463
ssVmaxScaleLimit.maxScaleYLimit
p1464
(dp1465
g61
I00
sg4
Vdouble
p1466
sg63
I00
sg64
I00
sg10
I01
sg11
(lp1467
ssVwireColorRGB
p1468
(dp1469
g279
I00
sg17
Vfloat3
p1470
sg281
I00
sg282
(lp1471
VwireColorRGB.wireColorR
p1472
aVwireColorRGB.wireColorG
p1473
aVwireColorRGB.wireColorB
p1474
assVinstObjGroups[0].objectGroups[0].objectGrpCompList
p1475
(dp1476
S'isArray'
p1477
I00
sS'attrParentLongName'
p1478
VinstObjGroups[0].objectGroups[0]
p1479
sS'attrChildrenNames'
p1480
(lp1481
sg17
VcomponentList
p1482
sg10
I00
sg11
(lp1483
sS'isElement'
p1484
I00
ssVuiTreatment
p1485
(dp1486
S'isArray'
p1487
I00
sg4
Venum
p1488
sS'attrChildrenNames'
p1489
(lp1490
sS'isMulti'
p1491
I00
sS'isCompound'
p1492
I00
sg10
I01
sg11
(lp1493
sS'isElement'
p1494
I00
ssVrotate.rotateZ
p1495
(dp1496
S'isArray'
p1497
I00
sS'attrParentLongName'
p1498
Vrotate
p1499
sS'attrChildrenNames'
p1500
(lp1501
sg4
VdoubleAngle
p1502
sS'isMulti'
p1503
I00
sS'isCompound'
p1504
I00
sg10
I01
sg11
(lp1505
sS'isElement'
p1506
I00
ssVrotate.rotateX
p1507
(dp1508
S'isArray'
p1509
I00
sS'attrParentLongName'
p1510
Vrotate
p1511
sS'attrChildrenNames'
p1512
(lp1513
sg4
VdoubleAngle
p1514
sS'isMulti'
p1515
I00
sS'isCompound'
p1516
I00
sg10
I01
sg11
(lp1517
sS'isElement'
p1518
I00
ssVrotate.rotateY
p1519
(dp1520
S'isArray'
p1521
I00
sS'attrParentLongName'
p1522
Vrotate
p1523
sS'attrChildrenNames'
p1524
(lp1525
sg4
VdoubleAngle
p1526
sS'isMulti'
p1527
I00
sS'isCompound'
p1528
I00
sg10
I01
sg11
(lp1529
sS'isElement'
p1530
I00
ssVcaching
p1531
(dp1532
S'isArray'
p1533
I00
sg4
Vbool
p1534
sS'attrChildrenNames'
p1535
(lp1536
sS'isMulti'
p1537
I00
sS'isCompound'
p1538
I00
sg10
I01
sg11
(lp1539
sS'isElement'
p1540
I00
ssVrenderLayerInfo[1].renderLayerRenderable
p1541
(dp1542
g61
I00
sg17
Vbool
p1543
sg10
I00
sg11
(lp1544
ssVtranslate.translateZ
p1545
(dp1546
S'isArray'
p1547
I00
sS'attrParentLongName'
p1548
Vtranslate
p1549
sS'attrChildrenNames'
p1550
(lp1551
sg4
VdoubleLinear
p1552
sS'isMulti'
p1553
I00
sS'isCompound'
p1554
I00
sg10
I01
sg11
(lp1555
sS'isElement'
p1556
I00
ssVtranslate.translateX
p1557
(dp1558
S'isArray'
p1559
I00
sS'attrParentLongName'
p1560
Vtranslate
p1561
sS'attrChildrenNames'
p1562
(lp1563
sg4
VdoubleLinear
p1564
sS'isMulti'
p1565
I00
sS'isCompound'
p1566
I00
sg10
I01
sg11
(lp1567
sS'isElement'
p1568
I00
ssVtranslate.translateY
p1569
(dp1570
S'isArray'
p1571
I00
sS'attrParentLongName'
p1572
Vtranslate
p1573
sS'attrChildrenNames'
p1574
(lp1575
sg4
VdoubleLinear
p1576
sS'isMulti'
p1577
I00
sS'isCompound'
p1578
I00
sg10
I01
sg11
(lp1579
sS'isElement'
p1580
I00
ssVghostCustomSteps.ghostPostSteps
p1581
(dp1582
S'isArray'
p1583
I00
sS'attrParentLongName'
p1584
VghostCustomSteps
p1585
sS'attrChildrenNames'
p1586
(lp1587
sg4
Vlong
p1588
sS'isMulti'
p1589
I00
sS'isCompound'
p1590
I00
sg10
I01
sg11
(lp1591
sS'isElement'
p1592
I00
ssVoutlinerColor.outlinerColorR
p1593
(dp1594
g279
I00
sg17
Vfloat
p1595
sg281
I01
sg282
(lp1596
ssVmentalRayControls.miVisible
p1597
(dp1598
S'isArray'
p1599
I00
sS'attrParentLongName'
p1600
VmentalRayControls
p1601
sS'attrChildrenNames'
p1602
(lp1603
sg4
Venum
p1604
sS'isMulti'
p1605
I00
sS'isCompound'
p1606
I00
sg10
I01
sg11
(lp1607
sS'isElement'
p1608
I00
ssVuseObjectColor
p1609
(dp1610
S'isArray'
p1611
I00
sg4
Vbool
p1612
sS'attrChildrenNames'
p1613
(lp1614
sS'isMulti'
p1615
I00
sS'isCompound'
p1616
I00
sg10
I01
sg11
(lp1617
sS'isElement'
p1618
I00
ssVdrawOverride.overrideLevelOfDetail
p1619
(dp1620
S'isArray'
p1621
I00
sS'attrParentLongName'
p1622
VdrawOverride
p1623
sS'attrChildrenNames'
p1624
(lp1625
sg4
Venum
p1626
sS'isMulti'
p1627
I00
sS'isCompound'
p1628
I00
sg10
I01
sg11
(lp1629
sS'isElement'
p1630
I00
ssVinstObjGroups[0].objectGroups[0].objectGroupId
p1631
(dp1632
S'isArray'
p1633
I00
sS'attrParentLongName'
p1634
VinstObjGroups[0].objectGroups[0]
p1635
sS'attrChildrenNames'
p1636
(lp1637
sg17
Vlong
p1638
sg10
I00
sg11
(lp1639
sS'isElement'
p1640
I00
ssVmaxRotLimitEnable.maxRotXLimitEnable
p1641
(dp1642
g61
I00
sg4
Vbool
p1643
sg63
I00
sg64
I00
sg10
I01
sg11
(lp1644
ssVparentMatrix[2]
p1645
(dp1646
g633
I00
sg634
I00
sg939
(lp1647
ssVtransMinusRotatePivot
p1648
(dp1649
S'isArray'
p1650
I00
sg4
Vdouble3
p1651
sS'attrChildrenNames'
p1652
(lp1653
VtransMinusRotatePivot.transMinusRotatePivotX
p1654
aVtransMinusRotatePivot.transMinusRotatePivotY
p1655
aVtransMinusRotatePivot.transMinusRotatePivotZ
p1656
asS'isMulti'
p1657
I00
sS'isCompound'
p1658
I01
sg10
I01
sg11
(lp1659
VtransMinusRotatePivot.transMinusRotatePivotX
p1660
aVtransMinusRotatePivot.transMinusRotatePivotY
p1661
aVtransMinusRotatePivot.transMinusRotatePivotZ
p1662
asS'isElement'
p1663
I00
ssVdrawOverride.overrideRGBColors
p1664
(dp1665
g526
VdrawOverride
p1666
ssVbinMembership
p1667
(dp1668
g61
I00
sg4
Vstring
p1669
sg63
I00
sg64
I00
sg10
I01
sg11
(lp1670
ssVrenderLayerInfo[0].renderLayerRenderable
p1671
(dp1672
S'isArray'
p1673
I00
sS'attrParentLongName'
p1674
VrenderLayerInfo[0]
p1675
sS'attrChildrenNames'
p1676
(lp1677
sg17
Vbool
p1678
sg10
I00
sg11
(lp1679
sS'isElement'
p1680
I00
ssVparentMatrix
p1681
(dp1682
S'isArray'
p1683
I01
sS'isElement'
p1684
I00
sg4
Vmatrix
p1685
sg10
I00
sS'isMulti'
p1686
I01
ssg936
(dp1687
g61
I00
sg4
Vbool
p1688
sg63
I00
sg64
I00
sg10
I01
sg11
(lp1689
ssVscalePivotTranslate
p1690
(dp1691
S'isArray'
p1692
I00
sg4
Vdouble3
p1693
sS'attrChildrenNames'
p1694
(lp1695
VscalePivotTranslate.scalePivotTranslateX
p1696
aVscalePivotTranslate.scalePivotTranslateY
p1697
aVscalePivotTranslate.scalePivotTranslateZ
p1698
asS'isMulti'
p1699
I00
sS'isCompound'
p1700
I01
sg10
I01
sg11
(lp1701
VscalePivotTranslate.scalePivotTranslateX
p1702
aVscalePivotTranslate.scalePivotTranslateY
p1703
aVscalePivotTranslate.scalePivotTranslateZ
p1704
asS'isElement'
p1705
I00
ssVrestRotate
p1706
(dp1707
S'isArray'
p1708
I00
sg4
Vdouble3
p1709
sS'attrChildrenNames'
p1710
(lp1711
VrestRotate.restRotateX
p1712
aVrestRotate.restRotateY
p1713
aVrestRotate.restRotateZ
p1714
asS'isMulti'
p1715
I00
sS'isCompound'
p1716
I01
sg10
I01
sg11
(lp1717
VrestRotate.restRotateX
p1718
aVrestRotate.restRotateY
p1719
aVrestRotate.restRotateZ
p1720
asS'isElement'
p1721
I00
ssVobjectColorRGB
p1722
(dp1723
g279
I00
sg17
Vfloat3
p1724
sg281
I00
sg282
(lp1725
VobjectColorRGB.objectColorR
p1726
aVobjectColorRGB.objectColorG
p1727
aVobjectColorRGB.objectColorB
p1728
assg1434
(dp1729
g16
I00
sg17
VdoubleLinear
p1730
sg18
I00
sg19
(lp1731
ssg1433
(dp1732
g16
I00
sg17
VdoubleLinear
p1733
sg18
I00
sg19
(lp1734
ssg1435
(dp1735
g16
I00
sg17
VdoubleLinear
p1736
sg18
I00
sg19
(lp1737
ssVtarget.targetRotatePivot
p1738
(dp1739
g563
Vtarget
p1740
ssVdrawOverride.overrideEnabled
p1741
(dp1742
S'isArray'
p1743
I00
sS'attrParentLongName'
p1744
VdrawOverride
p1745
sS'attrChildrenNames'
p1746
(lp1747
sg4
Vbool
p1748
sS'isMulti'
p1749
I00
sS'isCompound'
p1750
I00
sg10
I01
sg11
(lp1751
sS'isElement'
p1752
I00
ssVboundingBox.boundingBoxMax
p1753
(dp1754
S'isArray'
p1755
I00
sS'attrParentLongName'
p1756
VboundingBox
p1757
sS'attrChildrenNames'
p1758
(lp1759
VboundingBox.boundingBoxMax.boundingBoxMaxX
p1760
aVboundingBox.boundingBoxMax.boundingBoxMaxY
p1761
aVboundingBox.boundingBoxMax.boundingBoxMaxZ
p1762
asg4
Vdouble3
p1763
sS'isMulti'
p1764
I00
sS'isCompound'
p1765
I01
sg10
I01
sg11
(lp1766
VboundingBox.boundingBoxMax.boundingBoxMaxX
p1767
aVboundingBox.boundingBoxMax.boundingBoxMaxY
p1768
aVboundingBox.boundingBoxMax.boundingBoxMaxZ
p1769
asS'isElement'
p1770
I00
ssVconstraintRotateTranslate.constraintRotateTranslateZ
p1771
(dp1772
S'isArray'
p1773
I00
sS'attrParentLongName'
p1774
VconstraintRotateTranslate
p1775
sS'attrChildrenNames'
p1776
(lp1777
sg28
VdoubleLinear
p1778
sS'isMulti'
p1779
I00
sS'isCompound'
p1780
I00
sg18
I01
sg19
(lp1781
sS'isElement'
p1782
I00
ssVconstraintRotateTranslate.constraintRotateTranslateX
p1783
(dp1784
S'isArray'
p1785
I00
sS'attrParentLongName'
p1786
VconstraintRotateTranslate
p1787
sS'attrChildrenNames'
p1788
(lp1789
sg28
VdoubleLinear
p1790
sS'isMulti'
p1791
I00
sS'isCompound'
p1792
I00
sg18
I01
sg19
(lp1793
sS'isElement'
p1794
I00
ssVconstraintRotateTranslate.constraintRotateTranslateY
p1795
(dp1796
S'isArray'
p1797
I00
sS'attrParentLongName'
p1798
VconstraintRotateTranslate
p1799
sS'attrChildrenNames'
p1800
(lp1801
sg28
VdoubleLinear
p1802
sS'isMulti'
p1803
I00
sS'isCompound'
p1804
I00
sg18
I01
sg19
(lp1805
sS'isElement'
p1806
I00
ssVrotateAxis
p1807
(dp1808
S'isArray'
p1809
I00
sg4
Vdouble3
p1810
sS'attrChildrenNames'
p1811
(lp1812
VrotateAxis.rotateAxisX
p1813
aVrotateAxis.rotateAxisY
p1814
aVrotateAxis.rotateAxisZ
p1815
asS'isMulti'
p1816
I00
sS'isCompound'
p1817
I01
sg10
I01
sg11
(lp1818
VrotateAxis.rotateAxisX
p1819
aVrotateAxis.rotateAxisY
p1820
aVrotateAxis.rotateAxisZ
p1821
asS'isElement'
p1822
I00
ssVcreator
p1823
(dp1824
S'isArray'
p1825
I00
sg4
Vstring
p1826
sS'attrChildrenNames'
p1827
(lp1828
sS'isMulti'
p1829
I00
sS'isCompound'
p1830
I00
sg10
I01
sg11
(lp1831
sS'isElement'
p1832
I00
ssVrotateAxis.rotateAxisX
p1833
(dp1834
S'isArray'
p1835
I00
sS'attrParentLongName'
p1836
VrotateAxis
p1837
sS'attrChildrenNames'
p1838
(lp1839
sg4
VdoubleAngle
p1840
sS'isMulti'
p1841
I00
sS'isCompound'
p1842
I00
sg10
I01
sg11
(lp1843
sS'isElement'
p1844
I00
ssVrotateAxis.rotateAxisY
p1845
(dp1846
S'isArray'
p1847
I00
sS'attrParentLongName'
p1848
VrotateAxis
p1849
sS'attrChildrenNames'
p1850
(lp1851
sg4
VdoubleAngle
p1852
sS'isMulti'
p1853
I00
sS'isCompound'
p1854
I00
sg10
I01
sg11
(lp1855
sS'isElement'
p1856
I00
ssVrotateAxis.rotateAxisZ
p1857
(dp1858
S'isArray'
p1859
I00
sS'attrParentLongName'
p1860
VrotateAxis
p1861
sS'attrChildrenNames'
p1862
(lp1863
sg4
VdoubleAngle
p1864
sS'isMulti'
p1865
I00
sS'isCompound'
p1866
I00
sg10
I01
sg11
(lp1867
sS'isElement'
p1868
I00
ssVghostRangeEnd
p1869
(dp1870
S'isArray'
p1871
I00
sg4
Vtime
p1872
sS'attrChildrenNames'
p1873
(lp1874
sS'isMulti'
p1875
I00
sS'isCompound'
p1876
I00
sg10
I01
sg11
(lp1877
sS'isElement'
p1878
I00
ssVtemplateVersion
p1879
(dp1880
S'isArray'
p1881
I00
sg4
Vlong
p1882
sS'attrChildrenNames'
p1883
(lp1884
sS'isMulti'
p1885
I00
sS'isCompound'
p1886
I00
sg10
I01
sg11
(lp1887
sS'isElement'
p1888
I00
ssg830
(dp1889
g61
I00
sg4
Vbool
p1890
sg63
I00
sg64
I00
sg10
I01
sg11
(lp1891
ssVmaxScaleLimitEnable.maxScaleXLimitEnable
p1892
(dp1893
g61
I00
sg4
Vbool
p1894
sg63
I00
sg64
I00
sg10
I01
sg11
(lp1895
ssVobjectColorRGB.objectColorR
p1896
(dp1897
g526
VobjectColorRGB
p1898
sg279
I00
sg17
Vfloat
p1899
sg281
I01
sg282
(lp1900
ssVscalePivot.scalePivotX
p1901
(dp1902
S'isArray'
p1903
I00
sS'attrParentLongName'
p1904
VscalePivot
p1905
sS'attrChildrenNames'
p1906
(lp1907
sg4
VdoubleLinear
p1908
sS'isMulti'
p1909
I00
sS'isCompound'
p1910
I00
sg10
I01
sg11
(lp1911
sS'isElement'
p1912
I00
ssVscalePivot.scalePivotY
p1913
(dp1914
S'isArray'
p1915
I00
sS'attrParentLongName'
p1916
VscalePivot
p1917
sS'attrChildrenNames'
p1918
(lp1919
sg4
VdoubleLinear
p1920
sS'isMulti'
p1921
I00
sS'isCompound'
p1922
I00
sg10
I01
sg11
(lp1923
sS'isElement'
p1924
I00
ssVscalePivot.scalePivotZ
p1925
(dp1926
S'isArray'
p1927
I00
sS'attrParentLongName'
p1928
VscalePivot
p1929
sS'attrChildrenNames'
p1930
(lp1931
sg4
VdoubleLinear
p1932
sS'isMulti'
p1933
I00
sS'isCompound'
p1934
I00
sg10
I01
sg11
(lp1935
sS'isElement'
p1936
I00
ssVinstObjGroups.objectGroups.objectGrpCompList
p1937
(dp1938
g68
VinstObjGroups.objectGroups
p1939
ssVpublishedNodeInfo.publishedNodeType
p1940
(dp1941
g68
VpublishedNodeInfo
p1942
ssVpublishedNodeInfo[1]
p1943
(dp1944
g61
I00
sg10
I00
sg11
(lp1945
VpublishedNodeInfo[1].publishedNode
p1946
aVpublishedNodeInfo[1].isHierarchicalNode
p1947
ag1251
assVmaxTransLimit
p1948
(dp1949
g61
I00
sg4
Vdouble3
p1950
sg63
I00
sg64
I01
sg10
I01
sg11
(lp1951
g1460
aVmaxTransLimit.maxTransYLimit
p1952
ag320
assVscale.scaleZ
p1953
(dp1954
S'isArray'
p1955
I00
sS'attrParentLongName'
p1956
Vscale
p1957
sS'attrChildrenNames'
p1958
(lp1959
sg4
Vdouble
p1960
sS'isMulti'
p1961
I00
sS'isCompound'
p1962
I00
sg10
I01
sg11
(lp1963
sS'isElement'
p1964
I00
ssVscale.scaleX
p1965
(dp1966
S'isArray'
p1967
I00
sS'attrParentLongName'
p1968
Vscale
p1969
sS'attrChildrenNames'
p1970
(lp1971
sg4
Vdouble
p1972
sS'isMulti'
p1973
I00
sS'isCompound'
p1974
I00
sg10
I01
sg11
(lp1975
sS'isElement'
p1976
I00
ssVscale.scaleY
p1977
(dp1978
S'isArray'
p1979
I00
sS'attrParentLongName'
p1980
Vscale
p1981
sS'attrChildrenNames'
p1982
(lp1983
sg4
Vdouble
p1984
sS'isMulti'
p1985
I00
sS'isCompound'
p1986
I00
sg10
I01
sg11
(lp1987
sS'isElement'
p1988
I00
ssVghostRangeStart
p1989
(dp1990
S'isArray'
p1991
I00
sg4
Vtime
p1992
sS'attrChildrenNames'
p1993
(lp1994
sS'isMulti'
p1995
I00
sS'isCompound'
p1996
I00
sg10
I01
sg11
(lp1997
sS'isElement'
p1998
I00
ssVpublishedNodeInfo[0].publishedNodeType
p1999
(dp2000
S'isArray'
p2001
I00
sS'attrParentLongName'
p2002
VpublishedNodeInfo[0]
p2003
sS'attrChildrenNames'
p2004
(lp2005
sg10
I00
sg11
(lp2006
sS'isElement'
p2007
I00
ssVmentalRayControls.miTrace
p2008
(dp2009
S'isArray'
p2010
I00
sS'attrParentLongName'
p2011
VmentalRayControls
p2012
sS'attrChildrenNames'
p2013
(lp2014
sg4
Venum
p2015
sS'isMulti'
p2016
I00
sS'isCompound'
p2017
I00
sg10
I01
sg11
(lp2018
sS'isElement'
p2019
I00
ssg1952
(dp2020
g61
I00
sg4
VdoubleLinear
p2021
sg63
I00
sg64
I00
sg10
I01
sg11
(lp2022
ssVmaxTransLimitEnable
p2023
(dp2024
g61
I00
sg4
VTdataCompound
p2025
sg11
(lp2026
g720
ag249
aVmaxTransLimitEnable.maxTransZLimitEnable
p2027
asg10
I00
sg63
I00
ssVmaxScaleLimit
p2028
(dp2029
g61
I00
sg4
Vdouble3
p2030
sg63
I00
sg64
I01
sg10
I01
sg11
(lp2031
g1349
ag1464
ag1339
assVaimVector
p2032
(dp2033
S'isArray'
p2034
I00
sg28
Vdouble3
p2035
sS'attrChildrenNames'
p2036
(lp2037
VaimVector.aimVectorX
p2038
aVaimVector.aimVectorY
p2039
aVaimVector.aimVectorZ
p2040
asS'isMulti'
p2041
I00
sS'isCompound'
p2042
I01
sg18
I01
sg19
(lp2043
VaimVector.aimVectorX
p2044
aVaimVector.aimVectorY
p2045
aVaimVector.aimVectorZ
p2046
asS'isElement'
p2047
I00
ssVinheritsTransform
p2048
(dp2049
S'isArray'
p2050
I00
sg4
Vbool
p2051
sS'attrChildrenNames'
p2052
(lp2053
sS'isMulti'
p2054
I00
sS'isCompound'
p2055
I00
sg10
I01
sg11
(lp2056
sS'isElement'
p2057
I00
ssVisHistoricallyInteresting
p2058
(dp2059
S'isArray'
p2060
I00
sg4
Vbyte
p2061
sS'attrChildrenNames'
p2062
(lp2063
sS'isMulti'
p2064
I00
sS'isCompound'
p2065
I00
sg10
I00
sg11
(lp2066
sS'isElement'
p2067
I00
ssVghostCustomSteps
p2068
(dp2069
S'isArray'
p2070
I00
sg4
VTdataCompound
p2071
sS'attrChildrenNames'
p2072
(lp2073
VghostCustomSteps.ghostPreSteps
p2074
aVghostCustomSteps.ghostPostSteps
p2075
aVghostCustomSteps.ghostStepSize
p2076
asS'isMulti'
p2077
I00
sS'isCompound'
p2078
I01
sg10
I00
sg11
(lp2079
VghostCustomSteps.ghostPreSteps
p2080
aVghostCustomSteps.ghostPostSteps
p2081
aVghostCustomSteps.ghostStepSize
p2082
asS'isElement'
p2083
I00
ssVtarget[0]
p2084
(dp2085
g16
I00
sg28
VTdataCompound
p2086
sg19
(lp2087
Vtarget[0].targetTranslate
p2088
aVtarget[0].targetRotatePivot
p2089
aVtarget[0].targetRotateTranslate
p2090
aVtarget[0].targetParentMatrix
p2091
aVtarget[0].targetWeight
p2092
asg18
I00
sS'isMulti'
p2093
I00
ssVdrawOverride
p2094
(dp2095
S'isArray'
p2096
I00
sg4
VTdataCompound
p2097
sS'attrChildrenNames'
p2098
(lp2099
VdrawOverride.overrideDisplayType
p2100
aVdrawOverride.overrideLevelOfDetail
p2101
aVdrawOverride.overrideShading
p2102
aVdrawOverride.overrideTexturing
p2103
aVdrawOverride.overridePlayback
p2104
aVdrawOverride.overrideEnabled
p2105
aVdrawOverride.overrideVisibility
p2106
aVdrawOverride.overrideColor
p2107
asS'isMulti'
p2108
I00
sS'isCompound'
p2109
I01
sg10
I00
sg11
(lp2110
VdrawOverride.overrideDisplayType
p2111
aVdrawOverride.overrideLevelOfDetail
p2112
aVdrawOverride.overrideShading
p2113
aVdrawOverride.overrideTexturing
p2114
aVdrawOverride.overridePlayback
p2115
aVdrawOverride.overrideEnabled
p2116
aVdrawOverride.overrideVisibility
p2117
aVdrawOverride.overrideColor
p2118
asS'isElement'
p2119
I00
ssVinstObjGroups.objectGroups.objectGroupId
p2120
(dp2121
g68
VinstObjGroups.objectGroups
p2122
ssg935
(dp2123
g61
I00
sg4
Vbool
p2124
sg63
I00
sg64
I00
sg10
I01
sg11
(lp2125
ssVboundingBox
p2126
(dp2127
S'isArray'
p2128
I00
sg4
VTdataCompound
p2129
sS'attrChildrenNames'
p2130
(lp2131
VboundingBox.boundingBoxMin
p2132
aVboundingBox.boundingBoxMax
p2133
aVboundingBox.boundingBoxSize
p2134
asS'isMulti'
p2135
I00
sS'isCompound'
p2136
I01
sg10
I00
sg11
(lp2137
VboundingBox.boundingBoxMin
p2138
aVboundingBox.boundingBoxMax
p2139
aVboundingBox.boundingBoxSize
p2140
asS'isElement'
p2141
I00
ssVghostColorPre
p2142
(dp2143
g279
I00
sg17
Vfloat3
p2144
sg281
I00
sg282
(lp2145
VghostColorPre.ghostColorPreR
p2146
aVghostColorPre.ghostColorPreG
p2147
aVghostColorPre.ghostColorPreB
p2148
assVfrozen
p2149
(dp2150
g279
I00
sg17
Vbool
p2151
sg281
I01
sg282
(lp2152
ssVboundingBox.boundingBoxSize
p2153
(dp2154
S'isArray'
p2155
I00
sS'attrParentLongName'
p2156
VboundingBox
p2157
sS'attrChildrenNames'
p2158
(lp2159
VboundingBox.boundingBoxSize.boundingBoxSizeX
p2160
aVboundingBox.boundingBoxSize.boundingBoxSizeY
p2161
aVboundingBox.boundingBoxSize.boundingBoxSizeZ
p2162
asg4
Vdouble3
p2163
sS'isMulti'
p2164
I00
sS'isCompound'
p2165
I01
sg10
I01
sg11
(lp2166
VboundingBox.boundingBoxSize.boundingBoxSizeX
p2167
aVboundingBox.boundingBoxSize.boundingBoxSizeY
p2168
aVboundingBox.boundingBoxSize.boundingBoxSizeZ
p2169
asS'isElement'
p2170
I00
ssVrenderLayerInfo[0]
p2171
(dp2172
g61
I00
sg17
VTdataCompound
p2173
sg10
I00
sg11
(lp2174
VrenderLayerInfo[0].renderLayerId
p2175
aVrenderLayerInfo[0].renderLayerRenderable
p2176
aVrenderLayerInfo[0].renderLayerColor
p2177
assVtarget[1].targetRotatePivot.targetRotatePivotZ
p2178
(dp2179
g16
I00
sg17
VdoubleLinear
p2180
sg18
I00
sg19
(lp2181
ssVtarget[1].targetRotatePivot.targetRotatePivotX
p2182
(dp2183
g16
I00
sg17
VdoubleLinear
p2184
sg18
I00
sg19
(lp2185
ssVtarget[1].targetRotatePivot.targetRotatePivotY
p2186
(dp2187
g16
I00
sg17
VdoubleLinear
p2188
sg18
I00
sg19
(lp2189
ssg831
(dp2190
g61
I00
sg4
Vbool
p2191
sg63
I00
sg64
I00
sg10
I01
sg11
(lp2192
ssVmaxScaleLimitEnable
p2193
(dp2194
g61
I00
sg4
VTdataCompound
p2195
sg11
(lp2196
g1892
ag273
aVmaxScaleLimitEnable.maxScaleZLimitEnable
p2197
asg10
I00
sg63
I00
ssg2197
(dp2198
g61
I00
sg4
Vbool
p2199
sg63
I00
sg64
I00
sg10
I01
sg11
(lp2200
ssVspecifiedManipLocation
p2201
(dp2202
S'isArray'
p2203
I00
sg4
NsS'attrChildrenNames'
p2204
(lp2205
sS'isMulti'
p2206
I00
sS'isCompound'
p2207
I00
sg10
I00
sg11
(lp2208
sS'isElement'
p2209
I00
ssVtarget[1].targetRotateTranslate.targetRotateTranslateZ
p2210
(dp2211
g16
I00
sg17
VdoubleLinear
p2212
sg18
I00
sg19
(lp2213
ssVtarget[1].targetRotateTranslate.targetRotateTranslateX
p2214
(dp2215
g16
I00
sg17
VdoubleLinear
p2216
sg18
I00
sg19
(lp2217
ssVinstObjGroups[0].objectGroups
p2218
(dp2219
S'isArray'
p2220
I01
sS'isElement'
p2221
I00
sS'attrParentLongName'
p2222
VinstObjGroups[0]
p2223
sg10
I00
sg17
VTdataCompound
p2224
ssVmaxRotLimitEnable.maxRotYLimitEnable
p2225
(dp2226
g61
I00
sg4
Vbool
p2227
sg63
I00
sg64
I00
sg10
I01
sg11
(lp2228
ssVminScaleLimit
p2229
(dp2230
g61
I00
sg4
Vdouble3
p2231
sg63
I00
sg64
I01
sg10
I01
sg11
(lp2232
g193
ag627
ag1210
assVlodVisibility
p2233
(dp2234
S'isArray'
p2235
I00
sg4
Vbool
p2236
sS'attrChildrenNames'
p2237
(lp2238
sS'isMulti'
p2239
I00
sS'isCompound'
p2240
I00
sg10
I01
sg11
(lp2241
sS'isElement'
p2242
I00
ssVpublishedNodeInfo.isHierarchicalNode
p2243
(dp2244
g68
VpublishedNodeInfo
p2245
ssVinstObjGroups[0].objectGroups[1].objectGrpCompList
p2246
(dp2247
g61
I00
sg17
VcomponentList
p2248
sg10
I00
sg11
(lp2249
ssVdrawOverride.overridePlayback
p2250
(dp2251
S'isArray'
p2252
I00
sS'attrParentLongName'
p2253
VdrawOverride
p2254
sS'attrChildrenNames'
p2255
(lp2256
sg4
Vbool
p2257
sS'isMulti'
p2258
I00
sS'isCompound'
p2259
I00
sg10
I01
sg11
(lp2260
sS'isElement'
p2261
I00
ssVghostColorPostA
p2262
(dp2263
g279
I00
sg17
Vfloat
p2264
sg281
I01
sg282
(lp2265
ssVblackBox
p2266
(dp2267
S'isArray'
p2268
I00
sg4
Vbool
p2269
sS'attrChildrenNames'
p2270
(lp2271
sS'isMulti'
p2272
I00
sS'isCompound'
p2273
I00
sg10
I01
sg11
(lp2274
sS'isElement'
p2275
I00
ssVwireColorRGB.wireColorR
p2276
(dp2277
g526
VwireColorRGB
p2278
sg279
I00
sg17
Vfloat
p2279
sg281
I01
sg282
(lp2280
ssVghostColorPost.ghostColorPostB
p2281
(dp2282
g279
I00
sg17
Vfloat
p2283
sg281
I01
sg282
(lp2284
ssVcenter
p2285
(dp2286
S'isArray'
p2287
I00
sg4
Vdouble3
p2288
sS'attrChildrenNames'
p2289
(lp2290
Vcenter.boundingBoxCenterX
p2291
aVcenter.boundingBoxCenterY
p2292
aVcenter.boundingBoxCenterZ
p2293
asS'isMulti'
p2294
I00
sS'isCompound'
p2295
I01
sg10
I01
sg11
(lp2296
Vcenter.boundingBoxCenterX
p2297
aVcenter.boundingBoxCenterY
p2298
aVcenter.boundingBoxCenterZ
p2299
asS'isElement'
p2300
I00
ssVdrawOverride.overrideShading
p2301
(dp2302
S'isArray'
p2303
I00
sS'attrParentLongName'
p2304
VdrawOverride
p2305
sS'attrChildrenNames'
p2306
(lp2307
sg4
Vbool
p2308
sS'isMulti'
p2309
I00
sS'isCompound'
p2310
I00
sg10
I01
sg11
(lp2311
sS'isElement'
p2312
I00
ssVghostColorPost.ghostColorPostG
p2313
(dp2314
g279
I00
sg17
Vfloat
p2315
sg281
I01
sg282
(lp2316
ssVmentalRayControls.miShadow
p2317
(dp2318
S'isArray'
p2319
I00
sS'attrParentLongName'
p2320
VmentalRayControls
p2321
sS'attrChildrenNames'
p2322
(lp2323
sg4
Venum
p2324
sS'isMulti'
p2325
I00
sS'isCompound'
p2326
I00
sg10
I01
sg11
(lp2327
sS'isElement'
p2328
I00
ssVinstObjGroups[2]
p2329
(dp2330
g633
I00
sg634
I00
sg939
(lp2331
g631
assVwireColorRGB.wireColorB
p2332
(dp2333
g526
VwireColorRGB
p2334
sg279
I00
sg17
Vfloat
p2335
sg281
I01
sg282
(lp2336
ssVviewMode
p2337
(dp2338
S'isArray'
p2339
I00
sg4
Venum
p2340
sS'attrChildrenNames'
p2341
(lp2342
sS'isMulti'
p2343
I00
sS'isCompound'
p2344
I00
sg10
I01
sg11
(lp2345
sS'isElement'
p2346
I00
ssVrotatePivotTranslate
p2347
(dp2348
S'isArray'
p2349
I00
sg4
Vdouble3
p2350
sS'attrChildrenNames'
p2351
(lp2352
VrotatePivotTranslate.rotatePivotTranslateX
p2353
aVrotatePivotTranslate.rotatePivotTranslateY
p2354
aVrotatePivotTranslate.rotatePivotTranslateZ
p2355
asS'isMulti'
p2356
I00
sS'isCompound'
p2357
I01
sg10
I01
sg11
(lp2358
VrotatePivotTranslate.rotatePivotTranslateX
p2359
aVrotatePivotTranslate.rotatePivotTranslateY
p2360
aVrotatePivotTranslate.rotatePivotTranslateZ
p2361
asS'isElement'
p2362
I00
ssVwireColorRGB.wireColorG
p2363
(dp2364
g526
VwireColorRGB
p2365
sg279
I00
sg17
Vfloat
p2366
sg281
I01
sg282
(lp2367
ssVintermediateObject
p2368
(dp2369
S'isArray'
p2370
I00
sg4
Vbool
p2371
sS'attrChildrenNames'
p2372
(lp2373
sS'isMulti'
p2374
I00
sS'isCompound'
p2375
I00
sg10
I01
sg11
(lp2376
sS'isElement'
p2377
I00
ssVghostColorPost
p2378
(dp2379
g279
I00
sg17
Vfloat3
p2380
sg281
I00
sg282
(lp2381
g1436
ag2313
ag2281
assg881
(dp2382
g61
I00
sg4
Vbool
p2383
sg63
I00
sg64
I00
sg10
I01
sg11
(lp2384
ssVtarget[1].targetWeight
p2385
(dp2386
g16
I00
sg17
Vdouble
p2387
sg18
I00
sg19
(lp2388
ssVupVector
p2389
(dp2390
S'isArray'
p2391
I00
sg28
Vdouble3
p2392
sS'attrChildrenNames'
p2393
(lp2394
VupVector.upVectorX
p2395
aVupVector.upVectorY
p2396
aVupVector.upVectorZ
p2397
asS'isMulti'
p2398
I00
sS'isCompound'
p2399
I01
sg18
I01
sg19
(lp2400
VupVector.upVectorX
p2401
aVupVector.upVectorY
p2402
aVupVector.upVectorZ
p2403
asS'isElement'
p2404
I00
ssVmaxRotLimit.maxRotYLimit
p2405
(dp2406
g61
I00
sg4
VdoubleAngle
p2407
sg63
I00
sg64
I00
sg10
I01
sg11
(lp2408
ssVdrawOverride.hideOnPlayback
p2409
(dp2410
g526
VdrawOverride
p2411
ssVboundingBox.boundingBoxMin
p2412
(dp2413
S'isArray'
p2414
I00
sS'attrParentLongName'
p2415
VboundingBox
p2416
sS'attrChildrenNames'
p2417
(lp2418
VboundingBox.boundingBoxMin.boundingBoxMinX
p2419
aVboundingBox.boundingBoxMin.boundingBoxMinY
p2420
aVboundingBox.boundingBoxMin.boundingBoxMinZ
p2421
asg4
Vdouble3
p2422
sS'isMulti'
p2423
I00
sS'isCompound'
p2424
I01
sg10
I01
sg11
(lp2425
VboundingBox.boundingBoxMin.boundingBoxMinX
p2426
aVboundingBox.boundingBoxMin.boundingBoxMinY
p2427
aVboundingBox.boundingBoxMin.boundingBoxMinZ
p2428
asS'isElement'
p2429
I00
ssg2027
(dp2430
g61
I00
sg4
Vbool
p2431
sg63
I00
sg64
I00
sg10
I01
sg11
(lp2432
ssVworldInverseMatrix[1]
p2433
(dp2434
g61
I00
sg17
Nsg10
I00
sg11
(lp2435
ssVrotatePivotTranslate.rotatePivotTranslateZ
p2436
(dp2437
S'isArray'
p2438
I00
sS'attrParentLongName'
p2439
VrotatePivotTranslate
p2440
sS'attrChildrenNames'
p2441
(lp2442
sg4
VdoubleLinear
p2443
sS'isMulti'
p2444
I00
sS'isCompound'
p2445
I00
sg10
I01
sg11
(lp2446
sS'isElement'
p2447
I00
ssVrotatePivotTranslate.rotatePivotTranslateX
p2448
(dp2449
S'isArray'
p2450
I00
sS'attrParentLongName'
p2451
VrotatePivotTranslate
p2452
sS'attrChildrenNames'
p2453
(lp2454
sg4
VdoubleLinear
p2455
sS'isMulti'
p2456
I00
sS'isCompound'
p2457
I00
sg10
I01
sg11
(lp2458
sS'isElement'
p2459
I00
ssVrotatePivotTranslate.rotatePivotTranslateY
p2460
(dp2461
S'isArray'
p2462
I00
sS'attrParentLongName'
p2463
VrotatePivotTranslate
p2464
sS'attrChildrenNames'
p2465
(lp2466
sg4
VdoubleLinear
p2467
sS'isMulti'
p2468
I00
sS'isCompound'
p2469
I00
sg10
I01
sg11
(lp2470
sS'isElement'
p2471
I00
ssVrotate
p2472
(dp2473
S'isArray'
p2474
I00
sg4
Vdouble3
p2475
sS'attrChildrenNames'
p2476
(lp2477
Vrotate.rotateX
p2478
aVrotate.rotateY
p2479
aVrotate.rotateZ
p2480
asS'isMulti'
p2481
I00
sS'isCompound'
p2482
I01
sg10
I01
sg11
(lp2483
Vrotate.rotateX
p2484
aVrotate.rotateY
p2485
aVrotate.rotateZ
p2486
asS'isElement'
p2487
I00
ssVparentInverseMatrix[0]
p2488
(dp2489
g61
I00
sg17
Nsg10
I00
sg11
(lp2490
ssVrenderLayerInfo[1].renderLayerId
p2491
(dp2492
g61
I00
sg17
Vshort
p2493
sg10
I00
sg11
(lp2494
ssVworldUpVector.worldUpVectorZ
p2495
(dp2496
S'isArray'
p2497
I00
sS'attrParentLongName'
p2498
VworldUpVector
p2499
sS'attrChildrenNames'
p2500
(lp2501
sg28
Vdouble
p2502
sS'isMulti'
p2503
I00
sg31
NsS'isCompound'
p2504
I00
sg18
I01
sg19
(lp2505
sS'isElement'
p2506
I00
ssVobjectColor
p2507
(dp2508
S'isArray'
p2509
I00
sg4
Vshort
p2510
sS'attrChildrenNames'
p2511
(lp2512
sS'isMulti'
p2513
I00
sS'isCompound'
p2514
I00
sg10
I01
sg11
(lp2515
sS'isElement'
p2516
I00
ssVworldUpVector.worldUpVectorX
p2517
(dp2518
S'isArray'
p2519
I00
sS'attrParentLongName'
p2520
VworldUpVector
p2521
sS'attrChildrenNames'
p2522
(lp2523
sg28
Vdouble
p2524
sS'isMulti'
p2525
I00
sg31
NsS'isCompound'
p2526
I00
sg18
I01
sg19
(lp2527
sS'isElement'
p2528
I00
ssVworldUpVector.worldUpVectorY
p2529
(dp2530
S'isArray'
p2531
I00
sS'attrParentLongName'
p2532
VworldUpVector
p2533
sS'attrChildrenNames'
p2534
(lp2535
sg28
Vdouble
p2536
sS'isMulti'
p2537
I00
sg31
NsS'isCompound'
p2538
I00
sg18
I01
sg19
(lp2539
sS'isElement'
p2540
I00
ssVmentalRayControls.miGeoShader
p2541
(dp2542
S'isArray'
p2543
I00
sS'attrParentLongName'
p2544
VmentalRayControls
p2545
sS'attrChildrenNames'
p2546
(lp2547
sg4
NsS'isMulti'
p2548
I00
sS'isCompound'
p2549
I00
sg10
I00
sg11
(lp2550
sS'isElement'
p2551
I00
ssVconstraintRotateOrder
p2552
(dp2553
S'isArray'
p2554
I00
sg28
Venum
p2555
sS'attrChildrenNames'
p2556
(lp2557
sS'isMulti'
p2558
I00
sS'isCompound'
p2559
I00
sg18
I01
sg19
(lp2560
sS'isElement'
p2561
I00
ssg2146
(dp2562
g279
I00
sg17
Vfloat
p2563
sg281
I01
sg282
(lp2564
ssVpublishedNodeInfo[0]
p2565
(dp2566
g61
I00
sg10
I00
sg11
(lp2567
VpublishedNodeInfo[0].publishedNode
p2568
aVpublishedNodeInfo[0].isHierarchicalNode
p2569
aVpublishedNodeInfo[0].publishedNodeType
p2570
assVtarget[1].targetRotateTranslate
p2571
(dp2572
g16
I00
sg17
Vdouble3
p2573
sg18
I00
sg19
(lp2574
g2214
ag644
ag2210
assg2147
(dp2575
g279
I00
sg17
Vfloat
p2576
sg281
I01
sg282
(lp2577
ssVtarget[0].targetWeight
p2578
(dp2579
S'isArray'
p2580
I00
sS'attrParentLongName'
p2581
Vtarget[0]
p2582
sS'attrChildrenNames'
p2583
(lp2584
sg28
Vdouble
p2585
sS'isMulti'
p2586
I00
sS'isCompound'
p2587
I00
sg18
I01
sg19
(lp2588
sS'isElement'
p2589
I00
ssg2148
(dp2590
g279
I00
sg17
Vfloat
p2591
sg281
I01
sg282
(lp2592
ssVpublishedNodeInfo[0].publishedNode
p2593
(dp2594
S'isArray'
p2595
I00
sS'attrParentLongName'
p2596
VpublishedNodeInfo[0]
p2597
sS'attrChildrenNames'
p2598
(lp2599
sg10
I00
sg11
(lp2600
sS'isElement'
p2601
I00
ssg1947
(dp2602
g61
I00
sg10
I00
sg11
(lp2603
ssVscale
p2604
(dp2605
S'isArray'
p2606
I00
sg4
Vdouble3
p2607
sS'attrChildrenNames'
p2608
(lp2609
Vscale.scaleX
p2610
aVscale.scaleY
p2611
aVscale.scaleZ
p2612
asS'isMulti'
p2613
I00
sS'isCompound'
p2614
I01
sg10
I01
sg11
(lp2615
Vscale.scaleX
p2616
aVscale.scaleY
p2617
aVscale.scaleZ
p2618
asS'isElement'
p2619
I00
ssVtransMinusRotatePivot.transMinusRotatePivotZ
p2620
(dp2621
S'isArray'
p2622
I00
sS'attrParentLongName'
p2623
VtransMinusRotatePivot
p2624
sS'attrChildrenNames'
p2625
(lp2626
sg4
VdoubleLinear
p2627
sS'isMulti'
p2628
I00
sS'isCompound'
p2629
I00
sg10
I01
sg11
(lp2630
sS'isElement'
p2631
I00
ssVrenderLayerInfo[0].renderLayerColor
p2632
(dp2633
S'isArray'
p2634
I00
sS'attrParentLongName'
p2635
VrenderLayerInfo[0]
p2636
sS'attrChildrenNames'
p2637
(lp2638
sg17
Vbyte
p2639
sg10
I00
sg11
(lp2640
sS'isElement'
p2641
I00
ssVtransMinusRotatePivot.transMinusRotatePivotY
p2642
(dp2643
S'isArray'
p2644
I00
sS'attrParentLongName'
p2645
VtransMinusRotatePivot
p2646
sS'attrChildrenNames'
p2647
(lp2648
sg4
VdoubleLinear
p2649
sS'isMulti'
p2650
I00
sS'isCompound'
p2651
I00
sg10
I01
sg11
(lp2652
sS'isElement'
p2653
I00
ssVviewName
p2654
(dp2655
S'isArray'
p2656
I00
sg4
Vstring
p2657
sS'attrChildrenNames'
p2658
(lp2659
sS'isMulti'
p2660
I00
sS'isCompound'
p2661
I00
sg10
I01
sg11
(lp2662
sS'isElement'
p2663
I00
ssVtarget[1].targetTranslate
p2664
(dp2665
g16
I00
sg17
Vdouble3
p2666
sg18
I00
sg19
(lp2667
g1024
ag844
ag821
assVinstObjGroups[0].objectGroups[1]
p2668
(dp2669
g61
I00
sg17
VTdataCompound
p2670
sg10
I00
sg11
(lp2671
g2246
aVinstObjGroups[0].objectGroups[1].objectGroupId
p2672
ag1416
assVoffset
p2673
(dp2674
S'isArray'
p2675
I00
sg4
Vdouble3
p2676
sS'attrChildrenNames'
p2677
(lp2678
Voffset.offsetX
p2679
aVoffset.offsetY
p2680
aVoffset.offsetZ
p2681
asS'isMulti'
p2682
I00
sS'isCompound'
p2683
I01
sg10
I01
sg11
(lp2684
Voffset.offsetX
p2685
aVoffset.offsetY
p2686
aVoffset.offsetZ
p2687
asS'isElement'
p2688
I00
ssViconName
p2689
(dp2690
S'isArray'
p2691
I00
sg4
Vstring
p2692
sS'attrChildrenNames'
p2693
(lp2694
sS'isMulti'
p2695
I00
sS'isCompound'
p2696
I00
sg10
I01
sg11
(lp2697
sS'isElement'
p2698
I00
ssVtarget[0].targetRotatePivot
p2699
(dp2700
S'isArray'
p2701
I00
sS'attrParentLongName'
p2702
Vtarget[0]
p2703
sS'attrChildrenNames'
p2704
(lp2705
Vtarget[0].targetRotatePivot.targetRotatePivotX
p2706
aVtarget[0].targetRotatePivot.targetRotatePivotY
p2707
aVtarget[0].targetRotatePivot.targetRotatePivotZ
p2708
asg28
Vdouble3
p2709
sS'isMulti'
p2710
I00
sS'isCompound'
p2711
I01
sg18
I01
sg19
(lp2712
Vtarget[0].targetRotatePivot.targetRotatePivotX
p2713
aVtarget[0].targetRotatePivot.targetRotatePivotY
p2714
aVtarget[0].targetRotatePivot.targetRotatePivotZ
p2715
asS'isElement'
p2716
I00
ssVinstObjGroups
p2717
(dp2718
S'isArray'
p2719
I01
sS'isElement'
p2720
I00
sg4
VTdataCompound
p2721
sg10
I00
sS'isMulti'
p2722
I01
ssVworldMatrix[0]
p2723
(dp2724
g61
I00
sg17
Nsg10
I00
sg11
(lp2725
ssVdrawOverride.overrideVisibility
p2726
(dp2727
S'isArray'
p2728
I00
sS'attrParentLongName'
p2729
VdrawOverride
p2730
sS'attrChildrenNames'
p2731
(lp2732
sg4
Vbool
p2733
sS'isMulti'
p2734
I00
sS'isCompound'
p2735
I00
sg10
I01
sg11
(lp2736
sS'isElement'
p2737
I00
ssVghosting
p2738
(dp2739
S'isArray'
p2740
I00
sg4
Vbool
p2741
sS'attrChildrenNames'
p2742
(lp2743
sS'isMulti'
p2744
I00
sS'isCompound'
p2745
I00
sg10
I01
sg11
(lp2746
sS'isElement'
p2747
I00
ssVworldInverseMatrix[2]
p2748
(dp2749
g633
I00
sg634
I00
sg939
(lp2750
ssg1946
(dp2751
g61
I00
sg10
I00
sg11
(lp2752
ssVmaxRotLimit
p2753
(dp2754
g61
I00
sg4
Vdouble3
p2755
sg63
I00
sg64
I01
sg10
I01
sg11
(lp2756
VmaxRotLimit.maxRotXLimit
p2757
ag2405
aVmaxRotLimit.maxRotZLimit
p2758
assVtranslate
p2759
(dp2760
S'isArray'
p2761
I00
sg4
Vdouble3
p2762
sS'attrChildrenNames'
p2763
(lp2764
Vtranslate.translateX
p2765
aVtranslate.translateY
p2766
aVtranslate.translateZ
p2767
asS'isMulti'
p2768
I00
sS'isCompound'
p2769
I01
sg10
I01
sg11
(lp2770
Vtranslate.translateX
p2771
aVtranslate.translateY
p2772
aVtranslate.translateZ
p2773
asS'isElement'
p2774
I00
ssVtarget[0].targetRotateTranslate.targetRotateTranslateZ
p2775
(dp2776
S'isArray'
p2777
I00
sS'attrParentLongName'
p2778
Vtarget[0].targetRotateTranslate
p2779
sS'attrChildrenNames'
p2780
(lp2781
sg28
VdoubleLinear
p2782
sS'isMulti'
p2783
I00
sS'isCompound'
p2784
I00
sg18
I01
sg19
(lp2785
sS'isElement'
p2786
I00
ssVtarget[0].targetRotateTranslate.targetRotateTranslateY
p2787
(dp2788
S'isArray'
p2789
I00
sS'attrParentLongName'
p2790
Vtarget[0].targetRotateTranslate
p2791
sS'attrChildrenNames'
p2792
(lp2793
sg28
VdoubleLinear
p2794
sS'isMulti'
p2795
I00
sS'isCompound'
p2796
I00
sg18
I01
sg19
(lp2797
sS'isElement'
p2798
I00
ssVtarget[0].targetRotateTranslate.targetRotateTranslateX
p2799
(dp2800
S'isArray'
p2801
I00
sS'attrParentLongName'
p2802
Vtarget[0].targetRotateTranslate
p2803
sS'attrChildrenNames'
p2804
(lp2805
sg28
VdoubleLinear
p2806
sS'isMulti'
p2807
I00
sS'isCompound'
p2808
I00
sg18
I01
sg19
(lp2809
sS'isElement'
p2810
I00
ssVtarget[0].targetRotatePivot.targetRotatePivotZ
p2811
(dp2812
S'isArray'
p2813
I00
sS'attrParentLongName'
p2814
Vtarget[0].targetRotatePivot
p2815
sS'attrChildrenNames'
p2816
(lp2817
sg28
VdoubleLinear
p2818
sS'isMulti'
p2819
I00
sS'isCompound'
p2820
I00
sg18
I01
sg19
(lp2821
sS'isElement'
p2822
I00
ssVtarget.targetRotatePivotX
p2823
(dp2824
g68
Vtarget.targetRotatePivot
p2825
ssVtarget.targetRotatePivotY
p2826
(dp2827
g68
Vtarget.targetRotatePivot
p2828
ssVtarget.targetRotatePivotZ
p2829
(dp2830
g68
Vtarget.targetRotatePivot
p2831
ssVmaxRotLimitEnable
p2832
(dp2833
g61
I00
sg4
VTdataCompound
p2834
sg11
(lp2835
g1641
ag2225
ag1162
asg10
I00
sg63
I00
ssVtarget[0].targetParentMatrix
p2836
(dp2837
S'isArray'
p2838
I00
sS'attrParentLongName'
p2839
Vtarget[0]
p2840
sS'attrChildrenNames'
p2841
(lp2842
sg28
Vmatrix
p2843
sS'isMulti'
p2844
I00
sS'isCompound'
p2845
I00
sg18
I00
sg19
(lp2846
sS'isElement'
p2847
I00
ssg2672
(dp2848
g61
I00
sg17
Vlong
p2849
sg10
I00
sg11
(lp2850
ssVconstraintVector
p2851
(dp2852
S'isArray'
p2853
I00
sg28
Vdouble3
p2854
sS'attrChildrenNames'
p2855
(lp2856
VconstraintVector.constraintVectorX
p2857
aVconstraintVector.constraintVectorY
p2858
aVconstraintVector.constraintVectorZ
p2859
asS'isMulti'
p2860
I00
sS'isCompound'
p2861
I01
sg18
I01
sg19
(lp2862
VconstraintVector.constraintVectorX
p2863
aVconstraintVector.constraintVectorY
p2864
aVconstraintVector.constraintVectorZ
p2865
asS'isElement'
p2866
I00
ssVconstraintJointOrient
p2867
(dp2868
S'isArray'
p2869
I00
sg28
Vdouble3
p2870
sS'attrChildrenNames'
p2871
(lp2872
VconstraintJointOrient.constraintJointOrientX
p2873
aVconstraintJointOrient.constraintJointOrientY
p2874
aVconstraintJointOrient.constraintJointOrientZ
p2875
asS'isMulti'
p2876
I00
sS'isCompound'
p2877
I01
sg18
I01
sg19
(lp2878
VconstraintJointOrient.constraintJointOrientX
p2879
aVconstraintJointOrient.constraintJointOrientY
p2880
aVconstraintJointOrient.constraintJointOrientZ
p2881
asS'isElement'
p2882
I00
ssVobjectColorRGB.objectColorG
p2883
(dp2884
g526
VobjectColorRGB
p2885
sg279
I00
sg17
Vfloat
p2886
sg281
I01
sg282
(lp2887
ssg225
(dp2888
g61
I00
sg4
VdoubleLinear
p2889
sg63
I00
sg64
I00
sg10
I01
sg11
(lp2890
ssg231
(dp2891
g61
I00
sg4
VdoubleAngle
p2892
sg63
I00
sg64
I00
sg10
I01
sg11
(lp2893
ssVobjectColorRGB.objectColorB
p2894
(dp2895
g526
VobjectColorRGB
p2896
sg279
I00
sg17
Vfloat
p2897
sg281
I01
sg282
(lp2898
ssVtarget[1].targetRotatePivot
p2899
(dp2900
g16
I00
sg17
Vdouble3
p2901
sg18
I00
sg19
(lp2902
g2182
ag2186
ag2178
assVconstraintRotatePivot.constraintRotatePivotZ
p2903
(dp2904
S'isArray'
p2905
I00
sS'attrParentLongName'
p2906
VconstraintRotatePivot
p2907
sS'attrChildrenNames'
p2908
(lp2909
sg28
VdoubleLinear
p2910
sS'isMulti'
p2911
I00
sS'isCompound'
p2912
I00
sg18
I01
sg19
(lp2913
sS'isElement'
p2914
I00
ssVconstraintRotatePivot.constraintRotatePivotX
p2915
(dp2916
S'isArray'
p2917
I00
sS'attrParentLongName'
p2918
VconstraintRotatePivot
p2919
sS'attrChildrenNames'
p2920
(lp2921
sg28
VdoubleLinear
p2922
sS'isMulti'
p2923
I00
sS'isCompound'
p2924
I00
sg18
I01
sg19
(lp2925
sS'isElement'
p2926
I00
ssVconstraintRotatePivot.constraintRotatePivotY
p2927
(dp2928
S'isArray'
p2929
I00
sS'attrParentLongName'
p2930
VconstraintRotatePivot
p2931
sS'attrChildrenNames'
p2932
(lp2933
sg28
VdoubleLinear
p2934
sS'isMulti'
p2935
I00
sS'isCompound'
p2936
I00
sg18
I01
sg19
(lp2937
sS'isElement'
p2938
I00
ssVrestRotate.restRotateZ
p2939
(dp2940
S'isArray'
p2941
I00
sS'attrParentLongName'
p2942
VrestRotate
p2943
sS'attrChildrenNames'
p2944
(lp2945
sg4
VdoubleAngle
p2946
sS'isMulti'
p2947
I00
sS'isCompound'
p2948
I00
sg10
I01
sg11
(lp2949
sS'isElement'
p2950
I00
ssVrestRotate.restRotateX
p2951
(dp2952
S'isArray'
p2953
I00
sS'attrParentLongName'
p2954
VrestRotate
p2955
sS'attrChildrenNames'
p2956
(lp2957
sg4
VdoubleAngle
p2958
sS'isMulti'
p2959
I00
sS'isCompound'
p2960
I00
sg10
I01
sg11
(lp2961
sS'isElement'
p2962
I00
ssVrestRotate.restRotateY
p2963
(dp2964
S'isArray'
p2965
I00
sS'attrParentLongName'
p2966
VrestRotate
p2967
sS'attrChildrenNames'
p2968
(lp2969
sg4
VdoubleAngle
p2970
sS'isMulti'
p2971
I00
sS'isCompound'
p2972
I00
sg10
I01
sg11
(lp2973
sS'isElement'
p2974
I00
ssVconstraintJointOrient.constraintJointOrientZ
p2975
(dp2976
S'isArray'
p2977
I00
sS'attrParentLongName'
p2978
VconstraintJointOrient
p2979
sS'attrChildrenNames'
p2980
(lp2981
sg28
VdoubleAngle
p2982
sS'isMulti'
p2983
I00
sS'isCompound'
p2984
I00
sg18
I01
sg19
(lp2985
sS'isElement'
p2986
I00
ssVconstraintJointOrient.constraintJointOrientX
p2987
(dp2988
S'isArray'
p2989
I00
sS'attrParentLongName'
p2990
VconstraintJointOrient
p2991
sS'attrChildrenNames'
p2992
(lp2993
sg28
VdoubleAngle
p2994
sS'isMulti'
p2995
I00
sS'isCompound'
p2996
I00
sg18
I01
sg19
(lp2997
sS'isElement'
p2998
I00
ssVconstraintJointOrient.constraintJointOrientY
p2999
(dp3000
S'isArray'
p3001
I00
sS'attrParentLongName'
p3002
VconstraintJointOrient
p3003
sS'attrChildrenNames'
p3004
(lp3005
sg28
VdoubleAngle
p3006
sS'isMulti'
p3007
I00
sS'isCompound'
p3008
I00
sg18
I01
sg19
(lp3009
sS'isElement'
p3010
I00
ssVmentalRayControls
p3011
(dp3012
S'isArray'
p3013
I00
sg4
VTdataCompound
p3014
sS'attrChildrenNames'
p3015
(lp3016
VmentalRayControls.miDeriveFromMaya
p3017
aVmentalRayControls.miHide
p3018
aVmentalRayControls.miVisible
p3019
aVmentalRayControls.miTrace
p3020
aVmentalRayControls.miShadow
p3021
aVmentalRayControls.miCaustic
p3022
aVmentalRayControls.miGlobillum
p3023
aVmentalRayControls.miExportGeoShader
p3024
aVmentalRayControls.miGeoShader
p3025
aVmentalRayControls.miProxyRenderable
p3026
asS'isMulti'
p3027
I00
sS'isCompound'
p3028
I01
sg10
I00
sg11
(lp3029
VmentalRayControls.miDeriveFromMaya
p3030
aVmentalRayControls.miHide
p3031
aVmentalRayControls.miVisible
p3032
aVmentalRayControls.miTrace
p3033
aVmentalRayControls.miShadow
p3034
aVmentalRayControls.miCaustic
p3035
aVmentalRayControls.miGlobillum
p3036
aVmentalRayControls.miExportGeoShader
p3037
aVmentalRayControls.miGeoShader
p3038
aVmentalRayControls.miProxyRenderable
p3039
asS'isElement'
p3040
I00
ssVworldInverseMatrix
p3041
(dp3042
S'isArray'
p3043
I01
sS'isElement'
p3044
I00
sg4
Vmatrix
p3045
sg10
I00
sS'isMulti'
p3046
I01
ssVoutlinerColor
p3047
(dp3048
g279
I00
sg17
Vfloat3
p3049
sg281
I00
sg282
(lp3050
g1593
ag395
ag399
assVrenderInfo.identification
p3051
(dp3052
S'isArray'
p3053
I00
sS'attrParentLongName'
p3054
VrenderInfo
p3055
sS'attrChildrenNames'
p3056
(lp3057
sg4
Vshort
p3058
sS'isMulti'
p3059
I00
sS'isCompound'
p3060
I00
sg10
I01
sg11
(lp3061
sS'isElement'
p3062
I00
ssg2757
(dp3063
g61
I00
sg4
VdoubleAngle
p3064
sg63
I00
sg64
I00
sg10
I01
sg11
(lp3065
ssVrenderLayerInfo.renderLayerColor
p3066
(dp3067
g68
VrenderLayerInfo
p3068
ssVconstraintRotate.constraintRotateX
p3069
(dp3070
S'isArray'
p3071
I00
sS'attrParentLongName'
p3072
VconstraintRotate
p3073
sS'attrChildrenNames'
p3074
(lp3075
sg28
VdoubleAngle
p3076
sS'isMulti'
p3077
I00
sg31
NsS'isCompound'
p3078
I00
sg18
I01
sg19
(lp3079
sS'isElement'
p3080
I00
ssVconstraintRotate.constraintRotateY
p3081
(dp3082
S'isArray'
p3083
I00
sS'attrParentLongName'
p3084
VconstraintRotate
p3085
sS'attrChildrenNames'
p3086
(lp3087
sg28
VdoubleAngle
p3088
sS'isMulti'
p3089
I00
sg31
NsS'isCompound'
p3090
I00
sg18
I01
sg19
(lp3091
sS'isElement'
p3092
I00
ssVconstraintRotate.constraintRotateZ
p3093
(dp3094
S'isArray'
p3095
I00
sS'attrParentLongName'
p3096
VconstraintRotate
p3097
sS'attrChildrenNames'
p3098
(lp3099
sg28
VdoubleAngle
p3100
sS'isMulti'
p3101
I00
sg31
NsS'isCompound'
p3102
I00
sg18
I01
sg19
(lp3103
sS'isElement'
p3104
I00
ssVisHierarchicalConnection[0]
p3105
(dp3106
g61
I00
sg10
I00
sg11
(lp3107
ssVshowManipDefault
p3108
(dp3109
S'isArray'
p3110
I00
sg4
Venum
p3111
sS'attrChildrenNames'
p3112
(lp3113
sS'isMulti'
p3114
I00
sS'isCompound'
p3115
I00
sg10
I01
sg11
(lp3116
sS'isElement'
p3117
I00
ssg2758
(dp3118
g61
I00
sg4
VdoubleAngle
p3119
sg63
I00
sg64
I00
sg10
I01
sg11
(lp3120
ssVconstraintVector.constraintVectorX
p3121
(dp3122
S'isArray'
p3123
I00
sS'attrParentLongName'
p3124
VconstraintVector
p3125
sS'attrChildrenNames'
p3126
(lp3127
sg28
VdoubleLinear
p3128
sS'isMulti'
p3129
I00
sg31
NsS'isCompound'
p3130
I00
sg18
I01
sg19
(lp3131
sS'isElement'
p3132
I00
ssVconstraintVector.constraintVectorY
p3133
(dp3134
S'isArray'
p3135
I00
sS'attrParentLongName'
p3136
VconstraintVector
p3137
sS'attrChildrenNames'
p3138
(lp3139
sg28
VdoubleLinear
p3140
sS'isMulti'
p3141
I00
sg31
NsS'isCompound'
p3142
I00
sg18
I01
sg19
(lp3143
sS'isElement'
p3144
I00
ssVconstraintVector.constraintVectorZ
p3145
(dp3146
S'isArray'
p3147
I00
sS'attrParentLongName'
p3148
VconstraintVector
p3149
sS'attrChildrenNames'
p3150
(lp3151
sg28
VdoubleLinear
p3152
sS'isMulti'
p3153
I00
sg31
NsS'isCompound'
p3154
I00
sg18
I01
sg19
(lp3155
sS'isElement'
p3156
I00
ssVrenderLayerInfo[1]
p3157
(dp3158
g61
I00
sg17
VTdataCompound
p3159
sg10
I00
sg11
(lp3160
g2491
ag1541
ag978
assVaimVector.aimVectorZ
p3161
(dp3162
S'isArray'
p3163
I00
sS'attrParentLongName'
p3164
VaimVector
p3165
sS'attrChildrenNames'
p3166
(lp3167
sg28
Vdouble
p3168
sS'isMulti'
p3169
I00
sS'isCompound'
p3170
I00
sg18
I01
sg19
(lp3171
sS'isElement'
p3172
I00
ssVghostCustomSteps.ghostStepSize
p3173
(dp3174
S'isArray'
p3175
I00
sS'attrParentLongName'
p3176
VghostCustomSteps
p3177
sS'attrChildrenNames'
p3178
(lp3179
sg4
Vlong
p3180
sS'isMulti'
p3181
I00
sS'isCompound'
p3182
I00
sg10
I01
sg11
(lp3183
sS'isElement'
p3184
I00
ssVaimVector.aimVectorX
p3185
(dp3186
S'isArray'
p3187
I00
sS'attrParentLongName'
p3188
VaimVector
p3189
sS'attrChildrenNames'
p3190
(lp3191
sg28
Vdouble
p3192
sS'isMulti'
p3193
I00
sg31
NsS'isCompound'
p3194
I00
sg18
I01
sg19
(lp3195
sS'isElement'
p3196
I00
ssVaimVector.aimVectorY
p3197
(dp3198
S'isArray'
p3199
I00
sS'attrParentLongName'
p3200
VaimVector
p3201
sS'attrChildrenNames'
p3202
(lp3203
sg28
Vdouble
p3204
sS'isMulti'
p3205
I00
sS'isCompound'
p3206
I00
sg18
I01
sg19
(lp3207
sS'isElement'
p3208
I00
ssVrenderLayerInfo
p3209
(dp3210
S'isArray'
p3211
I01
sS'isElement'
p3212
I00
sg4
VTdataCompound
p3213
sg10
I00
sS'isMulti'
p3214
I01
ssVtarget[1]
p3215
(dp3216
g16
I00
sg17
VTdataCompound
p3217
sg18
I00
sg19
(lp3218
g2664
ag2899
ag2571
ag14
ag2385
assVtarget[0].targetRotatePivot.targetRotatePivotY
p3219
(dp3220
S'isArray'
p3221
I00
sS'attrParentLongName'
p3222
Vtarget[0].targetRotatePivot
p3223
sS'attrChildrenNames'
p3224
(lp3225
sg28
VdoubleLinear
p3226
sS'isMulti'
p3227
I00
sS'isCompound'
p3228
I00
sg18
I01
sg19
(lp3229
sS'isElement'
p3230
I00
ssVtarget[0].targetRotatePivot.targetRotatePivotX
p3231
(dp3232
S'isArray'
p3233
I00
sS'attrParentLongName'
p3234
Vtarget[0].targetRotatePivot
p3235
sS'attrChildrenNames'
p3236
(lp3237
sg28
VdoubleLinear
p3238
sS'isMulti'
p3239
I00
sS'isCompound'
p3240
I00
sg18
I01
sg19
(lp3241
sS'isElement'
p3242
I00
ssVmentalRayControls.miProxyRenderable
p3243
(dp3244
S'isArray'
p3245
I00
sS'attrParentLongName'
p3246
VmentalRayControls
p3247
sS'attrChildrenNames'
p3248
(lp3249
sg4
Vbool
p3250
sS'isMulti'
p3251
I00
sS'isCompound'
p3252
I00
sg10
I01
sg11
(lp3253
sS'isElement'
p3254
I00
ssg829
(dp3255
g61
I00
sg4
Vbool
p3256
sg63
I00
sg64
I00
sg10
I01
sg11
(lp3257
ssVinverseMatrix
p3258
(dp3259
S'isArray'
p3260
I00
sg4
Vmatrix
p3261
sS'attrChildrenNames'
p3262
(lp3263
sS'isMulti'
p3264
I00
sS'isCompound'
p3265
I00
sg10
I00
sg11
(lp3266
sS'isElement'
p3267
I00
ssVmentalRayControls.miGlobillum
p3268
(dp3269
S'isArray'
p3270
I00
sS'attrParentLongName'
p3271
VmentalRayControls
p3272
sS'attrChildrenNames'
p3273
(lp3274
sg4
Venum
p3275
sS'isMulti'
p3276
I00
sS'isCompound'
p3277
I00
sg10
I01
sg11
(lp3278
sS'isElement'
p3279
I00
ssVcenter.boundingBoxCenterZ
p3280
(dp3281
S'isArray'
p3282
I00
sS'attrParentLongName'
p3283
Vcenter
p3284
sS'attrChildrenNames'
p3285
(lp3286
sg4
VdoubleLinear
p3287
sS'isMulti'
p3288
I00
sS'isCompound'
p3289
I00
sg10
I01
sg11
(lp3290
sS'isElement'
p3291
I00
ssVcenter.boundingBoxCenterX
p3292
(dp3293
S'isArray'
p3294
I00
sS'attrParentLongName'
p3295
Vcenter
p3296
sS'attrChildrenNames'
p3297
(lp3298
sg4
VdoubleLinear
p3299
sS'isMulti'
p3300
I00
sS'isCompound'
p3301
I00
sg10
I01
sg11
(lp3302
sS'isElement'
p3303
I00
ssVcenter.boundingBoxCenterY
p3304
(dp3305
S'isArray'
p3306
I00
sS'attrParentLongName'
p3307
Vcenter
p3308
sS'attrChildrenNames'
p3309
(lp3310
sg4
VdoubleLinear
p3311
sS'isMulti'
p3312
I00
sS'isCompound'
p3313
I00
sg10
I01
sg11
(lp3314
sS'isElement'
p3315
I00
ss.