(dp0
VrawValue
p1
(dp2
S'isArray'
p3
I00
sS'attrType'
p4
Vdouble
p5
sS'isMulti'
p6
I00
sS'isCompound'
p7
I00
sS'isSimple'
p8
I01
sS'attrChildrenLongNames'
p9
(lp10
ssVcurveColor.curveColorR
p11
(dp12
g3
I00
sg4
Vfloat
p13
sg8
I01
sg9
(lp14
ssVnodeState
p15
(dp16
g3
I00
sg4
Venum
p17
sg8
I01
sg9
(lp18
ssVkeyTimeValue[1].keyValue
p19
(dp20
g3
I00
sg4
VdoubleAngle
p21
sg6
I00
sg7
I00
sg8
I01
sg9
(lp22
sS'isNumeric'
p23
I01
ssVapply
p24
(dp25
g3
I00
sg4
Vfunction
p26
sg8
I00
sg9
(lp27
ssVkeyTimeValue[2].keyValue
p28
(dp29
g3
I00
sg4
VdoubleAngle
p30
sg8
I01
sg9
(lp31
ssVkeyTimeValue[1].keyTime
p32
(dp33
g3
I00
sg4
Vtime
p34
sg6
I00
sg7
I00
sg8
I01
sg9
(lp35
sg23
I01
ssS'keyTimeValue.keyValue'
p36
(dp37
S'attrParentLongName'
p38
VkeyTimeValue
p39
ssVkeyTimeValue[1]
p40
(dp41
g3
I00
sg4
VTdataCompound
p42
sg8
I00
sg9
(lp43
g32
ag19
assVstippleReverse
p44
(dp45
g3
I00
sg4
Vbool
p46
sg8
I01
sg9
(lp47
ssVkeyTimeValue[3]
p48
(dp49
g3
I00
sg4
VTdataCompound
p50
sg8
I00
sg9
(lp51
VkeyTimeValue[3].keyTime
p52
aVkeyTimeValue[3].keyValue
p53
assVinStippleRange
p54
(dp55
g3
I00
sg4
Nsg8
I00
sg9
(lp56
ssVcurveColor
p57
(dp58
g3
I00
sg4
Vfloat3
p59
sg8
I00
sg9
(lp60
g11
aVcurveColor.curveColorG
p61
aVcurveColor.curveColorB
p62
assVkeyTimeValue[0].keyValue
p63
(dp64
g3
I00
sg4
VdoubleAngle
p65
sg6
I00
sg7
I00
sg8
I01
sg9
(lp66
ssVoutStippleRange
p67
(dp68
g3
I00
sg4
VdoubleArray
p69
sg8
I00
sg9
(lp70
ssVkeyTimeValue
p71
(dp72
g3
I01
sg4
VTdataCompound
p73
sg8
I00
ssVstipplePattern
p74
(dp75
g3
I00
sg4
Venum
p76
sg8
I01
sg9
(lp77
ssg53
(dp78
g3
I00
sg4
VdoubleAngle
p79
sg8
I01
sg9
(lp80
ssg62
(dp81
g3
I00
sg4
Vfloat
p82
sg8
I01
sg9
(lp83
ssVquaternionW
p84
(dp85
g3
I00
sg4
Vdouble
p86
sg6
I00
sg7
I00
sg8
I01
sg9
(lp87
ssg61
(dp88
g3
I00
sg4
Vfloat
p89
sg8
I01
sg9
(lp90
ssS'keyTimeValue.keyTime'
p91
(dp92
g38
VkeyTimeValue
p93
ssg52
(dp94
g3
I00
sg4
Vtime
p95
sg8
I01
sg9
(lp96
ssVinput
p97
(dp98
g3
I00
sg4
Vtime
p99
sg6
I00
sg7
I00
sg8
I01
sg9
(lp100
sg23
I01
ssVkeyTimeValue[0]
p101
(dp102
g3
I00
sg4
VTdataCompound
p103
sg8
I00
sg9
(lp104
VkeyTimeValue[0].keyTime
p105
ag63
assVoutStippleThreshold
p106
(dp107
g3
I00
sg4
Vdouble
p108
sg8
I01
sg9
(lp109
ssVkeyTimeValue[2]
p110
(dp111
g3
I00
sg4
VTdataCompound
p112
sg8
I00
sg9
(lp113
VkeyTimeValue[2].keyTime
p114
ag28
assg105
(dp115
g3
I00
sg4
Vtime
p116
sg6
I00
sg7
I00
sg8
I01
sg9
(lp117
sg23
I01
ssVfrozen
p118
(dp119
g3
I00
sg4
Vbool
p120
sg8
I01
sg9
(lp121
ssVcaching
p122
(dp123
g3
I00
sg4
Vbool
p124
sg8
I01
sg9
(lp125
ssVoutput
p126
(dp127
g3
I00
sg4
VdoubleAngle
p128
sg6
I00
sg7
I00
sg8
I01
sg9
(lp129
ssVuseCurveColor
p130
(dp131
g3
I00
sg4
Vbool
p132
sg8
I01
sg9
(lp133
ssg114
(dp134
g3
I00
sg4
Vtime
p135
sg8
I01
sg9
(lp136
ss.