(dp0
VrotateOrder
p1
(dp2
S'isArray'
p3
I00
sS'attrType'
p4
Venum
p5
sS'isMulti'
p6
I00
sS'isCompound'
p7
I00
sS'isSimple'
p8
I01
sS'attrChildrenLongNames'
p9
(lp10
ssVtranslate.translateZ
p11
(dp12
g3
I00
sg4
VdoubleLinear
p13
sg6
I00
sg7
I00
sg8
I01
sg9
(lp14
ssVtranslate.translateX
p15
(dp16
g3
I00
sg4
VdoubleLinear
p17
sg6
I00
sg7
I00
sg8
I01
sg9
(lp18
ssVdrawOverride.overrideColor
p19
(dp20
g3
I00
sg6
I00
sg4
Vbyte
p21
sg8
I00
sg9
(lp22
ssVintermediateObject
p23
(dp24
g3
I00
sg4
Vbool
p25
sg6
I00
sg7
I00
sg8
I01
sg9
(lp26
ssVghostCustomSteps.ghostPostSteps
p27
(dp28
g3
I00
sg4
Vlong
p29
sg6
I00
sg7
I00
sg8
I01
sg9
(lp30
ssVrenderLayerInfo.renderLayerId
p31
(dp32
S'attrParentLongName'
p33
VrenderLayerInfo
p34
ssVselectHandle.selectHandleX
p35
(dp36
g3
I00
sg4
VdoubleLinear
p37
sg6
I00
sg7
I00
sg8
I01
sg9
(lp38
ssVmentalRayControls.miVisible
p39
(dp40
g3
I00
sg4
Venum
p41
sg6
I00
sg7
I00
sg8
I01
sg9
(lp42
ssVuseObjectColor
p43
(dp44
g3
I00
sg4
Vbool
p45
sg6
I00
sg7
I00
sg8
I01
sg9
(lp46
ssVdrawOverride.overrideLevelOfDetail
p47
(dp48
g3
I00
sg4
Venum
p49
sg6
I00
sg7
I00
sg8
I01
sg9
(lp50
ssVinstObjGroups[0].objectGroups[0].objectGroupId
p51
(dp52
g3
I00
sg9
(lp53
ssVghostColorPost
p54
(dp55
g3
I00
sg6
I00
sg4
Vfloat3
p56
sg8
I00
sg9
(lp57
VghostColorPost.ghostColorPostR
p58
aVghostColorPost.ghostColorPostG
p59
aVghostColorPost.ghostColorPostB
p60
assVselectHandle.selectHandleY
p61
(dp62
g3
I00
sg4
VdoubleLinear
p63
sg6
I00
sg7
I00
sg8
I01
sg9
(lp64
ssVminTransLimitEnable.minTransYLimitEnable
p65
(dp66
g3
I00
sg4
Vbool
p67
sg6
I00
sg7
I00
sg8
I01
sg9
(lp68
ssVtranslate.translateY
p69
(dp70
g3
I00
sg4
VdoubleLinear
p71
sg6
I00
sg7
I00
sg8
I01
sg9
(lp72
ssVrenderLayerInfo.renderLayerRenderable
p73
(dp74
g33
VrenderLayerInfo
p75
ssVminRotLimitEnable.minRotZLimitEnable
p76
(dp77
g3
I00
sg4
Vbool
p78
sg6
I00
sg7
I00
sg8
I01
sg9
(lp79
ssVscalePivotTranslate
p80
(dp81
g3
I00
sg4
Vdouble3
p82
sg6
I00
sg7
I01
sg8
I01
sg9
(lp83
VscalePivotTranslate.scalePivotTranslateX
p84
aVscalePivotTranslate.scalePivotTranslateY
p85
aVscalePivotTranslate.scalePivotTranslateZ
p86
assVmaxRotLimit.maxRotYLimit
p87
(dp88
g3
I00
sg4
VdoubleAngle
p89
sg6
I00
sg7
I00
sg8
I01
sg9
(lp90
ssVinherit_rx
p91
(dp92
g3
I00
sg4
Vdouble
p93
sg6
I00
sg7
I00
sg8
I01
sg9
(lp94
ssVinherit_ry
p95
(dp96
g3
I00
sg4
Vdouble
p97
sg6
I00
sg7
I00
sg8
I01
sg9
(lp98
ssVinherit_rz
p99
(dp100
g3
I00
sg4
Vdouble
p101
sg6
I00
sg7
I00
sg8
I01
sg9
(lp102
ssVworldInverseMatrix[1]
p103
(dp104
g3
I00
sg9
(lp105
ssVrotateQuaternion.rotateQuaternionW
p106
(dp107
g3
I00
sg4
Vdouble
p108
sg6
I00
sg7
I00
sg8
I01
sg9
(lp109
ssVbinMembership
p110
(dp111
g3
I00
sg4
Vstring
p112
sg6
I00
sg7
I00
sg8
I01
sg9
(lp113
ssVcustomTreatment
p114
(dp115
g3
I00
sg4
Vstring
p116
sg6
I00
sg7
I00
sg8
I01
sg9
(lp117
ssVrenderLayerInfo[0].renderLayerRenderable
p118
(dp119
g3
I00
sg9
(lp120
ssVtemplatePath
p121
(dp122
g3
I00
sg4
Vstring
p123
sg6
I00
sg7
I00
sg8
I01
sg9
(lp124
ssVshear
p125
(dp126
g3
I00
sg4
Vdouble3
p127
sg6
I00
sg7
I01
sg8
I01
sg9
(lp128
Vshear.shearXY
p129
aVshear.shearXZ
p130
aVshear.shearYZ
p131
assVboundingBox.boundingBoxMin.boundingBoxMinY
p132
(dp133
g33
VboundingBox.boundingBoxMin
p134
ssVboundingBox.boundingBoxMin.boundingBoxMinX
p135
(dp136
g33
VboundingBox.boundingBoxMin
p137
ssVboundingBox.boundingBoxMin.boundingBoxMinZ
p138
(dp139
g33
VboundingBox.boundingBoxMin
p140
ssVminRotLimitEnable.minRotYLimitEnable
p141
(dp142
g3
I00
sg4
Vbool
p143
sg6
I00
sg7
I00
sg8
I01
sg9
(lp144
ssVselectHandle
p145
(dp146
g3
I00
sg4
Vdouble3
p147
sg6
I00
sg7
I01
sg8
I01
sg9
(lp148
g35
ag61
aVselectHandle.selectHandleZ
p149
assVghostColorPostA
p150
(dp151
g3
I00
sg4
Vfloat
p152
sg6
I00
sg7
I00
sg8
I01
sg9
(lp153
ssVparentMatrix
p154
(dp155
g3
I01
sg6
I01
sg8
I00
sg4
Vmatrix
p156
ssVrotateQuaternion.rotateQuaternionZ
p157
(dp158
g3
I00
sg4
Vdouble
p159
sg6
I00
sg7
I00
sg8
I01
sg9
(lp160
ssVcontainerType
p161
(dp162
g3
I00
sg4
Vstring
p163
sg6
I00
sg7
I00
sg8
I01
sg9
(lp164
ssVrotateQuaternion.rotateQuaternionX
p165
(dp166
g3
I00
sg4
Vdouble
p167
sg6
I00
sg7
I00
sg8
I01
sg9
(lp168
ssVrotateQuaternion.rotateQuaternionY
p169
(dp170
g3
I00
sg4
Vdouble
p171
sg6
I00
sg7
I00
sg8
I01
sg9
(lp172
ssVmaxTransLimitEnable.maxTransZLimitEnable
p173
(dp174
g3
I00
sg4
Vbool
p175
sg6
I00
sg7
I00
sg8
I01
sg9
(lp176
ssVmaxRotLimitEnable.maxRotXLimitEnable
p177
(dp178
g3
I00
sg4
Vbool
p179
sg6
I00
sg7
I00
sg8
I01
sg9
(lp180
ssVminTransLimitEnable.minTransZLimitEnable
p181
(dp182
g3
I00
sg4
Vbool
p183
sg6
I00
sg7
I00
sg8
I01
sg9
(lp184
ssVcreationDate
p185
(dp186
g3
I00
sg4
Vstring
p187
sg6
I00
sg7
I00
sg8
I01
sg9
(lp188
ssVminScaleLimit.minScaleXLimit
p189
(dp190
g3
I00
sg4
Vdouble
p191
sg6
I00
sg7
I00
sg8
I01
sg9
(lp192
ssVmentalRayControls.miDeriveFromMaya
p193
(dp194
g3
I00
sg4
Vbool
p195
sg6
I00
sg7
I00
sg8
I01
sg9
(lp196
ssVrotatePivotTranslate.rotatePivotTranslateX
p197
(dp198
g3
I00
sg4
VdoubleLinear
p199
sg6
I00
sg7
I00
sg8
I01
sg9
(lp200
ssVrotatePivotTranslate.rotatePivotTranslateY
p201
(dp202
g3
I00
sg4
VdoubleLinear
p203
sg6
I00
sg7
I00
sg8
I01
sg9
(lp204
ssVminTransLimit
p205
(dp206
g3
I00
sg4
Vdouble3
p207
sg6
I00
sg7
I01
sg8
I01
sg9
(lp208
VminTransLimit.minTransXLimit
p209
aVminTransLimit.minTransYLimit
p210
aVminTransLimit.minTransZLimit
p211
assVrotate
p212
(dp213
g3
I00
sg4
Vdouble3
p214
sg6
I00
sg7
I01
sg8
I01
sg9
(lp215
Vrotate.rotateX
p216
aVrotate.rotateY
p217
aVrotate.rotateZ
p218
assVrenderLayerInfo[1].renderLayerColor
p219
(dp220
g3
I00
sg9
(lp221
ssVminRotLimit
p222
(dp223
g3
I00
sg4
Vdouble3
p224
sg6
I00
sg7
I01
sg8
I01
sg9
(lp225
VminRotLimit.minRotXLimit
p226
aVminRotLimit.minRotYLimit
p227
aVminRotLimit.minRotZLimit
p228
assVmaxTransLimitEnable.maxTransYLimitEnable
p229
(dp230
g3
I00
sg4
Vbool
p231
sg6
I00
sg7
I00
sg8
I01
sg9
(lp232
ssVworldMatrix[0]
p233
(dp234
g3
I00
sg9
(lp235
ssVisHierarchicalConnection[1]
p236
(dp237
g3
I00
sg9
(lp238
ssVparentInverseMatrix[0]
p239
(dp240
g3
I00
sg9
(lp241
ssg228
(dp242
g3
I00
sg4
VdoubleAngle
p243
sg6
I00
sg7
I00
sg8
I01
sg9
(lp244
ssVmaxScaleLimitEnable.maxScaleYLimitEnable
p245
(dp246
g3
I00
sg4
Vbool
p247
sg6
I00
sg7
I00
sg8
I01
sg9
(lp248
ssVdrawOverride.overrideEnabled
p249
(dp250
g3
I00
sg4
Vbool
p251
sg6
I00
sg7
I00
sg8
I01
sg9
(lp252
ssVrotatePivot.rotatePivotZ
p253
(dp254
g3
I00
sg4
VdoubleLinear
p255
sg6
I00
sg7
I00
sg8
I01
sg9
(lp256
ssVboundingBox.boundingBoxMax
p257
(dp258
g33
VboundingBox
p259
ssVrotatePivot.rotatePivotY
p260
(dp261
g3
I00
sg4
VdoubleLinear
p262
sg6
I00
sg7
I00
sg8
I01
sg9
(lp263
ssVparentMatrix[0]
p264
(dp265
g3
I00
sg9
(lp266
ssVscalePivot.scalePivotX
p267
(dp268
g3
I00
sg4
VdoubleLinear
p269
sg6
I00
sg7
I00
sg8
I01
sg9
(lp270
ssVghostColorPre.ghostColorPreR
p271
(dp272
g3
I00
sg4
Vfloat
p273
sg6
I00
sg7
I00
sg8
I01
sg9
(lp274
ssVcreator
p275
(dp276
g3
I00
sg4
Vstring
p277
sg6
I00
sg7
I00
sg8
I01
sg9
(lp278
ssVrotateAxis.rotateAxisX
p279
(dp280
g3
I00
sg4
VdoubleAngle
p281
sg6
I00
sg7
I00
sg8
I01
sg9
(lp282
ssVrotateAxis.rotateAxisY
p283
(dp284
g3
I00
sg4
VdoubleAngle
p285
sg6
I00
sg7
I00
sg8
I01
sg9
(lp286
ssVrotateAxis.rotateAxisZ
p287
(dp288
g3
I00
sg4
VdoubleAngle
p289
sg6
I00
sg7
I00
sg8
I01
sg9
(lp290
ssVinstObjGroups[0].objectGroups[0]
p291
(dp292
g3
I00
sg9
(lp293
VinstObjGroups[0].objectGroups[0].objectGrpCompList
p294
ag51
aVinstObjGroups[0].objectGroups[0].objectGrpColor
p295
assVghostRangeEnd
p296
(dp297
g3
I00
sg4
Vtime
p298
sg6
I00
sg7
I00
sg8
I01
sg9
(lp299
ssVobjectColorRGB
p300
(dp301
g3
I00
sg6
I00
sg4
Vfloat3
p302
sg8
I00
sg9
(lp303
VobjectColorRGB.objectColorR
p304
aVobjectColorRGB.objectColorG
p305
aVobjectColorRGB.objectColorB
p306
assVghostColorPre.ghostColorPreG
p307
(dp308
g3
I00
sg4
Vfloat
p309
sg6
I00
sg7
I00
sg8
I01
sg9
(lp310
ssVpublishedNodeInfo.isHierarchicalNode
p311
(dp312
g33
VpublishedNodeInfo
p313
ssVghostColorPre.ghostColorPreB
p314
(dp315
g3
I00
sg4
Vfloat
p316
sg6
I00
sg7
I00
sg8
I01
sg9
(lp317
ssVpublishedNodeInfo[0].publishedNode
p318
(dp319
g3
I00
sg9
(lp320
ssVdynamics
p321
(dp322
g3
I00
sg4
Vbool
p323
sg6
I00
sg7
I00
sg8
I01
sg9
(lp324
ssVpublishedNodeInfo[1].isHierarchicalNode
p325
(dp326
g3
I00
sg9
(lp327
ssVtemplateVersion
p328
(dp329
g3
I00
sg4
Vlong
p330
sg6
I00
sg7
I00
sg8
I01
sg9
(lp331
ssVmaxTransLimit.maxTransZLimit
p332
(dp333
g3
I00
sg4
VdoubleLinear
p334
sg6
I00
sg7
I00
sg8
I01
sg9
(lp335
ssVinstObjGroups[1].objectGroups
p336
(dp337
g3
I01
ssVscale
p338
(dp339
g3
I00
sg4
Vdouble3
p340
sg6
I00
sg7
I01
sg8
I01
sg9
(lp341
Vscale.scaleX
p342
aVscale.scaleY
p343
aVscale.scaleZ
p344
assVmatrix
p345
(dp346
g3
I00
sg6
I00
sg4
Vmatrix
p347
sg8
I00
sg9
(lp348
ssVtransMinusRotatePivot.transMinusRotatePivotZ
p349
(dp350
g3
I00
sg4
VdoubleLinear
p351
sg6
I00
sg7
I00
sg8
I01
sg9
(lp352
ssVrotatePivot
p353
(dp354
g3
I00
sg4
Vdouble3
p355
sg6
I00
sg7
I01
sg8
I01
sg9
(lp356
VrotatePivot.rotatePivotX
p357
ag260
ag253
assVghostCustomSteps
p358
(dp359
g3
I00
sg6
I00
sg4
VTdataCompound
p360
sg8
I00
sg9
(lp361
VghostCustomSteps.ghostPreSteps
p362
ag27
aVghostCustomSteps.ghostStepSize
p363
assg149
(dp364
g3
I00
sg4
VdoubleLinear
p365
sg6
I00
sg7
I00
sg8
I01
sg9
(lp366
ssVpublishedNodeInfo[1].publishedNode
p367
(dp368
g3
I00
sg9
(lp369
ssVmaxRotLimitEnable.maxRotZLimitEnable
p370
(dp371
g3
I00
sg4
Vbool
p372
sg6
I00
sg7
I00
sg8
I01
sg9
(lp373
ssVinstObjGroups[0].objectGroups[1].objectGrpCompList
p374
(dp375
g3
I00
sg9
(lp376
ssVworldMatrix
p377
(dp378
g3
I01
sg6
I01
sg8
I00
sg4
Vmatrix
p379
ssVmaxScaleLimitEnable.maxScaleXLimitEnable
p380
(dp381
g3
I00
sg4
Vbool
p382
sg6
I00
sg7
I00
sg8
I01
sg9
(lp383
ssVinherit_tz
p384
(dp385
g3
I00
sg4
Vdouble
p386
sg6
I00
sg7
I00
sg8
I01
sg9
(lp387
ssVinherit_tx
p388
(dp389
g3
I00
sg4
Vdouble
p390
sg6
I00
sg7
I00
sg8
I01
sg9
(lp391
ssVinherit_ty
p392
(dp393
g3
I00
sg4
Vdouble
p394
sg6
I00
sg7
I00
sg8
I01
sg9
(lp395
ssVminScaleLimit.minScaleZLimit
p396
(dp397
g3
I00
sg4
Vdouble
p398
sg6
I00
sg7
I00
sg8
I01
sg9
(lp399
ssVrotatePivotTranslate.rotatePivotTranslateZ
p400
(dp401
g3
I00
sg4
VdoubleLinear
p402
sg6
I00
sg7
I00
sg8
I01
sg9
(lp403
ssVscalePivot.scalePivotY
p404
(dp405
g3
I00
sg4
VdoubleLinear
p406
sg6
I00
sg7
I00
sg8
I01
sg9
(lp407
ssVscalePivot.scalePivotZ
p408
(dp409
g3
I00
sg4
VdoubleLinear
p410
sg6
I00
sg7
I00
sg8
I01
sg9
(lp411
ssVinstObjGroups.objectGroups.objectGrpCompList
p412
(dp413
g33
VinstObjGroups.objectGroups
p414
ssVparentInverseMatrix
p415
(dp416
g3
I01
sg6
I01
sg8
I00
sg4
Vmatrix
p417
ssVrenderLayerInfo[1].renderLayerId
p418
(dp419
g3
I00
sg9
(lp420
ssVviewName
p421
(dp422
g3
I00
sg4
Vstring
p423
sg6
I00
sg7
I00
sg8
I01
sg9
(lp424
ssVpublishedNodeInfo.publishedNodeType
p425
(dp426
g33
VpublishedNodeInfo
p427
ssVparentInverseMatrix[1]
p428
(dp429
g3
I00
sg9
(lp430
ssVpublishedNodeInfo[1]
p431
(dp432
g3
I00
sg9
(lp433
g367
ag325
aVpublishedNodeInfo[1].publishedNodeType
p434
assVmaxTransLimit
p435
(dp436
g3
I00
sg4
Vdouble3
p437
sg6
I00
sg7
I01
sg8
I01
sg9
(lp438
VmaxTransLimit.maxTransXLimit
p439
aVmaxTransLimit.maxTransYLimit
p440
ag332
assg209
(dp441
g3
I00
sg4
VdoubleLinear
p442
sg6
I00
sg7
I00
sg8
I01
sg9
(lp443
ssVdisplayScalePivot
p444
(dp445
g3
I00
sg4
Vbool
p446
sg6
I00
sg7
I00
sg8
I01
sg9
(lp447
ssVinstObjGroups[0].objectGroups[1]
p448
(dp449
g3
I00
sg9
(lp450
g374
aVinstObjGroups[0].objectGroups[1].objectGroupId
p451
aVinstObjGroups[0].objectGroups[1].objectGrpColor
p452
assg210
(dp453
g3
I00
sg4
VdoubleLinear
p454
sg6
I00
sg7
I00
sg8
I01
sg9
(lp455
ssVrmbCommand
p456
(dp457
g3
I00
sg4
Vstring
p458
sg6
I00
sg7
I00
sg8
I01
sg9
(lp459
ssVmentalRayControls.miHide
p460
(dp461
g3
I00
sg4
Vbool
p462
sg6
I00
sg7
I00
sg8
I01
sg9
(lp463
ssVinstObjGroups.objectGroups
p464
(dp465
g33
VinstObjGroups
p466
ssg434
(dp467
g3
I00
sg9
(lp468
ssVpublishedNodeInfo[0]
p469
(dp470
g3
I00
sg9
(lp471
g318
aVpublishedNodeInfo[0].isHierarchicalNode
p472
aVpublishedNodeInfo[0].publishedNodeType
p473
assVmaxScaleLimitEnable
p474
(dp475
g3
I00
sg6
I00
sg4
VTdataCompound
p476
sg8
I00
sg9
(lp477
g380
ag245
aVmaxScaleLimitEnable.maxScaleZLimitEnable
p478
assViconName
p479
(dp480
g3
I00
sg4
Vstring
p481
sg6
I00
sg7
I00
sg8
I01
sg9
(lp482
ssVobjectColor
p483
(dp484
g3
I00
sg4
Vshort
p485
sg6
I00
sg7
I00
sg8
I01
sg9
(lp486
ssVgeometry
p487
(dp488
g3
I00
sg6
I00
sg4
Nsg8
I00
sg9
(lp489
ssg342
(dp490
g3
I00
sg4
Vdouble
p491
sg6
I00
sg7
I00
sg8
I01
sg9
(lp492
ssg343
(dp493
g3
I00
sg4
Vdouble
p494
sg6
I00
sg7
I00
sg8
I01
sg9
(lp495
ssVinherit_sz
p496
(dp497
g3
I00
sg4
Vdouble
p498
sg6
I00
sg7
I00
sg8
I01
sg9
(lp499
ssVinherit_sy
p500
(dp501
g3
I00
sg4
Vdouble
p502
sg6
I00
sg7
I00
sg8
I01
sg9
(lp503
ssVinherit_sx
p504
(dp505
g3
I00
sg4
Vdouble
p506
sg6
I00
sg7
I00
sg8
I01
sg9
(lp507
ssVtransMinusRotatePivot
p508
(dp509
g3
I00
sg4
Vdouble3
p510
sg6
I00
sg7
I01
sg8
I01
sg9
(lp511
VtransMinusRotatePivot.transMinusRotatePivotX
p512
aVtransMinusRotatePivot.transMinusRotatePivotY
p513
ag349
assg357
(dp514
g3
I00
sg4
VdoubleLinear
p515
sg6
I00
sg7
I00
sg8
I01
sg9
(lp516
ssVrenderInfo.layerRenderable
p517
(dp518
g33
VrenderInfo
p519
sg3
I00
sg4
Vbool
p520
sg6
I00
sg7
I00
sg8
I01
sg9
(lp521
ssVvisibility
p522
(dp523
g3
I00
sg4
Vbool
p524
sg6
I00
sg7
I00
sg8
I01
sg9
(lp525
ssVmentalRayControls.miGeoShader
p526
(dp527
g3
I00
sg6
I00
sg4
Nsg8
I00
sg9
(lp528
ssVghostRangeStart
p529
(dp530
g3
I00
sg4
Vtime
p531
sg6
I00
sg7
I00
sg8
I01
sg9
(lp532
ssg473
(dp533
g3
I00
sg9
(lp534
ssVisHierarchicalConnection
p535
(dp536
g3
I01
sg6
I01
sg8
I00
sg4
VTdataCompound
p537
ssVmentalRayControls.miTrace
p538
(dp539
g3
I00
sg4
Venum
p540
sg6
I00
sg7
I00
sg8
I01
sg9
(lp541
ssVinstObjGroups
p542
(dp543
g3
I01
sg6
I01
sg8
I00
sg4
VTdataCompound
p544
ssg440
(dp545
g3
I00
sg4
VdoubleLinear
p546
sg6
I00
sg7
I00
sg8
I01
sg9
(lp547
ssVdisplayHandle
p548
(dp549
g3
I00
sg4
Vbool
p550
sg6
I00
sg7
I00
sg8
I01
sg9
(lp551
ssVselectionChildHighlighting
p552
(dp553
g3
I00
sg4
Vbool
p554
sg6
I00
sg7
I00
sg8
I01
sg9
(lp555
ssVmaxTransLimitEnable
p556
(dp557
g3
I00
sg6
I00
sg4
VTdataCompound
p558
sg8
I00
sg9
(lp559
VmaxTransLimitEnable.maxTransXLimitEnable
p560
ag229
ag173
assVminRotLimitEnable.minRotXLimitEnable
p561
(dp562
g3
I00
sg4
Vbool
p563
sg6
I00
sg7
I00
sg8
I01
sg9
(lp564
ssVrotateQuaternion
p565
(dp566
g3
I00
sg6
I00
sg4
Vdouble4
p567
sg8
I00
sg9
(lp568
g165
ag169
ag157
ag106
assVdrawOverride.overrideVisibility
p569
(dp570
g3
I00
sg4
Vbool
p571
sg6
I00
sg7
I00
sg8
I01
sg9
(lp572
ssVmaxScaleLimit
p573
(dp574
g3
I00
sg4
Vdouble3
p575
sg6
I00
sg7
I01
sg8
I01
sg9
(lp576
VmaxScaleLimit.maxScaleXLimit
p577
aVmaxScaleLimit.maxScaleYLimit
p578
aVmaxScaleLimit.maxScaleZLimit
p579
assVrotateAxis
p580
(dp581
g3
I00
sg4
Vdouble3
p582
sg6
I00
sg7
I01
sg8
I01
sg9
(lp583
g279
ag283
ag287
assg131
(dp584
g3
I00
sg4
Vdouble
p585
sg6
I00
sg7
I00
sg8
I01
sg9
(lp586
ssVghosting
p587
(dp588
g3
I00
sg4
Vbool
p589
sg6
I00
sg7
I00
sg8
I01
sg9
(lp590
ssVdisplayLocalAxis
p591
(dp592
g3
I00
sg4
Vbool
p593
sg6
I00
sg7
I00
sg8
I01
sg9
(lp594
ssVinheritsTransform
p595
(dp596
g3
I00
sg4
Vbool
p597
sg6
I00
sg7
I00
sg8
I01
sg9
(lp598
ssg512
(dp599
g3
I00
sg4
VdoubleLinear
p600
sg6
I00
sg7
I00
sg8
I01
sg9
(lp601
ssg513
(dp602
g3
I00
sg4
VdoubleLinear
p603
sg6
I00
sg7
I00
sg8
I01
sg9
(lp604
ssVisHistoricallyInteresting
p605
(dp606
g3
I00
sg6
I00
sg4
Vbyte
p607
sg8
I00
sg9
(lp608
ssVrotationInterpolation
p609
(dp610
g3
I00
sg4
Venum
p611
sg6
I00
sg7
I00
sg8
I01
sg9
(lp612
ssVminScaleLimit.minScaleYLimit
p613
(dp614
g3
I00
sg4
Vdouble
p615
sg6
I00
sg7
I00
sg8
I01
sg9
(lp616
ssg226
(dp617
g3
I00
sg4
VdoubleAngle
p618
sg6
I00
sg7
I00
sg8
I01
sg9
(lp619
ssVmaxRotLimit
p620
(dp621
g3
I00
sg4
Vdouble3
p622
sg6
I00
sg7
I01
sg8
I01
sg9
(lp623
VmaxRotLimit.maxRotXLimit
p624
ag87
aVmaxRotLimit.maxRotZLimit
p625
assVspecifiedManipLocation
p626
(dp627
g3
I00
sg6
I00
sg4
Nsg8
I00
sg9
(lp628
ssVxformMatrix
p629
(dp630
g3
I00
sg6
I00
sg4
Vmatrix
p631
sg8
I00
sg9
(lp632
ssVinstObjGroups[1]
p633
(dp634
g3
I00
sg9
(lp635
g336
assVtranslate
p636
(dp637
g3
I00
sg4
Vdouble3
p638
sg6
I00
sg7
I01
sg8
I01
sg9
(lp639
g15
ag69
ag11
assg362
(dp640
g3
I00
sg4
Vlong
p641
sg6
I00
sg7
I00
sg8
I01
sg9
(lp642
ssVdrawOverride
p643
(dp644
g3
I00
sg6
I00
sg4
VTdataCompound
p645
sg8
I00
sg9
(lp646
VdrawOverride.overrideDisplayType
p647
ag47
aVdrawOverride.overrideShading
p648
aVdrawOverride.overrideTexturing
p649
aVdrawOverride.overridePlayback
p650
ag249
ag569
ag19
assg130
(dp651
g3
I00
sg4
Vdouble
p652
sg6
I00
sg7
I00
sg8
I01
sg9
(lp653
ssg129
(dp654
g3
I00
sg4
Vdouble
p655
sg6
I00
sg7
I00
sg8
I01
sg9
(lp656
ssVparentMatrix[1]
p657
(dp658
g3
I00
sg9
(lp659
ssVinstObjGroups.objectGroups.objectGroupId
p660
(dp661
g33
VinstObjGroups.objectGroups
p662
ssg84
(dp663
g3
I00
sg4
VdoubleLinear
p664
sg6
I00
sg7
I00
sg8
I01
sg9
(lp665
ssVminTransLimitEnable.minTransXLimitEnable
p666
(dp667
g3
I00
sg4
Vbool
p668
sg6
I00
sg7
I00
sg8
I01
sg9
(lp669
ssVmaxRotLimitEnable
p670
(dp671
g3
I00
sg6
I00
sg4
VTdataCompound
p672
sg8
I00
sg9
(lp673
g177
aVmaxRotLimitEnable.maxRotYLimitEnable
p674
ag370
assVpublishedNodeInfo
p675
(dp676
g3
I01
sg6
I01
sg8
I00
sg4
VTdataCompound
p677
ssg451
(dp678
g3
I00
sg9
(lp679
ssg624
(dp680
g3
I00
sg4
VdoubleAngle
p681
sg6
I00
sg7
I00
sg8
I01
sg9
(lp682
ssg579
(dp683
g3
I00
sg4
Vdouble
p684
sg6
I00
sg7
I00
sg8
I01
sg9
(lp685
ssVghostColorPre
p686
(dp687
g3
I00
sg6
I00
sg4
Vfloat3
p688
sg8
I00
sg9
(lp689
g271
ag307
ag314
assVobjectColorRGB.objectColorG
p690
(dp691
g33
VobjectColorRGB
p692
sg3
I00
sg4
Vfloat
p693
sg6
I00
sg7
I00
sg8
I01
sg9
(lp694
ssg211
(dp695
g3
I00
sg4
VdoubleLinear
p696
sg6
I00
sg7
I00
sg8
I01
sg9
(lp697
ssg227
(dp698
g3
I00
sg4
VdoubleAngle
p699
sg6
I00
sg7
I00
sg8
I01
sg9
(lp700
ssVobjectColorRGB.objectColorB
p701
(dp702
g33
VobjectColorRGB
p703
sg3
I00
sg4
Vfloat
p704
sg6
I00
sg7
I00
sg8
I01
sg9
(lp705
ssg649
(dp706
g3
I00
sg4
Vbool
p707
sg6
I00
sg7
I00
sg8
I01
sg9
(lp708
ssVminScaleLimitEnable.minScaleYLimitEnable
p709
(dp710
g3
I00
sg4
Vbool
p711
sg6
I00
sg7
I00
sg8
I01
sg9
(lp712
ssVboundingBox.boundingBoxSize
p713
(dp714
g33
VboundingBox
p715
ssVrenderInfo.layerOverrideColor
p716
(dp717
g33
VrenderInfo
p718
sg3
I00
sg4
Vbyte
p719
sg6
I00
sg8
I00
sg9
(lp720
ssVrenderLayerInfo[0]
p721
(dp722
g3
I00
sg9
(lp723
VrenderLayerInfo[0].renderLayerId
p724
ag118
aVrenderLayerInfo[0].renderLayerColor
p725
assVtemplateName
p726
(dp727
g3
I00
sg4
Vstring
p728
sg6
I00
sg7
I00
sg8
I01
sg9
(lp729
ssVobjectColorRGB.objectColorR
p730
(dp731
g33
VobjectColorRGB
p732
sg3
I00
sg4
Vfloat
p733
sg6
I00
sg7
I00
sg8
I01
sg9
(lp734
ssg725
(dp735
g3
I00
sg9
(lp736
ssVdisplayRotatePivot
p737
(dp738
g3
I00
sg4
Vbool
p739
sg6
I00
sg7
I00
sg8
I01
sg9
(lp740
ssVminScaleLimitEnable.minScaleZLimitEnable
p741
(dp742
g3
I00
sg4
Vbool
p743
sg6
I00
sg7
I00
sg8
I01
sg9
(lp744
ssg560
(dp745
g3
I00
sg4
Vbool
p746
sg6
I00
sg7
I00
sg8
I01
sg9
(lp747
ssVinstObjGroups[0]
p748
(dp749
g3
I00
sg9
(lp750
VinstObjGroups[0].objectGroups
p751
assg577
(dp752
g3
I00
sg4
Vdouble
p753
sg6
I00
sg7
I00
sg8
I01
sg9
(lp754
ssg478
(dp755
g3
I00
sg4
Vbool
p756
sg6
I00
sg7
I00
sg8
I01
sg9
(lp757
ssVboundingBox.boundingBoxMin
p758
(dp759
g33
VboundingBox
p760
ssVscalePivot
p761
(dp762
g3
I00
sg4
Vdouble3
p763
sg6
I00
sg7
I01
sg8
I01
sg9
(lp764
g267
ag404
ag408
assg724
(dp765
g3
I00
sg9
(lp766
ssVmentalRayControls.miCaustic
p767
(dp768
g3
I00
sg4
Venum
p769
sg6
I00
sg7
I00
sg8
I01
sg9
(lp770
ssg751
(dp771
g3
I01
ssVmentalRayControls
p772
(dp773
g3
I00
sg6
I00
sg4
VTdataCompound
p774
sg8
I00
sg9
(lp775
g193
ag460
ag39
ag538
aVmentalRayControls.miShadow
p776
ag767
aVmentalRayControls.miGlobillum
p777
aVmentalRayControls.miExportGeoShader
p778
ag526
aVmentalRayControls.miProxyRenderable
p779
assVrenderInfo
p780
(dp781
g3
I00
sg6
I00
sg4
VTdataCompound
p782
sg8
I00
sg9
(lp783
VrenderInfo.identification
p784
aVrenderInfo.layerRenderable
p785
aVrenderInfo.layerOverrideColor
p786
assVworldInverseMatrix[0]
p787
(dp788
g3
I00
sg9
(lp789
ssVboundingBox.boundingBoxMax.boundingBoxMaxY
p790
(dp791
g33
VboundingBox.boundingBoxMax
p792
ssVboundingBox.boundingBoxMax.boundingBoxMaxX
p793
(dp794
g33
VboundingBox.boundingBoxMax
p795
ssg472
(dp796
g3
I00
sg9
(lp797
ssVboundingBox.boundingBoxMax.boundingBoxMaxZ
p798
(dp799
g33
VboundingBox.boundingBoxMax
p800
ssg674
(dp801
g3
I00
sg4
Vbool
p802
sg6
I00
sg7
I00
sg8
I01
sg9
(lp803
ssVminScaleLimit
p804
(dp805
g3
I00
sg4
Vdouble3
p806
sg6
I00
sg7
I01
sg8
I01
sg9
(lp807
g189
ag613
ag396
assVtemplate
p808
(dp809
g3
I00
sg4
Vbool
p810
sg6
I00
sg7
I00
sg8
I01
sg9
(lp811
ssVboundingBox.boundingBoxSize.boundingBoxSizeY
p812
(dp813
g33
VboundingBox.boundingBoxSize
p814
ssVboundingBox.boundingBoxSize.boundingBoxSizeX
p815
(dp816
g33
VboundingBox.boundingBoxSize
p817
ssg778
(dp818
g3
I00
sg4
Vbool
p819
sg6
I00
sg7
I00
sg8
I01
sg9
(lp820
ssVboundingBox.boundingBoxSize.boundingBoxSizeZ
p821
(dp822
g33
VboundingBox.boundingBoxSize
p823
ssVblackBox
p824
(dp825
g3
I00
sg4
Vbool
p826
sg6
I00
sg7
I00
sg8
I01
sg9
(lp827
ssg776
(dp828
g3
I00
sg4
Venum
p829
sg6
I00
sg7
I00
sg8
I01
sg9
(lp830
ssVghostingControl
p831
(dp832
g3
I00
sg4
Venum
p833
sg6
I00
sg7
I00
sg8
I01
sg9
(lp834
ssVviewMode
p835
(dp836
g3
I00
sg4
Venum
p837
sg6
I00
sg7
I00
sg8
I01
sg9
(lp838
ssVworldInverseMatrix
p839
(dp840
g3
I01
sg6
I01
sg8
I00
sg4
Vmatrix
p841
ssVisHierarchicalConnection[0]
p842
(dp843
g3
I00
sg9
(lp844
ssVshowManipDefault
p845
(dp846
g3
I00
sg4
Venum
p847
sg6
I00
sg7
I00
sg8
I01
sg9
(lp848
ssVminScaleLimitEnable
p849
(dp850
g3
I00
sg6
I00
sg4
VTdataCompound
p851
sg8
I00
sg9
(lp852
VminScaleLimitEnable.minScaleXLimitEnable
p853
ag709
ag741
assg625
(dp854
g3
I00
sg4
VdoubleAngle
p855
sg6
I00
sg7
I00
sg8
I01
sg9
(lp856
ssg439
(dp857
g3
I00
sg4
VdoubleLinear
p858
sg6
I00
sg7
I00
sg8
I01
sg9
(lp859
ssg647
(dp860
g3
I00
sg4
Venum
p861
sg6
I00
sg7
I00
sg8
I01
sg9
(lp862
ssg344
(dp863
g3
I00
sg4
Vdouble
p864
sg6
I00
sg7
I00
sg8
I01
sg9
(lp865
ssVisCollapsed
p866
(dp867
g3
I00
sg4
Vbool
p868
sg6
I00
sg7
I00
sg8
I01
sg9
(lp869
ssVnodeState
p870
(dp871
g3
I00
sg4
Venum
p872
sg6
I00
sg7
I00
sg8
I01
sg9
(lp873
ssg578
(dp874
g3
I00
sg4
Vdouble
p875
sg6
I00
sg7
I00
sg8
I01
sg9
(lp876
ssVrenderInfo.identification
p877
(dp878
g33
VrenderInfo
p879
sg3
I00
sg4
Vshort
p880
sg6
I00
sg7
I00
sg8
I01
sg9
(lp881
ssVghostColorPreA
p882
(dp883
g3
I00
sg4
Vfloat
p884
sg6
I00
sg7
I00
sg8
I01
sg9
(lp885
ssVrenderLayerInfo[1]
p886
(dp887
g3
I00
sg9
(lp888
g418
aVrenderLayerInfo[1].renderLayerRenderable
p889
ag219
assg363
(dp890
g3
I00
sg4
Vlong
p891
sg6
I00
sg7
I00
sg8
I01
sg9
(lp892
ssg650
(dp893
g3
I00
sg4
Vbool
p894
sg6
I00
sg7
I00
sg8
I01
sg9
(lp895
ssVminRotLimitEnable
p896
(dp897
g3
I00
sg6
I00
sg4
VTdataCompound
p898
sg8
I00
sg9
(lp899
g561
ag141
ag76
assVinstObjGroups.objectGroups.objectGrpColor
p900
(dp901
g33
VinstObjGroups.objectGroups
p902
ssVrenderLayerInfo
p903
(dp904
g3
I01
sg6
I01
sg8
I00
sg4
VTdataCompound
p905
ssVlodVisibility
p906
(dp907
g3
I00
sg4
Vbool
p908
sg6
I00
sg7
I00
sg8
I01
sg9
(lp909
ssVworldMatrix[1]
p910
(dp911
g3
I00
sg9
(lp912
ssg294
(dp913
g3
I00
sg9
(lp914
ssg86
(dp915
g3
I00
sg4
VdoubleLinear
p916
sg6
I00
sg7
I00
sg8
I01
sg9
(lp917
ssg60
(dp918
g3
I00
sg4
Vfloat
p919
sg6
I00
sg7
I00
sg8
I01
sg9
(lp920
ssg85
(dp921
g3
I00
sg4
VdoubleLinear
p922
sg6
I00
sg7
I00
sg8
I01
sg9
(lp923
ssVuiTreatment
p924
(dp925
g3
I00
sg4
Venum
p926
sg6
I00
sg7
I00
sg8
I01
sg9
(lp927
ssg648
(dp928
g3
I00
sg4
Vbool
p929
sg6
I00
sg7
I00
sg8
I01
sg9
(lp930
ssg59
(dp931
g3
I00
sg4
Vfloat
p932
sg6
I00
sg7
I00
sg8
I01
sg9
(lp933
ssg779
(dp934
g3
I00
sg4
Vbool
p935
sg6
I00
sg7
I00
sg8
I01
sg9
(lp936
ssVcenter.boundingBoxCenterZ
p937
(dp938
g33
Vcenter
p939
ssVrenderLayerInfo.renderLayerColor
p940
(dp941
g33
VrenderLayerInfo
p942
ssg853
(dp943
g3
I00
sg4
Vbool
p944
sg6
I00
sg7
I00
sg8
I01
sg9
(lp945
ssg452
(dp946
g3
I00
sg9
(lp947
ssVminTransLimitEnable
p948
(dp949
g3
I00
sg6
I00
sg4
VTdataCompound
p950
sg8
I00
sg9
(lp951
g666
ag65
ag181
assg58
(dp952
g3
I00
sg4
Vfloat
p953
sg6
I00
sg7
I00
sg8
I01
sg9
(lp954
ssVrotatePivotTranslate
p955
(dp956
g3
I00
sg4
Vdouble3
p957
sg6
I00
sg7
I01
sg8
I01
sg9
(lp958
g197
ag201
ag400
assg218
(dp959
g3
I00
sg4
VdoubleAngle
p960
sg6
I00
sg7
I00
sg8
I01
sg9
(lp961
ssVcenter.boundingBoxCenterX
p962
(dp963
g33
Vcenter
p964
ssg216
(dp965
g3
I00
sg4
VdoubleAngle
p966
sg6
I00
sg7
I00
sg8
I01
sg9
(lp967
ssg217
(dp968
g3
I00
sg4
VdoubleAngle
p969
sg6
I00
sg7
I00
sg8
I01
sg9
(lp970
ssVcaching
p971
(dp972
g3
I00
sg4
Vbool
p973
sg6
I00
sg7
I00
sg8
I01
sg9
(lp974
ssVinverseMatrix
p975
(dp976
g3
I00
sg6
I00
sg4
Vmatrix
p977
sg8
I00
sg9
(lp978
ssg777
(dp979
g3
I00
sg4
Venum
p980
sg6
I00
sg7
I00
sg8
I01
sg9
(lp981
ssVghostFrames
p982
(dp983
g3
I00
sg6
I00
sg4
Nsg8
I00
sg9
(lp984
ssg889
(dp985
g3
I00
sg9
(lp986
ssg295
(dp987
g3
I00
sg9
(lp988
ssVcenter.boundingBoxCenterY
p989
(dp990
g33
Vcenter
p991
ss.