(dp0
VposeInfo[0].target[2].targetTranslate.targetTranslateZ
p1
(dp2
S'isArray'
p3
I00
sS'isSimple'
p4
I00
sS'attrChildrenLongNames'
p5
(lp6
ssVoutput.outputRotateZ
p7
(dp8
S'attrParentLongName'
p9
Voutput.outputRotate
p10
ssVoutput.outputRotateY
p11
(dp12
g9
Voutput.outputRotate
p13
ssVoutput.outputRotateX
p14
(dp15
g9
Voutput.outputRotate
p16
ssVposeInfo[2].linearInterp
p17
(dp18
g3
I00
sS'attrType'
p19
Vbool
p20
sS'isMulti'
p21
I00
sS'isCompound'
p22
I00
sg4
I01
sg5
(lp23
ssVdefaultData[0]
p24
(dp25
g3
I00
sg4
I00
sg5
(lp26
VdefaultData[0].defaultTranslate
p27
aVdefaultData[0].defaultRotate
p28
aVdefaultData[0].defaultScale
p29
assVposeInfo[0].target[2].targetTranslate
p30
(dp31
g3
I00
sg4
I00
sg5
(lp32
VposeInfo[0].target[2].targetTranslate.targetTranslateX
p33
aVposeInfo[0].target[2].targetTranslate.targetTranslateY
p34
ag1
assVoutput[2].outputRotate.outputRotateZ
p35
(dp36
g3
I00
sg4
I00
sg5
(lp37
ssVoutput[2].outputRotate.outputRotateY
p38
(dp39
g3
I00
sg4
I00
sg5
(lp40
ssg28
(dp41
g3
I00
sg4
I00
sg5
(lp42
VdefaultData[0].defaultRotate.defaultRotateX
p43
aVdefaultData[0].defaultRotate.defaultRotateY
p44
aVdefaultData[0].defaultRotate.defaultRotateZ
p45
assVposeInfo[5].weight
p46
(dp47
g3
I00
sg19
Vfloat
p48
sg21
I00
sg22
I00
sg4
I01
sg5
(lp49
ssVposeInfo[3].poseName
p50
(dp51
g3
I00
sg19
Vstring
p52
sg21
I00
sg22
I00
sg4
I01
sg5
(lp53
ssg34
(dp54
g3
I00
sg4
I00
sg5
(lp55
ssVposeInfo[4]
p56
(dp57
g3
I00
sg19
VTdataCompound
p58
sg4
I00
sg5
(lp59
VposeInfo[4].target
p60
aVposeInfo[4].poseName
p61
aVposeInfo[4].weight
p62
aVposeInfo[4].active
p63
aVposeInfo[4].targetIndices
p64
aVposeInfo[4].weightGraph
p65
aVposeInfo[4].linearInterp
p66
assg63
(dp67
g3
I00
sg19
Vbool
p68
sg21
I00
sg22
I00
sg4
I01
sg5
(lp69
ssVoutput.outputScaleY
p70
(dp71
g9
Voutput.outputScale
p72
ssVoutput.outputScaleX
p73
(dp74
g9
Voutput.outputScale
p75
ssVoutput.outputScaleZ
p76
(dp77
g9
Voutput.outputScale
p78
ssVinMessage[0]
p79
(dp80
g3
I00
sg19
Vbool
p81
sg21
I00
sg22
I00
sg4
I01
sg5
(lp82
ssVdefaultData[1].defaultRotate.defaultRotateZ
p83
(dp84
g3
I00
sg4
I00
sg5
(lp85
ssVdefaultData[1].defaultRotate.defaultRotateY
p86
(dp87
g3
I00
sg4
I00
sg5
(lp88
ssVdefaultData[1].defaultRotate.defaultRotateX
p89
(dp90
g3
I00
sg4
I00
sg5
(lp91
ssVposeInfo[5].linearInterp
p92
(dp93
g3
I00
sg19
Vbool
p94
sg21
I00
sg22
I00
sg4
I01
sg5
(lp95
ssVdefaultData
p96
(dp97
g3
I01
sg19
VTdataCompound
p98
sg4
I00
ssVposeInfo[0].target[2].targetRotate.targetRotateY
p99
(dp100
g3
I00
sg4
I00
sg5
(lp101
ssVposeInfo[0].target[2].targetRotate.targetRotateZ
p102
(dp103
g3
I00
sg4
I00
sg5
(lp104
ssVposeInfo.target.targetScaleY
p105
(dp106
g9
VposeInfo.target.targetScale
p107
ssVposeInfo.linearInterp
p108
(dp109
g9
VposeInfo
p110
ssVoutput[2].outputScale.outputScaleY
p111
(dp112
g3
I00
sg4
I00
sg5
(lp113
ssVoutput[2].outputScale.outputScaleX
p114
(dp115
g3
I00
sg4
I00
sg5
(lp116
ssg66
(dp117
g3
I00
sg19
Vbool
p118
sg21
I00
sg22
I00
sg4
I01
sg5
(lp119
ssVoutput[2].outputScale.outputScaleZ
p120
(dp121
g3
I00
sg4
I00
sg5
(lp122
ssVposeInfo.weightGraph
p123
(dp124
g9
VposeInfo
p125
ssVbinMembership
p126
(dp127
g3
I00
sg19
Vstring
p128
sg4
I01
sg5
(lp129
ssVposeInfo[0].target[1].targetRotate.targetRotateX
p130
(dp131
g3
I00
sg19
Vfloat
p132
sg21
I00
sg22
I00
sg4
I01
sg5
(lp133
ssVposeInfo.target.targetScaleZ
p134
(dp135
g9
VposeInfo.target.targetScale
p136
ssVdefaultData[1].defaultTranslate
p137
(dp138
g3
I00
sg4
I00
sg5
(lp139
VdefaultData[1].defaultTranslate.defaultTranslateX
p140
aVdefaultData[1].defaultTranslate.defaultTranslateY
p141
aVdefaultData[1].defaultTranslate.defaultTranslateZ
p142
assVoutput.outputTranslateY
p143
(dp144
g9
Voutput.outputTranslate
p145
ssVoutput.outputTranslateX
p146
(dp147
g9
Voutput.outputTranslate
p148
ssVposeInfo.active
p149
(dp150
g9
VposeInfo
p151
ssVoutput.outputTranslateZ
p152
(dp153
g9
Voutput.outputTranslate
p154
ssVoutput[2].outputRotate.outputRotateX
p155
(dp156
g3
I00
sg4
I00
sg5
(lp157
ssVposeInfo[1].weight
p158
(dp159
g3
I00
sg19
Vfloat
p160
sg21
I00
sg22
I00
sg4
I01
sg5
(lp161
ssVoutput[2].outputScale
p162
(dp163
g3
I00
sg4
I00
sg5
(lp164
g114
ag111
ag120
assVposeInfo[0].weightGraph[0].weightGraphValue
p165
(dp166
g3
I00
sg4
I00
sg5
(lp167
ssVposeInfo[0].weightGraph[1].weightGraphValue
p168
(dp169
g3
I00
sg4
I00
sg5
(lp170
ssVinMessage[1]
p171
(dp172
g3
I00
sg19
Vbool
p173
sg21
I00
sg22
I00
sg4
I01
sg5
(lp174
ssg65
(dp175
g3
I01
sg19
VTdataCompound
p176
sg4
I00
ssVposeInfo[0].poseName
p177
(dp178
g3
I00
sg19
Vstring
p179
sg21
I00
sg22
I00
sg4
I01
sg5
(lp180
ssVposeInfo[0].targetIndices[3]
p181
(dp182
g3
I00
sg4
I00
sg5
(lp183
ssVposeInfo[5].weightGraph
p184
(dp185
g3
I01
sg19
VTdataCompound
p186
sg4
I00
ssVposeInfo[0].targetIndices
p187
(dp188
g3
I01
sg19
VTdataCompound
p189
sg4
I00
ssVoutput
p190
(dp191
g3
I01
sg19
VTdataCompound
p192
sg4
I00
ssVposeInfo.target
p193
(dp194
g9
VposeInfo
p195
ssVoutput[0].outputRotate.outputRotateY
p196
(dp197
g3
I00
sg19
Vfloat
p198
sg21
I00
sg22
I00
sg4
I01
sg5
(lp199
ssVoutput[0].outputRotate.outputRotateX
p200
(dp201
g3
I00
sg19
Vfloat
p202
sg21
I00
sg22
I00
sg4
I01
sg5
(lp203
ssVoutput[0].outputRotate.outputRotateZ
p204
(dp205
g3
I00
sg19
Vfloat
p206
sg21
I00
sg22
I00
sg4
I01
sg5
(lp207
ssVposeInfo[0].target[1].targetScale.targetScaleY
p208
(dp209
g3
I00
sg19
Vfloat
p210
sg21
I00
sg22
I00
sg4
I01
sg5
(lp211
ssVposeInfo[0].target[1].targetScale.targetScaleX
p212
(dp213
g3
I00
sg19
Vfloat
p214
sg21
I00
sg22
I00
sg4
I01
sg5
(lp215
ssVposeInfo[0].target[1].targetScale.targetScaleZ
p216
(dp217
g3
I00
sg19
Vfloat
p218
sg21
I00
sg22
I00
sg4
I01
sg5
(lp219
ssVposeInfo[3].target
p220
(dp221
g3
I01
sg19
VTdataCompound
p222
sg4
I00
ssVposeInfo[0].weightGraph
p223
(dp224
g3
I01
sg19
VTdataCompound
p225
sg4
I00
ssVoutput[0].outputTranslate
p226
(dp227
g3
I00
sg19
Vfloat3
p228
sg4
I00
sg5
(lp229
Voutput[0].outputTranslate.outputTranslateX
p230
aVoutput[0].outputTranslate.outputTranslateY
p231
aVoutput[0].outputTranslate.outputTranslateZ
p232
assVoutput[3].outputTranslate.outputTranslateX
p233
(dp234
g3
I00
sg4
I00
sg5
(lp235
ssVoutput[3].outputTranslate.outputTranslateY
p236
(dp237
g3
I00
sg4
I00
sg5
(lp238
ssVoutput[3].outputTranslate.outputTranslateZ
p239
(dp240
g3
I00
sg4
I00
sg5
(lp241
ssVposeInfo.target.targetScale
p242
(dp243
g9
VposeInfo.target
p244
ssVoutput[3]
p245
(dp246
g3
I00
sg4
I00
sg5
(lp247
Voutput[3].outputTranslate
p248
aVoutput[3].outputRotate
p249
aVoutput[3].outputScale
p250
assVdefaultData.defaultScale
p251
(dp252
g9
VdefaultData
p253
ssVposeInfo[0].target[3].targetRotate.targetRotateY
p254
(dp255
g3
I00
sg4
I00
sg5
(lp256
ssVoutput[3].outputScale.outputScaleX
p257
(dp258
g3
I00
sg4
I00
sg5
(lp259
ssVoutput[3].outputScale.outputScaleY
p260
(dp261
g3
I00
sg4
I00
sg5
(lp262
ssVoutput[3].outputScale.outputScaleZ
p263
(dp264
g3
I00
sg4
I00
sg5
(lp265
ssVposeInfo[5].target
p266
(dp267
g3
I01
sg19
VTdataCompound
p268
sg4
I00
ssVdefaultData[1].defaultRotate
p269
(dp270
g3
I00
sg4
I00
sg5
(lp271
g89
ag86
ag83
assVposeInfo[3]
p272
(dp273
g3
I00
sg19
VTdataCompound
p274
sg4
I00
sg5
(lp275
g220
ag50
aVposeInfo[3].weight
p276
aVposeInfo[3].active
p277
aVposeInfo[3].targetIndices
p278
aVposeInfo[3].weightGraph
p279
aVposeInfo[3].linearInterp
p280
assg29
(dp281
g3
I00
sg4
I00
sg5
(lp282
VdefaultData[0].defaultScale.defaultScaleX
p283
aVdefaultData[0].defaultScale.defaultScaleY
p284
aVdefaultData[0].defaultScale.defaultScaleZ
p285
assVposeInfo[0].weightGraph[1].weightGraphPosition
p286
(dp287
g3
I00
sg4
I00
sg5
(lp288
ssVposeInfo[0].target[1].targetTranslate.targetTranslateX
p289
(dp290
g3
I00
sg19
Vfloat
p291
sg21
I00
sg22
I00
sg4
I01
sg5
(lp292
ssVposeInfo[0].target[3].targetTranslate
p293
(dp294
g3
I00
sg4
I00
sg5
(lp295
VposeInfo[0].target[3].targetTranslate.targetTranslateX
p296
aVposeInfo[0].target[3].targetTranslate.targetTranslateY
p297
aVposeInfo[0].target[3].targetTranslate.targetTranslateZ
p298
assVoutput[1].outputTranslate.outputTranslateZ
p299
(dp300
g3
I00
sg19
Vfloat
p301
sg21
I00
sg22
I00
sg4
I01
sg5
(lp302
ssVoutput[1].outputTranslate.outputTranslateX
p303
(dp304
g3
I00
sg19
Vfloat
p305
sg21
I00
sg22
I00
sg4
I01
sg5
(lp306
ssVoutput[1].outputTranslate.outputTranslateY
p307
(dp308
g3
I00
sg19
Vfloat
p309
sg21
I00
sg22
I00
sg4
I01
sg5
(lp310
ssVposeInfo[0].target[1].targetRotate.targetRotateZ
p311
(dp312
g3
I00
sg19
Vfloat
p313
sg21
I00
sg22
I00
sg4
I01
sg5
(lp314
ssg250
(dp315
g3
I00
sg4
I00
sg5
(lp316
g257
ag260
ag263
assVinMessage
p317
(dp318
g3
I01
sg19
VTdataCompound
p319
sg4
I00
ssVposeInfo[0].target[0].targetTranslate.targetTranslateX
p320
(dp321
g3
I00
sg19
Vfloat
p322
sg21
I00
sg22
I00
sg4
I01
sg5
(lp323
ssVposeInfo[0].target[0].targetTranslate.targetTranslateY
p324
(dp325
g3
I00
sg19
Vfloat
p326
sg21
I00
sg22
I00
sg4
I01
sg5
(lp327
ssVposeInfo[0].target[0].targetTranslate.targetTranslateZ
p328
(dp329
g3
I00
sg19
Vfloat
p330
sg21
I00
sg22
I00
sg4
I01
sg5
(lp331
ssVposeInfo[0].target[1].targetRotate.targetRotateY
p332
(dp333
g3
I00
sg19
Vfloat
p334
sg21
I00
sg22
I00
sg4
I01
sg5
(lp335
ssVdefaultData.defaultRotate
p336
(dp337
g9
VdefaultData
p338
ssVposeInfo[0].weightGraph[0]
p339
(dp340
g3
I00
sg4
I00
sg5
(lp341
VposeInfo[0].weightGraph[0].weightGraphPosition
p342
ag165
assVdefaultData[1]
p343
(dp344
g3
I00
sg4
I00
sg5
(lp345
g137
ag269
aVdefaultData[1].defaultScale
p346
assVposeInfo.target.targetScaleX
p347
(dp348
g9
VposeInfo.target.targetScale
p349
ssVposeInfo.target.targetRotate
p350
(dp351
g9
VposeInfo.target
p352
ssVisHistoricallyInteresting
p353
(dp354
g3
I00
sg19
Vbyte
p355
sg4
I00
sg5
(lp356
ssg298
(dp357
g3
I00
sg4
I00
sg5
(lp358
ssVoutput[1].outputScale.outputScaleZ
p359
(dp360
g3
I00
sg19
Vfloat
p361
sg21
I00
sg22
I00
sg4
I01
sg5
(lp362
ssVoutput[1].outputScale.outputScaleX
p363
(dp364
g3
I00
sg19
Vfloat
p365
sg21
I00
sg22
I00
sg4
I01
sg5
(lp366
ssVoutput[1].outputScale.outputScaleY
p367
(dp368
g3
I00
sg19
Vfloat
p369
sg21
I00
sg22
I00
sg4
I01
sg5
(lp370
ssg285
(dp371
g3
I00
sg4
I00
sg5
(lp372
ssg283
(dp373
g3
I00
sg4
I00
sg5
(lp374
ssg284
(dp375
g3
I00
sg4
I00
sg5
(lp376
ssVposeInfo.target.targetTranslateZ
p377
(dp378
g9
VposeInfo.target.targetTranslate
p379
ssVposeInfo[6].active
p380
(dp381
g3
I00
sg4
I00
sg5
(lp382
ssVposeInfo[5]
p383
(dp384
g3
I00
sg19
VTdataCompound
p385
sg4
I00
sg5
(lp386
g266
aVposeInfo[5].poseName
p387
ag46
aVposeInfo[5].active
p388
aVposeInfo[5].targetIndices
p389
ag184
ag92
assVoutput[2]
p390
(dp391
g3
I00
sg4
I00
sg5
(lp392
Voutput[2].outputTranslate
p393
aVoutput[2].outputRotate
p394
ag162
assg60
(dp395
g3
I01
sg19
VTdataCompound
p396
sg4
I00
ssVposeInfo[0].target[3].targetScale
p397
(dp398
g3
I00
sg4
I00
sg5
(lp399
VposeInfo[0].target[3].targetScale.targetScaleX
p400
aVposeInfo[0].target[3].targetScale.targetScaleY
p401
aVposeInfo[0].target[3].targetScale.targetScaleZ
p402
assVposeInfo[7].active
p403
(dp404
g3
I00
sg4
I00
sg5
(lp405
ssVposeInfo.target.targetTranslateX
p406
(dp407
g9
VposeInfo.target.targetTranslate
p408
ssVposeInfo[0].weightGraph[1]
p409
(dp410
g3
I00
sg4
I00
sg5
(lp411
g286
ag168
assVdefaultData[1].defaultScale.defaultScaleZ
p412
(dp413
g3
I00
sg4
I00
sg5
(lp414
ssg248
(dp415
g3
I00
sg4
I00
sg5
(lp416
g233
ag236
ag239
assVdefaultData[1].defaultScale.defaultScaleX
p417
(dp418
g3
I00
sg4
I00
sg5
(lp419
ssVposeInfo[2]
p420
(dp421
g3
I00
sg19
VTdataCompound
p422
sg4
I00
sg5
(lp423
VposeInfo[2].target
p424
aVposeInfo[2].poseName
p425
aVposeInfo[2].weight
p426
aVposeInfo[2].active
p427
aVposeInfo[2].targetIndices
p428
aVposeInfo[2].weightGraph
p429
ag17
assVdefaultData.defaultRotateZ
p430
(dp431
g9
VdefaultData.defaultRotate
p432
ssVdefaultData.defaultRotateY
p433
(dp434
g9
VdefaultData.defaultRotate
p435
ssVdefaultData.defaultRotateX
p436
(dp437
g9
VdefaultData.defaultRotate
p438
ssg277
(dp439
g3
I00
sg19
Vbool
p440
sg21
I00
sg22
I00
sg4
I01
sg5
(lp441
ssVposeInfo[1].active
p442
(dp443
g3
I00
sg19
Vbool
p444
sg21
I00
sg22
I00
sg4
I01
sg5
(lp445
ssVposeInfo.weightGraph.weightGraphValue
p446
(dp447
g9
VposeInfo.weightGraph
p448
ssVposeInfo[0].target[0].targetScale.targetScaleX
p449
(dp450
g3
I00
sg19
Vfloat
p451
sg21
I00
sg22
I00
sg4
I01
sg5
(lp452
ssVposeInfo[0].target[0].targetScale.targetScaleY
p453
(dp454
g3
I00
sg19
Vfloat
p455
sg21
I00
sg22
I00
sg4
I01
sg5
(lp456
ssVposeInfo[0].target[0].targetScale.targetScaleZ
p457
(dp458
g3
I00
sg19
Vfloat
p459
sg21
I00
sg22
I00
sg4
I01
sg5
(lp460
ssVposeInfo[0].linearInterp
p461
(dp462
g3
I00
sg19
Vbool
p463
sg21
I00
sg22
I00
sg4
I01
sg5
(lp464
ssg297
(dp465
g3
I00
sg4
I00
sg5
(lp466
ssg296
(dp467
g3
I00
sg4
I00
sg5
(lp468
ssVoutput[1].outputRotate.outputRotateX
p469
(dp470
g3
I00
sg19
Vfloat
p471
sg21
I00
sg22
I00
sg4
I01
sg5
(lp472
ssVoutput[1].outputRotate.outputRotateY
p473
(dp474
g3
I00
sg19
Vfloat
p475
sg21
I00
sg22
I00
sg4
I01
sg5
(lp476
ssVoutput[1].outputRotate.outputRotateZ
p477
(dp478
g3
I00
sg19
Vfloat
p479
sg21
I00
sg22
I00
sg4
I01
sg5
(lp480
ssVposeInfo[0].weight
p481
(dp482
g3
I00
sg19
Vfloat
p483
sg21
I00
sg22
I00
sg4
I01
sg5
(lp484
ssg427
(dp485
g3
I00
sg19
Vbool
p486
sg21
I00
sg22
I00
sg4
I01
sg5
(lp487
ssVposeInfo[7].poseName
p488
(dp489
g3
I00
sg4
I00
sg5
(lp490
ssVposeInfo
p491
(dp492
g3
I01
sg19
VTdataCompound
p493
sg4
I00
ssVposeInfo[0].target[1].targetScale
p494
(dp495
g3
I00
sg19
Vfloat3
p496
sg4
I00
sg5
(lp497
g212
ag208
ag216
assg62
(dp498
g3
I00
sg19
Vfloat
p499
sg21
I00
sg22
I00
sg4
I01
sg5
(lp500
ssVoutput[3].outputRotate.outputRotateZ
p501
(dp502
g3
I00
sg4
I00
sg5
(lp503
ssg393
(dp504
g3
I00
sg4
I00
sg5
(lp505
Voutput[2].outputTranslate.outputTranslateX
p506
aVoutput[2].outputTranslate.outputTranslateY
p507
aVoutput[2].outputTranslate.outputTranslateZ
p508
assVoutput[3].outputRotate.outputRotateX
p509
(dp510
g3
I00
sg4
I00
sg5
(lp511
ssVoutput[3].outputRotate.outputRotateY
p512
(dp513
g3
I00
sg4
I00
sg5
(lp514
ssg280
(dp515
g3
I00
sg19
Vbool
p516
sg21
I00
sg22
I00
sg4
I01
sg5
(lp517
ssVposeInfo[7].weight
p518
(dp519
g3
I00
sg4
I00
sg5
(lp520
ssVposeInfo[0].target[0]
p521
(dp522
g3
I00
sg19
VTdataCompound
p523
sg4
I00
sg5
(lp524
VposeInfo[0].target[0].targetTranslate
p525
aVposeInfo[0].target[0].targetRotate
p526
aVposeInfo[0].target[0].targetScale
p527
assVoutput[1]
p528
(dp529
g3
I00
sg19
VTdataCompound
p530
sg4
I00
sg5
(lp531
Voutput[1].outputTranslate
p532
aVoutput[1].outputRotate
p533
aVoutput[1].outputScale
p534
assg388
(dp535
g3
I00
sg19
Vbool
p536
sg21
I00
sg22
I00
sg4
I01
sg5
(lp537
ssg45
(dp538
g3
I00
sg4
I00
sg5
(lp539
ssg394
(dp540
g3
I00
sg4
I00
sg5
(lp541
g155
ag38
ag35
assg43
(dp542
g3
I00
sg4
I00
sg5
(lp543
ssg44
(dp544
g3
I00
sg4
I00
sg5
(lp545
ssg276
(dp546
g3
I00
sg19
Vfloat
p547
sg21
I00
sg22
I00
sg4
I01
sg5
(lp548
ssVdefaultData[0].defaultTranslate.defaultTranslateZ
p549
(dp550
g3
I00
sg4
I00
sg5
(lp551
ssVdefaultData[0].defaultTranslate.defaultTranslateX
p552
(dp553
g3
I00
sg4
I00
sg5
(lp554
ssVdefaultData[0].defaultTranslate.defaultTranslateY
p555
(dp556
g3
I00
sg4
I00
sg5
(lp557
ssVposeInfo[0].target[2].targetRotate
p558
(dp559
g3
I00
sg4
I00
sg5
(lp560
VposeInfo[0].target[2].targetRotate.targetRotateX
p561
ag99
ag102
assVposeInfo[1]
p562
(dp563
g3
I00
sg19
VTdataCompound
p564
sg4
I00
sg5
(lp565
VposeInfo[1].target
p566
aVposeInfo[1].poseName
p567
ag158
ag442
aVposeInfo[1].targetIndices
p568
aVposeInfo[1].weightGraph
p569
aVposeInfo[1].linearInterp
p570
assg533
(dp571
g3
I00
sg19
Vfloat3
p572
sg4
I00
sg5
(lp573
g469
ag473
ag477
assVoutput[0].outputScale
p574
(dp575
g3
I00
sg19
VTdataCompound
p576
sg4
I00
sg5
(lp577
Voutput[0].outputScale.outputScaleX
p578
aVoutput[0].outputScale.outputScaleY
p579
aVoutput[0].outputScale.outputScaleZ
p580
assg342
(dp581
g3
I00
sg4
I00
sg5
(lp582
ssVposeInfo[6].weightGraph
p583
(dp584
g3
I01
sg4
I00
ssVposeInfo[0].target[2].targetScale.targetScaleX
p585
(dp586
g3
I00
sg4
I00
sg5
(lp587
ssVposeInfo[0].target[0].targetRotate.targetRotateZ
p588
(dp589
g3
I00
sg19
Vfloat
p590
sg21
I00
sg22
I00
sg4
I01
sg5
(lp591
ssVposeInfo[0].target[0].targetRotate.targetRotateX
p592
(dp593
g3
I00
sg19
Vfloat
p594
sg21
I00
sg22
I00
sg4
I01
sg5
(lp595
ssVposeInfo[0].target[0].targetRotate.targetRotateY
p596
(dp597
g3
I00
sg19
Vfloat
p598
sg21
I00
sg22
I00
sg4
I01
sg5
(lp599
ssg507
(dp600
g3
I00
sg4
I00
sg5
(lp601
ssg506
(dp602
g3
I00
sg4
I00
sg5
(lp603
ssg508
(dp604
g3
I00
sg4
I00
sg5
(lp605
ssVposeInfo[0].target[1].targetTranslate.targetTranslateZ
p606
(dp607
g3
I00
sg19
Vfloat
p608
sg21
I00
sg22
I00
sg4
I01
sg5
(lp609
ssg346
(dp610
g3
I00
sg4
I00
sg5
(lp611
g417
aVdefaultData[1].defaultScale.defaultScaleY
p612
ag412
assg526
(dp613
g3
I00
sg19
Vfloat3
p614
sg4
I00
sg5
(lp615
g592
ag596
ag588
assg612
(dp616
g3
I00
sg4
I00
sg5
(lp617
ssg425
(dp618
g3
I00
sg19
Vstring
p619
sg21
I00
sg22
I00
sg4
I01
sg5
(lp620
ssg534
(dp621
g3
I00
sg19
VTdataCompound
p622
sg4
I00
sg5
(lp623
g363
ag367
ag359
assVposeInfo[0].targetIndices[2]
p624
(dp625
g3
I00
sg4
I00
sg5
(lp626
ssVoutput[0]
p627
(dp628
g3
I00
sg19
VTdataCompound
p629
sg4
I00
sg5
(lp630
g226
aVoutput[0].outputRotate
p631
ag574
assVposeInfo[7].target
p632
(dp633
g3
I01
sg4
I00
ssVposeInfo[0].target[1]
p634
(dp635
g3
I00
sg19
VTdataCompound
p636
sg4
I00
sg5
(lp637
VposeInfo[0].target[1].targetTranslate
p638
aVposeInfo[0].target[1].targetRotate
p639
ag494
assg638
(dp640
g3
I00
sg19
Vfloat3
p641
sg4
I00
sg5
(lp642
g289
aVposeInfo[0].target[1].targetTranslate.targetTranslateY
p643
ag606
assg426
(dp644
g3
I00
sg19
Vfloat
p645
sg21
I00
sg22
I00
sg4
I01
sg5
(lp646
ssg631
(dp647
g3
I00
sg19
Vfloat3
p648
sg4
I00
sg5
(lp649
g200
ag196
ag204
assVposeInfo[0]
p650
(dp651
g3
I00
sg19
VTdataCompound
p652
sg4
I00
sg5
(lp653
VposeInfo[0].target
p654
ag177
ag481
aVposeInfo[0].active
p655
ag187
ag223
ag461
assVposeInfo.target.targetTranslate
p656
(dp657
g9
VposeInfo.target
p658
ssVposeInfo[0].target[2].targetScale.targetScaleZ
p659
(dp660
g3
I00
sg4
I00
sg5
(lp661
ssg525
(dp662
g3
I00
sg19
Vfloat3
p663
sg4
I00
sg5
(lp664
g320
ag324
ag328
assVposeInfo[0].target[2].targetScale.targetScaleY
p665
(dp666
g3
I00
sg4
I00
sg5
(lp667
ssVdefaultData.defaultTranslateY
p668
(dp669
g9
VdefaultData.defaultTranslate
p670
ssVdefaultData.defaultTranslateX
p671
(dp672
g9
VdefaultData.defaultTranslate
p673
ssVdefaultData.defaultTranslateZ
p674
(dp675
g9
VdefaultData.defaultTranslate
p676
ssg27
(dp677
g3
I00
sg4
I00
sg5
(lp678
g552
ag555
ag549
assg389
(dp679
g3
I01
sg19
VTdataCompound
p680
sg4
I00
ssg643
(dp681
g3
I00
sg19
Vfloat
p682
sg21
I00
sg22
I00
sg4
I01
sg5
(lp683
ssg532
(dp684
g3
I00
sg19
Vfloat3
p685
sg4
I00
sg5
(lp686
g303
ag307
ag299
assVposeInfo[0].target[3].targetRotate.targetRotateX
p687
(dp688
g3
I00
sg4
I00
sg5
(lp689
ssVposeInfo[0].target[3].targetRotate.targetRotateZ
p690
(dp691
g3
I00
sg4
I00
sg5
(lp692
ssg654
(dp693
g3
I01
sg19
VTdataCompound
p694
sg4
I00
ssg279
(dp695
g3
I01
sg19
VTdataCompound
p696
sg4
I00
ssVposeInfo.poseName
p697
(dp698
g9
VposeInfo
p699
ssg570
(dp700
g3
I00
sg19
Vbool
p701
sg21
I00
sg22
I00
sg4
I01
sg5
(lp702
ssVposeInfo[0].target[2]
p703
(dp704
g3
I00
sg4
I00
sg5
(lp705
g30
ag558
aVposeInfo[0].target[2].targetScale
p706
assVposeInfo[7].targetIndices
p707
(dp708
g3
I01
sg4
I00
ssVposeInfo.targetIndices
p709
(dp710
g9
VposeInfo
p711
ssVinMessage[2]
p712
(dp713
g3
I00
sg4
I00
sg5
(lp714
ssVposeInfo[0].targetIndices[1]
p715
(dp716
g3
I00
sg19
Vfloat
p717
sg21
I00
sg22
I00
sg4
I01
sg5
(lp718
ssVposeInfo[7].weightGraph
p719
(dp720
g3
I01
sg4
I00
ssg400
(dp721
g3
I00
sg4
I00
sg5
(lp722
ssVposeInfo.weightGraph.weightGraphPosition
p723
(dp724
g9
VposeInfo.weightGraph
p725
ssg568
(dp726
g3
I01
sg19
VTdataCompound
p727
sg4
I00
ssVdefaultData.defaultTranslate
p728
(dp729
g9
VdefaultData
p730
ssg142
(dp731
g3
I00
sg4
I00
sg5
(lp732
ssg141
(dp733
g3
I00
sg4
I00
sg5
(lp734
ssg140
(dp735
g3
I00
sg4
I00
sg5
(lp736
ssg428
(dp737
g3
I01
sg19
VTdataCompound
p738
sg4
I00
ssg232
(dp739
g3
I00
sg19
Vfloat
p740
sg21
I00
sg22
I00
sg4
I01
sg5
(lp741
ssg231
(dp742
g3
I00
sg19
Vfloat
p743
sg21
I00
sg22
I00
sg4
I01
sg5
(lp744
ssg230
(dp745
g3
I00
sg19
Vfloat
p746
sg21
I00
sg22
I00
sg4
I01
sg5
(lp747
ssg566
(dp748
g3
I01
sg19
VTdataCompound
p749
sg4
I00
ssg429
(dp750
g3
I01
sg19
VTdataCompound
p751
sg4
I00
ssVposeInfo[0].target[3].targetRotate
p752
(dp753
g3
I00
sg4
I00
sg5
(lp754
g687
ag254
ag690
assg424
(dp755
g3
I01
sg19
VTdataCompound
p756
sg4
I00
ssg64
(dp757
g3
I01
sg19
VTdataCompound
p758
sg4
I00
ssVdefaultData.defaultScaleY
p759
(dp760
g9
VdefaultData.defaultScale
p761
ssVdefaultData.defaultScaleX
p762
(dp763
g9
VdefaultData.defaultScale
p764
ssVnodeState
p765
(dp766
g3
I00
sg19
Venum
p767
sg21
I00
sg22
I00
sg4
I01
sg5
(lp768
ssVdefaultData.defaultScaleZ
p769
(dp770
g9
VdefaultData.defaultScale
p771
ssg567
(dp772
g3
I00
sg19
Vstring
p773
sg21
I00
sg22
I00
sg4
I01
sg5
(lp774
ssg527
(dp775
g3
I00
sg19
Vfloat3
p776
sg4
I00
sg5
(lp777
g449
ag453
ag457
assg580
(dp778
g3
I00
sg19
Vfloat
p779
sg21
I00
sg22
I00
sg4
I01
sg5
(lp780
ssg579
(dp781
g3
I00
sg19
Vfloat
p782
sg21
I00
sg22
I00
sg4
I01
sg5
(lp783
ssg578
(dp784
g3
I00
sg19
Vfloat
p785
sg21
I00
sg22
I00
sg4
I01
sg5
(lp786
ssg639
(dp787
g3
I00
sg19
Vfloat3
p788
sg4
I00
sg5
(lp789
g130
ag332
ag311
assVposeInfo.target.targetTranslateY
p790
(dp791
g9
VposeInfo.target.targetTranslate
p792
ssVposeInfo[7].linearInterp
p793
(dp794
g3
I00
sg4
I00
sg5
(lp795
ssVposeInfo.target.targetRotateY
p796
(dp797
g9
VposeInfo.target.targetRotate
p798
ssVposeInfo.target.targetRotateX
p799
(dp800
g9
VposeInfo.target.targetRotate
p801
ssVposeInfo.target.targetRotateZ
p802
(dp803
g9
VposeInfo.target.targetRotate
p804
ssVinMessage[3]
p805
(dp806
g3
I00
sg4
I00
sg5
(lp807
ssg569
(dp808
g3
I01
sg19
VTdataCompound
p809
sg4
I00
ssVposeInfo[0].targetIndices[0]
p810
(dp811
g3
I00
sg19
Vfloat
p812
sg21
I00
sg22
I00
sg4
I01
sg5
(lp813
ssg278
(dp814
g3
I01
sg19
VTdataCompound
p815
sg4
I00
ssVposeInfo[6].target
p816
(dp817
g3
I01
sg4
I00
ssVposeInfo[0].target[3]
p818
(dp819
g3
I00
sg4
I00
sg5
(lp820
g293
ag752
ag397
assVposeInfo[6].poseName
p821
(dp822
g3
I00
sg4
I00
sg5
(lp823
ssg249
(dp824
g3
I00
sg4
I00
sg5
(lp825
g509
ag512
ag501
assVposeInfo[6].linearInterp
p826
(dp827
g3
I00
sg4
I00
sg5
(lp828
ssVposeInfo[6]
p829
(dp830
g3
I00
sg4
I00
sg5
(lp831
g816
ag821
aVposeInfo[6].weight
p832
ag380
aVposeInfo[6].targetIndices
p833
ag583
ag826
assg833
(dp834
g3
I01
sg4
I00
ssg402
(dp835
g3
I00
sg4
I00
sg5
(lp836
ssg401
(dp837
g3
I00
sg4
I00
sg5
(lp838
ssg655
(dp839
g3
I00
sg19
Vbool
p840
sg21
I00
sg22
I00
sg4
I01
sg5
(lp841
ssg387
(dp842
g3
I00
sg19
Vstring
p843
sg21
I00
sg22
I00
sg4
I01
sg5
(lp844
ssg33
(dp845
g3
I00
sg4
I00
sg5
(lp846
ssg832
(dp847
g3
I00
sg4
I00
sg5
(lp848
ssVposeInfo[7]
p849
(dp850
g3
I00
sg4
I00
sg5
(lp851
g632
ag488
ag518
ag403
ag707
ag719
ag793
assVcaching
p852
(dp853
g3
I00
sg19
Vbool
p854
sg21
I00
sg22
I00
sg4
I01
sg5
(lp855
ssg706
(dp856
g3
I00
sg4
I00
sg5
(lp857
g585
ag665
ag659
assg61
(dp858
g3
I00
sg19
Vstring
p859
sg21
I00
sg22
I00
sg4
I01
sg5
(lp860
ssVoutputFake
p861
(dp862
g3
I00
sg19
Vfloat
p863
sg21
I00
sg22
I00
sg4
I01
sg5
(lp864
ssg561
(dp865
g3
I00
sg4
I00
sg5
(lp866
ss.