(dp0
VinputTargets[5]
p1
(dp2
S'isArray'
p3
I00
sS'attrType'
p4
Vdouble
p5
sS'isSimple'
p6
I01
sS'attrChildrenLongNames'
p7
(lp8
ssVoutValues[5]
p9
(dp10
g3
I00
sg4
Vdouble
p11
sS'isMulti'
p12
I00
sS'isCompound'
p13
I00
sg6
I01
sg7
(lp14
ssVactualPosition
p15
(dp16
g3
I01
sg4
VTdataCompound
p17
sg6
I00
ssVinputTargets[9]
p18
(dp19
g3
I00
sg4
Vdouble
p20
sg6
I01
sg7
(lp21
ssVinputTargets[12]
p22
(dp23
g3
I00
sg6
I00
sg7
(lp24
ssVinputTargets[3]
p25
(dp26
g3
I00
sg4
Vdouble
p27
sg6
I01
sg7
(lp28
ssVinputTargets[1]
p29
(dp30
g3
I00
sg4
Vdouble
p31
sg6
I01
sg7
(lp32
ssVactualPosition[0]
p33
(dp34
g3
I00
sg4
Vdouble
p35
sg6
I01
sg7
(lp36
ssVoutValues[1]
p37
(dp38
g3
I00
sg4
Vdouble
p39
sg12
I00
sg13
I00
sg6
I01
sg7
(lp40
ssVactualPosition[2]
p41
(dp42
g3
I00
sg6
I00
sg7
(lp43
ssVoutValues[7]
p44
(dp45
g3
I00
sg6
I00
sg7
(lp46
ssVinputTargets[7]
p47
(dp48
g3
I00
sg4
Vdouble
p49
sg6
I01
sg7
(lp50
ssVisHistoricallyInteresting
p51
(dp52
g3
I00
sg4
Vbyte
p53
sg6
I00
sg7
(lp54
ssVactualPosition[3]
p55
(dp56
g3
I00
sg6
I00
sg7
(lp57
ssVoutValues[3]
p58
(dp59
g3
I00
sg4
Vdouble
p60
sg12
I00
sg13
I00
sg6
I01
sg7
(lp61
ssVinputTargets[10]
p62
(dp63
g3
I00
sg4
Vdouble
p64
sg6
I01
sg7
(lp65
ssVbinMembership
p66
(dp67
g3
I00
sg4
Vstring
p68
sg6
I01
sg7
(lp69
ssVdoNormalize
p70
(dp71
g3
I00
sg4
Vbool
p72
sg6
I01
sg7
(lp73
ssVnodeState
p74
(dp75
g3
I00
sg4
Venum
p76
sg6
I01
sg7
(lp77
ssVoutValues[4]
p78
(dp79
g3
I00
sg4
Vdouble
p80
sg12
I00
sg13
I00
sg6
I01
sg7
(lp81
ssVinputTargets[4]
p82
(dp83
g3
I00
sg4
Vdouble
p84
sg6
I01
sg7
(lp85
ssVinputTargets[2]
p86
(dp87
g3
I00
sg4
Vdouble
p88
sg6
I01
sg7
(lp89
ssVinputTargets[13]
p90
(dp91
g3
I00
sg6
I00
sg7
(lp92
ssVoutValues[2]
p93
(dp94
g3
I00
sg4
Vdouble
p95
sg12
I00
sg13
I00
sg6
I01
sg7
(lp96
ssVoutValues[0]
p97
(dp98
g3
I00
sg4
Vdouble
p99
sg6
I01
sg7
(lp100
ssVinputTargets[0]
p101
(dp102
g3
I00
sg4
Vdouble
p103
sg6
I01
sg7
(lp104
ssVinputTargets[6]
p105
(dp106
g3
I00
sg4
Vdouble
p107
sg6
I01
sg7
(lp108
ssVoutValues[6]
p109
(dp110
g3
I00
sg6
I00
sg7
(lp111
ssVnumTargets
p112
(dp113
g3
I00
sg4
Vlong
p114
sg12
I00
sg13
I00
sg6
I01
sg7
(lp115
ssVinputTargets
p116
(dp117
g3
I01
sg4
VTdataCompound
p118
sg6
I00
ssVactualPosition[1]
p119
(dp120
g3
I00
sg4
Vdouble
p121
sg6
I01
sg7
(lp122
ssVinputTargets[11]
p123
(dp124
g3
I00
sg4
Vdouble
p125
sg6
I01
sg7
(lp126
ssVoutValues
p127
(dp128
g3
I01
sg4
VTdataCompound
p129
sg6
I00
ssVsmooth
p130
(dp131
g3
I00
sg4
Vbool
p132
sg6
I01
sg7
(lp133
ssVnumDimensions
p134
(dp135
g3
I00
sg4
Vlong
p136
sg12
I00
sg13
I00
sg6
I01
sg7
(lp137
ssVinputTargets[8]
p138
(dp139
g3
I00
sg4
Vdouble
p140
sg6
I01
sg7
(lp141
ssVcaching
p142
(dp143
g3
I00
sg4
Vbool
p144
sg6
I01
sg7
(lp145
ss.