(dp0
VdrawOverride.overrideColor
p1
(dp2
S'isArray'
p3
I00
sS'isMulti'
p4
I00
sS'attrType'
p5
Vbyte
p6
sS'isSimple'
p7
I00
sS'attrChildrenLongNames'
p8
(lp9
ssVintermediateObject
p10
(dp11
g3
I00
sg5
Vbool
p12
sg4
I00
sS'isCompound'
p13
I00
sg7
I01
sg8
(lp14
ssVghostCustomSteps.ghostPostSteps
p15
(dp16
g3
I00
sg5
Vlong
p17
sg4
I00
sg13
I00
sg7
I01
sg8
(lp18
ssVrenderLayerInfo.renderLayerId
p19
(dp20
S'attrParentLongName'
p21
VrenderLayerInfo
p22
ssVuseObjectColor
p23
(dp24
g3
I00
sg5
Vbool
p25
sg4
I00
sg13
I00
sg7
I01
sg8
(lp26
ssVdrawOverride.overrideLevelOfDetail
p27
(dp28
g3
I00
sg5
Venum
p29
sg4
I00
sg13
I00
sg7
I01
sg8
(lp30
ssVarcLength
p31
(dp32
g3
I00
sg5
Vdouble
p33
sg4
I00
sg13
I00
sg7
I01
sg8
(lp34
ssVghostColorPost
p35
(dp36
g3
I00
sg4
I00
sg5
Vfloat3
p37
sg7
I00
sg8
(lp38
VghostColorPost.ghostColorPostR
p39
aVghostColorPost.ghostColorPostG
p40
aVghostColorPost.ghostColorPostB
p41
assVrenderLayerInfo.renderLayerRenderable
p42
(dp43
g21
VrenderLayerInfo
p44
ssVrenderLayerInfo[1].renderLayerColor
p45
(dp46
g3
I00
sg8
(lp47
ssVbinMembership
p48
(dp49
g3
I00
sg5
Vstring
p50
sg4
I00
sg13
I00
sg7
I01
sg8
(lp51
ssVcustomTreatment
p52
(dp53
g3
I00
sg5
Vstring
p54
sg4
I00
sg13
I00
sg7
I01
sg8
(lp55
ssVarcLengthInV
p56
(dp57
g3
I00
sg5
Vdouble
p58
sg4
I00
sg13
I00
sg7
I01
sg8
(lp59
ssVrenderLayerInfo[0].renderLayerRenderable
p60
(dp61
g3
I00
sg8
(lp62
ssVboundingBox.boundingBoxMin.boundingBoxMinY
p63
(dp64
g21
VboundingBox.boundingBoxMin
p65
ssVboundingBox.boundingBoxMin.boundingBoxMinX
p66
(dp67
g21
VboundingBox.boundingBoxMin
p68
ssVboundingBox.boundingBoxMin.boundingBoxMinZ
p69
(dp70
g21
VboundingBox.boundingBoxMin
p71
ssVinstObjGroups.objectGroups.objectGrpColor
p72
(dp73
g21
VinstObjGroups.objectGroups
p74
ssVinstObjGroups[0].objectGroups[0].objectGroupId
p75
(dp76
g3
I00
sg8
(lp77
ssVrenderLayerInfo[0].renderLayerId
p78
(dp79
g3
I00
sg8
(lp80
ssVworldInverseMatrix[1]
p81
(dp82
g3
I00
sg8
(lp83
ssVcreationDate
p84
(dp85
g3
I00
sg5
Vstring
p86
sg4
I00
sg13
I00
sg7
I01
sg8
(lp87
ssVtemplatePath
p88
(dp89
g3
I00
sg5
Vstring
p90
sg4
I00
sg13
I00
sg7
I01
sg8
(lp91
ssVparentMatrix
p92
(dp93
g3
I01
sg4
I01
sg7
I00
sg5
Vmatrix
p94
ssVobjectColorRGB
p95
(dp96
g3
I00
sg4
I00
sg5
Vfloat3
p97
sg7
I00
sg8
(lp98
VobjectColorRGB.objectColorR
p99
aVobjectColorRGB.objectColorG
p100
aVobjectColorRGB.objectColorB
p101
assVisHierarchicalConnection[1]
p102
(dp103
g3
I00
sg8
(lp104
ssVparentInverseMatrix[0]
p105
(dp106
g3
I00
sg8
(lp107
ssVrenderLayerInfo[1].renderLayerId
p108
(dp109
g3
I00
sg8
(lp110
ssVobjectColor
p111
(dp112
g3
I00
sg5
Vshort
p113
sg4
I00
sg13
I00
sg7
I01
sg8
(lp114
ssVdrawOverride.overrideEnabled
p115
(dp116
g3
I00
sg5
Vbool
p117
sg4
I00
sg13
I00
sg7
I01
sg8
(lp118
ssVboundingBox.boundingBoxMax
p119
(dp120
g21
VboundingBox
p121
ssVparentMatrix[0]
p122
(dp123
g3
I00
sg8
(lp124
ssVghostColorPre.ghostColorPreR
p125
(dp126
g3
I00
sg5
Vfloat
p127
sg4
I00
sg13
I00
sg7
I01
sg8
(lp128
ssVcreator
p129
(dp130
g3
I00
sg5
Vstring
p131
sg4
I00
sg13
I00
sg7
I01
sg8
(lp132
ssVinstObjGroups[0].objectGroups[0]
p133
(dp134
g3
I00
sg8
(lp135
VinstObjGroups[0].objectGroups[0].objectGrpCompList
p136
ag75
aVinstObjGroups[0].objectGroups[0].objectGrpColor
p137
assVghostRangeEnd
p138
(dp139
g3
I00
sg5
Vtime
p140
sg4
I00
sg13
I00
sg7
I01
sg8
(lp141
ssVghostColorPre.ghostColorPreG
p142
(dp143
g3
I00
sg5
Vfloat
p144
sg4
I00
sg13
I00
sg7
I01
sg8
(lp145
ssVghostColorPre.ghostColorPreB
p146
(dp147
g3
I00
sg5
Vfloat
p148
sg4
I00
sg13
I00
sg7
I01
sg8
(lp149
ssVpublishedNodeInfo[0].publishedNode
p150
(dp151
g3
I00
sg8
(lp152
ssVpublishedNodeInfo[1].isHierarchicalNode
p153
(dp154
g3
I00
sg8
(lp155
ssVtemplateVersion
p156
(dp157
g3
I00
sg5
Vlong
p158
sg4
I00
sg13
I00
sg7
I01
sg8
(lp159
ssVinstObjGroups[1].objectGroups
p160
(dp161
g3
I01
ssVmatrix
p162
(dp163
g3
I00
sg4
I00
sg5
Vmatrix
p164
sg7
I00
sg8
(lp165
ssVghostCustomSteps
p166
(dp167
g3
I00
sg4
I00
sg5
VTdataCompound
p168
sg7
I00
sg8
(lp169
VghostCustomSteps.ghostPreSteps
p170
ag15
aVghostCustomSteps.ghostStepSize
p171
assVinstObjGroups[0].objectGroups[1].objectGrpCompList
p172
(dp173
g3
I00
sg8
(lp174
ssVworldMatrix
p175
(dp176
g3
I01
sg4
I01
sg7
I00
sg5
Vmatrix
p177
ssVtemplate
p178
(dp179
g3
I00
sg5
Vbool
p180
sg4
I00
sg13
I00
sg7
I01
sg8
(lp181
ssVcontainerType
p182
(dp183
g3
I00
sg5
Vstring
p184
sg4
I00
sg13
I00
sg7
I01
sg8
(lp185
ssVinstObjGroups.objectGroups.objectGrpCompList
p186
(dp187
g21
VinstObjGroups.objectGroups
p188
ssVparentInverseMatrix
p189
(dp190
g3
I01
sg4
I01
sg7
I00
sg5
Vmatrix
p191
ssVviewName
p192
(dp193
g3
I00
sg5
Vstring
p194
sg4
I00
sg13
I00
sg7
I01
sg8
(lp195
ssVpublishedNodeInfo.publishedNodeType
p196
(dp197
g21
VpublishedNodeInfo
p198
ssVparentInverseMatrix[1]
p199
(dp200
g3
I00
sg8
(lp201
ssVpublishedNodeInfo[1]
p202
(dp203
g3
I00
sg8
(lp204
VpublishedNodeInfo[1].publishedNode
p205
ag153
aVpublishedNodeInfo[1].publishedNodeType
p206
assVinstObjGroups[0].objectGroups[1]
p207
(dp208
g3
I00
sg8
(lp209
g172
aVinstObjGroups[0].objectGroups[1].objectGroupId
p210
aVinstObjGroups[0].objectGroups[1].objectGrpColor
p211
assVrmbCommand
p212
(dp213
g3
I00
sg5
Vstring
p214
sg4
I00
sg13
I00
sg7
I01
sg8
(lp215
ssVinstObjGroups.objectGroups
p216
(dp217
g21
VinstObjGroups
p218
ssg206
(dp219
g3
I00
sg8
(lp220
ssVpublishedNodeInfo[0]
p221
(dp222
g3
I00
sg8
(lp223
g150
aVpublishedNodeInfo[0].isHierarchicalNode
p224
aVpublishedNodeInfo[0].publishedNodeType
p225
assVpublishedNodeInfo
p226
(dp227
g3
I01
sg4
I01
sg7
I00
sg5
VTdataCompound
p228
ssViconName
p229
(dp230
g3
I00
sg5
Vstring
p231
sg4
I00
sg13
I00
sg7
I01
sg8
(lp232
ssVrenderInfo.layerRenderable
p233
(dp234
g21
VrenderInfo
p235
sg3
I00
sg5
Vbool
p236
sg4
I00
sg13
I00
sg7
I01
sg8
(lp237
ssVvisibility
p238
(dp239
g3
I00
sg5
Vbool
p240
sg4
I00
sg13
I00
sg7
I01
sg8
(lp241
ssVghostRangeStart
p242
(dp243
g3
I00
sg5
Vtime
p244
sg4
I00
sg13
I00
sg7
I01
sg8
(lp245
ssg225
(dp246
g3
I00
sg8
(lp247
ssVisHierarchicalConnection
p248
(dp249
g3
I01
sg4
I01
sg7
I00
sg5
VTdataCompound
p250
ssVinstObjGroups
p251
(dp252
g3
I01
sg4
I01
sg7
I00
sg5
VTdataCompound
p253
ssVselectionChildHighlighting
p254
(dp255
g3
I00
sg5
Vbool
p256
sg4
I00
sg13
I00
sg7
I01
sg8
(lp257
ssVworldMatrix[0]
p258
(dp259
g3
I00
sg8
(lp260
ssVdrawOverride.overrideVisibility
p261
(dp262
g3
I00
sg5
Vbool
p263
sg4
I00
sg13
I00
sg7
I01
sg8
(lp264
ssVghosting
p265
(dp266
g3
I00
sg5
Vbool
p267
sg4
I00
sg13
I00
sg7
I01
sg8
(lp268
ssg205
(dp269
g3
I00
sg8
(lp270
ssVisHistoricallyInteresting
p271
(dp272
g3
I00
sg4
I00
sg5
Vbyte
p273
sg7
I00
sg8
(lp274
ssVvParamValue
p275
(dp276
g3
I00
sg5
Vdouble
p277
sg4
I00
sg13
I00
sg7
I01
sg8
(lp278
ssVinstObjGroups[1]
p279
(dp280
g3
I00
sg8
(lp281
g160
assg170
(dp282
g3
I00
sg5
Vlong
p283
sg4
I00
sg13
I00
sg7
I01
sg8
(lp284
ssVdrawOverride
p285
(dp286
g3
I00
sg4
I00
sg5
VTdataCompound
p287
sg7
I00
sg8
(lp288
VdrawOverride.overrideDisplayType
p289
ag27
aVdrawOverride.overrideShading
p290
aVdrawOverride.overrideTexturing
p291
aVdrawOverride.overridePlayback
p292
ag115
ag261
ag1
assVparentMatrix[1]
p293
(dp294
g3
I00
sg8
(lp295
ssVinstObjGroups.objectGroups.objectGroupId
p296
(dp297
g21
VinstObjGroups.objectGroups
p298
ssVrenderInfo
p299
(dp300
g3
I00
sg4
I00
sg5
VTdataCompound
p301
sg7
I00
sg8
(lp302
VrenderInfo.identification
p303
aVrenderInfo.layerRenderable
p304
aVrenderInfo.layerOverrideColor
p305
assg210
(dp306
g3
I00
sg8
(lp307
ssVghostColorPre
p308
(dp309
g3
I00
sg4
I00
sg5
Vfloat3
p310
sg7
I00
sg8
(lp311
g125
ag142
ag146
assVobjectColorRGB.objectColorG
p312
(dp313
g21
VobjectColorRGB
p314
sg3
I00
sg5
Vfloat
p315
sg4
I00
sg13
I00
sg7
I01
sg8
(lp316
ssVobjectColorRGB.objectColorB
p317
(dp318
g21
VobjectColorRGB
p319
sg3
I00
sg5
Vfloat
p320
sg4
I00
sg13
I00
sg7
I01
sg8
(lp321
ssg291
(dp322
g3
I00
sg5
Vbool
p323
sg4
I00
sg13
I00
sg7
I01
sg8
(lp324
ssVboundingBox.boundingBoxSize
p325
(dp326
g21
VboundingBox
p327
ssVrenderInfo.layerOverrideColor
p328
(dp329
g21
VrenderInfo
p330
sg3
I00
sg5
Vbyte
p331
sg4
I00
sg7
I00
sg8
(lp332
ssVrenderLayerInfo[0]
p333
(dp334
g3
I00
sg8
(lp335
g78
ag60
aVrenderLayerInfo[0].renderLayerColor
p336
assVobjectColorRGB.objectColorR
p337
(dp338
g21
VobjectColorRGB
p339
sg3
I00
sg5
Vfloat
p340
sg4
I00
sg13
I00
sg7
I01
sg8
(lp341
ssg336
(dp342
g3
I00
sg8
(lp343
ssVnurbsGeometry
p344
(dp345
g3
I00
sg4
I00
sg5
Nsg7
I00
sg8
(lp346
ssVinstObjGroups[0]
p347
(dp348
g3
I00
sg8
(lp349
VinstObjGroups[0].objectGroups
p350
assVboundingBox.boundingBoxMin
p351
(dp352
g21
VboundingBox
p353
ssg350
(dp354
g3
I01
ssVworldInverseMatrix[0]
p355
(dp356
g3
I00
sg8
(lp357
ssVboundingBox.boundingBoxMax.boundingBoxMaxY
p358
(dp359
g21
VboundingBox.boundingBoxMax
p360
ssVboundingBox.boundingBoxMax.boundingBoxMaxX
p361
(dp362
g21
VboundingBox.boundingBoxMax
p363
ssg224
(dp364
g3
I00
sg8
(lp365
ssVboundingBox.boundingBoxMax.boundingBoxMaxZ
p366
(dp367
g21
VboundingBox.boundingBoxMax
p368
ssVworldInverseMatrix
p369
(dp370
g3
I01
sg4
I01
sg7
I00
sg5
Vmatrix
p371
ssVboundingBox.boundingBoxSize.boundingBoxSizeY
p372
(dp373
g21
VboundingBox.boundingBoxSize
p374
ssVboundingBox.boundingBoxSize.boundingBoxSizeX
p375
(dp376
g21
VboundingBox.boundingBoxSize
p377
ssVboundingBox.boundingBoxSize.boundingBoxSizeZ
p378
(dp379
g21
VboundingBox.boundingBoxSize
p380
ssVblackBox
p381
(dp382
g3
I00
sg5
Vbool
p383
sg4
I00
sg13
I00
sg7
I01
sg8
(lp384
ssVrenderLayerInfo.renderLayerColor
p385
(dp386
g21
VrenderLayerInfo
p387
ssVghostingControl
p388
(dp389
g3
I00
sg5
Venum
p390
sg4
I00
sg13
I00
sg7
I01
sg8
(lp391
ssVviewMode
p392
(dp393
g3
I00
sg5
Venum
p394
sg4
I00
sg13
I00
sg7
I01
sg8
(lp395
ssVisHierarchicalConnection[0]
p396
(dp397
g3
I00
sg8
(lp398
ssg289
(dp399
g3
I00
sg5
Venum
p400
sg4
I00
sg13
I00
sg7
I01
sg8
(lp401
ssVisCollapsed
p402
(dp403
g3
I00
sg5
Vbool
p404
sg4
I00
sg13
I00
sg7
I01
sg8
(lp405
ssVnodeState
p406
(dp407
g3
I00
sg5
Venum
p408
sg4
I00
sg13
I00
sg7
I01
sg8
(lp409
ssVpublishedNodeInfo.isHierarchicalNode
p410
(dp411
g21
VpublishedNodeInfo
p412
ssVrenderInfo.identification
p413
(dp414
g21
VrenderInfo
p415
sg3
I00
sg5
Vshort
p416
sg4
I00
sg13
I00
sg7
I01
sg8
(lp417
ssVghostColorPreA
p418
(dp419
g3
I00
sg5
Vfloat
p420
sg4
I00
sg13
I00
sg7
I01
sg8
(lp421
ssVrenderLayerInfo[1]
p422
(dp423
g3
I00
sg8
(lp424
g108
aVrenderLayerInfo[1].renderLayerRenderable
p425
ag45
assg171
(dp426
g3
I00
sg5
Vlong
p427
sg4
I00
sg13
I00
sg7
I01
sg8
(lp428
ssg292
(dp429
g3
I00
sg5
Vbool
p430
sg4
I00
sg13
I00
sg7
I01
sg8
(lp431
ssVghostColorPostA
p432
(dp433
g3
I00
sg5
Vfloat
p434
sg4
I00
sg13
I00
sg7
I01
sg8
(lp435
ssVrenderLayerInfo
p436
(dp437
g3
I01
sg4
I01
sg7
I00
sg5
VTdataCompound
p438
ssVlodVisibility
p439
(dp440
g3
I00
sg5
Vbool
p441
sg4
I00
sg13
I00
sg7
I01
sg8
(lp442
ssVworldMatrix[1]
p443
(dp444
g3
I00
sg8
(lp445
ssg136
(dp446
g3
I00
sg8
(lp447
ssg41
(dp448
g3
I00
sg5
Vfloat
p449
sg4
I00
sg13
I00
sg7
I01
sg8
(lp450
ssVuiTreatment
p451
(dp452
g3
I00
sg5
Venum
p453
sg4
I00
sg13
I00
sg7
I01
sg8
(lp454
ssg290
(dp455
g3
I00
sg5
Vbool
p456
sg4
I00
sg13
I00
sg7
I01
sg8
(lp457
ssg40
(dp458
g3
I00
sg5
Vfloat
p459
sg4
I00
sg13
I00
sg7
I01
sg8
(lp460
ssVcenter.boundingBoxCenterZ
p461
(dp462
g21
Vcenter
p463
ssVtemplateName
p464
(dp465
g3
I00
sg5
Vstring
p466
sg4
I00
sg13
I00
sg7
I01
sg8
(lp467
ssVuParamValue
p468
(dp469
g3
I00
sg5
Vdouble
p470
sg4
I00
sg13
I00
sg7
I01
sg8
(lp471
ssg211
(dp472
g3
I00
sg8
(lp473
ssg39
(dp474
g3
I00
sg5
Vfloat
p475
sg4
I00
sg13
I00
sg7
I01
sg8
(lp476
ssVcenter.boundingBoxCenterX
p477
(dp478
g21
Vcenter
p479
ssVcaching
p480
(dp481
g3
I00
sg5
Vbool
p482
sg4
I00
sg13
I00
sg7
I01
sg8
(lp483
ssVinverseMatrix
p484
(dp485
g3
I00
sg4
I00
sg5
Vmatrix
p486
sg7
I00
sg8
(lp487
ssVghostFrames
p488
(dp489
g3
I00
sg4
I00
sg5
Nsg7
I00
sg8
(lp490
ssg425
(dp491
g3
I00
sg8
(lp492
ssg137
(dp493
g3
I00
sg8
(lp494
ssVcenter.boundingBoxCenterY
p495
(dp496
g21
Vcenter
p497
ss.