(dp0
VcolorSet[0].colorSetPoints[1]
p1
(dp2
S'isArray'
p3
I00
sS'attrChildrenLongNames'
p4
(lp5
VcolorSet[0].colorSetPoints[1].colorSetPointsR
p6
aVcolorSet[0].colorSetPoints[1].colorSetPointsG
p7
aVcolorSet[0].colorSetPoints[1].colorSetPointsB
p8
aVcolorSet[0].colorSetPoints[1].colorSetPointsA
p9
assVcontrolPoints[1]
p10
(dp11
g3
I00
sg4
(lp12
VcontrolPoints[1].xValue
p13
aVcontrolPoints[1].yValue
p14
aVcontrolPoints[1].zValue
p15
assVcontrolPoints[0].xValue
p16
(dp17
g3
I00
sg4
(lp18
ssVworldNormal
p19
(dp20
g3
I01
sS'isMulti'
p21
I01
sS'isSimple'
p22
I01
sS'attrType'
p23
Vdouble3
p24
ssg13
(dp25
g3
I00
sg4
(lp26
ssVrenderLayerInfo.renderLayerRenderable
p27
(dp28
S'attrParentLongName'
p29
VrenderLayerInfo
p30
ssVuvSet[0].uvSetPoints[1]
p31
(dp32
g3
I00
sg4
(lp33
VuvSet[0].uvSetPoints[1].uvSetPointsU
p34
aVuvSet[0].uvSetPoints[1].uvSetPointsV
p35
assVanchorSmoothness[0]
p36
(dp37
g3
I00
sg23
Venum
p38
sg21
I00
sS'isCompound'
p39
I00
sg22
I01
sg4
(lp40
ssVweights[0]
p41
(dp42
g3
I00
sg4
(lp43
ssVcompInstObjGroups.compObjectGroups
p44
(dp45
g29
VcompInstObjGroups
p46
ssVinstObjGroups[0].objectGroups[4].objectGroupId
p47
(dp48
g3
I00
sg23
Vlong
p49
sg21
I00
sg39
I00
sg22
I01
sg4
(lp50
ssVboundingBox.boundingBoxMin.boundingBoxMinY
p51
(dp52
g29
VboundingBox.boundingBoxMin
p53
ssVboundingBox.boundingBoxMin.boundingBoxMinX
p54
(dp55
g29
VboundingBox.boundingBoxMin
p56
ssVcompInstObjGroups[0].compObjectGroups[0].compObjectGrpCompList
p57
(dp58
g3
I00
sg4
(lp59
ssVboundingBox.boundingBoxMin.boundingBoxMinZ
p60
(dp61
g29
VboundingBox.boundingBoxMin
p62
ssVshadingSamplesOverride
p63
(dp64
g3
I00
sg23
Vbool
p65
sg21
I00
sg39
I00
sg22
I01
sg4
(lp66
ssVdispEP
p67
(dp68
g3
I00
sg23
Vbool
p69
sg21
I00
sg39
I00
sg22
I01
sg4
(lp70
ssVvolumeSamplesOverride
p71
(dp72
g3
I00
sg23
Vbool
p73
sg21
I00
sg39
I00
sg22
I01
sg4
(lp74
ssVinstObjGroups[0].objectGroups[7].objectGrpColor
p75
(dp76
g3
I00
sg23
Vshort
p77
sg21
I00
sg39
I00
sg22
I01
sg4
(lp78
ssVinstObjGroups[0].objectGroups[7].objectGrpCompList
p79
(dp80
g3
I00
sg21
I00
sg4
(lp81
sg22
I00
sg23
VcomponentList
p82
ssVtemplatePath
p83
(dp84
g3
I00
sg23
Vstring
p85
sg21
I00
sg39
I00
sg22
I01
sg4
(lp86
ssVinstObjGroups[0].objectGroups[15].objectGroupId
p87
(dp88
g3
I00
sg4
(lp89
ssVuvSet.uvSetTweakLocation
p90
(dp91
g29
VuvSet
p92
ssVparentMatrix[0]
p93
(dp94
g3
I00
sg4
(lp95
ssVcolorSet[1].colorName
p96
(dp97
g3
I00
sg4
(lp98
ssVcurrentUVSet
p99
(dp100
g3
I00
sg23
Vstring
p101
sg21
I00
sg39
I00
sg22
I01
sg4
(lp102
ssVinstObjGroups[0].objectGroups[0]
p103
(dp104
g3
I00
sg21
I00
sg4
(lp105
VinstObjGroups[0].objectGroups[0].objectGrpCompList
p106
aVinstObjGroups[0].objectGroups[0].objectGroupId
p107
aVinstObjGroups[0].objectGroups[0].objectGrpColor
p108
asg22
I00
sg23
VTdataCompound
p109
ssVcolorSet[0].colorName
p110
(dp111
g3
I00
sg4
(lp112
ssVcompInstObjGroups[0].compObjectGroups[0]
p113
(dp114
g3
I00
sg4
(lp115
g57
aVcompInstObjGroups[0].compObjectGroups[0].compObjectGroupId
p116
assVtemplate
p117
(dp118
g3
I00
sg23
Vbool
p119
sg21
I00
sg39
I00
sg22
I01
sg4
(lp120
ssVinstObjGroups[0].objectGroups[6].objectGroupId
p121
(dp122
g3
I00
sg23
Vlong
p123
sg21
I00
sg39
I00
sg22
I01
sg4
(lp124
ssVcontrolPoints.yValue
p125
(dp126
g29
VcontrolPoints
p127
ssVdegree
p128
(dp129
g3
I00
sg23
Vshort
p130
sg21
I00
sg39
I00
sg22
I01
sg4
(lp131
ssVparentInverseMatrix[1]
p132
(dp133
g3
I00
sg4
(lp134
ssVinstObjGroups.objectGroups
p135
(dp136
g29
VinstObjGroups
p137
ssVpublishedNodeInfo
p138
(dp139
g3
I01
sg21
I01
sg22
I00
sg23
VTdataCompound
p140
ssVinstObjGroups[0].objectGroups[11].objectGrpCompList
p141
(dp142
g3
I00
sg21
I00
sg4
(lp143
sg22
I00
sg23
VcomponentList
p144
ssVinstObjGroups[0].objectGroups[15]
p145
(dp146
g3
I00
sg4
(lp147
VinstObjGroups[0].objectGroups[15].objectGrpCompList
p148
ag87
aVinstObjGroups[0].objectGroups[15].objectGrpColor
p149
assVdisplayColorChannel
p150
(dp151
g3
I00
sg23
Vstring
p152
sg21
I00
sg39
I00
sg22
I01
sg4
(lp153
ssVselectionChildHighlighting
p154
(dp155
g3
I00
sg23
Vbool
p156
sg21
I00
sg39
I00
sg22
I01
sg4
(lp157
ssVtweak
p158
(dp159
g3
I00
sg23
Vbool
p160
sg21
I00
sg39
I00
sg22
I01
sg4
(lp161
ssVinstObjGroups[0].objectGroups[9].objectGrpCompList
p162
(dp163
g3
I00
sg21
I00
sg4
(lp164
sg22
I00
sg23
VcomponentList
p165
ssVuvSet[1].uvSetPoints
p166
(dp167
g3
I01
ssVinstObjGroups[2].objectGroups
p168
(dp169
g3
I01
ssVeditPoints[1]
p170
(dp171
g3
I00
sg4
(lp172
VeditPoints[1].xValueEp
p173
aVeditPoints[1].yValueEp
p174
aVeditPoints[1].zValueEp
p175
assVanchorWeighting
p176
(dp177
g3
I01
sg21
I01
sg22
I00
sg23
VTdataCompound
p178
ssVcontrolPoints[0].zValue
p179
(dp180
g3
I00
sg4
(lp181
ssVvisibility
p182
(dp183
g3
I00
sg23
Vbool
p184
sg21
I00
sg39
I00
sg22
I01
sg4
(lp185
ssVeditPoints[0].yValueEp
p186
(dp187
g3
I00
sg4
(lp188
ssVrenderInfo.layerOverrideColor
p189
(dp190
g29
VrenderInfo
p191
sg3
I00
sg23
Vbyte
p192
sg21
I00
sg22
I00
sg4
(lp193
ssVuvSet.uvSetName
p194
(dp195
g29
VuvSet
p196
ssVinstObjGroups[0]
p197
(dp198
g3
I00
sg21
I00
sg4
(lp199
VinstObjGroups[0].objectGroups
p200
asg22
I00
sg23
VTdataCompound
p201
ssVcompInstObjGroups[0].compObjectGroups
p202
(dp203
g3
I01
ssVinstObjGroups[0].objectGroups[4]
p204
(dp205
g3
I00
sg21
I00
sg4
(lp206
VinstObjGroups[0].objectGroups[4].objectGrpCompList
p207
ag47
aVinstObjGroups[0].objectGroups[4].objectGrpColor
p208
asg22
I00
sg23
VTdataCompound
p209
ssVinstObjGroups[0].objectGroups[5].objectGrpCompList
p210
(dp211
g3
I00
sg21
I00
sg4
(lp212
sg22
I00
sg23
VcomponentList
p213
ssVinstObjGroups[0].objectGroups[3].objectGrpCompList
p214
(dp215
g3
I00
sg21
I00
sg4
(lp216
sg22
I00
sg23
VcomponentList
p217
ssVmaxShadingSamples
p218
(dp219
g3
I00
sg23
Vlong
p220
sg21
I00
sg39
I00
sg22
I01
sg4
(lp221
ssVpublishedNodeInfo[0].isHierarchicalNode
p222
(dp223
g3
I00
sg4
(lp224
ssVboundingBox.boundingBoxSize.boundingBoxSizeY
p225
(dp226
g29
VboundingBox.boundingBoxSize
p227
ssVboundingBox.boundingBoxSize.boundingBoxSizeX
p228
(dp229
g29
VboundingBox.boundingBoxSize
p230
ssVdispCurveEndPoints
p231
(dp232
g3
I00
sg23
Vbool
p233
sg21
I00
sg39
I00
sg22
I01
sg4
(lp234
ssVtemplateName
p235
(dp236
g3
I00
sg23
Vstring
p237
sg21
I00
sg39
I00
sg22
I01
sg4
(lp238
ssVanchorWeighting[2]
p239
(dp240
g3
I00
sg23
Venum
p241
sg21
I00
sg39
I00
sg22
I01
sg4
(lp242
ssVcolorSet[0]
p243
(dp244
g3
I00
sg4
(lp245
g110
aVcolorSet[0].clamped
p246
aVcolorSet[0].representation
p247
aVcolorSet[0].colorSetPoints
p248
assVdispHull
p249
(dp250
g3
I00
sg23
Vbool
p251
sg21
I00
sg39
I00
sg22
I01
sg4
(lp252
ssVworldNormal[1].worldNormalX
p253
(dp254
g3
I00
sg4
(lp255
ssVworldNormal[1].worldNormalY
p256
(dp257
g3
I00
sg4
(lp258
ssVworldNormal[1].worldNormalZ
p259
(dp260
g3
I00
sg4
(lp261
ssVnodeState
p262
(dp263
g3
I00
sg23
Venum
p264
sg21
I00
sg39
I00
sg22
I01
sg4
(lp265
ssVinstObjGroups[0].objectGroups[14].objectGrpColor
p266
(dp267
g3
I00
sg4
(lp268
ssVboundingBox.boundingBoxSize.boundingBoxSizeZ
p269
(dp270
g29
VboundingBox.boundingBoxSize
p271
ssVworldMatrix[1]
p272
(dp273
g3
I00
sg4
(lp274
ssVuvPivot.uvPivotX
p275
(dp276
g3
I00
sg23
Vdouble
p277
sg21
I00
sg39
I00
sg22
I01
sg4
(lp278
ssVinstObjGroups[0].objectGroups[11]
p279
(dp280
g3
I00
sg21
I00
sg4
(lp281
g141
aVinstObjGroups[0].objectGroups[11].objectGroupId
p282
aVinstObjGroups[0].objectGroups[11].objectGrpColor
p283
asg22
I00
sg23
VTdataCompound
p284
ssVuvPivot.uvPivotY
p285
(dp286
g3
I00
sg23
Vdouble
p287
sg21
I00
sg39
I00
sg22
I01
sg4
(lp288
ssg15
(dp289
g3
I00
sg4
(lp290
ssVuvSet
p291
(dp292
g3
I01
sg21
I01
sg22
I00
sg23
VTdataCompound
p293
ssVrenderLayerInfo[0].renderLayerId
p294
(dp295
g3
I00
sg4
(lp296
ssVghostingControl
p297
(dp298
g3
I00
sg23
Venum
p299
sg21
I00
sg39
I00
sg22
I01
sg4
(lp300
ssVghostFrames
p301
(dp302
g3
I00
sg21
I00
sg4
(lp303
sg22
I00
sg23
Nssg108
(dp304
g3
I00
sg23
Vshort
p305
sg21
I00
sg39
I00
sg22
I01
sg4
(lp306
ssVcompInstObjGroups[0].compObjectGroups[1].compObjectGrpCompList
p307
(dp308
g3
I00
sg4
(lp309
ssVdrawOverride.overrideColor
p310
(dp311
g3
I00
sg21
I00
sg4
(lp312
sg22
I00
sg23
Vbyte
p313
ssVminMaxValue.maxValue
p314
(dp315
g29
VminMaxValue
p316
sg3
I00
sg23
Vdouble
p317
sg21
I00
sg39
I00
sg22
I01
sg4
(lp318
ssVminMaxValue
p319
(dp320
g3
I00
sg23
Vdouble2
p321
sg21
I00
sg39
I01
sg22
I01
sg4
(lp322
VminMaxValue.minValue
p323
aVminMaxValue.maxValue
p324
assVignoreSelfShadowing
p325
(dp326
g3
I00
sg23
Vbool
p327
sg21
I00
sg39
I00
sg22
I01
sg4
(lp328
ssVinstObjGroups[0].objectGroups[10].objectGroupId
p329
(dp330
g3
I00
sg23
Vlong
p331
sg21
I00
sg39
I00
sg22
I01
sg4
(lp332
ssVinstObjGroups[0].objectGroups[1].objectGrpCompList
p333
(dp334
g3
I00
sg21
I00
sg4
(lp335
sg22
I00
sg23
VcomponentList
p336
ssVrenderLayerInfo[1].renderLayerColor
p337
(dp338
g3
I00
sg4
(lp339
ssVcolorSet[1].representation
p340
(dp341
g3
I00
sg4
(lp342
ssVcustomTreatment
p343
(dp344
g3
I00
sg23
Vstring
p345
sg21
I00
sg39
I00
sg22
I01
sg4
(lp346
ssVinstObjGroups[0].objectGroups[13].objectGrpCompList
p347
(dp348
g3
I00
sg21
I00
sg4
(lp349
sg22
I00
sg23
VcomponentList
p350
ssVghostColorPostA
p351
(dp352
g3
I00
sg23
Vfloat
p353
sg21
I00
sg39
I00
sg22
I01
sg4
(lp354
ssVinstObjGroups[0].objectGroups[3]
p355
(dp356
g3
I00
sg21
I00
sg4
(lp357
g214
aVinstObjGroups[0].objectGroups[3].objectGroupId
p358
aVinstObjGroups[0].objectGroups[3].objectGrpColor
p359
asg22
I00
sg23
VTdataCompound
p360
ssVcompInstObjGroups.compObjectGroups.compObjectGroupId
p361
(dp362
g29
VcompInstObjGroups.compObjectGroups
p363
ssVcreationDate
p364
(dp365
g3
I00
sg23
Vstring
p366
sg21
I00
sg39
I00
sg22
I01
sg4
(lp367
ssVvolumeSamples
p368
(dp369
g3
I00
sg23
Vlong
p370
sg21
I00
sg39
I00
sg22
I01
sg4
(lp371
ssVinstObjGroups[0].objectGroups[12].objectGroupId
p372
(dp373
g3
I00
sg23
Vlong
p374
sg21
I00
sg39
I00
sg22
I01
sg4
(lp375
ssVcolorSet[0].colorSetPoints[0].colorSetPointsG
p376
(dp377
g3
I00
sg4
(lp378
ssVcolorSet[0].colorSetPoints[0].colorSetPointsA
p379
(dp380
g3
I00
sg4
(lp381
ssVcolorSet[0].colorSetPoints[0].colorSetPointsB
p382
(dp383
g3
I00
sg4
(lp384
ssVisHierarchicalConnection[1]
p385
(dp386
g3
I00
sg4
(lp387
ssVdrawOverride.overrideDisplayType
p388
(dp389
g3
I00
sg23
Venum
p390
sg21
I00
sg39
I00
sg22
I01
sg4
(lp391
ssVeditPoints.yValueEp
p392
(dp393
g29
VeditPoints
p394
ssVcolorSet[0].colorSetPoints[0].colorSetPointsR
p395
(dp396
g3
I00
sg4
(lp397
ssg248
(dp398
g3
I01
ssVworldNormal[1]
p399
(dp400
g3
I00
sg4
(lp401
g253
ag256
ag259
assVobjectColorRGB
p402
(dp403
g3
I00
sg21
I00
sg4
(lp404
VobjectColorRGB.objectColorR
p405
aVobjectColorRGB.objectColorG
p406
aVobjectColorRGB.objectColorB
p407
asg22
I00
sg23
Vfloat3
p408
ssVcompInstObjGroups.compObjectGroups.compObjectGrpCompList
p409
(dp410
g29
VcompInstObjGroups.compObjectGroups
p411
ssVcompInstObjGroups
p412
(dp413
g3
I01
sg21
I01
sg22
I00
sg23
VTdataCompound
p414
ssVworldNormal[0].worldNormalZ
p415
(dp416
g3
I00
sg4
(lp417
ssVinstObjGroups[1].objectGroups
p418
(dp419
g3
I01
ssVmatrix
p420
(dp421
g3
I00
sg21
I00
sg4
(lp422
sg22
I00
sg23
Vmatrix
p423
ssVinstObjGroups[0].objectGroups[12]
p424
(dp425
g3
I00
sg21
I00
sg4
(lp426
VinstObjGroups[0].objectGroups[12].objectGrpCompList
p427
ag372
aVinstObjGroups[0].objectGroups[12].objectGrpColor
p428
asg22
I00
sg23
VTdataCompound
p429
ssVghostCustomSteps
p430
(dp431
g3
I00
sg21
I00
sg4
(lp432
VghostCustomSteps.ghostPreSteps
p433
aVghostCustomSteps.ghostPostSteps
p434
aVghostCustomSteps.ghostStepSize
p435
asg22
I00
sg23
VTdataCompound
p436
ssVinstObjGroups[0].objectGroups[2].objectGrpCompList
p437
(dp438
g3
I00
sg21
I00
sg4
(lp439
sg22
I00
sg23
VcomponentList
p440
ssVworldMatrix
p441
(dp442
g3
I01
sg21
I01
sg22
I00
sg23
Vmatrix
p443
ssVcontainerType
p444
(dp445
g3
I00
sg23
Vstring
p446
sg21
I00
sg39
I00
sg22
I01
sg4
(lp447
ssVanchorWeighting[6]
p448
(dp449
g3
I00
sg4
(lp450
ssVcontrolPoints
p451
(dp452
g3
I01
sg21
I01
sg22
I00
sg23
VTdataCompound
p453
ssVparentInverseMatrix
p454
(dp455
g3
I01
sg21
I01
sg22
I00
sg23
Vmatrix
p456
ssVcontrolPoints[0]
p457
(dp458
g3
I00
sg4
(lp459
g16
aVcontrolPoints[0].yValue
p460
ag179
assVrenderInfo.layerRenderable
p461
(dp462
g29
VrenderInfo
p463
sg3
I00
sg23
Vbool
p464
sg21
I00
sg39
I00
sg22
I01
sg4
(lp465
ssVrmbCommand
p466
(dp467
g3
I00
sg23
Vstring
p468
sg21
I00
sg39
I00
sg22
I01
sg4
(lp469
ssVeditPoints[0].zValueEp
p470
(dp471
g3
I00
sg4
(lp472
ssg433
(dp473
g3
I00
sg23
Vlong
p474
sg21
I00
sg39
I00
sg22
I01
sg4
(lp475
ssVpublishedNodeInfo[1].publishedNodeType
p476
(dp477
g3
I00
sg4
(lp478
ssVeditPoints.zValueEp
p479
(dp480
g29
VeditPoints
p481
ssVweights[1]
p482
(dp483
g3
I00
sg4
(lp484
ssVinstObjGroups[0].objectGroups[5].objectGrpColor
p485
(dp486
g3
I00
sg23
Vshort
p487
sg21
I00
sg39
I00
sg22
I01
sg4
(lp488
ssg148
(dp489
g3
I00
sg4
(lp490
ssVisHierarchicalConnection
p491
(dp492
g3
I01
sg21
I01
sg22
I00
sg23
VTdataCompound
p493
ssVanchorSmoothness[3]
p494
(dp495
g3
I00
sg23
Venum
p496
sg21
I00
sg39
I00
sg22
I01
sg4
(lp497
ssg246
(dp498
g3
I00
sg4
(lp499
ssVinstObjGroups[0].objectGroups[2].objectGrpColor
p500
(dp501
g3
I00
sg23
Vshort
p502
sg21
I00
sg39
I00
sg22
I01
sg4
(lp503
ssVworldSpace[2]
p504
(dp505
g3
I00
sg4
(lp506
ssVdispGeometry
p507
(dp508
g3
I00
sg23
Vbool
p509
sg21
I00
sg39
I00
sg22
I01
sg4
(lp510
ssVinstObjGroups[1]
p511
(dp512
g3
I00
sg4
(lp513
g418
assVvisibleInReflections
p514
(dp515
g3
I00
sg23
Vbool
p516
sg21
I00
sg39
I00
sg22
I01
sg4
(lp517
ssVdepthJitter
p518
(dp519
g3
I00
sg23
Vbool
p520
sg21
I00
sg39
I00
sg22
I01
sg4
(lp521
ssVinstObjGroups[0].objectGroups[8].objectGrpCompList
p522
(dp523
g3
I00
sg21
I00
sg4
(lp524
sg22
I00
sg23
VcomponentList
p525
ssVparentMatrix[1]
p526
(dp527
g3
I00
sg4
(lp528
ssVinstObjGroups[0].objectGroups[7]
p529
(dp530
g3
I00
sg21
I00
sg4
(lp531
g79
aVinstObjGroups[0].objectGroups[7].objectGroupId
p532
ag75
asg22
I00
sg23
VTdataCompound
p533
ssVrenderInfo
p534
(dp535
g3
I00
sg21
I00
sg4
(lp536
VrenderInfo.identification
p537
aVrenderInfo.layerRenderable
p538
aVrenderInfo.layerOverrideColor
p539
asg22
I00
sg23
VTdataCompound
p540
ssVvisibleInRefractions
p541
(dp542
g3
I00
sg23
Vbool
p543
sg21
I00
sg39
I00
sg22
I01
sg4
(lp544
ssg8
(dp545
g3
I00
sg4
(lp546
ssg9
(dp547
g3
I00
sg4
(lp548
ssg7
(dp549
g3
I00
sg4
(lp550
ssVdrawOverride.overrideShading
p551
(dp552
g3
I00
sg23
Vbool
p553
sg21
I00
sg39
I00
sg22
I01
sg4
(lp554
ssg175
(dp555
g3
I00
sg4
(lp556
ssVcolorSet.colorName
p557
(dp558
g29
VcolorSet
p559
ssg6
(dp560
g3
I00
sg4
(lp561
ssVrenderType
p562
(dp563
g3
I00
sg23
Vshort
p564
sg21
I00
sg39
I00
sg22
I01
sg4
(lp565
ssVboundingBox.boundingBoxMax.boundingBoxMaxY
p566
(dp567
g29
VboundingBox.boundingBoxMax
p568
ssVboundingBox.boundingBoxMax.boundingBoxMaxX
p569
(dp570
g29
VboundingBox.boundingBoxMax
p571
ssVboundingBox.boundingBoxMax.boundingBoxMaxZ
p572
(dp573
g29
VboundingBox.boundingBoxMax
p574
ssVisCollapsed
p575
(dp576
g3
I00
sg23
Vbool
p577
sg21
I00
sg39
I00
sg22
I01
sg4
(lp578
ssVanchorSmoothness[6]
p579
(dp580
g3
I00
sg4
(lp581
ssVghostColorPost.ghostColorPostR
p582
(dp583
g3
I00
sg23
Vfloat
p584
sg21
I00
sg39
I00
sg22
I01
sg4
(lp585
ssg208
(dp586
g3
I00
sg23
Vshort
p587
sg21
I00
sg39
I00
sg22
I01
sg4
(lp588
ssg460
(dp589
g3
I00
sg4
(lp590
ssg106
(dp591
g3
I00
sg21
I00
sg4
(lp592
sg22
I00
sg23
VcomponentList
p593
ssVcolorSet[1].colorSetPoints
p594
(dp595
g3
I01
ssVuiTreatment
p596
(dp597
g3
I00
sg23
Venum
p598
sg21
I00
sg39
I00
sg22
I01
sg4
(lp599
ssVuvPivot
p600
(dp601
g3
I00
sg23
Vdouble2
p602
sg21
I00
sg39
I01
sg22
I01
sg4
(lp603
g275
ag285
assVcaching
p604
(dp605
g3
I00
sg23
Vbool
p606
sg21
I00
sg39
I00
sg22
I01
sg4
(lp607
ssVrenderLayerInfo[1].renderLayerRenderable
p608
(dp609
g3
I00
sg4
(lp610
ssg116
(dp611
g3
I00
sg4
(lp612
ssg434
(dp613
g3
I00
sg23
Vlong
p614
sg21
I00
sg39
I00
sg22
I01
sg4
(lp615
ssg532
(dp616
g3
I00
sg23
Vlong
p617
sg21
I00
sg39
I00
sg22
I01
sg4
(lp618
ssVuseObjectColor
p619
(dp620
g3
I00
sg23
Vbool
p621
sg21
I00
sg39
I00
sg22
I01
sg4
(lp622
ssVdrawOverride.overrideLevelOfDetail
p623
(dp624
g3
I00
sg23
Venum
p625
sg21
I00
sg39
I00
sg22
I01
sg4
(lp626
ssg107
(dp627
g3
I00
sg23
Vlong
p628
sg21
I00
sg39
I00
sg22
I01
sg4
(lp629
ssVinstObjGroups[0].objectGroups[2]
p630
(dp631
g3
I00
sg21
I00
sg4
(lp632
g437
aVinstObjGroups[0].objectGroups[2].objectGroupId
p633
ag500
asg22
I00
sg23
VTdataCompound
p634
ssVantialiasingLevel
p635
(dp636
g3
I00
sg23
Vlong
p637
sg21
I00
sg39
I00
sg22
I01
sg4
(lp638
ssg282
(dp639
g3
I00
sg23
Vlong
p640
sg21
I00
sg39
I00
sg22
I01
sg4
(lp641
ssVcolorSet.colorSetPoints.colorSetPointsG
p642
(dp643
g29
VcolorSet.colorSetPoints
p644
ssVcolorSet.colorSetPoints.colorSetPointsB
p645
(dp646
g29
VcolorSet.colorSetPoints
p647
ssVcolorSet.colorSetPoints.colorSetPointsA
p648
(dp649
g29
VcolorSet.colorSetPoints
p650
ssg359
(dp651
g3
I00
sg23
Vshort
p652
sg21
I00
sg39
I00
sg22
I01
sg4
(lp653
ssVrenderLayerInfo.renderLayerId
p654
(dp655
g29
VrenderLayerInfo
p656
ssVbinMembership
p657
(dp658
g3
I00
sg23
Vstring
p659
sg21
I00
sg39
I00
sg22
I01
sg4
(lp660
ssVcolorSet.colorSetPoints.colorSetPointsR
p661
(dp662
g29
VcolorSet.colorSetPoints
p663
ssVinstObjGroups[0].objectGroups[14].objectGroupId
p664
(dp665
g3
I00
sg4
(lp666
ssVrenderLayerInfo[0].renderLayerRenderable
p667
(dp668
g3
I00
sg4
(lp669
ssVlocal
p670
(dp671
g3
I00
sg21
I00
sg4
(lp672
sg22
I00
sg23
VdataBezierCurve
p673
ssg149
(dp674
g3
I00
sg4
(lp675
ssg207
(dp676
g3
I00
sg21
I00
sg4
(lp677
sg22
I00
sg23
VcomponentList
p678
ssVuvSet.uvSetPoints.uvSetPointsV
p679
(dp680
g29
VuvSet.uvSetPoints
p681
ssVuvSet.uvSetPoints.uvSetPointsU
p682
(dp683
g29
VuvSet.uvSetPoints
p684
ssVparentMatrix
p685
(dp686
g3
I01
sg21
I01
sg22
I00
sg23
Vmatrix
p687
ssVinstObjGroups[0].objectGroups[6].objectGrpColor
p688
(dp689
g3
I00
sg23
Vshort
p690
sg21
I00
sg39
I00
sg22
I01
sg4
(lp691
ssVreceiveShadows
p692
(dp693
g3
I00
sg23
Vbool
p694
sg21
I00
sg39
I00
sg22
I01
sg4
(lp695
ssVanchorWeighting[3]
p696
(dp697
g3
I00
sg23
Venum
p698
sg21
I00
sg39
I00
sg22
I01
sg4
(lp699
ssVcached
p700
(dp701
g3
I00
sg21
I00
sg4
(lp702
sg22
I00
sg23
VdataBezierCurve
p703
ssVinstObjGroups[0].objectGroups[14].objectGrpCompList
p704
(dp705
g3
I00
sg4
(lp706
ssVshadingSamples
p707
(dp708
g3
I00
sg23
Vlong
p709
sg21
I00
sg39
I00
sg22
I01
sg4
(lp710
ssVdrawOverride.overrideEnabled
p711
(dp712
g3
I00
sg23
Vbool
p713
sg21
I00
sg39
I00
sg22
I01
sg4
(lp714
ssVboundingBox.boundingBoxMax
p715
(dp716
g29
VboundingBox
p717
ssVcolorSet[1]
p718
(dp719
g3
I00
sg4
(lp720
g96
aVcolorSet[1].clamped
p721
ag340
ag594
assVcreator
p722
(dp723
g3
I00
sg23
Vstring
p724
sg21
I00
sg39
I00
sg22
I01
sg4
(lp725
ssVtweakLocation
p726
(dp727
g3
I00
sg21
I00
sg4
(lp728
sg22
I00
sg23
NssVghostRangeEnd
p729
(dp730
g3
I00
sg23
Vtime
p731
sg21
I00
sg39
I00
sg22
I01
sg4
(lp732
ssVeditPoints[0].xValueEp
p733
(dp734
g3
I00
sg4
(lp735
ssVcontrolPoints.xValue
p736
(dp737
g29
VcontrolPoints
p738
ssVtemplateVersion
p739
(dp740
g3
I00
sg23
Vlong
p741
sg21
I00
sg39
I00
sg22
I01
sg4
(lp742
ssg633
(dp743
g3
I00
sg23
Vlong
p744
sg21
I00
sg39
I00
sg22
I01
sg4
(lp745
ssVuvSet.uvSetPoints
p746
(dp747
g29
VuvSet
p748
ssVuvSet[0]
p749
(dp750
g3
I00
sg4
(lp751
VuvSet[0].uvSetName
p752
aVuvSet[0].uvSetPoints
p753
aVuvSet[0].uvSetTweakLocation
p754
assVworldSpace
p755
(dp756
g3
I01
sg21
I01
sg22
I00
sg23
VdataBezierCurve
p757
ssVanchorSmoothness[2]
p758
(dp759
g3
I00
sg23
Venum
p760
sg21
I00
sg39
I00
sg22
I01
sg4
(lp761
ssVinstObjGroups.objectGroups.objectGrpCompList
p762
(dp763
g29
VinstObjGroups.objectGroups
p764
ssVpublishedNodeInfo.publishedNodeType
p765
(dp766
g29
VpublishedNodeInfo
p767
ssVpublishedNodeInfo[1]
p768
(dp769
g3
I00
sg4
(lp770
VpublishedNodeInfo[1].publishedNode
p771
aVpublishedNodeInfo[1].isHierarchicalNode
p772
ag476
assVinstObjGroups[0].objectGroups[9]
p773
(dp774
g3
I00
sg21
I00
sg4
(lp775
g162
aVinstObjGroups[0].objectGroups[9].objectGroupId
p776
aVinstObjGroups[0].objectGroups[9].objectGrpColor
p777
asg22
I00
sg23
VTdataCompound
p778
ssVeditPoints
p779
(dp780
g3
I01
sg21
I01
sg22
I00
sg23
VTdataCompound
p781
ssVghostRangeStart
p782
(dp783
g3
I00
sg23
Vtime
p784
sg21
I00
sg39
I00
sg22
I01
sg4
(lp785
ssVuvSet[1].uvSetTweakLocation
p786
(dp787
g3
I00
sg4
(lp788
ssVpublishedNodeInfo[0].publishedNodeType
p789
(dp790
g3
I00
sg4
(lp791
ssVinstObjGroups[2]
p792
(dp793
g3
I00
sg4
(lp794
g168
assg721
(dp795
g3
I00
sg4
(lp796
ssVinstObjGroups[0].objectGroups[6]
p797
(dp798
g3
I00
sg21
I00
sg4
(lp799
VinstObjGroups[0].objectGroups[6].objectGrpCompList
p800
ag121
ag688
asg22
I00
sg23
VTdataCompound
p801
ssVheader
p802
(dp803
g3
I00
sg21
I00
sg4
(lp804
sg22
I00
sg23
VnurbsCurveHeader
p805
ssVspans
p806
(dp807
g3
I00
sg23
Vlong
p808
sg21
I00
sg39
I00
sg22
I01
sg4
(lp809
ssVisHistoricallyInteresting
p810
(dp811
g3
I00
sg21
I00
sg4
(lp812
sg22
I00
sg23
Vbyte
p813
ssVinstObjGroups[0].objectGroups[13].objectGrpColor
p814
(dp815
g3
I00
sg23
Vshort
p816
sg21
I00
sg39
I00
sg22
I01
sg4
(lp817
ssVrelativeTweak
p818
(dp819
g3
I00
sg23
Vbool
p820
sg21
I00
sg39
I00
sg22
I01
sg4
(lp821
ssVcreate
p822
(dp823
g3
I00
sg21
I00
sg4
(lp824
sg22
I00
sg23
VdataBezierCurve
p825
ssVanchorWeighting[0]
p826
(dp827
g3
I00
sg23
Venum
p828
sg21
I00
sg39
I00
sg22
I01
sg4
(lp829
ssVtweakSize
p830
(dp831
g3
I00
sg23
Vlong
p832
sg21
I00
sg39
I00
sg22
I01
sg4
(lp833
ssVanchorWeighting[5]
p834
(dp835
g3
I00
sg4
(lp836
ssVdrawOverride
p837
(dp838
g3
I00
sg21
I00
sg4
(lp839
g388
ag623
ag551
aVdrawOverride.overrideTexturing
p840
aVdrawOverride.overridePlayback
p841
ag711
aVdrawOverride.overrideVisibility
p842
ag310
asg22
I00
sg23
VTdataCompound
p843
ssVcurrentColorSet
p844
(dp845
g3
I00
sg23
Vstring
p846
sg21
I00
sg39
I00
sg22
I01
sg4
(lp847
ssVghostColorPre
p848
(dp849
g3
I00
sg21
I00
sg4
(lp850
VghostColorPre.ghostColorPreR
p851
aVghostColorPre.ghostColorPreG
p852
aVghostColorPre.ghostColorPreB
p853
asg22
I00
sg23
Vfloat3
p854
ssg840
(dp855
g3
I00
sg23
Vbool
p856
sg21
I00
sg39
I00
sg22
I01
sg4
(lp857
ssVcompInstObjGroups[1]
p858
(dp859
g3
I00
sg4
(lp860
VcompInstObjGroups[1].compObjectGroups
p861
assVboundingBox.boundingBoxSize
p862
(dp863
g29
VboundingBox
p864
ssVinstObjGroups[0].objectGroups[13]
p865
(dp866
g3
I00
sg21
I00
sg4
(lp867
g347
aVinstObjGroups[0].objectGroups[13].objectGroupId
p868
ag814
asg22
I00
sg23
VTdataCompound
p869
ssVworldInverseMatrix[0]
p870
(dp871
g3
I00
sg4
(lp872
ssVanchorSmoothness[5]
p873
(dp874
g3
I00
sg4
(lp875
ssVrenderLayerInfo[0]
p876
(dp877
g3
I00
sg4
(lp878
g294
ag667
aVrenderLayerInfo[0].renderLayerColor
p879
assg173
(dp880
g3
I00
sg4
(lp881
ssg861
(dp882
g3
I01
ssg200
(dp883
g3
I01
sg21
I01
sg22
I00
sg23
VTdataCompound
p884
ssg753
(dp885
g3
I01
ssVmaxVisibilitySamplesOverride
p886
(dp887
g3
I00
sg23
Vbool
p888
sg21
I00
sg39
I00
sg22
I01
sg4
(lp889
ssVlodVisibility
p890
(dp891
g3
I00
sg23
Vbool
p892
sg21
I00
sg39
I00
sg22
I01
sg4
(lp893
ssVinstObjGroups[0].objectGroups[8].objectGroupId
p894
(dp895
g3
I00
sg23
Vlong
p896
sg21
I00
sg39
I00
sg22
I01
sg4
(lp897
ssg428
(dp898
g3
I00
sg23
Vshort
p899
sg21
I00
sg39
I00
sg22
I01
sg4
(lp900
ssVworldNormal[0]
p901
(dp902
g3
I00
sg4
(lp903
VworldNormal[0].worldNormalX
p904
aVworldNormal[0].worldNormalY
p905
ag415
assg283
(dp906
g3
I00
sg23
Vshort
p907
sg21
I00
sg39
I00
sg22
I01
sg4
(lp908
ssg905
(dp909
g3
I00
sg4
(lp910
ssg904
(dp911
g3
I00
sg4
(lp912
ssVpublishedNodeInfo.isHierarchicalNode
p913
(dp914
g29
VpublishedNodeInfo
p915
ssVghostColorPreA
p916
(dp917
g3
I00
sg23
Vfloat
p918
sg21
I00
sg39
I00
sg22
I01
sg4
(lp919
ssVworldNormal.worldNormalZ
p920
(dp921
g29
VworldNormal
p922
ssVworldNormal.worldNormalX
p923
(dp924
g29
VworldNormal
p925
ssVworldNormal.worldNormalY
p926
(dp927
g29
VworldNormal
p928
ssg841
(dp929
g3
I00
sg23
Vbool
p930
sg21
I00
sg39
I00
sg22
I01
sg4
(lp931
ssVcolorSet.clamped
p932
(dp933
g29
VcolorSet
p934
ssVghostColorPost.ghostColorPostB
p935
(dp936
g3
I00
sg23
Vfloat
p937
sg21
I00
sg39
I00
sg22
I01
sg4
(lp938
ssVworldSpace[1]
p939
(dp940
g3
I00
sg4
(lp941
ssVghostColorPost.ghostColorPostG
p942
(dp943
g3
I00
sg23
Vfloat
p944
sg21
I00
sg39
I00
sg22
I01
sg4
(lp945
ssVinstObjGroups[0].objectGroups[1].objectGrpColor
p946
(dp947
g3
I00
sg23
Vshort
p948
sg21
I00
sg39
I00
sg22
I01
sg4
(lp949
ssVviewMode
p950
(dp951
g3
I00
sg23
Venum
p952
sg21
I00
sg39
I00
sg22
I01
sg4
(lp953
ssVinstObjGroups[0].objectGroups[8].objectGrpColor
p954
(dp955
g3
I00
sg23
Vshort
p956
sg21
I00
sg39
I00
sg22
I01
sg4
(lp957
ssVdispCV
p958
(dp959
g3
I00
sg23
Vbool
p960
sg21
I00
sg39
I00
sg22
I01
sg4
(lp961
ssVintermediateObject
p962
(dp963
g3
I00
sg23
Vbool
p964
sg21
I00
sg39
I00
sg22
I01
sg4
(lp965
ssg777
(dp966
g3
I00
sg23
Vshort
p967
sg21
I00
sg39
I00
sg22
I01
sg4
(lp968
ssVghostColorPost
p969
(dp970
g3
I00
sg21
I00
sg4
(lp971
g582
ag942
ag935
asg22
I00
sg23
Vfloat3
p972
ssg358
(dp973
g3
I00
sg23
Vlong
p974
sg21
I00
sg39
I00
sg22
I01
sg4
(lp975
ssVanchorWeighting[4]
p976
(dp977
g3
I00
sg23
Venum
p978
sg21
I00
sg39
I00
sg22
I01
sg4
(lp979
ssVinstObjGroups[0].objectGroups[14]
p980
(dp981
g3
I00
sg4
(lp982
g704
ag664
ag266
assVprimaryVisibility
p983
(dp984
g3
I00
sg23
Vbool
p985
sg21
I00
sg39
I00
sg22
I01
sg4
(lp986
ssVboundingBox.boundingBoxMin
p987
(dp988
g29
VboundingBox
p989
ssVcolorSet[0].colorSetPoints[0]
p990
(dp991
g3
I00
sg4
(lp992
g395
ag376
ag382
ag379
assVmotionBlur
p993
(dp994
g3
I00
sg23
Vbool
p995
sg21
I00
sg39
I00
sg22
I01
sg4
(lp996
ssVworldInverseMatrix[1]
p997
(dp998
g3
I00
sg4
(lp999
ssVcolorSet
p1000
(dp1001
g3
I01
sg21
I01
sg22
I00
sg23
VTdataCompound
p1002
ssVuvSet[0].uvSetPoints[0]
p1003
(dp1004
g3
I00
sg4
(lp1005
VuvSet[0].uvSetPoints[0].uvSetPointsU
p1006
aVuvSet[0].uvSetPoints[0].uvSetPointsV
p1007
assVdisplayColors
p1008
(dp1009
g3
I00
sg23
Vbool
p1010
sg21
I00
sg39
I00
sg22
I01
sg4
(lp1011
ssVanchorSmoothness[1]
p1012
(dp1013
g3
I00
sg23
Venum
p1014
sg21
I00
sg39
I00
sg22
I01
sg4
(lp1015
ssg427
(dp1016
g3
I00
sg21
I00
sg4
(lp1017
sg22
I00
sg23
VcomponentList
p1018
ssVparentInverseMatrix[0]
p1019
(dp1020
g3
I00
sg4
(lp1021
ssVrenderLayerInfo[1].renderLayerId
p1022
(dp1023
g3
I00
sg4
(lp1024
ssVobjectColor
p1025
(dp1026
g3
I00
sg23
Vshort
p1027
sg21
I00
sg39
I00
sg22
I01
sg4
(lp1028
ssg851
(dp1029
g3
I00
sg23
Vfloat
p1030
sg21
I00
sg39
I00
sg22
I01
sg4
(lp1031
ssVpublishedNodeInfo[0]
p1032
(dp1033
g3
I00
sg4
(lp1034
VpublishedNodeInfo[0].publishedNode
p1035
ag222
ag789
assg34
(dp1036
g3
I00
sg4
(lp1037
ssg35
(dp1038
g3
I00
sg4
(lp1039
ssg852
(dp1040
g3
I00
sg23
Vfloat
p1041
sg21
I00
sg39
I00
sg22
I01
sg4
(lp1042
ssg853
(dp1043
g3
I00
sg23
Vfloat
p1044
sg21
I00
sg39
I00
sg22
I01
sg4
(lp1045
ssVeditPoints.xValueEp
p1046
(dp1047
g29
VeditPoints
p1048
ssg1035
(dp1049
g3
I00
sg4
(lp1050
ssg772
(dp1051
g3
I00
sg4
(lp1052
ssVinstObjGroups[0].objectGroups[8]
p1053
(dp1054
g3
I00
sg21
I00
sg4
(lp1055
g522
ag894
ag954
asg22
I00
sg23
VTdataCompound
p1056
ssVinstObjGroups[0].objectGroups[10].objectGrpCompList
p1057
(dp1058
g3
I00
sg21
I00
sg4
(lp1059
sg22
I00
sg23
VcomponentList
p1060
ssVviewName
p1061
(dp1062
g3
I00
sg23
Vstring
p1063
sg21
I00
sg39
I00
sg22
I01
sg4
(lp1064
ssVinPlace
p1065
(dp1066
g3
I00
sg23
Vbool
p1067
sg21
I00
sg39
I00
sg22
I01
sg4
(lp1068
ssVinstObjGroups[0].objectGroups[1]
p1069
(dp1070
g3
I00
sg21
I00
sg4
(lp1071
g333
aVinstObjGroups[0].objectGroups[1].objectGroupId
p1072
ag946
asg22
I00
sg23
VTdataCompound
p1073
ssg1006
(dp1074
g3
I00
sg4
(lp1075
ssg1007
(dp1076
g3
I00
sg4
(lp1077
ssVanchorSmoothness
p1078
(dp1079
g3
I01
sg21
I01
sg22
I00
sg23
VTdataCompound
p1080
ssViconName
p1081
(dp1082
g3
I00
sg23
Vstring
p1083
sg21
I00
sg39
I00
sg22
I01
sg4
(lp1084
ssVcompInstObjGroups[0].compObjectGroups[1]
p1085
(dp1086
g3
I00
sg4
(lp1087
g307
aVcompInstObjGroups[0].compObjectGroups[1].compObjectGroupId
p1088
assg776
(dp1089
g3
I00
sg23
Vlong
p1090
sg21
I00
sg39
I00
sg22
I01
sg4
(lp1091
ssVinstObjGroups
p1092
(dp1093
g3
I01
sg21
I01
sg22
I00
sg23
VTdataCompound
p1094
ssVmaxVisibilitySamples
p1095
(dp1096
g3
I00
sg23
Vlong
p1097
sg21
I00
sg39
I00
sg22
I01
sg4
(lp1098
ssVworldMatrix[0]
p1099
(dp1100
g3
I00
sg4
(lp1101
ssg842
(dp1102
g3
I00
sg23
Vbool
p1103
sg21
I00
sg39
I00
sg22
I01
sg4
(lp1104
ssVghosting
p1105
(dp1106
g3
I00
sg23
Vbool
p1107
sg21
I00
sg39
I00
sg22
I01
sg4
(lp1108
ssg771
(dp1109
g3
I00
sg4
(lp1110
ssg868
(dp1111
g3
I00
sg23
Vlong
p1112
sg21
I00
sg39
I00
sg22
I01
sg4
(lp1113
ssVgeometryAntialiasingOverride
p1114
(dp1115
g3
I00
sg23
Vbool
p1116
sg21
I00
sg39
I00
sg22
I01
sg4
(lp1117
ssg247
(dp1118
g3
I00
sg4
(lp1119
ssVinstObjGroups[0].objectGroups[10]
p1120
(dp1121
g3
I00
sg21
I00
sg4
(lp1122
g1057
ag329
aVinstObjGroups[0].objectGroups[10].objectGrpColor
p1123
asg22
I00
sg23
VTdataCompound
p1124
ssVcompInstObjGroups[0]
p1125
(dp1126
g3
I00
sg4
(lp1127
g202
assg1123
(dp1128
g3
I00
sg23
Vshort
p1129
sg21
I00
sg39
I00
sg22
I01
sg4
(lp1130
ssVanchorSmoothness[4]
p1131
(dp1132
g3
I00
sg23
Venum
p1133
sg21
I00
sg39
I00
sg22
I01
sg4
(lp1134
ssVuvSet[1].uvSetName
p1135
(dp1136
g3
I00
sg4
(lp1137
ssg14
(dp1138
g3
I00
sg4
(lp1139
ssVform
p1140
(dp1141
g3
I00
sg23
Venum
p1142
sg21
I00
sg39
I00
sg22
I01
sg4
(lp1143
ssg1072
(dp1144
g3
I00
sg23
Vlong
p1145
sg21
I00
sg39
I00
sg22
I01
sg4
(lp1146
ssVuvSet[1]
p1147
(dp1148
g3
I00
sg4
(lp1149
g1135
ag166
ag786
assVobjectColorRGB.objectColorG
p1150
(dp1151
g29
VobjectColorRGB
p1152
sg3
I00
sg23
Vfloat
p1153
sg21
I00
sg39
I00
sg22
I01
sg4
(lp1154
ssVobjectColorRGB.objectColorB
p1155
(dp1156
g29
VobjectColorRGB
p1157
sg3
I00
sg23
Vfloat
p1158
sg21
I00
sg39
I00
sg22
I01
sg4
(lp1159
ssVvisibleFraction
p1160
(dp1161
g3
I00
sg23
Vfloat
p1162
sg21
I00
sg39
I00
sg22
I01
sg4
(lp1163
ssVeditPoints[0]
p1164
(dp1165
g3
I00
sg4
(lp1166
g733
ag186
ag470
assVobjectColorRGB.objectColorR
p1167
(dp1168
g29
VobjectColorRGB
p1169
sg3
I00
sg23
Vfloat
p1170
sg21
I00
sg39
I00
sg22
I01
sg4
(lp1171
ssVinstObjGroups[0].objectGroups[5].objectGroupId
p1172
(dp1173
g3
I00
sg23
Vlong
p1174
sg21
I00
sg39
I00
sg22
I01
sg4
(lp1175
ssVcolorSet.colorSetPoints
p1176
(dp1177
g29
VcolorSet
p1178
ssVworldInverseMatrix
p1179
(dp1180
g3
I01
sg21
I01
sg22
I00
sg23
Vmatrix
p1181
ssg752
(dp1182
g3
I00
sg4
(lp1183
ssVrenderInfo.identification
p1184
(dp1185
g29
VrenderInfo
p1186
sg3
I00
sg23
Vshort
p1187
sg21
I00
sg39
I00
sg22
I01
sg4
(lp1188
ssVblackBox
p1189
(dp1190
g3
I00
sg23
Vbool
p1191
sg21
I00
sg39
I00
sg22
I01
sg4
(lp1192
ssVrenderLayerInfo.renderLayerColor
p1193
(dp1194
g29
VrenderLayerInfo
p1195
ssVworldSpace[0]
p1196
(dp1197
g3
I00
sS'attrParentLongName'
p1198
VworldSpace
p1199
sg23
VdataBezierCurve
p1200
sg21
I00
sg22
I00
sg4
(lp1201
ssg800
(dp1202
g3
I00
sg21
I00
sg4
(lp1203
sg22
I00
sg23
VcomponentList
p1204
ssVcastsShadows
p1205
(dp1206
g3
I00
sg23
Vbool
p1207
sg21
I00
sg39
I00
sg22
I01
sg4
(lp1208
ssVisHierarchicalConnection[0]
p1209
(dp1210
g3
I00
sg4
(lp1211
ssVrenderVolume
p1212
(dp1213
g3
I00
sg23
Vbool
p1214
sg21
I00
sg39
I00
sg22
I01
sg4
(lp1215
ssg323
(dp1216
g3
I00
sg23
Vdouble
p1217
sg21
I00
sg39
I00
sg22
I01
sg4
(lp1218
ssVinstObjGroups[0].objectGroups[5]
p1219
(dp1220
g3
I00
sg21
I00
sg4
(lp1221
g210
ag1172
ag485
asg22
I00
sg23
VTdataCompound
p1222
ssg879
(dp1223
g3
I00
sg4
(lp1224
ssg1088
(dp1225
g3
I00
sg4
(lp1226
ssg754
(dp1227
g3
I00
sg4
(lp1228
ssVdisplayImmediate
p1229
(dp1230
g3
I00
sg23
Vbool
p1231
sg21
I00
sg39
I00
sg22
I01
sg4
(lp1232
ssVrenderLayerInfo[1]
p1233
(dp1234
g3
I00
sg4
(lp1235
g1022
ag608
ag337
assg435
(dp1236
g3
I00
sg23
Vlong
p1237
sg21
I00
sg39
I00
sg22
I01
sg4
(lp1238
ssVrenderLayerInfo
p1239
(dp1240
g3
I01
sg21
I01
sg22
I00
sg23
VTdataCompound
p1241
ssVcontrolPoints.zValue
p1242
(dp1243
g29
VcontrolPoints
p1244
ssg174
(dp1245
g3
I00
sg4
(lp1246
ssVanchorWeighting[1]
p1247
(dp1248
g3
I00
sg23
Venum
p1249
sg21
I00
sg39
I00
sg22
I01
sg4
(lp1250
ssVweights
p1251
(dp1252
g3
I01
sg21
I01
sg22
I00
sg23
VTdataCompound
p1253
ssVinverseMatrix
p1254
(dp1255
g3
I00
sg21
I00
sg4
(lp1256
sg22
I00
sg23
Vmatrix
p1257
ssVcolorSet.representation
p1258
(dp1259
g29
VcolorSet
p1260
ssVcenter.boundingBoxCenterZ
p1261
(dp1262
g29
Vcenter
p1263
ssVcenter.boundingBoxCenterX
p1264
(dp1265
g29
Vcenter
p1266
ssVcenter.boundingBoxCenterY
p1267
(dp1268
g29
Vcenter
p1269
ss.