(dp0
VisHistoricallyInteresting
p1
(dp2
S'isArray'
p3
I00
sS'attrType'
p4
Vbyte
p5
sS'attrChildrenNames'
p6
(lp7
sS'isMulti'
p8
I00
sS'isCompound'
p9
I00
sS'isSimple'
p10
I00
sS'attrChildrenLongNames'
p11
(lp12
sS'isElement'
p13
I00
ssVinput[1]
p14
(dp15
S'isArray'
p16
I00
sS'attrType'
p17
Vdouble3
p18
sS'isMulti'
p19
I00
sS'isCompound'
p20
I00
sS'isSimple'
p21
I01
sS'attrChildrenLongNames'
p22
(lp23
ssVnodeState
p24
(dp25
S'isArray'
p26
I00
sg4
Venum
p27
sS'attrChildrenNames'
p28
(lp29
sS'isMulti'
p30
I00
sS'isCompound'
p31
I00
sg10
I01
sg11
(lp32
sS'isElement'
p33
I00
ssVinput[2]
p34
(dp35
g16
I00
sg17
Vdouble3
p36
sg19
I00
sg20
I00
sg21
I01
sg22
(lp37
ssVinput[0]
p38
(dp39
g16
I00
sg17
Vdouble3
p40
sg19
I00
sg20
I00
sg21
I01
sg22
(lp41
ssVselector
p42
(dp43
S'isArray'
p44
I00
sg17
Vlong
p45
sS'attrChildrenNames'
p46
(lp47
sS'isMulti'
p48
I00
sS'isCompound'
p49
I00
sg21
I01
sg22
(lp50
sS'isElement'
p51
I00
ssVbinMembership
p52
(dp53
S'isArray'
p54
I00
sg4
Vstring
p55
sS'isMulti'
p56
I00
sS'isCompound'
p57
I00
sg10
I01
sg11
(lp58
ssVoutput
p59
(dp60
S'isArray'
p61
I00
sg17
Vdouble3
p62
sS'attrChildrenNames'
p63
(lp64
sS'isMulti'
p65
I00
sS'isCompound'
p66
I00
sg21
I01
sg22
(lp67
sS'isElement'
p68
I00
ssVcaching
p69
(dp70
S'isArray'
p71
I00
sg4
Vbool
p72
sS'attrChildrenNames'
p73
(lp74
sS'isMulti'
p75
I00
sS'isCompound'
p76
I00
sg10
I01
sg11
(lp77
sS'isElement'
p78
I00
ssVinput
p79
(dp80
S'isArray'
p81
I01
sS'isElement'
p82
I00
sS'isMulti'
p83
I01
sg21
I00
sg17
VTdataCompound
p84
ssVinput[3]
p85
(dp86
g16
I00
sg22
(lp87
ssVinput[4]
p88
(dp89
g16
I00
sg22
(lp90
ss.