(dp0
VinPosition
p1
(dp2
S'isArray'
p3
I00
sS'attrType'
p4
Vdouble3
p5
sS'attrChildrenNames'
p6
(lp7
VinPosition.inPositionX
p8
aVinPosition.inPositionY
p9
aVinPosition.inPositionZ
p10
asS'isMulti'
p11
I00
sS'isCompound'
p12
I01
sS'isSimple'
p13
I01
sS'attrChildrenLongNames'
p14
(lp15
VinPosition.inPositionX
p16
aVinPosition.inPositionY
p17
aVinPosition.inPositionZ
p18
asS'isElement'
p19
I00
ssVresult.parameterU
p20
(dp21
S'isArray'
p22
I00
sS'attrParentLongName'
p23
Vresult
p24
sS'attrChildrenNames'
p25
(lp26
sg4
Vdouble
p27
sS'isMulti'
p28
I00
sS'isCompound'
p29
I00
sg13
I01
sg14
(lp30
sS'isElement'
p31
I00
ssVresult
p32
(dp33
S'isArray'
p34
I00
sg4
VTdataCompound
p35
sS'attrChildrenNames'
p36
(lp37
Vresult.position
p38
aVresult.parameterU
p39
aVresult.parameterV
p40
aVresult.normal
p41
aVresult.closestFaceIndex
p42
aVresult.closestVertexIndex
p43
asS'isMulti'
p44
I00
sS'isCompound'
p45
I01
sg13
I00
sg14
(lp46
Vresult.position
p47
aVresult.parameterU
p48
aVresult.parameterV
p49
aVresult.normal
p50
aVresult.closestFaceIndex
p51
aVresult.closestVertexIndex
p52
asS'isElement'
p53
I00
ssVresult.parameterV
p54
(dp55
S'isArray'
p56
I00
sS'attrParentLongName'
p57
Vresult
p58
sS'attrChildrenNames'
p59
(lp60
sg4
Vdouble
p61
sS'isMulti'
p62
I00
sS'isCompound'
p63
I00
sg13
I01
sg14
(lp64
sS'isElement'
p65
I00
ssVisHistoricallyInteresting
p66
(dp67
S'isArray'
p68
I00
sg4
Vbyte
p69
sS'attrChildrenNames'
p70
(lp71
sS'isMulti'
p72
I00
sS'isCompound'
p73
I00
sg13
I00
sg14
(lp74
sS'isElement'
p75
I00
ssVinPosition.inPositionY
p76
(dp77
S'isArray'
p78
I00
sS'attrParentLongName'
p79
VinPosition
p80
sS'attrChildrenNames'
p81
(lp82
sg4
VdoubleLinear
p83
sS'isMulti'
p84
I00
sS'isCompound'
p85
I00
sg13
I01
sg14
(lp86
sS'isElement'
p87
I00
ssVinPosition.inPositionZ
p88
(dp89
S'isArray'
p90
I00
sS'attrParentLongName'
p91
VinPosition
p92
sS'attrChildrenNames'
p93
(lp94
sg4
VdoubleLinear
p95
sS'isMulti'
p96
I00
sS'isCompound'
p97
I00
sg13
I01
sg14
(lp98
sS'isElement'
p99
I00
ssVbinMembership
p100
(dp101
S'isArray'
p102
I00
sg4
Vstring
p103
sS'isMulti'
p104
I00
sS'isCompound'
p105
I00
sg13
I01
sg14
(lp106
ssVresult.closestFaceIndex
p107
(dp108
S'isArray'
p109
I00
sS'attrParentLongName'
p110
Vresult
p111
sS'attrChildrenNames'
p112
(lp113
sg4
Vlong
p114
sS'isMulti'
p115
I00
sS'isCompound'
p116
I00
sg13
I01
sg14
(lp117
sS'isElement'
p118
I00
ssVinPosition.inPositionX
p119
(dp120
S'isArray'
p121
I00
sS'attrParentLongName'
p122
VinPosition
p123
sS'attrChildrenNames'
p124
(lp125
sg4
VdoubleLinear
p126
sS'isMulti'
p127
I00
sS'isCompound'
p128
I00
sg13
I01
sg14
(lp129
sS'isElement'
p130
I00
ssVnodeState
p131
(dp132
S'isArray'
p133
I00
sg4
Venum
p134
sS'attrChildrenNames'
p135
(lp136
sS'isMulti'
p137
I00
sS'isCompound'
p138
I00
sg13
I01
sg14
(lp139
sS'isElement'
p140
I00
ssVinMesh
p141
(dp142
S'isArray'
p143
I00
sg4
NsS'attrChildrenNames'
p144
(lp145
sS'isMulti'
p146
I00
sS'isCompound'
p147
I00
sg13
I00
sg14
(lp148
sS'isElement'
p149
I00
ssVcaching
p150
(dp151
S'isArray'
p152
I00
sg4
Vbool
p153
sS'attrChildrenNames'
p154
(lp155
sS'isMulti'
p156
I00
sS'isCompound'
p157
I00
sg13
I01
sg14
(lp158
sS'isElement'
p159
I00
ssVinputMatrix
p160
(dp161
S'isArray'
p162
I00
sg4
NsS'attrChildrenNames'
p163
(lp164
sS'isMulti'
p165
I00
sS'isCompound'
p166
I00
sg13
I00
sg14
(lp167
sS'isElement'
p168
I00
ssVresult.normal
p169
(dp170
S'isArray'
p171
I00
sS'attrParentLongName'
p172
Vresult
p173
sS'attrChildrenNames'
p174
(lp175
Vresult.normal.normalX
p176
aVresult.normal.normalY
p177
aVresult.normal.normalZ
p178
asg4
Vdouble3
p179
sS'isMulti'
p180
I00
sS'isCompound'
p181
I01
sg13
I01
sg14
(lp182
Vresult.normal.normalX
p183
aVresult.normal.normalY
p184
aVresult.normal.normalZ
p185
asS'isElement'
p186
I00
ssVresult.position.positionZ
p187
(dp188
S'isArray'
p189
I00
sS'attrParentLongName'
p190
Vresult.position
p191
sS'attrChildrenNames'
p192
(lp193
sg4
VdoubleLinear
p194
sS'isMulti'
p195
I00
sS'isCompound'
p196
I00
sg13
I01
sg14
(lp197
sS'isElement'
p198
I00
ssVresult.position.positionX
p199
(dp200
S'isArray'
p201
I00
sS'attrParentLongName'
p202
Vresult.position
p203
sS'attrChildrenNames'
p204
(lp205
sg4
VdoubleLinear
p206
sS'isMulti'
p207
I00
sS'isCompound'
p208
I00
sg13
I01
sg14
(lp209
sS'isElement'
p210
I00
ssVresult.position.positionY
p211
(dp212
S'isArray'
p213
I00
sS'attrParentLongName'
p214
Vresult.position
p215
sS'attrChildrenNames'
p216
(lp217
sg4
VdoubleLinear
p218
sS'isMulti'
p219
I00
sS'isCompound'
p220
I00
sg13
I01
sg14
(lp221
sS'isElement'
p222
I00
ssVresult.position
p223
(dp224
S'isArray'
p225
I00
sS'attrParentLongName'
p226
Vresult
p227
sS'attrChildrenNames'
p228
(lp229
Vresult.position.positionX
p230
aVresult.position.positionY
p231
aVresult.position.positionZ
p232
asg4
Vdouble3
p233
sS'isMulti'
p234
I00
sS'isCompound'
p235
I01
sg13
I01
sg14
(lp236
Vresult.position.positionX
p237
aVresult.position.positionY
p238
aVresult.position.positionZ
p239
asS'isElement'
p240
I00
ssVresult.closestVertexIndex
p241
(dp242
S'isArray'
p243
I00
sS'attrParentLongName'
p244
Vresult
p245
sS'attrChildrenNames'
p246
(lp247
sg4
Vlong
p248
sS'isMulti'
p249
I00
sS'isCompound'
p250
I00
sg13
I01
sg14
(lp251
sS'isElement'
p252
I00
ssVresult.normal.normalZ
p253
(dp254
S'isArray'
p255
I00
sS'attrParentLongName'
p256
Vresult.normal
p257
sS'attrChildrenNames'
p258
(lp259
sg4
VdoubleLinear
p260
sS'isMulti'
p261
I00
sS'isCompound'
p262
I00
sg13
I01
sg14
(lp263
sS'isElement'
p264
I00
ssVresult.normal.normalX
p265
(dp266
S'isArray'
p267
I00
sS'attrParentLongName'
p268
Vresult.normal
p269
sS'attrChildrenNames'
p270
(lp271
sg4
VdoubleLinear
p272
sS'isMulti'
p273
I00
sS'isCompound'
p274
I00
sg13
I01
sg14
(lp275
sS'isElement'
p276
I00
ssVresult.normal.normalY
p277
(dp278
S'isArray'
p279
I00
sS'attrParentLongName'
p280
Vresult.normal
p281
sS'attrChildrenNames'
p282
(lp283
sg4
VdoubleLinear
p284
sS'isMulti'
p285
I00
sS'isCompound'
p286
I00
sg13
I01
sg14
(lp287
sS'isElement'
p288
I00
ss.