(dp0
VinputTranslate.inputTranslateX
p1
(dp2
S'isArray'
p3
I00
sS'attrType'
p4
VdoubleLinear
p5
sS'isMulti'
p6
I00
sS'isCompound'
p7
I00
sS'isSimple'
p8
I01
sS'attrChildrenLongNames'
p9
(lp10
ssVinputTranslate.inputTranslateY
p11
(dp12
g3
I00
sg4
VdoubleLinear
p13
sg6
I00
sg7
I00
sg8
I01
sg9
(lp14
ssVinputTranslate.inputTranslateZ
p15
(dp16
g3
I00
sg4
VdoubleLinear
p17
sg6
I00
sg7
I00
sg8
I01
sg9
(lp18
ssVoutputMatrix
p19
(dp20
g3
I00
sg6
I00
sg4
Vmatrix
p21
sg8
I00
sg9
(lp22
ssVinputShear.inputShearZ
p23
(dp24
g3
I00
sg4
Vdouble
p25
sg6
I00
sg7
I00
sg8
I01
sg9
(lp26
ssVuseEulerRotation
p27
(dp28
g3
I00
sg4
Vbool
p29
sg6
I00
sg7
I00
sg8
I01
sg9
(lp30
ssVinputShear
p31
(dp32
g3
I00
sg4
Vdouble3
p33
sg6
I00
sg7
I01
sg8
I01
sg9
(lp34
VinputShear.inputShearX
p35
aVinputShear.inputShearY
p36
ag23
assVinputTranslate
p37
(dp38
g3
I00
sg4
Vdouble3
p39
sg6
I00
sg7
I01
sg8
I01
sg9
(lp40
g1
ag11
ag15
assVinputRotate.inputRotateY
p41
(dp42
g3
I00
sg4
VdoubleAngle
p43
sg6
I00
sg7
I00
sg8
I01
sg9
(lp44
ssVinputQuat.inputQuatW
p45
(dp46
g3
I00
sg4
Vdouble
p47
sg6
I00
sg7
I00
sg8
I01
sg9
(lp48
ssVinputQuat.inputQuatZ
p49
(dp50
g3
I00
sg4
Vdouble
p51
sg6
I00
sg7
I00
sg8
I01
sg9
(lp52
ssVinputQuat.inputQuatX
p53
(dp54
g3
I00
sg4
Vdouble
p55
sg6
I00
sg7
I00
sg8
I01
sg9
(lp56
ssVinputQuat.inputQuatY
p57
(dp58
g3
I00
sg4
Vdouble
p59
sg6
I00
sg7
I00
sg8
I01
sg9
(lp60
ssVinputQuat
p61
(dp62
g3
I00
sg6
I00
sg4
VTdataCompound
p63
sg8
I00
sg9
(lp64
g53
ag57
ag49
ag45
assVbinMembership
p65
(dp66
g3
I00
sg4
Vstring
p67
sg6
I00
sg7
I00
sg8
I01
sg9
(lp68
ssVinputRotate.inputRotateX
p69
(dp70
g3
I00
sg4
VdoubleAngle
p71
sg6
I00
sg7
I00
sg8
I01
sg9
(lp72
ssVinputScale.inputScaleX
p73
(dp74
g3
I00
sg4
Vdouble
p75
sg6
I00
sg7
I00
sg8
I01
sg9
(lp76
ssVnodeState
p77
(dp78
g3
I00
sg4
Venum
p79
sg6
I00
sg7
I00
sg8
I01
sg9
(lp80
ssVinputRotateOrder
p81
(dp82
g3
I00
sg4
Venum
p83
sg6
I00
sg7
I00
sg8
I01
sg9
(lp84
ssVinputRotate.inputRotateZ
p85
(dp86
g3
I00
sg4
VdoubleAngle
p87
sg6
I00
sg7
I00
sg8
I01
sg9
(lp88
ssg35
(dp89
g3
I00
sg4
Vdouble
p90
sg6
I00
sg7
I00
sg8
I01
sg9
(lp91
ssg36
(dp92
g3
I00
sg4
Vdouble
p93
sg6
I00
sg7
I00
sg8
I01
sg9
(lp94
ssVinputScale
p95
(dp96
g3
I00
sg4
Vdouble3
p97
sg6
I00
sg7
I01
sg8
I01
sg9
(lp98
g73
aVinputScale.inputScaleY
p99
aVinputScale.inputScaleZ
p100
assg99
(dp101
g3
I00
sg4
Vdouble
p102
sg6
I00
sg7
I00
sg8
I01
sg9
(lp103
ssg100
(dp104
g3
I00
sg4
Vdouble
p105
sg6
I00
sg7
I00
sg8
I01
sg9
(lp106
ssVinputRotate
p107
(dp108
g3
I00
sg4
Vdouble3
p109
sg6
I00
sg7
I01
sg8
I01
sg9
(lp110
g69
ag41
ag85
assVisHistoricallyInteresting
p111
(dp112
g3
I00
sg6
I00
sg4
Vbyte
p113
sg8
I00
sg9
(lp114
ssVcaching
p115
(dp116
g3
I00
sg4
Vbool
p117
sg6
I00
sg7
I00
sg8
I01
sg9
(lp118
ss.