(dp0
Vknots
p1
(dp2
S'isArray'
p3
I01
sS'isElement'
p4
I00
sS'attrType'
p5
VTdataCompound
p6
sS'isSimple'
p7
I00
sS'isMulti'
p8
I01
ssVarcLength
p9
(dp10
S'isArray'
p11
I00
sg5
VdoubleLinear
p12
sS'attrChildrenNames'
p13
(lp14
sS'isMulti'
p15
I00
sS'isCompound'
p16
I00
sg7
I01
sS'attrChildrenLongNames'
p17
(lp18
sS'isElement'
p19
I00
ssVcontrolPoints[1]
p20
(dp21
S'isArray'
p22
I00
sg17
(lp23
VcontrolPoints[1].xValue
p24
aVcontrolPoints[1].yValue
p25
aVcontrolPoints[1].zValue
p26
assVcontrolPoints[0].xValue
p27
(dp28
S'isArray'
p29
I00
sS'isElement'
p30
I00
sS'attrParentLongName'
p31
VcontrolPoints[0]
p32
sS'attrChildrenNames'
p33
(lp34
sg17
(lp35
ssg24
(dp36
g22
I00
sg17
(lp37
ssVcontrolPoints.yValue
p38
(dp39
S'attrParentLongName'
p40
VcontrolPoints
p41
ssVisHistoricallyInteresting
p42
(dp43
S'isArray'
p44
I00
sg5
Vbyte
p45
sS'attrChildrenNames'
p46
(lp47
sS'isMulti'
p48
I00
sS'isCompound'
p49
I00
sg7
I00
sg17
(lp50
sS'isElement'
p51
I00
ssVknots[1]
p52
(dp53
g22
I00
sg17
(lp54
ssVbinMembership
p55
(dp56
g22
I00
sg5
Vstring
p57
sS'isMulti'
p58
I00
sS'isCompound'
p59
I00
sg7
I01
sg17
(lp60
ssVweights[0]
p61
(dp62
g22
I00
sg17
(lp63
ssg25
(dp64
g22
I00
sg17
(lp65
ssVcontrolPoints
p66
(dp67
S'isArray'
p68
I01
sS'isElement'
p69
I00
sg5
VTdataCompound
p70
sg7
I00
sS'isMulti'
p71
I01
ssVnodeState
p72
(dp73
S'isArray'
p74
I00
sg5
Venum
p75
sS'attrChildrenNames'
p76
(lp77
sS'isMulti'
p78
I00
sS'isCompound'
p79
I00
sg7
I01
sg17
(lp80
sS'isElement'
p81
I00
ssVcontrolPoints[0].zValue
p82
(dp83
S'isArray'
p84
I00
sS'isElement'
p85
I00
sS'attrParentLongName'
p86
VcontrolPoints[0]
p87
sS'attrChildrenNames'
p88
(lp89
sg17
(lp90
ssVcontrolPoints[0]
p91
(dp92
g22
I00
sg17
(lp93
VcontrolPoints[0].xValue
p94
aVcontrolPoints[0].yValue
p95
aVcontrolPoints[0].zValue
p96
assVcontrolPoints[0].yValue
p97
(dp98
S'isArray'
p99
I00
sS'isElement'
p100
I00
sS'attrParentLongName'
p101
VcontrolPoints[0]
p102
sS'attrChildrenNames'
p103
(lp104
sg17
(lp105
ssVcontrolPoints.zValue
p106
(dp107
g40
VcontrolPoints
p108
ssg26
(dp109
g22
I00
sg17
(lp110
ssVcontrolPoints.xValue
p111
(dp112
g40
VcontrolPoints
p113
ssVknots[0]
p114
(dp115
g22
I00
sg17
(lp116
ssVweights[1]
p117
(dp118
g22
I00
sg17
(lp119
ssVweights
p120
(dp121
S'isArray'
p122
I01
sS'isElement'
p123
I00
sg5
VTdataCompound
p124
sg7
I00
sS'isMulti'
p125
I01
ssVcaching
p126
(dp127
S'isArray'
p128
I00
sg5
Vbool
p129
sS'attrChildrenNames'
p130
(lp131
sS'isMulti'
p132
I00
sS'isCompound'
p133
I00
sg7
I01
sg17
(lp134
sS'isElement'
p135
I00
ssVinputCurve
p136
(dp137
S'isArray'
p138
I00
sg5
VnurbsCurve
p139
sS'attrChildrenNames'
p140
(lp141
sS'isMulti'
p142
I00
sS'isCompound'
p143
I00
sg7
I00
sg17
(lp144
sS'isElement'
p145
I00
ss.