(dp0
Vfunction
p1
(dp2
S'isArray'
p3
I00
sS'attrType'
p4
Vlong3
p5
sS'attrChildrenNames'
p6
(lp7
Vfunction.fchild1
p8
aVfunction.fchild2
p9
aVfunction.fchild3
p10
asS'isMulti'
p11
I00
sS'isCompound'
p12
I01
sS'isSimple'
p13
I01
sS'attrChildrenLongNames'
p14
(lp15
Vfunction.fchild1
p16
aVfunction.fchild2
p17
aVfunction.fchild3
p18
asS'isElement'
p19
I00
ssVdeformedLattice.deformedLatticeMatrix
p20
(dp21
S'isArray'
p22
I00
sS'attrParentLongName'
p23
VdeformedLattice
p24
sS'attrChildrenNames'
p25
(lp26
sg4
Vmatrix
p27
sS'isMulti'
p28
I00
sS'isCompound'
p29
I00
sg13
I00
sg14
(lp30
sS'isElement'
p31
I00
ssVstuCacheList[1].stuCache
p32
(dp33
S'isArray'
p34
I01
ssVinput[1].groupId
p35
(dp36
g34
I00
sg14
(lp37
ssVinput[2].inputGeometry
p38
(dp39
g34
I00
sg14
(lp40
ssVstuCacheList
p41
(dp42
S'isArray'
p43
I01
sS'isElement'
p44
I00
sg4
VTdataCompound
p45
sg13
I00
sS'isMulti'
p46
I01
ssVpartialResolution
p47
(dp48
S'isArray'
p49
I00
sg4
Vdouble
p50
sS'attrChildrenNames'
p51
(lp52
sS'isMulti'
p53
I00
sS'isCompound'
p54
I00
sg13
I01
sg14
(lp55
sS'isElement'
p56
I00
ssVstuCacheList[1]
p57
(dp58
g34
I00
sg14
(lp59
g32
assVisHistoricallyInteresting
p60
(dp61
S'isArray'
p62
I00
sg4
Vbyte
p63
sS'attrChildrenNames'
p64
(lp65
sS'isMulti'
p66
I00
sS'isCompound'
p67
I00
sg13
I00
sg14
(lp68
sS'isElement'
p69
I00
ssVinput[0]
p70
(dp71
g34
I00
sS'isMulti'
p72
I00
sg4
VTdataCompound
p73
sg13
I00
sg14
(lp74
Vinput[0].inputGeometry
p75
aVinput[0].groupId
p76
assVinput[2]
p77
(dp78
g34
I00
sg14
(lp79
g38
aVinput[2].groupId
p80
assVstuCacheList[0].stuCache[0]
p81
(dp82
g34
I00
sg14
(lp83
ssVinput[0].inputGeometry
p84
(dp85
S'isArray'
p86
I00
sS'attrParentLongName'
p87
Vinput[0]
p88
sS'attrChildrenNames'
p89
(lp90
sg4
Vmesh
p91
sS'isMulti'
p92
I00
sS'isCompound'
p93
I00
sg13
I00
sg14
(lp94
sS'isElement'
p95
I00
ssVoutputGeometry
p96
(dp97
S'isArray'
p98
I01
sS'isElement'
p99
I00
sg4
VTdataCompound
p100
sg13
I00
sS'isMulti'
p101
I01
ssVdeformedLattice.deformedLatticePoints
p102
(dp103
S'isArray'
p104
I00
sS'attrParentLongName'
p105
VdeformedLattice
p106
sS'attrChildrenNames'
p107
(lp108
sg4
Vlattice
p109
sS'isMulti'
p110
I00
sS'isCompound'
p111
I00
sg13
I00
sg14
(lp112
sS'isElement'
p113
I00
ssVbinMembership
p114
(dp115
g34
I00
sg4
Vstring
p116
sg72
I00
sS'isCompound'
p117
I00
sg13
I01
sg14
(lp118
ssVmap64BitIndices
p119
(dp120
S'isArray'
p121
I00
sg4
NsS'attrChildrenNames'
p122
(lp123
sS'isMulti'
p124
I00
sS'isCompound'
p125
I00
sg13
I00
sg14
(lp126
sS'isElement'
p127
I00
ssVoutputGeometry[1]
p128
(dp129
g34
I00
sg14
(lp130
ssVinput
p131
(dp132
S'isArray'
p133
I01
sS'isElement'
p134
I00
sg4
VTdataCompound
p135
sg13
I00
sS'isMulti'
p136
I01
ssVinput[0].groupId
p137
(dp138
S'isArray'
p139
I00
sS'attrParentLongName'
p140
Vinput[0]
p141
sS'attrChildrenNames'
p142
(lp143
sg4
Vlong
p144
sS'isMulti'
p145
I00
sS'isCompound'
p146
I00
sg13
I01
sg14
(lp147
sS'isElement'
p148
I00
ssVlocal
p149
(dp150
S'isArray'
p151
I00
sg4
Vbool
p152
sS'attrChildrenNames'
p153
(lp154
sS'isMulti'
p155
I00
sS'isCompound'
p156
I00
sg13
I01
sg14
(lp157
sS'isElement'
p158
I00
ssVlocalInfluenceU
p159
(dp160
S'isArray'
p161
I00
sg4
Vshort
p162
sS'attrChildrenNames'
p163
(lp164
sS'isMulti'
p165
I00
sS'isCompound'
p166
I00
sg13
I01
sg14
(lp167
sS'isElement'
p168
I00
ssVlocalInfluenceT
p169
(dp170
S'isArray'
p171
I00
sg4
Vshort
p172
sS'attrChildrenNames'
p173
(lp174
sS'isMulti'
p175
I00
sS'isCompound'
p176
I00
sg13
I01
sg14
(lp177
sS'isElement'
p178
I00
ssVnodeState
p179
(dp180
S'isArray'
p181
I00
sg4
Venum
p182
sS'attrChildrenNames'
p183
(lp184
sS'isMulti'
p185
I00
sS'isCompound'
p186
I00
sg13
I01
sg14
(lp187
sS'isElement'
p188
I00
ssVinput[1].inputGeometry
p189
(dp190
g34
I00
sg14
(lp191
ssVlocalInfluenceS
p192
(dp193
S'isArray'
p194
I00
sg4
Vshort
p195
sS'attrChildrenNames'
p196
(lp197
sS'isMulti'
p198
I00
sS'isCompound'
p199
I00
sg13
I01
sg14
(lp200
sS'isElement'
p201
I00
ssVstuCacheList.stuCache
p202
(dp203
S'attrParentLongName'
p204
VstuCacheList
p205
ssVenvelope
p206
(dp207
S'isArray'
p208
I00
sg4
Vfloat
p209
sS'attrChildrenNames'
p210
(lp211
sS'isMulti'
p212
I00
sS'isCompound'
p213
I00
sg13
I01
sg14
(lp214
sS'isElement'
p215
I00
ssVoutsideFalloffDist
p216
(dp217
S'isArray'
p218
I00
sg4
Vdouble
p219
sS'attrChildrenNames'
p220
(lp221
sS'isMulti'
p222
I00
sS'isCompound'
p223
I00
sg13
I01
sg14
(lp224
sS'isElement'
p225
I00
ssVbaseLattice
p226
(dp227
S'isArray'
p228
I00
sg4
VTdataCompound
p229
sS'attrChildrenNames'
p230
(lp231
VbaseLattice.baseLatticePoints
p232
aVbaseLattice.baseLatticeMatrix
p233
asS'isMulti'
p234
I00
sS'isCompound'
p235
I01
sg13
I00
sg14
(lp236
VbaseLattice.baseLatticePoints
p237
aVbaseLattice.baseLatticeMatrix
p238
asS'isElement'
p239
I00
ssVcaching
p240
(dp241
S'isArray'
p242
I00
sg4
Vbool
p243
sS'attrChildrenNames'
p244
(lp245
sS'isMulti'
p246
I00
sS'isCompound'
p247
I00
sg13
I01
sg14
(lp248
sS'isElement'
p249
I00
ssVusePartialResolution
p250
(dp251
S'isArray'
p252
I00
sg4
Venum
p253
sS'attrChildrenNames'
p254
(lp255
sS'isMulti'
p256
I00
sS'isCompound'
p257
I00
sg13
I01
sg14
(lp258
sS'isElement'
p259
I00
ssVbaseLattice.baseLatticePoints
p260
(dp261
S'isArray'
p262
I00
sS'attrParentLongName'
p263
VbaseLattice
p264
sS'attrChildrenNames'
p265
(lp266
sg4
NsS'isMulti'
p267
I00
sS'isCompound'
p268
I00
sg13
I00
sg14
(lp269
sS'isElement'
p270
I00
ssVdeformedLattice
p271
(dp272
S'isArray'
p273
I00
sg4
VTdataCompound
p274
sS'attrChildrenNames'
p275
(lp276
VdeformedLattice.deformedLatticePoints
p277
aVdeformedLattice.deformedLatticeMatrix
p278
asS'isMulti'
p279
I00
sS'isCompound'
p280
I01
sg13
I00
sg14
(lp281
VdeformedLattice.deformedLatticePoints
p282
aVdeformedLattice.deformedLatticeMatrix
p283
asS'isElement'
p284
I00
ssVstuCacheList[0]
p285
(dp286
g34
I00
sg14
(lp287
VstuCacheList[0].stuCache
p288
assVoutputGeometry[2]
p289
(dp290
g34
I00
sg14
(lp291
ssVinput[1]
p292
(dp293
g34
I00
sg14
(lp294
g189
ag35
assVoutsideLattice
p295
(dp296
S'isArray'
p297
I00
sg4
Venum
p298
sS'attrChildrenNames'
p299
(lp300
sS'isMulti'
p301
I00
sS'isCompound'
p302
I00
sg13
I01
sg14
(lp303
sS'isElement'
p304
I00
ssVstuCacheList[0].stuCache[1]
p305
(dp306
g34
I00
sg14
(lp307
ssVstuCacheList[0].stuCache
p308
(dp309
S'isArray'
p310
I01
sS'isElement'
p311
I00
sS'attrParentLongName'
p312
VstuCacheList[0]
p313
ssVfreezeGeometry
p314
(dp315
S'isArray'
p316
I00
sg4
Vbool
p317
sS'attrChildrenNames'
p318
(lp319
sS'isMulti'
p320
I00
sS'isCompound'
p321
I00
sg13
I01
sg14
(lp322
sS'isElement'
p323
I00
ssg80
(dp324
g34
I00
sg14
(lp325
ssVfunction.fchild2
p326
(dp327
S'isArray'
p328
I00
sS'attrParentLongName'
p329
Vfunction
p330
sS'attrChildrenNames'
p331
(lp332
sg4
Vlong
p333
sS'isMulti'
p334
I00
sS'isCompound'
p335
I00
sg13
I01
sg14
(lp336
sS'isElement'
p337
I00
ssVfunction.fchild3
p338
(dp339
S'isArray'
p340
I00
sS'attrParentLongName'
p341
Vfunction
p342
sS'attrChildrenNames'
p343
(lp344
sg4
Vlong
p345
sS'isMulti'
p346
I00
sS'isCompound'
p347
I00
sg13
I01
sg14
(lp348
sS'isElement'
p349
I00
ssVfunction.fchild1
p350
(dp351
S'isArray'
p352
I00
sS'attrParentLongName'
p353
Vfunction
p354
sS'attrChildrenNames'
p355
(lp356
sg4
Vlong
p357
sS'isMulti'
p358
I00
sS'isCompound'
p359
I00
sg13
I01
sg14
(lp360
sS'isElement'
p361
I00
ssVbaseLattice.baseLatticeMatrix
p362
(dp363
S'isArray'
p364
I00
sS'attrParentLongName'
p365
VbaseLattice
p366
sS'attrChildrenNames'
p367
(lp368
sg4
Vmatrix
p369
sS'isMulti'
p370
I00
sS'isCompound'
p371
I00
sg13
I00
sg14
(lp372
sS'isElement'
p373
I00
ssVoutputGeometry[0]
p374
(dp375
g34
I00
sg72
I00
sg4
Vmesh
p376
sg13
I00
sg14
(lp377
ss.