(dp0
VcompInstObjGroups[0].compObjectGroups[0].compObjectGroupId
p1
(dp2
S'isArray'
p3
I00
sS'isElement'
p4
I00
sS'attrParentLongName'
p5
VcompInstObjGroups[0].compObjectGroups[0]
p6
sS'attrChildrenNames'
p7
(lp8
ssVdrawOverride.overrideColor
p9
(dp10
S'isArray'
p11
I00
sS'attrParentLongName'
p12
VdrawOverride
p13
sS'attrChildrenNames'
p14
(lp15
sS'isMulti'
p16
I00
sS'isCompound'
p17
I00
sS'isElement'
p18
I00
ssVintermediateObject
p19
(dp20
S'isArray'
p21
I00
sS'isElement'
p22
I00
sS'isMulti'
p23
I00
sS'isCompound'
p24
I00
sS'attrChildrenNames'
p25
(lp26
ssVuseObjectColor
p27
(dp28
S'isArray'
p29
I00
sS'isElement'
p30
I00
sS'attrChildrenNames'
p31
(lp32
sS'isCompound'
p33
I00
sS'isMulti'
p34
I00
ssVdrawOverride.overrideLevelOfDetail
p35
(dp36
S'isArray'
p37
I00
sS'attrParentLongName'
p38
VdrawOverride
p39
sS'attrChildrenNames'
p40
(lp41
sS'isMulti'
p42
I00
sS'isCompound'
p43
I00
sS'isElement'
p44
I00
ssVinstObjGroups[0].objectGroups[0].objectGroupId
p45
(dp46
S'isArray'
p47
I00
sS'isElement'
p48
I00
sS'attrParentLongName'
p49
VinstObjGroups[0].objectGroups[0]
p50
sS'attrChildrenNames'
p51
(lp52
ssVcontrolPoints[0].xValue
p53
(dp54
S'isArray'
p55
I00
sS'isElement'
p56
I00
sS'attrParentLongName'
p57
VcontrolPoints[0]
p58
sS'attrChildrenNames'
p59
(lp60
ssVinitialSampleRate
p61
(dp62
S'isArray'
p63
I00
sS'isElement'
p64
I00
sS'isMulti'
p65
I00
sS'attrChildrenNames'
p66
(lp67
sS'isCompound'
p68
I00
ssVantialiasingLevel
p69
(dp70
S'isArray'
p71
I00
sS'isElement'
p72
I00
sS'attrChildrenNames'
p73
(lp74
sS'isCompound'
p75
I00
sS'isMulti'
p76
I00
ssVdoubleSided
p77
(dp78
S'isArray'
p79
I00
sS'isElement'
p80
I00
sS'attrChildrenNames'
p81
(lp82
sS'isCompound'
p83
I00
sS'isMulti'
p84
I00
ssVignoreSelfShadowing
p85
(dp86
S'isArray'
p87
I00
sS'isElement'
p88
I00
sS'isCompound'
p89
I00
sS'attrChildrenNames'
p90
(lp91
sS'isMulti'
p92
I00
ssVuvPivot
p93
(dp94
S'isArray'
p95
I00
sS'isElement'
p96
I00
sS'isMulti'
p97
I00
sS'isCompound'
p98
I01
sS'attrChildrenNames'
p99
(lp100
VuvPivot.uvPivotX
p101
aVuvPivot.uvPivotY
p102
assVcollisionOffsetVelocityMultiplier[0].collisionOffsetVelocityMultiplier_FloatValue
p103
(dp104
S'isArray'
p105
I00
sS'attrParentLongName'
p106
VcollisionOffsetVelocityMultiplier[0]
p107
sS'attrChildrenNames'
p108
(lp109
sS'isMulti'
p110
I00
sS'isCompound'
p111
I00
sS'isElement'
p112
I00
ssVtemplatePath
p113
(dp114
S'isArray'
p115
I00
sS'isElement'
p116
I00
sS'isCompound'
p117
I00
sS'attrChildrenNames'
p118
(lp119
sS'isMulti'
p120
I00
ssVcollisionOffsetVelocityMultiplier[0].collisionOffsetVelocityMultiplier_Interp
p121
(dp122
S'isArray'
p123
I00
sS'attrParentLongName'
p124
VcollisionOffsetVelocityMultiplier[0]
p125
sS'attrChildrenNames'
p126
(lp127
sS'isMulti'
p128
I00
sS'isCompound'
p129
I00
sS'isElement'
p130
I00
ssVfeatureDisplacement
p131
(dp132
S'isArray'
p133
I00
sS'isElement'
p134
I00
sS'isMulti'
p135
I00
sS'isCompound'
p136
I00
sS'attrChildrenNames'
p137
(lp138
ssVrenderInfo.identification
p139
(dp140
S'isArray'
p141
I00
sS'attrParentLongName'
p142
VrenderInfo
p143
sS'attrChildrenNames'
p144
(lp145
sS'isMulti'
p146
I00
sS'isCompound'
p147
I00
sS'isElement'
p148
I00
ssVcustomTreatment
p149
(dp150
S'isArray'
p151
I00
sS'isElement'
p152
I00
sS'isCompound'
p153
I00
sS'attrChildrenNames'
p154
(lp155
sS'isMulti'
p156
I00
ssVworldMatrix
p157
(dp158
S'isArray'
p159
I01
sS'isElement'
p160
I00
sS'isMulti'
p161
I01
ssVrenderLayerInfo[0].renderLayerRenderable
p162
(dp163
S'isArray'
p164
I00
sS'isElement'
p165
I00
sS'attrParentLongName'
p166
VrenderLayerInfo[0]
p167
sS'attrChildrenNames'
p168
(lp169
ssVprimaryVisibility
p170
(dp171
S'isArray'
p172
I00
sS'isElement'
p173
I00
sS'attrChildrenNames'
p174
(lp175
sS'isCompound'
p176
I00
sS'isMulti'
p177
I00
ssVboundingBox.boundingBoxMin.boundingBoxMinY
p178
(dp179
S'isArray'
p180
I00
sS'attrParentLongName'
p181
VboundingBox.boundingBoxMin
p182
sS'attrChildrenNames'
p183
(lp184
sS'isMulti'
p185
I00
sS'isCompound'
p186
I00
sS'isElement'
p187
I00
ssVboundingBox.boundingBoxMin.boundingBoxMinX
p188
(dp189
S'isArray'
p190
I00
sS'attrParentLongName'
p191
VboundingBox.boundingBoxMin
p192
sS'attrChildrenNames'
p193
(lp194
sS'isMulti'
p195
I00
sS'isCompound'
p196
I00
sS'isElement'
p197
I00
ssVcompInstObjGroups[0].compObjectGroups[0].compObjectGrpCompList
p198
(dp199
S'isArray'
p200
I00
sS'isElement'
p201
I00
sS'attrParentLongName'
p202
VcompInstObjGroups[0].compObjectGroups[0]
p203
sS'attrChildrenNames'
p204
(lp205
ssVboundingBox.boundingBoxMin.boundingBoxMinZ
p206
(dp207
S'isArray'
p208
I00
sS'attrParentLongName'
p209
VboundingBox.boundingBoxMin
p210
sS'attrChildrenNames'
p211
(lp212
sS'isMulti'
p213
I00
sS'isCompound'
p214
I00
sS'isElement'
p215
I00
ssVshadingSamplesOverride
p216
(dp217
S'isArray'
p218
I00
sS'isElement'
p219
I00
sS'isCompound'
p220
I00
sS'attrChildrenNames'
p221
(lp222
sS'isMulti'
p223
I00
ssVmotionBlur
p224
(dp225
S'isArray'
p226
I00
sS'isElement'
p227
I00
sS'attrChildrenNames'
p228
(lp229
sS'isCompound'
p230
I00
sS'isMulti'
p231
I00
ssVvolumeSamplesOverride
p232
(dp233
S'isArray'
p234
I00
sS'isElement'
p235
I00
sS'attrChildrenNames'
p236
(lp237
sS'isCompound'
p238
I00
sS'isMulti'
p239
I00
ssVparentMatrix
p240
(dp241
S'isArray'
p242
I01
sS'isElement'
p243
I00
sS'isMulti'
p244
I01
ssVrenderLayerInfo[0].renderLayerId
p245
(dp246
S'isArray'
p247
I00
sS'isElement'
p248
I00
sS'attrParentLongName'
p249
VrenderLayerInfo[0]
p250
sS'attrChildrenNames'
p251
(lp252
ssVcolorSet
p253
(dp254
S'isArray'
p255
I01
sS'isElement'
p256
I00
sS'isMulti'
p257
I01
ssVcreationDate
p258
(dp259
S'isArray'
p260
I00
sS'isElement'
p261
I00
sS'isCompound'
p262
I00
sS'attrChildrenNames'
p263
(lp264
sS'isMulti'
p265
I00
ssVrenderVolume
p266
(dp267
S'isArray'
p268
I00
sS'isElement'
p269
I00
sS'attrChildrenNames'
p270
(lp271
sS'isCompound'
p272
I00
sS'isMulti'
p273
I00
ssVcollisionDepthVelocityMultiplier
p274
(dp275
S'isArray'
p276
I01
sS'isElement'
p277
I00
sS'isMulti'
p278
I01
ssVreceiveShadows
p279
(dp280
S'isArray'
p281
I00
sS'isElement'
p282
I00
sS'attrChildrenNames'
p283
(lp284
sS'isCompound'
p285
I00
sS'isMulti'
p286
I00
ssVvolumeSamples
p287
(dp288
S'isArray'
p289
I00
sS'isElement'
p290
I00
sS'isCompound'
p291
I00
sS'attrChildrenNames'
p292
(lp293
sS'isMulti'
p294
I00
ssVcolorSet[0].colorSetPoints[0].colorSetPointsG
p295
(dp296
S'isArray'
p297
I00
sS'isElement'
p298
I00
sS'attrParentLongName'
p299
VcolorSet[0].colorSetPoints[0]
p300
sS'attrChildrenNames'
p301
(lp302
ssVshadingSamples
p303
(dp304
S'isArray'
p305
I00
sS'isElement'
p306
I00
sS'attrChildrenNames'
p307
(lp308
sS'isCompound'
p309
I00
sS'isMulti'
p310
I00
ssVcolorSet[0].colorSetPoints[0].colorSetPointsB
p311
(dp312
S'isArray'
p313
I00
sS'isElement'
p314
I00
sS'attrParentLongName'
p315
VcolorSet[0].colorSetPoints[0]
p316
sS'attrChildrenNames'
p317
(lp318
ssVcollisionDepthVelocityMultiplier[0].collisionDepthVelocityMultiplier_FloatValue
p319
(dp320
S'isArray'
p321
I00
sS'attrParentLongName'
p322
VcollisionDepthVelocityMultiplier[0]
p323
sS'attrChildrenNames'
p324
(lp325
sS'isMulti'
p326
I00
sS'isCompound'
p327
I00
sS'isElement'
p328
I00
ssVcollisionOffsetVelocityMultiplier[0].collisionOffsetVelocityMultiplier_Position
p329
(dp330
S'isArray'
p331
I00
sS'attrParentLongName'
p332
VcollisionOffsetVelocityMultiplier[0]
p333
sS'attrChildrenNames'
p334
(lp335
sS'isMulti'
p336
I00
sS'isCompound'
p337
I00
sS'isElement'
p338
I00
ssVobjectColor
p339
(dp340
S'isArray'
p341
I00
sS'isElement'
p342
I00
sS'isCompound'
p343
I00
sS'attrChildrenNames'
p344
(lp345
sS'isMulti'
p346
I00
ssVdrawOverride.overrideEnabled
p347
(dp348
S'isArray'
p349
I00
sS'attrParentLongName'
p350
VdrawOverride
p351
sS'attrChildrenNames'
p352
(lp353
sS'isMulti'
p354
I00
sS'isCompound'
p355
I00
sS'isElement'
p356
I00
ssVcolorSet[0].colorSetPoints[0].colorSetPointsR
p357
(dp358
S'isArray'
p359
I00
sS'isElement'
p360
I00
sS'attrParentLongName'
p361
VcolorSet[0].colorSetPoints[0]
p362
sS'attrChildrenNames'
p363
(lp364
ssVcolorSet[0].colorSetPoints
p365
(dp366
S'isArray'
p367
I01
sS'isElement'
p368
I00
sS'attrParentLongName'
p369
VcolorSet[0]
p370
ssVrenderInfo.layerOverrideColor
p371
(dp372
S'isArray'
p373
I00
sS'attrParentLongName'
p374
VrenderInfo
p375
sS'attrChildrenNames'
p376
(lp377
sS'isMulti'
p378
I00
sS'isCompound'
p379
I00
sS'isElement'
p380
I00
ssVcreator
p381
(dp382
S'isArray'
p383
I00
sS'isElement'
p384
I00
sS'attrChildrenNames'
p385
(lp386
sS'isCompound'
p387
I00
sS'isMulti'
p388
I00
ssVdepthJitter
p389
(dp390
S'isArray'
p391
I00
sS'isElement'
p392
I00
sS'attrChildrenNames'
p393
(lp394
sS'isCompound'
p395
I00
sS'isMulti'
p396
I00
ssVdisplacement
p397
(dp398
S'isArray'
p399
I00
sS'isElement'
p400
I00
sS'isCompound'
p401
I00
sS'attrChildrenNames'
p402
(lp403
sS'isMulti'
p404
I00
ssVghostRangeEnd
p405
(dp406
S'isArray'
p407
I00
sS'isElement'
p408
I00
sS'attrChildrenNames'
p409
(lp410
sS'isCompound'
p411
I00
sS'isMulti'
p412
I00
ssVcolorSet[0].colorSetPoints[0].colorSetPointsA
p413
(dp414
S'isArray'
p415
I00
sS'isElement'
p416
I00
sS'attrParentLongName'
p417
VcolorSet[0].colorSetPoints[0]
p418
sS'attrChildrenNames'
p419
(lp420
ssVcompInstObjGroups
p421
(dp422
S'isArray'
p423
I01
sS'isElement'
p424
I00
sS'isMulti'
p425
I01
ssVpublishedNodeInfo[0].publishedNode
p426
(dp427
S'isArray'
p428
I00
sS'isElement'
p429
I00
sS'attrParentLongName'
p430
VpublishedNodeInfo[0]
p431
sS'attrChildrenNames'
p432
(lp433
ssVtemplateVersion
p434
(dp435
S'isArray'
p436
I00
sS'isElement'
p437
I00
sS'isCompound'
p438
I00
sS'attrChildrenNames'
p439
(lp440
sS'isMulti'
p441
I00
ssVcollisionDepthVelocityMultiplier[0].collisionDepthVelocityMultiplier_Interp
p442
(dp443
S'isArray'
p444
I00
sS'attrParentLongName'
p445
VcollisionDepthVelocityMultiplier[0]
p446
sS'attrChildrenNames'
p447
(lp448
sS'isMulti'
p449
I00
sS'isCompound'
p450
I00
sS'isElement'
p451
I00
ssVcolor.colorR
p452
(dp453
S'isArray'
p454
I00
sS'attrParentLongName'
p455
Vcolor
p456
sS'attrChildrenNames'
p457
(lp458
sS'isMulti'
p459
I00
sS'isCompound'
p460
I00
sS'isElement'
p461
I00
ssVmatrix
p462
(dp463
S'isArray'
p464
I00
sS'isElement'
p465
I00
sS'isMulti'
p466
I00
sS'attrChildrenNames'
p467
(lp468
sS'isCompound'
p469
I00
ssVghostCustomSteps
p470
(dp471
S'isArray'
p472
I00
sS'isElement'
p473
I00
sS'isMulti'
p474
I00
sS'isCompound'
p475
I01
sS'attrChildrenNames'
p476
(lp477
VghostCustomSteps.ghostPreSteps
p478
aVghostCustomSteps.ghostPostSteps
p479
aVghostCustomSteps.ghostStepSize
p480
assVcolor.colorG
p481
(dp482
S'isArray'
p483
I00
sS'attrParentLongName'
p484
Vcolor
p485
sS'attrChildrenNames'
p486
(lp487
sS'isMulti'
p488
I00
sS'isCompound'
p489
I00
sS'isElement'
p490
I00
ssVcolor.colorB
p491
(dp492
S'isArray'
p493
I00
sS'attrParentLongName'
p494
Vcolor
p495
sS'attrChildrenNames'
p496
(lp497
sS'isMulti'
p498
I00
sS'isCompound'
p499
I00
sS'isElement'
p500
I00
ssVsmoothShading
p501
(dp502
S'isArray'
p503
I00
sS'isElement'
p504
I00
sS'attrChildrenNames'
p505
(lp506
sS'isCompound'
p507
I00
sS'isMulti'
p508
I00
ssVtemplate
p509
(dp510
S'isArray'
p511
I00
sS'isElement'
p512
I00
sS'isMulti'
p513
I00
sS'attrChildrenNames'
p514
(lp515
sS'isCompound'
p516
I00
ssVcontainerType
p517
(dp518
S'isArray'
p519
I00
sS'isElement'
p520
I00
sS'attrChildrenNames'
p521
(lp522
sS'isCompound'
p523
I00
sS'isMulti'
p524
I00
ssVcontrolPoints
p525
(dp526
S'isArray'
p527
I01
sS'isElement'
p528
I00
sS'isMulti'
p529
I01
ssVgeometryAntialiasingOverride
p530
(dp531
S'isArray'
p532
I00
sS'isElement'
p533
I00
sS'isCompound'
p534
I00
sS'attrChildrenNames'
p535
(lp536
sS'isMulti'
p537
I00
ssVparentInverseMatrix
p538
(dp539
S'isArray'
p540
I01
sS'isElement'
p541
I00
sS'isMulti'
p542
I01
ssVviewName
p543
(dp544
S'isArray'
p545
I00
sS'isElement'
p546
I00
sS'attrChildrenNames'
p547
(lp548
sS'isCompound'
p549
I00
sS'isMulti'
p550
I00
ssVcollisionDepthVelocityIncrement[0].collisionDepthVelocityIncrement_FloatValue
p551
(dp552
S'isArray'
p553
I00
sS'isElement'
p554
I00
sS'attrParentLongName'
p555
VcollisionDepthVelocityIncrement[0]
p556
sS'attrChildrenNames'
p557
(lp558
ssVdisplayImmediate
p559
(dp560
S'isArray'
p561
I00
sS'isElement'
p562
I00
sS'isMulti'
p563
I00
sS'isCompound'
p564
I00
sS'attrChildrenNames'
p565
(lp566
ssVrenderInfo.layerRenderable
p567
(dp568
S'isArray'
p569
I00
sS'attrParentLongName'
p570
VrenderInfo
p571
sS'attrChildrenNames'
p572
(lp573
sS'isMulti'
p574
I00
sS'isCompound'
p575
I00
sS'isElement'
p576
I00
ssVuvSet[0].uvSetPoints[0].uvSetPointsU
p577
(dp578
S'isArray'
p579
I00
sS'isElement'
p580
I00
sS'attrParentLongName'
p581
VuvSet[0].uvSetPoints[0]
p582
sS'attrChildrenNames'
p583
(lp584
ssVdisplayColors
p585
(dp586
S'isArray'
p587
I00
sS'isElement'
p588
I00
sS'isMulti'
p589
I00
sS'attrChildrenNames'
p590
(lp591
sS'isCompound'
p592
I00
ssVuvSet[0].uvSetPoints[0].uvSetPointsV
p593
(dp594
S'isArray'
p595
I00
sS'isElement'
p596
I00
sS'attrParentLongName'
p597
VuvSet[0].uvSetPoints[0]
p598
sS'attrChildrenNames'
p599
(lp600
ssVghostCustomSteps.ghostPreSteps
p601
(dp602
S'isArray'
p603
I00
sS'attrParentLongName'
p604
VghostCustomSteps
p605
sS'attrChildrenNames'
p606
(lp607
sS'isMulti'
p608
I00
sS'isCompound'
p609
I00
sS'isElement'
p610
I00
ssVcollisionOffsetVelocityIncrement[0].collisionOffsetVelocityIncrement_FloatValue
p611
(dp612
S'isArray'
p613
I00
sS'isElement'
p614
I00
sS'attrParentLongName'
p615
VcollisionOffsetVelocityIncrement[0]
p616
sS'attrChildrenNames'
p617
(lp618
ssVpublishedNodeInfo
p619
(dp620
S'isArray'
p621
I01
sS'isElement'
p622
I00
sS'isMulti'
p623
I01
ssVdrawOverride.overrideTexturing
p624
(dp625
S'isArray'
p626
I00
sS'attrParentLongName'
p627
VdrawOverride
p628
sS'attrChildrenNames'
p629
(lp630
sS'isMulti'
p631
I00
sS'isCompound'
p632
I00
sS'isElement'
p633
I00
ssVboundingBox.boundingBoxMax
p634
(dp635
S'isArray'
p636
I00
sS'attrParentLongName'
p637
VboundingBox
p638
sS'attrChildrenNames'
p639
(lp640
VboundingBox.boundingBoxMax.boundingBoxMaxX
p641
aVboundingBox.boundingBoxMax.boundingBoxMaxY
p642
aVboundingBox.boundingBoxMax.boundingBoxMaxZ
p643
asS'isMulti'
p644
I00
sS'isCompound'
p645
I01
sS'isElement'
p646
I00
ssVghostRangeStart
p647
(dp648
S'isArray'
p649
I00
sS'isElement'
p650
I00
sS'isCompound'
p651
I00
sS'attrChildrenNames'
p652
(lp653
sS'isMulti'
p654
I00
ssVpublishedNodeInfo[0].publishedNodeType
p655
(dp656
S'isArray'
p657
I00
sS'isElement'
p658
I00
sS'attrParentLongName'
p659
VpublishedNodeInfo[0]
p660
sS'attrChildrenNames'
p661
(lp662
ssVuvPivot.uvPivotY
p663
(dp664
S'isArray'
p665
I00
sS'attrParentLongName'
p666
VuvPivot
p667
sS'attrChildrenNames'
p668
(lp669
sS'isMulti'
p670
I00
sS'isCompound'
p671
I00
sS'isElement'
p672
I00
ssVinstObjGroups
p673
(dp674
S'isArray'
p675
I01
sS'isElement'
p676
I00
sS'isMulti'
p677
I01
ssVcolorSet[0].clamped
p678
(dp679
S'isArray'
p680
I00
sS'isElement'
p681
I00
sS'attrParentLongName'
p682
VcolorSet[0]
p683
sS'attrChildrenNames'
p684
(lp685
ssVcollisionDepthVelocityIncrement[0].collisionDepthVelocityIncrement_Interp
p686
(dp687
S'isArray'
p688
I00
sS'isElement'
p689
I00
sS'attrParentLongName'
p690
VcollisionDepthVelocityIncrement[0]
p691
sS'attrChildrenNames'
p692
(lp693
ssVcolor
p694
(dp695
S'isArray'
p696
I00
sS'isElement'
p697
I00
sS'isMulti'
p698
I00
sS'attrChildrenNames'
p699
(lp700
Vcolor.colorR
p701
aVcolor.colorG
p702
aVcolor.colorB
p703
asS'isCompound'
p704
I01
ssVtweak
p705
(dp706
S'isArray'
p707
I00
sS'isElement'
p708
I00
sS'isCompound'
p709
I00
sS'attrChildrenNames'
p710
(lp711
sS'isMulti'
p712
I00
ssVmaxVisibilitySamples
p713
(dp714
S'isArray'
p715
I00
sS'isElement'
p716
I00
sS'attrChildrenNames'
p717
(lp718
sS'isCompound'
p719
I00
sS'isMulti'
p720
I00
ssVdrawOverride.overrideVisibility
p721
(dp722
S'isArray'
p723
I00
sS'attrParentLongName'
p724
VdrawOverride
p725
sS'attrChildrenNames'
p726
(lp727
sS'isMulti'
p728
I00
sS'isCompound'
p729
I00
sS'isElement'
p730
I00
ssVghosting
p731
(dp732
S'isArray'
p733
I00
sS'isElement'
p734
I00
sS'isMulti'
p735
I00
sS'isCompound'
p736
I00
sS'attrChildrenNames'
p737
(lp738
ssVboundingBoxScale
p739
(dp740
S'isArray'
p741
I00
sS'isElement'
p742
I00
sS'isCompound'
p743
I01
sS'attrChildrenNames'
p744
(lp745
VboundingBoxScale.boundingBoxScaleX
p746
aVboundingBoxScale.boundingBoxScaleY
p747
aVboundingBoxScale.boundingBoxScaleZ
p748
asS'isMulti'
p749
I00
ssVisHistoricallyInteresting
p750
(dp751
S'isArray'
p752
I00
sS'isElement'
p753
I00
sS'attrChildrenNames'
p754
(lp755
sS'isCompound'
p756
I00
sS'isMulti'
p757
I00
ssVcolorSet[0].representation
p758
(dp759
S'isArray'
p760
I00
sS'isElement'
p761
I00
sS'attrParentLongName'
p762
VcolorSet[0]
p763
sS'attrChildrenNames'
p764
(lp765
ssVrelativeTweak
p766
(dp767
S'isArray'
p768
I00
sS'isElement'
p769
I00
sS'attrChildrenNames'
p770
(lp771
sS'isCompound'
p772
I00
sS'isMulti'
p773
I00
ssVcollisionDepthVelocityIncrement[0].collisionDepthVelocityIncrement_Position
p774
(dp775
S'isArray'
p776
I00
sS'isElement'
p777
I00
sS'attrParentLongName'
p778
VcollisionDepthVelocityIncrement[0]
p779
sS'attrChildrenNames'
p780
(lp781
ssVextraSampleRate
p782
(dp783
S'isArray'
p784
I00
sS'isElement'
p785
I00
sS'isMulti'
p786
I00
sS'isCompound'
p787
I00
sS'attrChildrenNames'
p788
(lp789
ssViconName
p790
(dp791
S'isArray'
p792
I00
sS'isElement'
p793
I00
sS'isCompound'
p794
I00
sS'attrChildrenNames'
p795
(lp796
sS'isMulti'
p797
I00
ssVvisibleInReflections
p798
(dp799
S'isArray'
p800
I00
sS'isElement'
p801
I00
sS'isCompound'
p802
I00
sS'attrChildrenNames'
p803
(lp804
sS'isMulti'
p805
I00
ssVcurrentUVSet
p806
(dp807
S'isArray'
p808
I00
sS'isElement'
p809
I00
sS'isMulti'
p810
I00
sS'attrChildrenNames'
p811
(lp812
sS'isCompound'
p813
I00
ssVdrawOverride
p814
(dp815
S'isArray'
p816
I00
sS'isElement'
p817
I00
sS'attrChildrenNames'
p818
(lp819
VdrawOverride.overrideDisplayType
p820
aVdrawOverride.overrideLevelOfDetail
p821
aVdrawOverride.overrideShading
p822
aVdrawOverride.overrideTexturing
p823
aVdrawOverride.overridePlayback
p824
aVdrawOverride.overrideEnabled
p825
aVdrawOverride.overrideVisibility
p826
aVdrawOverride.overrideColor
p827
asS'isCompound'
p828
I01
sS'isMulti'
p829
I00
ssVcontrolPoints[0].zValue
p830
(dp831
S'isArray'
p832
I00
sS'isElement'
p833
I00
sS'attrParentLongName'
p834
VcontrolPoints[0]
p835
sS'attrChildrenNames'
p836
(lp837
ssVrenderInfo
p838
(dp839
S'isArray'
p840
I00
sS'isElement'
p841
I00
sS'attrChildrenNames'
p842
(lp843
VrenderInfo.identification
p844
aVrenderInfo.layerRenderable
p845
aVrenderInfo.layerOverrideColor
p846
asS'isCompound'
p847
I01
sS'isMulti'
p848
I00
ssVcollisionOffsetVelocityMultiplier
p849
(dp850
S'isArray'
p851
I01
sS'isElement'
p852
I00
sS'isMulti'
p853
I01
ssVcollisionOffsetVelocityIncrement[0].collisionOffsetVelocityIncrement_Position
p854
(dp855
S'isArray'
p856
I00
sS'isElement'
p857
I00
sS'attrParentLongName'
p858
VcollisionOffsetVelocityIncrement[0]
p859
sS'attrChildrenNames'
p860
(lp861
ssVvisibleInRefractions
p862
(dp863
S'isArray'
p864
I00
sS'isElement'
p865
I00
sS'attrChildrenNames'
p866
(lp867
sS'isCompound'
p868
I00
sS'isMulti'
p869
I00
ssVghostCustomSteps.ghostPostSteps
p870
(dp871
S'isArray'
p872
I00
sS'attrParentLongName'
p873
VghostCustomSteps
p874
sS'attrChildrenNames'
p875
(lp876
sS'isMulti'
p877
I00
sS'isCompound'
p878
I00
sS'isElement'
p879
I00
ssVcurrentColorSet
p880
(dp881
S'isArray'
p882
I00
sS'isElement'
p883
I00
sS'isMulti'
p884
I00
sS'attrChildrenNames'
p885
(lp886
sS'isCompound'
p887
I00
ssVboundingBox
p888
(dp889
S'isArray'
p890
I00
sS'isElement'
p891
I00
sS'isCompound'
p892
I01
sS'attrChildrenNames'
p893
(lp894
VboundingBox.boundingBoxMin
p895
aVboundingBox.boundingBoxMax
p896
aVboundingBox.boundingBoxSize
p897
asS'isMulti'
p898
I00
ssVcollisionDepthVelocityIncrement
p899
(dp900
S'isArray'
p901
I01
sS'isElement'
p902
I00
sS'isMulti'
p903
I01
ssVuiTreatment
p904
(dp905
S'isArray'
p906
I00
sS'isElement'
p907
I00
sS'attrChildrenNames'
p908
(lp909
sS'isCompound'
p910
I00
sS'isMulti'
p911
I00
ssVcollisionDepthVelocityMultiplier[0].collisionDepthVelocityMultiplier_Position
p912
(dp913
S'isArray'
p914
I00
sS'attrParentLongName'
p915
VcollisionDepthVelocityMultiplier[0]
p916
sS'attrChildrenNames'
p917
(lp918
sS'isMulti'
p919
I00
sS'isCompound'
p920
I00
sS'isElement'
p921
I00
ssVnormalThreshold
p922
(dp923
S'isArray'
p924
I00
sS'isElement'
p925
I00
sS'isMulti'
p926
I00
sS'isCompound'
p927
I00
sS'attrChildrenNames'
p928
(lp929
ssVvisibleFraction
p930
(dp931
S'isArray'
p932
I00
sS'isElement'
p933
I00
sS'isCompound'
p934
I00
sS'attrChildrenNames'
p935
(lp936
sS'isMulti'
p937
I00
ssVboundingBox.boundingBoxSize
p938
(dp939
S'isArray'
p940
I00
sS'attrParentLongName'
p941
VboundingBox
p942
sS'attrChildrenNames'
p943
(lp944
VboundingBox.boundingBoxSize.boundingBoxSizeX
p945
aVboundingBox.boundingBoxSize.boundingBoxSizeY
p946
aVboundingBox.boundingBoxSize.boundingBoxSizeZ
p947
asS'isMulti'
p948
I00
sS'isCompound'
p949
I01
sS'isElement'
p950
I00
ssVcollisionOffsetVelocityIncrement
p951
(dp952
S'isArray'
p953
I01
sS'isElement'
p954
I00
sS'isMulti'
p955
I01
ssVtweakLocation
p956
(dp957
S'isArray'
p958
I00
sS'isElement'
p959
I00
sS'isMulti'
p960
I00
sS'attrChildrenNames'
p961
(lp962
sS'isCompound'
p963
I00
ssVrenderType
p964
(dp965
S'isArray'
p966
I00
sS'isElement'
p967
I00
sS'isCompound'
p968
I00
sS'attrChildrenNames'
p969
(lp970
sS'isMulti'
p971
I00
ssVcenter.boundingBoxCenterZ
p972
(dp973
S'isArray'
p974
I00
sS'attrParentLongName'
p975
Vcenter
p976
sS'attrChildrenNames'
p977
(lp978
sS'isMulti'
p979
I00
sS'isCompound'
p980
I00
sS'isElement'
p981
I00
ssVcompInstObjGroups[0].compObjectGroups
p982
(dp983
S'isArray'
p984
I01
sS'isElement'
p985
I00
sS'attrParentLongName'
p986
VcompInstObjGroups[0]
p987
ssVboundingBox.boundingBoxMin
p988
(dp989
S'isArray'
p990
I00
sS'attrParentLongName'
p991
VboundingBox
p992
sS'attrChildrenNames'
p993
(lp994
VboundingBox.boundingBoxMin.boundingBoxMinX
p995
aVboundingBox.boundingBoxMin.boundingBoxMinY
p996
aVboundingBox.boundingBoxMin.boundingBoxMinZ
p997
asS'isMulti'
p998
I00
sS'isCompound'
p999
I01
sS'isElement'
p1000
I00
ssVboundingBoxScale.boundingBoxScaleZ
p1001
(dp1002
S'isArray'
p1003
I00
sS'attrParentLongName'
p1004
VboundingBoxScale
p1005
sS'attrChildrenNames'
p1006
(lp1007
sS'isMulti'
p1008
I00
sS'isCompound'
p1009
I00
sS'isElement'
p1010
I00
ssVboundingBoxScale.boundingBoxScaleX
p1011
(dp1012
S'isArray'
p1013
I00
sS'attrParentLongName'
p1014
VboundingBoxScale
p1015
sS'attrChildrenNames'
p1016
(lp1017
sS'isMulti'
p1018
I00
sS'isCompound'
p1019
I00
sS'isElement'
p1020
I00
ssVboundingBoxScale.boundingBoxScaleY
p1021
(dp1022
S'isArray'
p1023
I00
sS'attrParentLongName'
p1024
VboundingBoxScale
p1025
sS'attrChildrenNames'
p1026
(lp1027
sS'isMulti'
p1028
I00
sS'isCompound'
p1029
I00
sS'isElement'
p1030
I00
ssVmaxShadingSamples
p1031
(dp1032
S'isArray'
p1033
I00
sS'isElement'
p1034
I00
sS'isCompound'
p1035
I00
sS'attrChildrenNames'
p1036
(lp1037
sS'isMulti'
p1038
I00
ssVinstObjGroups[0].objectGroups
p1039
(dp1040
S'isArray'
p1041
I01
sS'isElement'
p1042
I00
sS'attrParentLongName'
p1043
VinstObjGroups[0]
p1044
ssVcollisionOffsetVelocityIncrement[0].collisionOffsetVelocityIncrement_Interp
p1045
(dp1046
S'isArray'
p1047
I00
sS'isElement'
p1048
I00
sS'attrParentLongName'
p1049
VcollisionOffsetVelocityIncrement[0]
p1050
sS'attrChildrenNames'
p1051
(lp1052
ssVboundingBox.boundingBoxMax.boundingBoxMaxY
p1053
(dp1054
S'isArray'
p1055
I00
sS'attrParentLongName'
p1056
VboundingBox.boundingBoxMax
p1057
sS'attrChildrenNames'
p1058
(lp1059
sS'isMulti'
p1060
I00
sS'isCompound'
p1061
I00
sS'isElement'
p1062
I00
ssVboundingBox.boundingBoxMax.boundingBoxMaxX
p1063
(dp1064
S'isArray'
p1065
I00
sS'attrParentLongName'
p1066
VboundingBox.boundingBoxMax
p1067
sS'attrChildrenNames'
p1068
(lp1069
sS'isMulti'
p1070
I00
sS'isCompound'
p1071
I00
sS'isElement'
p1072
I00
ssVpublishedNodeInfo[0].isHierarchicalNode
p1073
(dp1074
S'isArray'
p1075
I00
sS'isElement'
p1076
I00
sS'attrParentLongName'
p1077
VpublishedNodeInfo[0]
p1078
sS'attrChildrenNames'
p1079
(lp1080
ssVuvSet[0].uvSetPoints
p1081
(dp1082
S'isArray'
p1083
I01
sS'isElement'
p1084
I00
sS'attrParentLongName'
p1085
VuvSet[0]
p1086
ssVworldInverseMatrix
p1087
(dp1088
S'isArray'
p1089
I01
sS'isElement'
p1090
I00
sS'isMulti'
p1091
I01
ssVmaxVisibilitySamplesOverride
p1092
(dp1093
S'isArray'
p1094
I00
sS'isElement'
p1095
I00
sS'isCompound'
p1096
I00
sS'attrChildrenNames'
p1097
(lp1098
sS'isMulti'
p1099
I00
ssVuvSet[0].uvSetName
p1100
(dp1101
S'isArray'
p1102
I00
sS'isElement'
p1103
I00
sS'attrParentLongName'
p1104
VuvSet[0]
p1105
sS'attrChildrenNames'
p1106
(lp1107
ssVboundingBox.boundingBoxSize.boundingBoxSizeY
p1108
(dp1109
S'isArray'
p1110
I00
sS'attrParentLongName'
p1111
VboundingBox.boundingBoxSize
p1112
sS'attrChildrenNames'
p1113
(lp1114
sS'isMulti'
p1115
I00
sS'isCompound'
p1116
I00
sS'isElement'
p1117
I00
ssVboundingBox.boundingBoxSize.boundingBoxSizeX
p1118
(dp1119
S'isArray'
p1120
I00
sS'attrParentLongName'
p1121
VboundingBox.boundingBoxSize
p1122
sS'attrChildrenNames'
p1123
(lp1124
sS'isMulti'
p1125
I00
sS'isCompound'
p1126
I00
sS'isElement'
p1127
I00
ssVboundingBox.boundingBoxSize.boundingBoxSizeZ
p1128
(dp1129
S'isArray'
p1130
I00
sS'attrParentLongName'
p1131
VboundingBox.boundingBoxSize
p1132
sS'attrChildrenNames'
p1133
(lp1134
sS'isMulti'
p1135
I00
sS'isCompound'
p1136
I00
sS'isElement'
p1137
I00
ssVlodVisibility
p1138
(dp1139
S'isArray'
p1140
I00
sS'isElement'
p1141
I00
sS'isCompound'
p1142
I00
sS'attrChildrenNames'
p1143
(lp1144
sS'isMulti'
p1145
I00
ssVtemplateName
p1146
(dp1147
S'isArray'
p1148
I00
sS'isElement'
p1149
I00
sS'attrChildrenNames'
p1150
(lp1151
sS'isCompound'
p1152
I00
sS'isMulti'
p1153
I00
ssVghostingControl
p1154
(dp1155
S'isArray'
p1156
I00
sS'isElement'
p1157
I00
sS'isMulti'
p1158
I00
sS'attrChildrenNames'
p1159
(lp1160
sS'isCompound'
p1161
I00
ssVtextureThreshold
p1162
(dp1163
S'isArray'
p1164
I00
sS'isElement'
p1165
I00
sS'isMulti'
p1166
I00
sS'attrChildrenNames'
p1167
(lp1168
sS'isCompound'
p1169
I00
ssVcacheNeedsRebuilding
p1170
(dp1171
S'isArray'
p1172
I00
sS'isElement'
p1173
I00
sS'isCompound'
p1174
I00
sS'attrChildrenNames'
p1175
(lp1176
sS'isMulti'
p1177
I00
ssVcastsShadows
p1178
(dp1179
S'isArray'
p1180
I00
sS'isElement'
p1181
I00
sS'isCompound'
p1182
I00
sS'attrChildrenNames'
p1183
(lp1184
sS'isMulti'
p1185
I00
ssVresolution
p1186
(dp1187
S'isArray'
p1188
I00
sS'isElement'
p1189
I00
sS'isMulti'
p1190
I00
sS'isCompound'
p1191
I00
sS'attrChildrenNames'
p1192
(lp1193
ssVheightScale
p1194
(dp1195
S'isArray'
p1196
I00
sS'isElement'
p1197
I00
sS'attrChildrenNames'
p1198
(lp1199
sS'isCompound'
p1200
I00
sS'isMulti'
p1201
I00
ssVdrawOverride.overrideDisplayType
p1202
(dp1203
S'isArray'
p1204
I00
sS'attrParentLongName'
p1205
VdrawOverride
p1206
sS'attrChildrenNames'
p1207
(lp1208
sS'isMulti'
p1209
I00
sS'isCompound'
p1210
I00
sS'isElement'
p1211
I00
ssVdrawOverride.overrideShading
p1212
(dp1213
S'isArray'
p1214
I00
sS'attrParentLongName'
p1215
VdrawOverride
p1216
sS'attrChildrenNames'
p1217
(lp1218
sS'isMulti'
p1219
I00
sS'isCompound'
p1220
I00
sS'isElement'
p1221
I00
ssVisCollapsed
p1222
(dp1223
S'isArray'
p1224
I00
sS'isElement'
p1225
I00
sS'attrChildrenNames'
p1226
(lp1227
sS'isCompound'
p1228
I00
sS'isMulti'
p1229
I00
ssVnodeState
p1230
(dp1231
S'isArray'
p1232
I00
sS'isElement'
p1233
I00
sS'isCompound'
p1234
I00
sS'attrChildrenNames'
p1235
(lp1236
sS'isMulti'
p1237
I00
ssVopposite
p1238
(dp1239
S'isArray'
p1240
I00
sS'isElement'
p1241
I00
sS'isCompound'
p1242
I00
sS'attrChildrenNames'
p1243
(lp1244
sS'isMulti'
p1245
I00
ssVrenderLayerInfo[0].renderLayerColor
p1246
(dp1247
S'isArray'
p1248
I00
sS'isElement'
p1249
I00
sS'attrParentLongName'
p1250
VrenderLayerInfo[0]
p1251
sS'attrChildrenNames'
p1252
(lp1253
ssVuvSet[0].uvSetTweakLocation
p1254
(dp1255
S'isArray'
p1256
I00
sS'isElement'
p1257
I00
sS'attrParentLongName'
p1258
VuvSet[0]
p1259
sS'attrChildrenNames'
p1260
(lp1261
ssVcontrolPoints[0].yValue
p1262
(dp1263
S'isArray'
p1264
I00
sS'isElement'
p1265
I00
sS'attrParentLongName'
p1266
VcontrolPoints[0]
p1267
sS'attrChildrenNames'
p1268
(lp1269
ssVghostCustomSteps.ghostStepSize
p1270
(dp1271
S'isArray'
p1272
I00
sS'attrParentLongName'
p1273
VghostCustomSteps
p1274
sS'attrChildrenNames'
p1275
(lp1276
sS'isMulti'
p1277
I00
sS'isCompound'
p1278
I00
sS'isElement'
p1279
I00
ssVdrawOverride.overridePlayback
p1280
(dp1281
S'isArray'
p1282
I00
sS'attrParentLongName'
p1283
VdrawOverride
p1284
sS'attrChildrenNames'
p1285
(lp1286
sS'isMulti'
p1287
I00
sS'isCompound'
p1288
I00
sS'isElement'
p1289
I00
ssVboundingBox.boundingBoxMax.boundingBoxMaxZ
p1290
(dp1291
S'isArray'
p1292
I00
sS'attrParentLongName'
p1293
VboundingBox.boundingBoxMax
p1294
sS'attrChildrenNames'
p1295
(lp1296
sS'isMulti'
p1297
I00
sS'isCompound'
p1298
I00
sS'isElement'
p1299
I00
ssVvisibility
p1300
(dp1301
S'isArray'
p1302
I00
sS'isElement'
p1303
I00
sS'isMulti'
p1304
I00
sS'attrChildrenNames'
p1305
(lp1306
sS'isCompound'
p1307
I00
ssVrenderLayerInfo
p1308
(dp1309
S'isArray'
p1310
I01
sS'isElement'
p1311
I00
sS'isMulti'
p1312
I01
ssVcolorSet[0].colorName
p1313
(dp1314
S'isArray'
p1315
I00
sS'isElement'
p1316
I00
sS'attrParentLongName'
p1317
VcolorSet[0]
p1318
sS'attrChildrenNames'
p1319
(lp1320
ssVinstObjGroups[0].objectGroups[0].objectGrpCompList
p1321
(dp1322
S'isArray'
p1323
I00
sS'isElement'
p1324
I00
sS'attrParentLongName'
p1325
VinstObjGroups[0].objectGroups[0]
p1326
sS'attrChildrenNames'
p1327
(lp1328
ssVuvPivot.uvPivotX
p1329
(dp1330
S'isArray'
p1331
I00
sS'attrParentLongName'
p1332
VuvPivot
p1333
sS'attrChildrenNames'
p1334
(lp1335
sS'isMulti'
p1336
I00
sS'isCompound'
p1337
I00
sS'isElement'
p1338
I00
ssVdisplayColorChannel
p1339
(dp1340
S'isArray'
p1341
I00
sS'isElement'
p1342
I00
sS'isMulti'
p1343
I00
sS'isCompound'
p1344
I00
sS'attrChildrenNames'
p1345
(lp1346
ssVcenter
p1347
(dp1348
S'isArray'
p1349
I00
sS'isElement'
p1350
I00
sS'attrChildrenNames'
p1351
(lp1352
Vcenter.boundingBoxCenterX
p1353
aVcenter.boundingBoxCenterY
p1354
aVcenter.boundingBoxCenterZ
p1355
asS'isCompound'
p1356
I01
sS'isMulti'
p1357
I00
ssVuvSet
p1358
(dp1359
S'isArray'
p1360
I01
sS'isElement'
p1361
I00
sS'isMulti'
p1362
I01
ssVghostFrames
p1363
(dp1364
S'isArray'
p1365
I00
sS'isElement'
p1366
I00
sS'attrChildrenNames'
p1367
(lp1368
sS'isCompound'
p1369
I00
sS'isMulti'
p1370
I00
ssVdisplayHWEnvironment
p1371
(dp1372
S'isArray'
p1373
I00
sS'isElement'
p1374
I00
sS'isMulti'
p1375
I00
sS'attrChildrenNames'
p1376
(lp1377
sS'isCompound'
p1378
I00
ssVviewMode
p1379
(dp1380
S'isArray'
p1381
I00
sS'isElement'
p1382
I00
sS'attrChildrenNames'
p1383
(lp1384
sS'isCompound'
p1385
I00
sS'isMulti'
p1386
I00
ssVweights
p1387
(dp1388
S'isArray'
p1389
I01
sS'isElement'
p1390
I00
sS'isMulti'
p1391
I01
ssVcenter.boundingBoxCenterX
p1392
(dp1393
S'isArray'
p1394
I00
sS'attrParentLongName'
p1395
Vcenter
p1396
sS'attrChildrenNames'
p1397
(lp1398
sS'isMulti'
p1399
I00
sS'isCompound'
p1400
I00
sS'isElement'
p1401
I00
ssVcaching
p1402
(dp1403
S'isArray'
p1404
I00
sS'isElement'
p1405
I00
sS'isCompound'
p1406
I00
sS'attrChildrenNames'
p1407
(lp1408
sS'isMulti'
p1409
I00
ssVinverseMatrix
p1410
(dp1411
S'isArray'
p1412
I00
sS'isElement'
p1413
I00
sS'isMulti'
p1414
I00
sS'isCompound'
p1415
I00
sS'attrChildrenNames'
p1416
(lp1417
ssVblackBox
p1418
(dp1419
S'isArray'
p1420
I00
sS'isElement'
p1421
I00
sS'isCompound'
p1422
I00
sS'attrChildrenNames'
p1423
(lp1424
sS'isMulti'
p1425
I00
ssVignoreHwShader
p1426
(dp1427
S'isArray'
p1428
I00
sS'isElement'
p1429
I00
sS'isCompound'
p1430
I00
sS'attrChildrenNames'
p1431
(lp1432
sS'isMulti'
p1433
I00
ssVinstObjGroups[0].objectGroups[0].objectGrpColor
p1434
(dp1435
S'isArray'
p1436
I00
sS'isElement'
p1437
I00
sS'attrParentLongName'
p1438
VinstObjGroups[0].objectGroups[0]
p1439
sS'attrChildrenNames'
p1440
(lp1441
ssVcenter.boundingBoxCenterY
p1442
(dp1443
S'isArray'
p1444
I00
sS'attrParentLongName'
p1445
Vcenter
p1446
sS'attrChildrenNames'
p1447
(lp1448
sS'isMulti'
p1449
I00
sS'isCompound'
p1450
I00
sS'isElement'
p1451
I00
ss.