(dp0
Vtranslate.translateZ
p1
(dp2
S'isArray'
p3
I00
sS'attrType'
p4
VdoubleLinear
p5
sS'isMulti'
p6
I00
sS'isCompound'
p7
I00
sS'isSimple'
p8
I01
sS'attrChildrenLongNames'
p9
(lp10
ssVrotateOrder
p11
(dp12
S'isArray'
p13
I00
sg4
Venum
p14
sg6
I00
sg7
I00
sg8
I01
sS'attrChildrenLongNames'
p15
(lp16
ssVtranslate.translateX
p17
(dp18
g3
I00
sg4
VdoubleLinear
p19
sg6
I00
sg7
I00
sg8
I01
sg9
(lp20
ssVtranslate.translateY
p21
(dp22
g3
I00
sg4
VdoubleLinear
p23
sg6
I00
sg7
I00
sg8
I01
sg9
(lp24
ssVintermediateObject
p25
(dp26
g13
I00
sg4
Vbool
p27
sg6
I00
sg7
I00
sg8
I01
sg15
(lp28
ssVinstObjGroups[0].objectGroups[1].objectGroupId
p29
(dp30
g13
I00
sg15
(lp31
ssVrenderLayerInfo.renderLayerId
p32
(dp33
S'attrParentLongName'
p34
VrenderLayerInfo
p35
ssVselectHandle.selectHandleX
p36
(dp37
g13
I00
sg4
VdoubleLinear
p38
sg6
I00
sg7
I00
sg8
I01
sg15
(lp39
ssVmentalRayControls.miVisible
p40
(dp41
g13
I00
sg4
Venum
p42
sg6
I00
sg7
I00
sg8
I01
sg15
(lp43
ssVuseObjectColor
p44
(dp45
g13
I00
sg4
Vbool
p46
sg6
I00
sg7
I00
sg8
I01
sg15
(lp47
ssVdrawOverride.overrideLevelOfDetail
p48
(dp49
g13
I00
sg4
Venum
p50
sg6
I00
sg7
I00
sg8
I01
sg15
(lp51
ssVinstObjGroups[0].objectGroups[0].objectGroupId
p52
(dp53
g13
I00
sg15
(lp54
ssVghostColorPost
p55
(dp56
g13
I00
sg6
I00
sg4
Vfloat3
p57
sg8
I00
sg15
(lp58
VghostColorPost.ghostColorPostR
p59
aVghostColorPost.ghostColorPostG
p60
aVghostColorPost.ghostColorPostB
p61
assVpoleVector.poleVectorY
p62
(dp63
g13
I00
sg4
Vdouble
p64
sg6
I00
sg7
I00
sg8
I01
sg15
(lp65
ssVselectHandle.selectHandleY
p66
(dp67
g13
I00
sg4
VdoubleLinear
p68
sg6
I00
sg7
I00
sg8
I01
sg15
(lp69
ssVminTransLimitEnable.minTransYLimitEnable
p70
(dp71
g13
I00
sg4
Vbool
p72
sg6
I00
sg7
I00
sg8
I01
sg15
(lp73
ssVdrawOverride.overrideColor
p74
(dp75
g13
I00
sg6
I00
sg4
Vbyte
p76
sg8
I00
sg15
(lp77
ssVrenderLayerInfo[0]
p78
(dp79
g13
I00
sg15
(lp80
VrenderLayerInfo[0].renderLayerId
p81
aVrenderLayerInfo[0].renderLayerRenderable
p82
aVrenderLayerInfo[0].renderLayerColor
p83
assVpoleVector
p84
(dp85
g13
I00
sg4
Vdouble3
p86
sg6
I00
sg7
I01
sg8
I01
sg15
(lp87
VpoleVector.poleVectorX
p88
ag62
aVpoleVector.poleVectorZ
p89
assVdWorldUpVector
p90
(dp91
g3
I00
sg4
Vdouble3
p92
sg6
I00
sg7
I01
sg8
I01
sg9
(lp93
VdWorldUpVector.dWorldUpVectorX
p94
aVdWorldUpVector.dWorldUpVectorY
p95
aVdWorldUpVector.dWorldUpVectorZ
p96
assVrenderLayerInfo.renderLayerRenderable
p97
(dp98
g34
VrenderLayerInfo
p99
ssVminRotLimitEnable.minRotZLimitEnable
p100
(dp101
g13
I00
sg4
Vbool
p102
sg6
I00
sg7
I00
sg8
I01
sg15
(lp103
ssVworldMatrix[1]
p104
(dp105
g13
I00
sg15
(lp106
ssVparentMatrix[2]
p107
(dp108
g13
I00
sg15
(lp109
ssVmaxRotLimitEnable.maxRotZLimitEnable
p110
(dp111
g13
I00
sg4
Vbool
p112
sg6
I00
sg7
I00
sg8
I01
sg15
(lp113
ssVscalePivotTranslate
p114
(dp115
g13
I00
sg4
Vdouble3
p116
sg6
I00
sg7
I01
sg8
I01
sg15
(lp117
VscalePivotTranslate.scalePivotTranslateX
p118
aVscalePivotTranslate.scalePivotTranslateY
p119
aVscalePivotTranslate.scalePivotTranslateZ
p120
assVmaxRotLimit.maxRotYLimit
p121
(dp122
g13
I00
sg4
VdoubleAngle
p123
sg6
I00
sg7
I00
sg8
I01
sg15
(lp124
ssVtransMinusRotatePivot
p125
(dp126
g13
I00
sg4
Vdouble3
p127
sg6
I00
sg7
I01
sg8
I01
sg15
(lp128
VtransMinusRotatePivot.transMinusRotatePivotX
p129
aVtransMinusRotatePivot.transMinusRotatePivotY
p130
aVtransMinusRotatePivot.transMinusRotatePivotZ
p131
assVrenderLayerInfo[1].renderLayerColor
p132
(dp133
g13
I00
sg15
(lp134
ssVikFkManipulation
p135
(dp136
g13
I00
sg4
Vbool
p137
sg6
I00
sg7
I00
sg8
I01
sg15
(lp138
ssVworldInverseMatrix[1]
p139
(dp140
g13
I00
sg15
(lp141
ssVrotateQuaternion.rotateQuaternionW
p142
(dp143
g13
I00
sg4
Vdouble
p144
sg6
I00
sg7
I00
sg8
I01
sg15
(lp145
ssVdTwistRamp.dTwistRampR
p146
(dp147
g13
I00
sg4
Vfloat
p148
sg6
I00
sg7
I00
sg8
I01
sg15
(lp149
ssVbinMembership
p150
(dp151
g13
I00
sg4
Vstring
p152
sg6
I00
sg7
I00
sg8
I01
sg15
(lp153
ssVcustomTreatment
p154
(dp155
g13
I00
sg4
Vstring
p156
sg6
I00
sg7
I00
sg8
I01
sg15
(lp157
ssg82
(dp158
g13
I00
sg15
(lp159
ssVtemplatePath
p160
(dp161
g13
I00
sg4
Vstring
p162
sg6
I00
sg7
I00
sg8
I01
sg15
(lp163
ssVdTwistControlEnable
p164
(dp165
g13
I00
sg4
Vbool
p166
sg6
I00
sg7
I00
sg8
I01
sg15
(lp167
ssVmaxScaleLimit
p168
(dp169
g13
I00
sg4
Vdouble3
p170
sg6
I00
sg7
I01
sg8
I01
sg15
(lp171
VmaxScaleLimit.maxScaleXLimit
p172
aVmaxScaleLimit.maxScaleYLimit
p173
aVmaxScaleLimit.maxScaleZLimit
p174
assVboundingBox.boundingBoxMin
p175
(dp176
g34
VboundingBox
p177
ssVboundingBox.boundingBoxMin.boundingBoxMinX
p178
(dp179
g34
VboundingBox.boundingBoxMin
p180
ssVboundingBox.boundingBoxMin.boundingBoxMinZ
p181
(dp182
g34
VboundingBox.boundingBoxMin
p183
ssVminRotLimitEnable.minRotYLimitEnable
p184
(dp185
g13
I00
sg4
Vbool
p186
sg6
I00
sg7
I00
sg8
I01
sg15
(lp187
ssVselectHandle
p188
(dp189
g13
I00
sg4
Vdouble3
p190
sg6
I00
sg7
I01
sg8
I01
sg15
(lp191
g36
ag66
aVselectHandle.selectHandleZ
p192
assg89
(dp193
g13
I00
sg4
Vdouble
p194
sg6
I00
sg7
I00
sg8
I01
sg15
(lp195
ssVghostColorPostA
p196
(dp197
g13
I00
sg4
Vfloat
p198
sg6
I00
sg7
I00
sg8
I01
sg15
(lp199
ssVdTwistValueType
p200
(dp201
g3
I00
sg4
Venum
p202
sg6
I00
sg7
I00
sg8
I01
sg9
(lp203
ssVrotateQuaternion.rotateQuaternionZ
p204
(dp205
g13
I00
sg4
Vdouble
p206
sg6
I00
sg7
I00
sg8
I01
sg15
(lp207
ssg81
(dp208
g13
I00
sg15
(lp209
ssVrotateQuaternion.rotateQuaternionX
p210
(dp211
g13
I00
sg4
Vdouble
p212
sg6
I00
sg7
I00
sg8
I01
sg15
(lp213
ssVminRotLimit.minRotYLimit
p214
(dp215
g13
I00
sg4
VdoubleAngle
p216
sg6
I00
sg7
I00
sg8
I01
sg15
(lp217
ssVdofList
p218
(dp219
g13
I00
sg6
I00
sg4
Vvoid
p220
sg8
I00
sg15
(lp221
ssVmaxRotLimitEnable.maxRotXLimitEnable
p222
(dp223
g13
I00
sg4
Vbool
p224
sg6
I00
sg7
I00
sg8
I01
sg15
(lp225
ssVminTransLimitEnable.minTransZLimitEnable
p226
(dp227
g13
I00
sg4
Vbool
p228
sg6
I00
sg7
I00
sg8
I01
sg15
(lp229
ssVobjectColorRGB.objectColorB
p230
(dp231
g34
VobjectColorRGB
p232
sg13
I00
sg4
Vfloat
p233
sg6
I00
sg7
I00
sg8
I01
sg15
(lp234
ssVcreationDate
p235
(dp236
g13
I00
sg4
Vstring
p237
sg6
I00
sg7
I00
sg8
I01
sg15
(lp238
ssVminScaleLimit.minScaleXLimit
p239
(dp240
g13
I00
sg4
Vdouble
p241
sg6
I00
sg7
I00
sg8
I01
sg15
(lp242
ssVmentalRayControls.miDeriveFromMaya
p243
(dp244
g13
I00
sg4
Vbool
p245
sg6
I00
sg7
I00
sg8
I01
sg15
(lp246
ssVrotatePivotTranslate.rotatePivotTranslateX
p247
(dp248
g13
I00
sg4
VdoubleLinear
p249
sg6
I00
sg7
I00
sg8
I01
sg15
(lp250
ssVrotatePivotTranslate.rotatePivotTranslateY
p251
(dp252
g13
I00
sg4
VdoubleLinear
p253
sg6
I00
sg7
I00
sg8
I01
sg15
(lp254
ssVminTransLimit
p255
(dp256
g13
I00
sg4
Vdouble3
p257
sg6
I00
sg7
I01
sg8
I01
sg15
(lp258
VminTransLimit.minTransXLimit
p259
aVminTransLimit.minTransYLimit
p260
aVminTransLimit.minTransZLimit
p261
assVrotate
p262
(dp263
g3
I00
sg4
Vdouble3
p264
sg6
I00
sg7
I01
sg8
I01
sg9
(lp265
Vrotate.rotateX
p266
aVrotate.rotateY
p267
aVrotate.rotateZ
p268
assVtwistType
p269
(dp270
g13
I00
sg4
Venum
p271
sg6
I00
sg7
I00
sg8
I01
sg15
(lp272
ssVparentMatrix
p273
(dp274
g13
I01
sg6
I01
sg8
I00
sg4
Vmatrix
p275
ssVminRotLimit
p276
(dp277
g13
I00
sg4
Vdouble3
p278
sg6
I00
sg7
I01
sg8
I01
sg15
(lp279
VminRotLimit.minRotXLimit
p280
ag214
aVminRotLimit.minRotZLimit
p281
assVmaxTransLimitEnable.maxTransYLimitEnable
p282
(dp283
g13
I00
sg4
Vbool
p284
sg6
I00
sg7
I00
sg8
I01
sg15
(lp285
ssVworldMatrix[0]
p286
(dp287
g13
I00
sg15
(lp288
ssVisHierarchicalConnection[1]
p289
(dp290
g13
I00
sg15
(lp291
ssVparentInverseMatrix[0]
p292
(dp293
g13
I00
sg6
I00
sg4
Vmatrix
p294
sg8
I00
sg15
(lp295
ssg281
(dp296
g13
I00
sg4
VdoubleAngle
p297
sg6
I00
sg7
I00
sg8
I01
sg15
(lp298
ssVmaxScaleLimitEnable.maxScaleYLimitEnable
p299
(dp300
g13
I00
sg4
Vbool
p301
sg6
I00
sg7
I00
sg8
I01
sg15
(lp302
ssVdrawOverride.overrideEnabled
p303
(dp304
g13
I00
sg4
Vbool
p305
sg6
I00
sg7
I00
sg8
I01
sg15
(lp306
ssVrotatePivot.rotatePivotZ
p307
(dp308
g13
I00
sg4
VdoubleLinear
p309
sg6
I00
sg7
I00
sg8
I01
sg15
(lp310
ssVboundingBox.boundingBoxMax
p311
(dp312
g34
VboundingBox
p313
ssVrotatePivot.rotatePivotY
p314
(dp315
g13
I00
sg4
VdoubleLinear
p316
sg6
I00
sg7
I00
sg8
I01
sg15
(lp317
ssVparentMatrix[0]
p318
(dp319
g13
I00
sg6
I00
sg4
Vmatrix
p320
sg8
I00
sg15
(lp321
ssVscalePivot.scalePivotX
p322
(dp323
g13
I00
sg4
VdoubleLinear
p324
sg6
I00
sg7
I00
sg8
I01
sg15
(lp325
ssVrenderInfo.layerOverrideColor
p326
(dp327
g34
VrenderInfo
p328
sg13
I00
sg4
Vbyte
p329
sg6
I00
sg8
I00
sg15
(lp330
ssVdTwistStartEnd
p331
(dp332
g3
I00
sg4
Vdouble2
p333
sg6
I00
sg7
I01
sg8
I01
sg9
(lp334
VdTwistStartEnd.dTwistStart
p335
aVdTwistStartEnd.dTwistEnd
p336
assVweight
p337
(dp338
g13
I00
sg4
Vdouble
p339
sg6
I00
sg7
I00
sg8
I01
sg15
(lp340
ssVcreator
p341
(dp342
g13
I00
sg4
Vstring
p343
sg6
I00
sg7
I00
sg8
I01
sg15
(lp344
ssVrotateAxis.rotateAxisX
p345
(dp346
g13
I00
sg4
VdoubleAngle
p347
sg6
I00
sg7
I00
sg8
I01
sg15
(lp348
ssVrotateAxis.rotateAxisY
p349
(dp350
g13
I00
sg4
VdoubleAngle
p351
sg6
I00
sg7
I00
sg8
I01
sg15
(lp352
ssVrotateAxis.rotateAxisZ
p353
(dp354
g13
I00
sg4
VdoubleAngle
p355
sg6
I00
sg7
I00
sg8
I01
sg15
(lp356
ssVsnapEnable
p357
(dp358
g13
I00
sg4
Vbool
p359
sg6
I00
sg7
I00
sg8
I01
sg15
(lp360
ssVinstObjGroups[0].objectGroups[0]
p361
(dp362
g13
I00
sg15
(lp363
VinstObjGroups[0].objectGroups[0].objectGrpCompList
p364
ag52
aVinstObjGroups[0].objectGroups[0].objectGrpColor
p365
assVghostRangeEnd
p366
(dp367
g13
I00
sg4
Vtime
p368
sg6
I00
sg7
I00
sg8
I01
sg15
(lp369
ssVobjectColorRGB
p370
(dp371
g13
I00
sg6
I00
sg4
Vfloat3
p372
sg8
I00
sg15
(lp373
VobjectColorRGB.objectColorR
p374
aVobjectColorRGB.objectColorG
p375
aVobjectColorRGB.objectColorB
p376
assVghostColorPre.ghostColorPreG
p377
(dp378
g13
I00
sg4
Vfloat
p379
sg6
I00
sg7
I00
sg8
I01
sg15
(lp380
ssVinstObjGroups.objectGroups.objectGrpCompList
p381
(dp382
g34
VinstObjGroups.objectGroups
p383
ssVghostColorPre.ghostColorPreB
p384
(dp385
g13
I00
sg4
Vfloat
p386
sg6
I00
sg7
I00
sg8
I01
sg15
(lp387
ssVpublishedNodeInfo[0].publishedNode
p388
(dp389
g13
I00
sg15
(lp390
ssg335
(dp391
g3
I00
sg34
VdTwistStartEnd
p392
sg4
Vdouble
p393
sg6
I00
sg7
I00
sg8
I01
sg9
(lp394
ssVdynamics
p395
(dp396
g13
I00
sg4
Vbool
p397
sg6
I00
sg7
I00
sg8
I01
sg15
(lp398
ssVpublishedNodeInfo[1].isHierarchicalNode
p399
(dp400
g13
I00
sg15
(lp401
ssVtemplateVersion
p402
(dp403
g13
I00
sg4
Vlong
p404
sg6
I00
sg7
I00
sg8
I01
sg15
(lp405
ssVmaxTransLimit.maxTransZLimit
p406
(dp407
g13
I00
sg4
VdoubleLinear
p408
sg6
I00
sg7
I00
sg8
I01
sg15
(lp409
ssVinstObjGroups[1].objectGroups
p410
(dp411
g13
I01
ssVscale
p412
(dp413
g3
I00
sg4
Vdouble3
p414
sg6
I00
sg7
I01
sg8
I01
sg9
(lp415
Vscale.scaleX
p416
aVscale.scaleY
p417
aVscale.scaleZ
p418
assVmatrix
p419
(dp420
g13
I00
sg6
I00
sg4
Vmatrix
p421
sg8
I00
sg15
(lp422
ssVhandleDirtyFlag
p423
(dp424
g13
I00
sg4
Vbool
p425
sg6
I00
sg7
I00
sg8
I01
sg15
(lp426
ssg131
(dp427
g13
I00
sg4
VdoubleLinear
p428
sg6
I00
sg7
I00
sg8
I01
sg15
(lp429
ssVrotatePivot
p430
(dp431
g13
I00
sg4
Vdouble3
p432
sg6
I00
sg7
I01
sg8
I01
sg15
(lp433
VrotatePivot.rotatePivotX
p434
ag314
ag307
assVghostCustomSteps
p435
(dp436
g13
I00
sg6
I00
sg4
VTdataCompound
p437
sg8
I00
sg15
(lp438
VghostCustomSteps.ghostPreSteps
p439
aVghostCustomSteps.ghostPostSteps
p440
aVghostCustomSteps.ghostStepSize
p441
assg192
(dp442
g13
I00
sg4
VdoubleLinear
p443
sg6
I00
sg7
I00
sg8
I01
sg15
(lp444
ssVinheritsTransform
p445
(dp446
g13
I00
sg4
Vbool
p447
sg6
I00
sg7
I00
sg8
I01
sg15
(lp448
ssg94
(dp449
g3
I00
sg4
Vdouble
p450
sg6
I00
sg7
I00
sg8
I01
sg9
(lp451
ssg95
(dp452
g3
I00
sg4
Vdouble
p453
sg6
I00
sg7
I00
sg8
I01
sg9
(lp454
ssg96
(dp455
g3
I00
sg4
Vdouble
p456
sg6
I00
sg7
I00
sg8
I01
sg9
(lp457
ssVworldMatrix
p458
(dp459
g13
I01
sg6
I01
sg8
I00
sg4
Vmatrix
p460
ssVmaxScaleLimitEnable.maxScaleXLimitEnable
p461
(dp462
g13
I00
sg4
Vbool
p463
sg6
I00
sg7
I00
sg8
I01
sg15
(lp464
ssVcontainerType
p465
(dp466
g13
I00
sg4
Vstring
p467
sg6
I00
sg7
I00
sg8
I01
sg15
(lp468
ssVminScaleLimit.minScaleZLimit
p469
(dp470
g13
I00
sg4
Vdouble
p471
sg6
I00
sg7
I00
sg8
I01
sg15
(lp472
ssVrotatePivotTranslate.rotatePivotTranslateZ
p473
(dp474
g13
I00
sg4
VdoubleLinear
p475
sg6
I00
sg7
I00
sg8
I01
sg15
(lp476
ssVscalePivot.scalePivotY
p477
(dp478
g13
I00
sg4
VdoubleLinear
p479
sg6
I00
sg7
I00
sg8
I01
sg15
(lp480
ssVscalePivot.scalePivotZ
p481
(dp482
g13
I00
sg4
VdoubleLinear
p483
sg6
I00
sg7
I00
sg8
I01
sg15
(lp484
ssVdofListDirtyFlag
p485
(dp486
g13
I00
sg4
Vbool
p487
sg6
I00
sg7
I00
sg8
I01
sg15
(lp488
ssVparentInverseMatrix
p489
(dp490
g13
I01
sg6
I01
sg8
I00
sg4
Vmatrix
p491
ssVrenderLayerInfo[1].renderLayerId
p492
(dp493
g13
I00
sg15
(lp494
ssVviewName
p495
(dp496
g13
I00
sg4
Vstring
p497
sg6
I00
sg7
I00
sg8
I01
sg15
(lp498
ssVpublishedNodeInfo.publishedNodeType
p499
(dp500
g34
VpublishedNodeInfo
p501
ssVparentInverseMatrix[1]
p502
(dp503
g13
I00
sg15
(lp504
ssVpublishedNodeInfo[1]
p505
(dp506
g13
I00
sg15
(lp507
VpublishedNodeInfo[1].publishedNode
p508
ag399
aVpublishedNodeInfo[1].publishedNodeType
p509
assVmaxTransLimit
p510
(dp511
g13
I00
sg4
Vdouble3
p512
sg6
I00
sg7
I01
sg8
I01
sg15
(lp513
VmaxTransLimit.maxTransXLimit
p514
aVmaxTransLimit.maxTransYLimit
p515
ag406
assg259
(dp516
g13
I00
sg4
VdoubleLinear
p517
sg6
I00
sg7
I00
sg8
I01
sg15
(lp518
ssVdisplayScalePivot
p519
(dp520
g13
I00
sg4
Vbool
p521
sg6
I00
sg7
I00
sg8
I01
sg15
(lp522
ssVinstObjGroups[0].objectGroups[1]
p523
(dp524
g13
I00
sg15
(lp525
VinstObjGroups[0].objectGroups[1].objectGrpCompList
p526
ag29
aVinstObjGroups[0].objectGroups[1].objectGrpColor
p527
assVminTransLimitEnable.minTransXLimitEnable
p528
(dp529
g13
I00
sg4
Vbool
p530
sg6
I00
sg7
I00
sg8
I01
sg15
(lp531
ssg260
(dp532
g13
I00
sg4
VdoubleLinear
p533
sg6
I00
sg7
I00
sg8
I01
sg15
(lp534
ssVrmbCommand
p535
(dp536
g13
I00
sg4
Vstring
p537
sg6
I00
sg7
I00
sg8
I01
sg15
(lp538
ssVowningHandleGroup
p539
(dp540
g13
I00
sg6
I00
sg4
Vvoid
p541
sg8
I00
sg15
(lp542
ssVmentalRayControls.miHide
p543
(dp544
g13
I00
sg4
Vbool
p545
sg6
I00
sg7
I00
sg8
I01
sg15
(lp546
ssg439
(dp547
g13
I00
sg4
Vlong
p548
sg6
I00
sg7
I00
sg8
I01
sg15
(lp549
ssg509
(dp550
g13
I00
sg15
(lp551
ssVpublishedNodeInfo[0]
p552
(dp553
g13
I00
sg15
(lp554
g388
aVpublishedNodeInfo[0].isHierarchicalNode
p555
aVpublishedNodeInfo[0].publishedNodeType
p556
assVdTwistRamp
p557
(dp558
g13
I00
sg6
I00
sg4
Vfloat3
p559
sg8
I00
sg15
(lp560
g146
aVdTwistRamp.dTwistRampG
p561
aVdTwistRamp.dTwistRampB
p562
assg508
(dp563
g13
I00
sg15
(lp564
ssVdrawOverride.overrideTexturing
p565
(dp566
g13
I00
sg4
Vbool
p567
sg6
I00
sg7
I00
sg8
I01
sg15
(lp568
ssVobjectColor
p569
(dp570
g13
I00
sg4
Vshort
p571
sg6
I00
sg7
I00
sg8
I01
sg15
(lp572
ssg418
(dp573
g3
I00
sg4
Vdouble
p574
sg6
I00
sg7
I00
sg8
I01
sg9
(lp575
ssg416
(dp576
g3
I00
sg4
Vdouble
p577
sg6
I00
sg7
I00
sg8
I01
sg9
(lp578
ssg417
(dp579
g3
I00
sg4
Vdouble
p580
sg6
I00
sg7
I00
sg8
I01
sg9
(lp581
ssg434
(dp582
g13
I00
sg4
VdoubleLinear
p583
sg6
I00
sg7
I00
sg8
I01
sg15
(lp584
ssVrenderInfo.layerRenderable
p585
(dp586
g34
VrenderInfo
p587
sg13
I00
sg4
Vbool
p588
sg6
I00
sg7
I00
sg8
I01
sg15
(lp589
ssVvisibility
p590
(dp591
g13
I00
sg4
Vbool
p592
sg6
I00
sg7
I00
sg8
I01
sg15
(lp593
ssVmentalRayControls.miGeoShader
p594
(dp595
g13
I00
sg6
I00
sg4
Nsg8
I00
sg15
(lp596
ssVghostRangeStart
p597
(dp598
g13
I00
sg4
Vtime
p599
sg6
I00
sg7
I00
sg8
I01
sg15
(lp600
ssg556
(dp601
g13
I00
sg15
(lp602
ssVisHierarchicalConnection
p603
(dp604
g13
I01
sg6
I01
sg8
I00
sg4
VTdataCompound
p605
ssVmentalRayControls.miTrace
p606
(dp607
g13
I00
sg4
Venum
p608
sg6
I00
sg7
I00
sg8
I01
sg15
(lp609
ssVinstObjGroups
p610
(dp611
g13
I01
sg6
I01
sg8
I00
sg4
VTdataCompound
p612
ssg515
(dp613
g13
I00
sg4
VdoubleLinear
p614
sg6
I00
sg7
I00
sg8
I01
sg15
(lp615
ssVdWorldUpVectorEnd
p616
(dp617
g3
I00
sg4
Vdouble3
p618
sg6
I00
sg7
I01
sg8
I01
sg9
(lp619
VdWorldUpVectorEnd.dWorldUpVectorEndX
p620
aVdWorldUpVectorEnd.dWorldUpVectorEndY
p621
aVdWorldUpVectorEnd.dWorldUpVectorEndZ
p622
assVdisplayHandle
p623
(dp624
g13
I00
sg4
Vbool
p625
sg6
I00
sg7
I00
sg8
I01
sg15
(lp626
ssVselectionChildHighlighting
p627
(dp628
g13
I00
sg4
Vbool
p629
sg6
I00
sg7
I00
sg8
I01
sg15
(lp630
ssVmaxTransLimitEnable
p631
(dp632
g13
I00
sg6
I00
sg4
VTdataCompound
p633
sg8
I00
sg15
(lp634
VmaxTransLimitEnable.maxTransXLimitEnable
p635
ag282
aVmaxTransLimitEnable.maxTransZLimitEnable
p636
assg336
(dp637
g3
I00
sg34
VdTwistStartEnd
p638
sg4
Vdouble
p639
sg6
I00
sg7
I00
sg8
I01
sg9
(lp640
ssVdWorldUpMatrix
p641
(dp642
g3
I00
sg6
I00
sg4
Vmatrix
p643
sg8
I00
sg9
(lp644
ssVoffset
p645
(dp646
g13
I00
sg4
Vdouble
p647
sg6
I00
sg7
I00
sg8
I01
sg15
(lp648
ssVpublishedNodeInfo.isHierarchicalNode
p649
(dp650
g34
VpublishedNodeInfo
p651
ssVskeletonDirtyFlag
p652
(dp653
g13
I00
sg4
Vbool
p654
sg6
I00
sg7
I00
sg8
I01
sg15
(lp655
ssVrotateQuaternion
p656
(dp657
g13
I00
sg6
I00
sg4
Vdouble4
p658
sg8
I00
sg15
(lp659
g210
aVrotateQuaternion.rotateQuaternionY
p660
ag204
ag142
assVdrawOverride.overrideVisibility
p661
(dp662
g13
I00
sg4
Vbool
p663
sg6
I00
sg7
I00
sg8
I01
sg15
(lp664
ssg562
(dp665
g13
I00
sg4
Vfloat
p666
sg6
I00
sg7
I00
sg8
I01
sg15
(lp667
ssVghostColorPre.ghostColorPreR
p668
(dp669
g13
I00
sg4
Vfloat
p670
sg6
I00
sg7
I00
sg8
I01
sg15
(lp671
ssVshear.shearYZ
p672
(dp673
g13
I00
sg4
Vdouble
p674
sg6
I00
sg7
I00
sg8
I01
sg15
(lp675
ssVghosting
p676
(dp677
g13
I00
sg4
Vbool
p678
sg6
I00
sg7
I00
sg8
I01
sg15
(lp679
ssVdisplayLocalAxis
p680
(dp681
g13
I00
sg4
Vbool
p682
sg6
I00
sg7
I00
sg8
I01
sg15
(lp683
ssg561
(dp684
g13
I00
sg4
Vfloat
p685
sg6
I00
sg7
I00
sg8
I01
sg15
(lp686
ssg129
(dp687
g13
I00
sg4
VdoubleLinear
p688
sg6
I00
sg7
I00
sg8
I01
sg15
(lp689
ssg130
(dp690
g13
I00
sg4
VdoubleLinear
p691
sg6
I00
sg7
I00
sg8
I01
sg15
(lp692
ssVisHistoricallyInteresting
p693
(dp694
g13
I00
sg6
I00
sg4
Vbyte
p695
sg8
I00
sg15
(lp696
ssVrotationInterpolation
p697
(dp698
g13
I00
sg4
Venum
p699
sg6
I00
sg7
I00
sg8
I01
sg15
(lp700
ssVminScaleLimit.minScaleYLimit
p701
(dp702
g13
I00
sg4
Vdouble
p703
sg6
I00
sg7
I00
sg8
I01
sg15
(lp704
ssg280
(dp705
g13
I00
sg4
VdoubleAngle
p706
sg6
I00
sg7
I00
sg8
I01
sg15
(lp707
ssVmaxRotLimit
p708
(dp709
g13
I00
sg4
Vdouble3
p710
sg6
I00
sg7
I01
sg8
I01
sg15
(lp711
VmaxRotLimit.maxRotXLimit
p712
ag121
aVmaxRotLimit.maxRotZLimit
p713
assVpriority
p714
(dp715
g13
I00
sg4
Vlong
p716
sg6
I00
sg7
I00
sg8
I01
sg15
(lp717
ssVxformMatrix
p718
(dp719
g13
I00
sg6
I00
sg4
Vmatrix
p720
sg8
I00
sg15
(lp721
ssVpoWeight
p722
(dp723
g13
I00
sg4
Vdouble
p724
sg6
I00
sg7
I00
sg8
I01
sg15
(lp725
ssVinstObjGroups[1]
p726
(dp727
g13
I00
sg15
(lp728
g410
assVminRotLimitEnable.minRotXLimitEnable
p729
(dp730
g13
I00
sg4
Vbool
p731
sg6
I00
sg7
I00
sg8
I01
sg15
(lp732
ssVtranslate
p733
(dp734
g3
I00
sg4
Vdouble3
p735
sg6
I00
sg7
I01
sg8
I01
sg9
(lp736
g17
ag21
ag1
assVinstObjGroups.objectGroups
p737
(dp738
g34
VinstObjGroups
p739
ssVdrawOverride
p740
(dp741
g13
I00
sg6
I00
sg4
VTdataCompound
p742
sg8
I00
sg15
(lp743
VdrawOverride.overrideDisplayType
p744
ag48
aVdrawOverride.overrideShading
p745
ag565
aVdrawOverride.overridePlayback
p746
ag303
ag661
ag74
assVshear.shearXZ
p747
(dp748
g13
I00
sg4
Vdouble
p749
sg6
I00
sg7
I00
sg8
I01
sg15
(lp750
ssVshear.shearXY
p751
(dp752
g13
I00
sg4
Vdouble
p753
sg6
I00
sg7
I00
sg8
I01
sg15
(lp754
ssVparentMatrix[1]
p755
(dp756
g13
I00
sg15
(lp757
ssVinstObjGroups.objectGroups.objectGroupId
p758
(dp759
g34
VinstObjGroups.objectGroups
p760
ssg118
(dp761
g13
I00
sg4
VdoubleLinear
p762
sg6
I00
sg7
I00
sg8
I01
sg15
(lp763
ssVikBlend
p764
(dp765
g13
I00
sg4
Vdouble
p766
sg6
I00
sg7
I00
sg8
I01
sg15
(lp767
ssVmaxRotLimitEnable
p768
(dp769
g13
I00
sg6
I00
sg4
VTdataCompound
p770
sg8
I00
sg15
(lp771
g222
aVmaxRotLimitEnable.maxRotYLimitEnable
p772
ag110
assVpublishedNodeInfo
p773
(dp774
g13
I01
sg6
I01
sg8
I00
sg4
VTdataCompound
p775
ssg440
(dp776
g13
I00
sg4
Vlong
p777
sg6
I00
sg7
I00
sg8
I01
sg15
(lp778
ssg712
(dp779
g13
I00
sg4
VdoubleAngle
p780
sg6
I00
sg7
I00
sg8
I01
sg15
(lp781
ssg174
(dp782
g13
I00
sg4
Vdouble
p783
sg6
I00
sg7
I00
sg8
I01
sg15
(lp784
ssVghostColorPre
p785
(dp786
g13
I00
sg6
I00
sg4
Vfloat3
p787
sg8
I00
sg15
(lp788
g668
ag377
ag384
assVobjectColorRGB.objectColorG
p789
(dp790
g34
VobjectColorRGB
p791
sg13
I00
sg4
Vfloat
p792
sg6
I00
sg7
I00
sg8
I01
sg15
(lp793
ssg261
(dp794
g13
I00
sg4
VdoubleLinear
p795
sg6
I00
sg7
I00
sg8
I01
sg15
(lp796
ssVisCollapsed
p797
(dp798
g13
I00
sg4
Vbool
p799
sg6
I00
sg7
I00
sg8
I01
sg15
(lp800
ssg526
(dp801
g13
I00
sg15
(lp802
ssViconName
p803
(dp804
g13
I00
sg4
Vstring
p805
sg6
I00
sg7
I00
sg8
I01
sg15
(lp806
ssVminScaleLimitEnable.minScaleYLimitEnable
p807
(dp808
g13
I00
sg4
Vbool
p809
sg6
I00
sg7
I00
sg8
I01
sg15
(lp810
ssVboundingBox.boundingBoxSize
p811
(dp812
g34
VboundingBox
p813
ssVcheckSnappingFlag
p814
(dp815
g13
I00
sg4
Vbool
p816
sg6
I00
sg7
I00
sg8
I01
sg15
(lp817
ssVgeometry
p818
(dp819
g13
I00
sg6
I00
sg4
Nsg8
I00
sg15
(lp820
ssVtemplateName
p821
(dp822
g13
I00
sg4
Vstring
p823
sg6
I00
sg7
I00
sg8
I01
sg15
(lp824
ssVobjectColorRGB.objectColorR
p825
(dp826
g34
VobjectColorRGB
p827
sg13
I00
sg4
Vfloat
p828
sg6
I00
sg7
I00
sg8
I01
sg15
(lp829
ssVshear
p830
(dp831
g13
I00
sg4
Vdouble3
p832
sg6
I00
sg7
I01
sg8
I01
sg15
(lp833
g751
ag747
ag672
assg83
(dp834
g13
I00
sg15
(lp835
ssVdisplayRotatePivot
p836
(dp837
g13
I00
sg4
Vbool
p838
sg6
I00
sg7
I00
sg8
I01
sg15
(lp839
ssVminScaleLimitEnable.minScaleZLimitEnable
p840
(dp841
g13
I00
sg4
Vbool
p842
sg6
I00
sg7
I00
sg8
I01
sg15
(lp843
ssg635
(dp844
g13
I00
sg4
Vbool
p845
sg6
I00
sg7
I00
sg8
I01
sg15
(lp846
ssVinstObjGroups[0]
p847
(dp848
g13
I00
sg15
(lp849
VinstObjGroups[0].objectGroups
p850
assg172
(dp851
g13
I00
sg4
Vdouble
p852
sg6
I00
sg7
I00
sg8
I01
sg15
(lp853
ssVstickiness
p854
(dp855
g13
I00
sg4
Venum
p856
sg6
I00
sg7
I00
sg8
I01
sg15
(lp857
ssVmaxScaleLimitEnable.maxScaleZLimitEnable
p858
(dp859
g13
I00
sg4
Vbool
p860
sg6
I00
sg7
I00
sg8
I01
sg15
(lp861
ssVboundingBox.boundingBoxMin.boundingBoxMinY
p862
(dp863
g34
VboundingBox.boundingBoxMin
p864
ssVscalePivot
p865
(dp866
g13
I00
sg4
Vdouble3
p867
sg6
I00
sg7
I01
sg8
I01
sg15
(lp868
g322
ag477
ag481
assVsplineIkOldStyle
p869
(dp870
g13
I00
sg4
Vbool
p871
sg6
I00
sg7
I00
sg8
I01
sg15
(lp872
ssVspecifiedManipLocation
p873
(dp874
g13
I00
sg6
I00
sg4
Nsg8
I00
sg15
(lp875
ssVmentalRayControls.miCaustic
p876
(dp877
g13
I00
sg4
Venum
p878
sg6
I00
sg7
I00
sg8
I01
sg15
(lp879
ssVrotateAxis
p880
(dp881
g13
I00
sg4
Vdouble3
p882
sg6
I00
sg7
I01
sg8
I01
sg15
(lp883
g345
ag349
ag353
assg850
(dp884
g13
I01
ssVinCurve
p885
(dp886
g13
I00
sg6
I00
sg4
Nsg8
I00
sg15
(lp887
ssVmentalRayControls
p888
(dp889
g13
I00
sg6
I00
sg4
VTdataCompound
p890
sg8
I00
sg15
(lp891
g243
ag543
ag40
ag606
aVmentalRayControls.miShadow
p892
ag876
aVmentalRayControls.miGlobillum
p893
aVmentalRayControls.miExportGeoShader
p894
ag594
aVmentalRayControls.miProxyRenderable
p895
assVrenderInfo
p896
(dp897
g13
I00
sg6
I00
sg4
VTdataCompound
p898
sg8
I00
sg15
(lp899
VrenderInfo.identification
p900
aVrenderInfo.layerRenderable
p901
aVrenderInfo.layerOverrideColor
p902
assVtwist
p903
(dp904
g13
I00
sg4
VdoubleAngle
p905
sg6
I00
sg7
I00
sg8
I01
sg15
(lp906
ssVviewMode
p907
(dp908
g13
I00
sg4
Venum
p909
sg6
I00
sg7
I00
sg8
I01
sg15
(lp910
ssVworldInverseMatrix[0]
p911
(dp912
g13
I00
sg15
(lp913
ssVdWorldUpType
p914
(dp915
g3
I00
sg4
Venum
p916
sg6
I00
sg7
I00
sg8
I01
sg9
(lp917
ssVboundingBox.boundingBoxMax.boundingBoxMaxY
p918
(dp919
g34
VboundingBox.boundingBoxMax
p920
ssVboundingBox.boundingBoxMax.boundingBoxMaxX
p921
(dp922
g34
VboundingBox.boundingBoxMax
p923
ssg555
(dp924
g13
I00
sg15
(lp925
ssVboundingBox.boundingBoxMax.boundingBoxMaxZ
p926
(dp927
g34
VboundingBox.boundingBoxMax
p928
ssg772
(dp929
g13
I00
sg4
Vbool
p930
sg6
I00
sg7
I00
sg8
I01
sg15
(lp931
ssVminScaleLimit
p932
(dp933
g13
I00
sg4
Vdouble3
p934
sg6
I00
sg7
I01
sg8
I01
sg15
(lp935
g239
ag701
ag469
assVmaxScaleLimitEnable
p936
(dp937
g13
I00
sg6
I00
sg4
VTdataCompound
p938
sg8
I00
sg15
(lp939
g461
ag299
ag858
assVtemplate
p940
(dp941
g13
I00
sg4
Vbool
p942
sg6
I00
sg7
I00
sg8
I01
sg15
(lp943
ssVboundingBox.boundingBoxSize.boundingBoxSizeY
p944
(dp945
g34
VboundingBox.boundingBoxSize
p946
ssVboundingBox.boundingBoxSize.boundingBoxSizeX
p947
(dp948
g34
VboundingBox.boundingBoxSize
p949
ssg894
(dp950
g13
I00
sg4
Vbool
p951
sg6
I00
sg7
I00
sg8
I01
sg15
(lp952
ssVboundingBox.boundingBoxSize.boundingBoxSizeZ
p953
(dp954
g34
VboundingBox.boundingBoxSize
p955
ssVblackBox
p956
(dp957
g13
I00
sg4
Vbool
p958
sg6
I00
sg7
I00
sg8
I01
sg15
(lp959
ssg892
(dp960
g13
I00
sg4
Venum
p961
sg6
I00
sg7
I00
sg8
I01
sg15
(lp962
ssVghostingControl
p963
(dp964
g13
I00
sg4
Venum
p965
sg6
I00
sg7
I00
sg8
I01
sg15
(lp966
ssVrootTwistMode
p967
(dp968
g13
I00
sg4
Vbool
p969
sg6
I00
sg7
I00
sg8
I01
sg15
(lp970
ssVworldInverseMatrix
p971
(dp972
g13
I01
sg6
I01
sg8
I00
sg4
Vmatrix
p973
ssVrotatePivotTranslate
p974
(dp975
g13
I00
sg4
Vdouble3
p976
sg6
I00
sg7
I01
sg8
I01
sg15
(lp977
g247
ag251
ag473
assVisHierarchicalConnection[0]
p978
(dp979
g13
I00
sg15
(lp980
ssVshowManipDefault
p981
(dp982
g13
I00
sg4
Venum
p983
sg6
I00
sg7
I00
sg8
I01
sg15
(lp984
ssVminScaleLimitEnable
p985
(dp986
g13
I00
sg6
I00
sg4
VTdataCompound
p987
sg8
I00
sg15
(lp988
VminScaleLimitEnable.minScaleXLimitEnable
p989
ag807
ag840
assg713
(dp990
g13
I00
sg4
VdoubleAngle
p991
sg6
I00
sg7
I00
sg8
I01
sg15
(lp992
ssg514
(dp993
g13
I00
sg4
VdoubleLinear
p994
sg6
I00
sg7
I00
sg8
I01
sg15
(lp995
ssVroll
p996
(dp997
g13
I00
sg4
VdoubleAngle
p998
sg6
I00
sg7
I00
sg8
I01
sg15
(lp999
ssg744
(dp1000
g13
I00
sg4
Venum
p1001
sg6
I00
sg7
I00
sg8
I01
sg15
(lp1002
ssVdTwistRampMult
p1003
(dp1004
g13
I00
sg4
Vdouble
p1005
sg6
I00
sg7
I00
sg8
I01
sg15
(lp1006
ssVnodeState
p1007
(dp1008
g13
I00
sg4
Venum
p1009
sg6
I00
sg7
I00
sg8
I01
sg15
(lp1010
ssg173
(dp1011
g13
I00
sg4
Vdouble
p1012
sg6
I00
sg7
I00
sg8
I01
sg15
(lp1013
ssVrenderInfo.identification
p1014
(dp1015
g34
VrenderInfo
p1016
sg13
I00
sg4
Vshort
p1017
sg6
I00
sg7
I00
sg8
I01
sg15
(lp1018
ssVghostColorPreA
p1019
(dp1020
g13
I00
sg4
Vfloat
p1021
sg6
I00
sg7
I00
sg8
I01
sg15
(lp1022
ssVrootOnCurve
p1023
(dp1024
g13
I00
sg4
Vbool
p1025
sg6
I00
sg7
I00
sg8
I01
sg15
(lp1026
ssVrenderLayerInfo[1]
p1027
(dp1028
g13
I00
sg15
(lp1029
g492
aVrenderLayerInfo[1].renderLayerRenderable
p1030
ag132
assg441
(dp1031
g13
I00
sg4
Vlong
p1032
sg6
I00
sg7
I00
sg8
I01
sg15
(lp1033
ssg746
(dp1034
g13
I00
sg4
Vbool
p1035
sg6
I00
sg7
I00
sg8
I01
sg15
(lp1036
ssVminRotLimitEnable
p1037
(dp1038
g13
I00
sg6
I00
sg4
VTdataCompound
p1039
sg8
I00
sg15
(lp1040
g729
ag184
ag100
assVinstObjGroups.objectGroups.objectGrpColor
p1041
(dp1042
g34
VinstObjGroups.objectGroups
p1043
ssVrenderLayerInfo
p1044
(dp1045
g13
I01
sg6
I01
sg8
I00
sg4
VTdataCompound
p1046
ssVlodVisibility
p1047
(dp1048
g13
I00
sg4
Vbool
p1049
sg6
I00
sg7
I00
sg8
I01
sg15
(lp1050
ssg88
(dp1051
g13
I00
sg4
Vdouble
p1052
sg6
I00
sg7
I00
sg8
I01
sg15
(lp1053
ssg364
(dp1054
g13
I00
sg15
(lp1055
ssg622
(dp1056
g3
I00
sg4
Vdouble
p1057
sg6
I00
sg7
I00
sg8
I01
sg9
(lp1058
ssg620
(dp1059
g3
I00
sg4
Vdouble
p1060
sg6
I00
sg7
I00
sg8
I01
sg9
(lp1061
ssg621
(dp1062
g3
I00
sg4
Vdouble
p1063
sg6
I00
sg7
I00
sg8
I01
sg9
(lp1064
ssg120
(dp1065
g13
I00
sg4
VdoubleLinear
p1066
sg6
I00
sg7
I00
sg8
I01
sg15
(lp1067
ssg660
(dp1068
g13
I00
sg4
Vdouble
p1069
sg6
I00
sg7
I00
sg8
I01
sg15
(lp1070
ssg61
(dp1071
g13
I00
sg4
Vfloat
p1072
sg6
I00
sg7
I00
sg8
I01
sg15
(lp1073
ssg119
(dp1074
g13
I00
sg4
VdoubleLinear
p1075
sg6
I00
sg7
I00
sg8
I01
sg15
(lp1076
ssVuiTreatment
p1077
(dp1078
g13
I00
sg4
Venum
p1079
sg6
I00
sg7
I00
sg8
I01
sg15
(lp1080
ssg745
(dp1081
g13
I00
sg4
Vbool
p1082
sg6
I00
sg7
I00
sg8
I01
sg15
(lp1083
ssg60
(dp1084
g13
I00
sg4
Vfloat
p1085
sg6
I00
sg7
I00
sg8
I01
sg15
(lp1086
ssg895
(dp1087
g13
I00
sg4
Vbool
p1088
sg6
I00
sg7
I00
sg8
I01
sg15
(lp1089
ssVghostFrames
p1090
(dp1091
g13
I00
sg6
I00
sg4
Nsg8
I00
sg15
(lp1092
ssVdWorldUpMatrixEnd
p1093
(dp1094
g3
I00
sg6
I00
sg4
Vmatrix
p1095
sg8
I00
sg9
(lp1096
ssVrenderLayerInfo.renderLayerColor
p1097
(dp1098
g34
VrenderLayerInfo
p1099
ssg989
(dp1100
g13
I00
sg4
Vbool
p1101
sg6
I00
sg7
I00
sg8
I01
sg15
(lp1102
ssg527
(dp1103
g13
I00
sg15
(lp1104
ssVdWorldUpAxis
p1105
(dp1106
g3
I00
sg4
Venum
p1107
sg6
I00
sg7
I00
sg8
I01
sg9
(lp1108
ssVminTransLimitEnable
p1109
(dp1110
g13
I00
sg6
I00
sg4
VTdataCompound
p1111
sg8
I00
sg15
(lp1112
g528
ag70
ag226
assg59
(dp1113
g13
I00
sg4
Vfloat
p1114
sg6
I00
sg7
I00
sg8
I01
sg15
(lp1115
ssVparentInverseMatrix[2]
p1116
(dp1117
g13
I00
sg15
(lp1118
ssg268
(dp1119
g3
I00
sg4
VdoubleAngle
p1120
sg6
I00
sg7
I00
sg8
I01
sg9
(lp1121
ssg365
(dp1122
g13
I00
sg15
(lp1123
ssg266
(dp1124
g3
I00
sg4
VdoubleAngle
p1125
sg6
I00
sg7
I00
sg8
I01
sg9
(lp1126
ssg267
(dp1127
g3
I00
sg4
VdoubleAngle
p1128
sg6
I00
sg7
I00
sg8
I01
sg9
(lp1129
ssVcaching
p1130
(dp1131
g13
I00
sg4
Vbool
p1132
sg6
I00
sg7
I00
sg8
I01
sg15
(lp1133
ssg636
(dp1134
g13
I00
sg4
Vbool
p1135
sg6
I00
sg7
I00
sg8
I01
sg15
(lp1136
ssVinverseMatrix
p1137
(dp1138
g13
I00
sg6
I00
sg4
Vmatrix
p1139
sg8
I00
sg15
(lp1140
ssg893
(dp1141
g13
I00
sg4
Venum
p1142
sg6
I00
sg7
I00
sg8
I01
sg15
(lp1143
ssVcenter.boundingBoxCenterZ
p1144
(dp1145
g34
Vcenter
p1146
ssg1030
(dp1147
g13
I00
sg15
(lp1148
ssVcenter.boundingBoxCenterX
p1149
(dp1150
g34
Vcenter
p1151
ssVcenter.boundingBoxCenterY
p1152
(dp1153
g34
Vcenter
p1154
ss.