(dp0
VrotateOrder
p1
(dp2
S'isArray'
p3
I00
sS'attrType'
p4
Venum
p5
sS'attrChildrenNames'
p6
(lp7
sS'isMulti'
p8
I00
sS'isCompound'
p9
I00
sS'isSimple'
p10
I01
sS'attrShortName'
p11
Vro
p12
sS'attrChildrenLongNames'
p13
(lp14
sS'isElement'
p15
I00
ssVselectHandle.selectHandleY
p16
(dp17
S'isArray'
p18
I00
sS'attrParentLongName'
p19
VselectHandle
p20
sS'attrChildrenNames'
p21
(lp22
sS'attrType'
p23
VdoubleLinear
p24
sS'isMulti'
p25
I00
sS'isCompound'
p26
I00
sS'isSimple'
p27
I01
sS'attrChildrenLongNames'
p28
(lp29
sS'isElement'
p30
I00
ssVminTransLimitEnable.minTransYLimitEnable
p31
(dp32
S'isArray'
p33
I00
sS'attrType'
p34
Vbool
p35
sS'isMulti'
p36
I00
sS'isCompound'
p37
I00
sS'isSimple'
p38
I01
sS'attrChildrenLongNames'
p39
(lp40
ssVrenderLayerInfo.renderLayerRenderable
p41
(dp42
S'attrParentLongName'
p43
VrenderLayerInfo
p44
ssVbindRotation
p45
(dp46
g33
I00
sg34
Vdouble3
p47
sg36
I00
sg37
I01
sg38
I01
sg39
(lp48
VbindRotation.bindRotationX
p49
aVbindRotation.bindRotationY
p50
aVbindRotation.bindRotationZ
p51
assVmaxRotateDampStrength
p52
(dp53
S'isArray'
p54
I00
sg23
Vdouble3
p55
sS'attrChildrenNames'
p56
(lp57
VmaxRotateDampStrength.maxRotateDampStrengthX
p58
aVmaxRotateDampStrength.maxRotateDampStrengthY
p59
aVmaxRotateDampStrength.maxRotateDampStrengthZ
p60
asS'isMulti'
p61
I00
sS'isCompound'
p62
I01
sg27
I01
sg28
(lp63
VmaxRotateDampStrength.maxRotateDampStrengthX
p64
aVmaxRotateDampStrength.maxRotateDampStrengthY
p65
aVmaxRotateDampStrength.maxRotateDampStrengthZ
p66
asS'isElement'
p67
I00
ssVboundingBox.boundingBoxMin.boundingBoxMinY
p68
(dp69
S'isArray'
p70
I00
sS'attrParentLongName'
p71
VboundingBox.boundingBoxMin
p72
sS'attrChildrenNames'
p73
(lp74
sg23
VdoubleLinear
p75
sS'isMulti'
p76
I00
sS'isCompound'
p77
I00
sg27
I01
sg28
(lp78
sS'isElement'
p79
I00
ssVboundingBox.boundingBoxMin.boundingBoxMinX
p80
(dp81
S'isArray'
p82
I00
sS'attrParentLongName'
p83
VboundingBox.boundingBoxMin
p84
sS'attrChildrenNames'
p85
(lp86
sg23
VdoubleLinear
p87
sS'isMulti'
p88
I00
sS'isCompound'
p89
I00
sg27
I01
sg28
(lp90
sS'isElement'
p91
I00
ssVboundingBox.boundingBoxMin.boundingBoxMinZ
p92
(dp93
S'isArray'
p94
I00
sS'attrParentLongName'
p95
VboundingBox.boundingBoxMin
p96
sS'attrChildrenNames'
p97
(lp98
sg23
VdoubleLinear
p99
sS'isMulti'
p100
I00
sS'isCompound'
p101
I00
sg27
I01
sg28
(lp102
sS'isElement'
p103
I00
ssVminRotLimitEnable.minRotYLimitEnable
p104
(dp105
g33
I00
sg34
Vbool
p106
sg36
I00
sg37
I00
sg38
I01
sg39
(lp107
ssVselectHandle
p108
(dp109
S'isArray'
p110
I00
sg23
Vdouble3
p111
sS'attrChildrenNames'
p112
(lp113
VselectHandle.selectHandleX
p114
aVselectHandle.selectHandleY
p115
aVselectHandle.selectHandleZ
p116
asS'isMulti'
p117
I00
sS'isCompound'
p118
I01
sg27
I01
sg28
(lp119
VselectHandle.selectHandleX
p120
aVselectHandle.selectHandleY
p121
aVselectHandle.selectHandleZ
p122
asS'isElement'
p123
I00
ssVbindJointOrient
p124
(dp125
g33
I00
sg34
Vdouble3
p126
sg36
I00
sg37
I01
sg38
I01
sg39
(lp127
VbindJointOrient.bindJointOrientX
p128
aVbindJointOrient.bindJointOrientY
p129
aVbindJointOrient.bindJointOrientZ
p130
assVrotateQuaternion.rotateQuaternionZ
p131
(dp132
S'isArray'
p133
I00
sS'attrParentLongName'
p134
VrotateQuaternion
p135
sS'attrChildrenNames'
p136
(lp137
sg23
Vdouble
p138
sS'isMulti'
p139
I00
sS'isCompound'
p140
I00
sg27
I01
sg28
(lp141
sS'isElement'
p142
I00
ssVrenderLayerInfo[0].renderLayerId
p143
(dp144
S'isArray'
p145
I00
sS'attrParentLongName'
p146
VrenderLayerInfo[0]
p147
sS'attrChildrenNames'
p148
(lp149
sg38
I00
sg28
(lp150
sS'isElement'
p151
I00
ssVrotateQuaternion.rotateQuaternionX
p152
(dp153
S'isArray'
p154
I00
sS'attrParentLongName'
p155
VrotateQuaternion
p156
sS'attrChildrenNames'
p157
(lp158
sg23
Vdouble
p159
sS'isMulti'
p160
I00
sS'isCompound'
p161
I00
sg27
I01
sg28
(lp162
sS'isElement'
p163
I00
ssVrotateQuaternion.rotateQuaternionY
p164
(dp165
S'isArray'
p166
I00
sS'attrParentLongName'
p167
VrotateQuaternion
p168
sS'attrChildrenNames'
p169
(lp170
sg23
Vdouble
p171
sS'isMulti'
p172
I00
sS'isCompound'
p173
I00
sg27
I01
sg28
(lp174
sS'isElement'
p175
I00
ssVminScaleLimit.minScaleXLimit
p176
(dp177
g33
I00
sg34
Vdouble
p178
sg36
I00
sg37
I00
sg38
I01
sg39
(lp179
ssVrotateQuaternion.rotateQuaternionW
p180
(dp181
S'isArray'
p182
I00
sS'attrParentLongName'
p183
VrotateQuaternion
p184
sS'attrChildrenNames'
p185
(lp186
sg23
Vdouble
p187
sS'isMulti'
p188
I00
sS'isCompound'
p189
I00
sg27
I01
sg28
(lp190
sS'isElement'
p191
I00
ssg128
(dp192
g33
I00
sg34
VdoubleAngle
p193
sg36
I00
sg37
I00
sg38
I01
sg39
(lp194
ssVtemplatePath
p195
(dp196
S'isArray'
p197
I00
sg23
Vstring
p198
sS'attrChildrenNames'
p199
(lp200
sS'isMulti'
p201
I00
sS'isCompound'
p202
I00
sg27
I01
sg28
(lp203
sS'isElement'
p204
I00
ssVminTransLimit
p205
(dp206
g33
I00
sg34
Vdouble3
p207
sg36
I00
sg37
I01
sg38
I01
sg39
(lp208
VminTransLimit.minTransXLimit
p209
aVminTransLimit.minTransYLimit
p210
aVminTransLimit.minTransZLimit
p211
assVminRotLimit
p212
(dp213
g33
I00
sg34
Vdouble3
p214
sg36
I00
sg37
I01
sg38
I01
sg39
(lp215
VminRotLimit.minRotXLimit
p216
aVminRotLimit.minRotYLimit
p217
aVminRotLimit.minRotZLimit
p218
assVmaxTransLimitEnable.maxTransYLimitEnable
p219
(dp220
g33
I00
sg34
Vbool
p221
sg36
I00
sg37
I00
sg38
I01
sg39
(lp222
ssVmaxScaleLimitEnable.maxScaleYLimitEnable
p223
(dp224
g33
I00
sg34
Vbool
p225
sg36
I00
sg37
I00
sg38
I01
sg39
(lp226
ssVparentMatrix[0]
p227
(dp228
S'isArray'
p229
I00
sS'attrType'
p230
Vmatrix
p231
sS'attrParentLongName'
p232
VparentMatrix
p233
sS'attrChildrenNames'
p234
(lp235
sS'isMulti'
p236
I00
sS'isSimple'
p237
I00
sg11
Vpm[0]
p238
sg13
(lp239
ssVinstObjGroups[0].objectGroups[0]
p240
(dp241
S'isArray'
p242
I00
sS'attrChildrenNames'
p243
(lp244
VinstObjGroups[0].objectGroups[0].objectGrpCompList
p245
aVinstObjGroups[0].objectGroups[0].objectGroupId
p246
aVinstObjGroups[0].objectGroups[0].objectGrpColor
p247
asg38
I00
sg28
(lp248
VinstObjGroups[0].objectGroups[0].objectGrpCompList
p249
aVinstObjGroups[0].objectGroups[0].objectGroupId
p250
aVinstObjGroups[0].objectGroups[0].objectGrpColor
p251
assVdynamics
p252
(dp253
S'isArray'
p254
I00
sg23
Vbool
p255
sS'attrChildrenNames'
p256
(lp257
sS'isMulti'
p258
I00
sS'isCompound'
p259
I00
sg27
I01
sg28
(lp260
sS'isElement'
p261
I00
ssVmaxTransLimit.maxTransZLimit
p262
(dp263
g33
I00
sg34
VdoubleLinear
p264
sg36
I00
sg37
I00
sg38
I01
sg39
(lp265
ssVrotatePivot
p266
(dp267
S'isArray'
p268
I00
sg23
Vdouble3
p269
sS'attrChildrenNames'
p270
(lp271
VrotatePivot.rotatePivotX
p272
aVrotatePivot.rotatePivotY
p273
aVrotatePivot.rotatePivotZ
p274
asS'isMulti'
p275
I00
sS'isCompound'
p276
I01
sg27
I01
sg28
(lp277
VrotatePivot.rotatePivotX
p278
aVrotatePivot.rotatePivotY
p279
aVrotatePivot.rotatePivotZ
p280
asS'isElement'
p281
I00
ssVtemplate
p282
(dp283
S'isArray'
p284
I00
sg23
Vbool
p285
sS'attrChildrenNames'
p286
(lp287
sS'isMulti'
p288
I00
sS'isCompound'
p289
I00
sg27
I01
sg28
(lp290
sS'isElement'
p291
I00
ssVparentInverseMatrix[1]
p292
(dp293
g229
I00
sg11
Vpim[1]
p294
sg234
(lp295
sS'isSimple'
p296
I00
sg13
(lp297
ssg209
(dp298
g33
I00
sg34
VdoubleLinear
p299
sg36
I00
sg37
I00
sg38
I01
sg39
(lp300
ssVdisplayScalePivot
p301
(dp302
S'isArray'
p303
I00
sg23
Vbool
p304
sS'attrChildrenNames'
p305
(lp306
sS'isMulti'
p307
I00
sS'isCompound'
p308
I00
sg27
I01
sg28
(lp309
sS'isElement'
p310
I00
ssVmentalRayControls.miHide
p311
(dp312
S'isArray'
p313
I00
sS'attrParentLongName'
p314
VmentalRayControls
p315
sS'attrChildrenNames'
p316
(lp317
sg23
Vbool
p318
sS'isMulti'
p319
I00
sS'isCompound'
p320
I00
sg27
I01
sg28
(lp321
sS'isElement'
p322
I00
ssVinstObjGroups.objectGroups
p323
(dp324
g43
VinstObjGroups
p325
ssVpublishedNodeInfo
p326
(dp327
S'isArray'
p328
I01
sS'isElement'
p329
I00
sS'isMulti'
p330
I01
sg27
I00
sg23
VTdataCompound
p331
ssVdrawOverride.overrideTexturing
p332
(dp333
S'isArray'
p334
I00
sS'attrParentLongName'
p335
VdrawOverride
p336
sS'attrChildrenNames'
p337
(lp338
sg23
Vbool
p339
sS'isMulti'
p340
I00
sS'isCompound'
p341
I00
sg27
I01
sg28
(lp342
sS'isElement'
p343
I00
ssVstiffness
p344
(dp345
S'isArray'
p346
I00
sg23
Vdouble3
p347
sS'attrChildrenNames'
p348
(lp349
Vstiffness.stiffnessX
p350
aVstiffness.stiffnessY
p351
aVstiffness.stiffnessZ
p352
asS'isMulti'
p353
I00
sS'isCompound'
p354
I01
sg27
I01
sg28
(lp355
Vstiffness.stiffnessX
p356
aVstiffness.stiffnessY
p357
aVstiffness.stiffnessZ
p358
asS'isElement'
p359
I00
ssVmaxScaleLimitEnable.maxScaleZLimitEnable
p360
(dp361
g33
I00
sg34
Vbool
p362
sg36
I00
sg34
Vbool
p362
sg36
I00
sg37
I00
sg38
I01
sg39
(lp363
ssVdisplayHandle
p364
(dp365
S'isArray'
p366
I00
sg23
Vbool
p367
sS'attrChildrenNames'
p368
(lp369
sS'isMulti'
p370
I00
sS'isCompound'
p371
I00
sg27
I01
sg28
(lp372
sS'isElement'
p373
I00
ssVselectionChildHighlighting
p374
(dp375
S'isArray'
p376
I00
sS'attrType'
p377
Vbool
p378
sS'isMulti'
p379
I00
sS'isCompound'
p380
I00
sS'isSimple'
p381
I01
sS'attrChildrenLongNames'
p382
(lp383
ssVminRotLimitEnable.minRotXLimitEnable
p384
(dp385
g33
I00
sg34
Vbool
p386
sg36
I00
sg37
I00
sg38
I01
sg39
(lp387
ssVstiffness.stiffnessZ
p388
(dp389
S'isArray'
p390
I00
sS'attrParentLongName'
p391
Vstiffness
p392
sS'attrChildrenNames'
p393
(lp394
sg23
Vdouble
p395
sS'isMulti'
p396
I00
sS'isCompound'
p397
I00
sg27
I01
sg28
(lp398
sS'isElement'
p399
I00
ssVinverseScale.inverseScaleY
p400
(dp401
S'isArray'
p402
I00
sS'attrType'
p403
Vdouble
p404
sS'isMulti'
p405
I00
sS'isCompound'
p406
I00
sS'isSimple'
p407
I01
sg11
Visy
p408
sg13
(lp409
ssVstiffness.stiffnessX
p410
(dp411
S'isArray'
p412
I00
sS'attrParentLongName'
p413
Vstiffness
p414
sS'attrChildrenNames'
p415
(lp416
sg23
Vdouble
p417
sS'isMulti'
p418
I00
sS'isCompound'
p419
I00
sg27
I01
sg28
(lp420
sS'isElement'
p421
I00
ssVstiffness.stiffnessY
p422
(dp423
S'isArray'
p424
I00
sS'attrParentLongName'
p425
Vstiffness
p426
sS'attrChildrenNames'
p427
(lp428
sg23
Vdouble
p429
sS'isMulti'
p430
I00
sS'isCompound'
p431
I00
sg27
I01
sg28
(lp432
sS'isElement'
p433
I00
ssVrotateQuaternion
p434
(dp435
S'isArray'
p436
I00
sg23
Vdouble4
p437
sS'attrChildrenNames'
p438
(lp439
VrotateQuaternion.rotateQuaternionX
p440
aVrotateQuaternion.rotateQuaternionY
p441
aVrotateQuaternion.rotateQuaternionZ
p442
aVrotateQuaternion.rotateQuaternionW
p443
asS'isMulti'
p444
I00
sS'isCompound'
p445
I01
sg27
I00
sg28
(lp446
VrotateQuaternion.rotateQuaternionX
p447
aVrotateQuaternion.rotateQuaternionY
p448
aVrotateQuaternion.rotateQuaternionZ
p449
aVrotateQuaternion.rotateQuaternionW
p450
asS'isElement'
p451
I00
ssVtransMinusRotatePivot.transMinusRotatePivotZ
p452
(dp453
S'isArray'
p454
I00
sS'attrParentLongName'
p455
VtransMinusRotatePivot
p456
sS'attrChildrenNames'
p457
(lp458
sg23
VdoubleLinear
p459
sS'isMulti'
p460
I00
sS'isCompound'
p461
I00
sg27
I01
sg28
(lp462
sS'isElement'
p463
I00
ssVtransMinusRotatePivot.transMinusRotatePivotX
p464
(dp465
S'isArray'
p466
I00
sS'attrParentLongName'
p467
VtransMinusRotatePivot
p468
sS'attrChildrenNames'
p469
(lp470
sg23
VdoubleLinear
p471
sS'isMulti'
p472
I00
sS'isCompound'
p473
I00
sg27
I01
sg28
(lp474
sS'isElement'
p475
I00
ssVtransMinusRotatePivot.transMinusRotatePivotY
p476
(dp477
S'isArray'
p478
I00
sS'attrParentLongName'
p479
VtransMinusRotatePivot
p480
sS'attrChildrenNames'
p481
(lp482
sg23
VdoubleLinear
p483
sS'isMulti'
p484
I00
sS'isCompound'
p485
I00
sg27
I01
sg28
(lp486
sS'isElement'
p487
I00
ssVrotationInterpolation
p488
(dp489
S'isArray'
p490
I00
sg23
Venum
p491
sS'attrChildrenNames'
p492
(lp493
sS'isMulti'
p494
I00
sS'isCompound'
p495
I00
sg27
I01
sg28
(lp496
sS'isElement'
p497
I00
ssVminScaleLimit.minScaleYLimit
p498
(dp499
g33
I00
sg34
Vdouble
p500
sg36
I00
sg37
I00
sg38
I01
sg39
(lp501
ssVscaleX
p502
(dp503
S'isArray'
p504
I00
sS'attrParentLongName'
p505
Vscale
p506
sS'attrChildrenNames'
p507
(lp508
sg4
Vdouble
p509
sS'isMulti'
p510
I00
sS'isCompound'
p511
I00
sg10
I01
sS'isElement'
p512
I00
ssVinstObjGroups[2].objectGroups
p513
(dp514
S'isArray'
p515
I01
ssVscaleZ
p516
(dp517
S'isArray'
p518
I00
sS'attrParentLongName'
p519
Vscale
p520
sS'attrChildrenNames'
p521
(lp522
sg4
Vdouble
p523
sS'isMulti'
p524
I00
sS'isCompound'
p525
I00
sg10
I01
sS'isElement'
p526
I00
ssVmaxRotateDampRange.maxRotateDampRangeX
p527
(dp528
S'isArray'
p529
I00
sS'attrParentLongName'
p530
VmaxRotateDampRange
p531
sS'attrChildrenNames'
p532
(lp533
sg23
VdoubleAngle
p534
sS'isMulti'
p535
I00
sS'isCompound'
p536
I00
sg27
I01
sg28
(lp537
sS'isElement'
p538
I00
ssVmaxRotateDampRange.maxRotateDampRangeY
p539
(dp540
S'isArray'
p541
I00
sS'attrParentLongName'
p542
VmaxRotateDampRange
p543
sS'attrChildrenNames'
p544
(lp545
sg23
VdoubleAngle
p546
sS'isMulti'
p547
I00
sS'isCompound'
p548
I00
sg27
I01
sg28
(lp549
sS'isElement'
p550
I00
ssVmaxRotateDampRange.maxRotateDampRangeZ
p551
(dp552
S'isArray'
p553
I00
sS'attrParentLongName'
p554
VmaxRotateDampRange
p555
sS'attrChildrenNames'
p556
(lp557
sg23
VdoubleAngle
p558
sS'isMulti'
p559
I00
sS'isCompound'
p560
I00
sg27
I01
sg28
(lp561
sS'isElement'
p562
I00
ssVpreferredAngle
p563
(dp564
S'isArray'
p565
I00
sg4
Vdouble3
p566
sS'attrChildrenNames'
p567
(lp568
VpreferredAngleX
p569
aVpreferredAngleY
p570
aVpreferredAngleZ
p571
asS'isMulti'
p572
I00
sS'isCompound'
p573
I01
sg10
I01
sg11
Vpa
p574
sg13
(lp575
VpreferredAngle.preferredAngleX
p576
aVpreferredAngle.preferredAngleY
p577
aVpreferredAngle.preferredAngleZ
p578
asS'isElement'
p579
I00
ssVtype
p580
(dp581
g33
I00
sg34
Venum
p582
sg36
I00
sg37
I00
sg38
I01
sg39
(lp583
ssVshear.shearXZ
p584
(dp585
g402
I00
sg403
Vdouble
p586
sg405
I00
sg406
I00
sg407
I01
sg11
Vshxz
p587
sg13
(lp588
ssVshear.shearXY
p589
(dp590
g402
I00
sg403
Vdouble
p591
sg405
I00
sg406
I00
sg407
I01
sg11
Vshxy
p592
sg13
(lp593
ssVvisibility
p594
(dp595
S'isArray'
p596
I00
sg4
Vbool
p597
sS'attrChildrenNames'
p598
(lp599
sS'isMulti'
p600
I00
sS'isCompound'
p601
I00
sg10
I01
sg11
Vv
p602
sg13
(lp603
sS'isElement'
p604
I00
ssVbindRotateAxis.bindRotateAxisZ
p605
(dp606
g33
I00
sg34
VdoubleAngle
p607
sg36
I00
sg37
I00
sg38
I01
sg39
(lp608
ssVbindRotateAxis.bindRotateAxisX
p609
(dp610
g33
I00
sg34
VdoubleAngle
p611
sg36
I00
sg37
I00
sg38
I01
sg39
(lp612
ssVbindRotateAxis.bindRotateAxisY
p613
(dp614
g33
I00
sg34
VdoubleAngle
p615
sg36
I00
sg37
I00
sg38
I01
sg39
(lp616
ssVrenderInfo.layerOverrideColor
p617
(dp618
S'isArray'
p619
I00
sS'attrParentLongName'
p620
VrenderInfo
p621
sS'attrChildrenNames'
p622
(lp623
sg23
Vbyte
p624
sS'isMulti'
p625
I00
sS'isCompound'
p626
I00
sg27
I00
sg28
(lp627
sS'isElement'
p628
I00
ssVminRotateDampRange
p629
(dp630
S'isArray'
p631
I00
sg23
Vdouble3
p632
sS'attrChildrenNames'
p633
(lp634
VminRotateDampRange.minRotateDampRangeX
p635
aVminRotateDampRange.minRotateDampRangeY
p636
aVminRotateDampRange.minRotateDampRangeZ
p637
asS'isMulti'
p638
I00
sS'isCompound'
p639
I01
sg27
I01
sg28
(lp640
VminRotateDampRange.minRotateDampRangeX
p641
aVminRotateDampRange.minRotateDampRangeY
p642
aVminRotateDampRange.minRotateDampRangeZ
p643
asS'isElement'
p644
I00
ssVdisplayRotatePivot
p645
(dp646
S'isArray'
p647
I00
sg23
Vbool
p648
sS'attrChildrenNames'
p649
(lp650
sS'isMulti'
p651
I00
sS'isCompound'
p652
I00
sg27
I01
sg28
(lp653
sS'isElement'
p654
I00
ssVmaxTransLimitEnable.maxTransXLimitEnable
p655
(dp656
g33
I00
sg34
Vbool
p657
sg36
I00
sg37
I00
sg38
I01
sg39
(lp658
ssVinstObjGroups[0]
p659
(dp660
g242
I00
sg23
VTdataCompound
p661
sg243
(lp662
VinstObjGroups[0].objectGroups
p663
asS'isMulti'
p664
I00
sg27
I00
sg28
(lp665
VinstObjGroups[0].objectGroups
p666
assVmentalRayControls.miCaustic
p667
(dp668
S'isArray'
p669
I00
sS'attrParentLongName'
p670
VmentalRayControls
p671
sS'attrChildrenNames'
p672
(lp673
sg23
Venum
p674
sS'isMulti'
p675
I00
sS'isCompound'
p676
I00
sg27
I01
sg28
(lp677
sS'isElement'
p678
I00
ssVpublishedNodeInfo[0].isHierarchicalNode
p679
(dp680
S'isArray'
p681
I00
sS'attrParentLongName'
p682
VpublishedNodeInfo[0]
p683
sS'attrChildrenNames'
p684
(lp685
sg38
I00
sg28
(lp686
sS'isElement'
p687
I00
ssVboundingBox.boundingBoxSize.boundingBoxSizeY
p688
(dp689
S'isArray'
p690
I00
sS'attrParentLongName'
p691
VboundingBox.boundingBoxSize
p692
sS'attrChildrenNames'
p693
(lp694
sg23
VdoubleLinear
p695
sS'isMulti'
p696
I00
sS'isCompound'
p697
I00
sg27
I01
sg28
(lp698
sS'isElement'
p699
I00
ssVboundingBox.boundingBoxSize.boundingBoxSizeX
p700
(dp701
S'isArray'
p702
I00
sS'attrParentLongName'
p703
VboundingBox.boundingBoxSize
p704
sS'attrChildrenNames'
p705
(lp706
sg23
VdoubleLinear
p707
sS'isMulti'
p708
I00
sS'isCompound'
p709
I00
sg27
I01
sg28
(lp710
sS'isElement'
p711
I00
ssVmentalRayControls.miExportGeoShader
p712
(dp713
S'isArray'
p714
I00
sS'attrParentLongName'
p715
VmentalRayControls
p716
sS'attrChildrenNames'
p717
(lp718
sg23
Vbool
p719
sS'isMulti'
p720
I00
sS'isCompound'
p721
I00
sg27
I01
sg28
(lp722
sS'isElement'
p723
I00
ssVboundingBox.boundingBoxSize.boundingBoxSizeZ
p724
(dp725
S'isArray'
p726
I00
sS'attrParentLongName'
p727
VboundingBox.boundingBoxSize
p728
sS'attrChildrenNames'
p729
(lp730
sg23
VdoubleLinear
p731
sS'isMulti'
p732
I00
sS'isCompound'
p733
I00
sg27
I01
sg28
(lp734
sS'isElement'
p735
I00
ssVtemplateName
p736
(dp737
S'isArray'
p738
I00
sg23
Vstring
p739
sS'attrChildrenNames'
p740
(lp741
sS'isMulti'
p742
I00
sS'isCompound'
p743
I00
sg27
I01
sg28
(lp744
sS'isElement'
p745
I00
ssVghostingControl
p746
(dp747
S'isArray'
p748
I00
sg23
Venum
p749
sS'attrChildrenNames'
p750
(lp751
sS'isMulti'
p752
I00
sS'isCompound'
p753
I00
sg27
I01
sg28
(lp754
sS'isElement'
p755
I00
ssVinverseScale.inverseScaleZ
p756
(dp757
g402
I00
sg403
Vdouble
p758
sg405
I00
sg406
I00
sg407
I01
sg11
Visz
p759
sg13
(lp760
ssVminScaleLimitEnable
p761
(dp762
g33
I00
sg34
VTdataCompound
p763
sg39
(lp764
VminScaleLimitEnable.minScaleXLimitEnable
p765
aVminScaleLimitEnable.minScaleYLimitEnable
p766
aVminScaleLimitEnable.minScaleZLimitEnable
p767
asg38
I00
sg36
I00
ssVmentalRayControls.miDeriveFromMaya
p768
(dp769
S'isArray'
p770
I00
sS'attrParentLongName'
p771
VmentalRayControls
p772
sS'attrChildrenNames'
p773
(lp774
sg23
Vbool
p775
sS'isMulti'
p776
I00
sS'isCompound'
p777
I00
sg27
I01
sg28
(lp778
sS'isElement'
p779
I00
ssVdrawOverride.overrideDisplayType
p780
(dp781
S'isArray'
p782
I00
sS'attrParentLongName'
p783
VdrawOverride
p784
sS'attrChildrenNames'
p785
(lp786
sg23
Venum
p787
sS'isMulti'
p788
I00
sS'isCompound'
p789
I00
sg27
I01
sg28
(lp790
sS'isElement'
p791
I00
ssVfkRotate.fkRotateX
p792
(dp793
g33
I00
sg34
VdoubleAngle
p794
sg36
I00
sg37
I00
sg38
I01
sg39
(lp795
ssVfkRotate.fkRotateY
p796
(dp797
g33
I00
sg34
VdoubleAngle
p798
sg36
I00
sg37
I00
sg38
I01
sg39
(lp799
ssVnodeState
p800
(dp801
S'isArray'
p802
I00
sg23
Venum
p803
sS'attrChildrenNames'
p804
(lp805
sS'isMulti'
p806
I00
sS'isCompound'
p807
I00
sg27
I01
sg28
(lp808
sS'isElement'
p809
I00
ssVminRotLimitEnable
p810
(dp811
g33
I00
sg34
VTdataCompound
p812
sg39
(lp813
g384
ag104
aVminRotLimitEnable.minRotZLimitEnable
p814
asg38
I00
sg36
I00
ssVworldMatrix[1]
p815
(dp816
g229
I00
sg11
Vwm[1]
p817
sg234
(lp818
sg296
I00
sg13
(lp819
ssVscalePivotTranslate.scalePivotTranslateZ
p820
(dp821
S'isArray'
p822
I00
sS'attrParentLongName'
p823
VscalePivotTranslate
p824
sS'attrChildrenNames'
p825
(lp826
sg23
VdoubleLinear
p827
sS'isMulti'
p828
I00
sS'isCompound'
p829
I00
sg27
I01
sg28
(lp830
sS'isElement'
p831
I00
ssVscalePivotTranslate.scalePivotTranslateX
p832
(dp833
S'isArray'
p834
I00
sS'attrParentLongName'
p835
VscalePivotTranslate
p836
sS'attrChildrenNames'
p837
(lp838
sg23
VdoubleLinear
p839
sS'isMulti'
p840
I00
sS'isCompound'
p841
I00
sg27
I01
sg28
(lp842
sS'isElement'
p843
I00
ssVscalePivotTranslate.scalePivotTranslateY
p844
(dp845
S'isArray'
p846
I00
sS'attrParentLongName'
p847
VscalePivotTranslate
p848
sS'attrChildrenNames'
p849
(lp850
sg23
VdoubleLinear
p851
sS'isMulti'
p852
I00
sS'isCompound'
p853
I00
sg27
I01
sg28
(lp854
sS'isElement'
p855
I00
ssVminTransLimitEnable
p856
(dp857
g33
I00
sg34
VTdataCompound
p858
sg39
(lp859
VminTransLimitEnable.minTransXLimitEnable
p860
ag31
aVminTransLimitEnable.minTransZLimitEnable
p861
asg38
I00
sg36
I00
ssVparentInverseMatrix[2]
p862
(dp863
g242
I00
sg243
(lp864
sS'isSimple'
p865
I00
sg13
(lp866
ssVghostFrames
p867
(dp868
S'isArray'
p869
I00
sg23
NsS'attrChildrenNames'
p870
(lp871
sS'isMulti'
p872
I00
sS'isCompound'
p873
I00
sg27
I00
sg28
(lp874
sS'isElement'
p875
I00
ssVpreferredAngleZ
p876
(dp877
S'isArray'
p878
I00
sS'attrParentLongName'
p879
VpreferredAngle
p880
sS'attrChildrenNames'
p881
(lp882
sg4
VdoubleAngle
p883
sS'isMulti'
p884
I00
sS'isCompound'
p885
I00
sg10
I01
sS'isElement'
p886
I00
ssVinstObjGroups[0].objectGroups[0].objectGrpColor
p887
(dp888
S'isArray'
p889
I00
sS'attrParentLongName'
p890
VinstObjGroups[0].objectGroups[0]
p891
sS'attrChildrenNames'
p892
(lp893
sg38
I00
sg28
(lp894
sS'isElement'
p895
I00
ssVpreferredAngleX
p896
(dp897
S'isArray'
p898
I00
sS'attrParentLongName'
p899
VpreferredAngle
p900
sS'attrChildrenNames'
p901
(lp902
sg4
VdoubleAngle
p903
sS'isMulti'
p904
I00
sS'isCompound'
p905
I00
sg10
I01
sS'isElement'
p906
I00
ssVdrawOverride.overrideColor
p907
(dp908
S'isArray'
p909
I00
sS'attrParentLongName'
p910
VdrawOverride
p911
sS'attrChildrenNames'
p912
(lp913
sg23
Vbyte
p914
sS'isMulti'
p915
I00
sS'isCompound'
p916
I00
sg27
I00
sg28
(lp917
sS'isElement'
p918
I00
ssVrenderLayerInfo.renderLayerId
p919
(dp920
g43
VrenderLayerInfo
p921
ssVbindPose
p922
(dp923
S'isArray'
p924
I00
sg23
Vmatrix
p925
sS'attrChildrenNames'
p926
(lp927
sS'isMulti'
p928
I00
sS'isCompound'
p929
I00
sg27
I00
sg28
(lp930
sS'isElement'
p931
I00
ssg130
(dp932
g33
I00
sg34
VdoubleAngle
p933
sg36
I00
sg37
I00
sg38
I01
sg39
(lp934
ssVcustomTreatment
p935
(dp936
S'isArray'
p937
I00
sg23
Vstring
p938
sS'attrChildrenNames'
p939
(lp940
sS'isMulti'
p941
I00
sS'isCompound'
p942
I00
sg27
I01
sg28
(lp943
sS'isElement'
p944
I00
ssg129
(dp945
g33
I00
sg34
VdoubleAngle
p946
sg36
I00
sg37
I00
sg38
I01
sg39
(lp947
ssVshear
p948
(dp949
S'isArray'
p950
I00
sg4
Vdouble3
p951
sS'attrChildrenNames'
p952
(lp953
VshearXY
p954
aVshearXZ
p955
aVshearYZ
p956
asS'isMulti'
p957
I00
sS'isCompound'
p958
I01
sg10
I01
sg11
Vsh
p959
sg13
(lp960
g589
ag584
aVshear.shearYZ
p961
asS'isElement'
p962
I00
ssVdrawStyle
p963
(dp964
g33
I00
sg34
Venum
p965
sg36
I00
sg37
I00
sg38
I01
sg39
(lp966
ssVinstObjGroups.objectGroups.objectGrpColor
p967
(dp968
g43
VinstObjGroups.objectGroups
p969
ssVcreationDate
p970
(dp971
S'isArray'
p972
I00
sg23
Vstring
p973
sS'attrChildrenNames'
p974
(lp975
sS'isMulti'
p976
I00
sS'isCompound'
p977
I00
sg27
I01
sg28
(lp978
sS'isElement'
p979
I00
ssVjointTypeZ
p980
(dp981
S'isArray'
p982
I00
sg23
Vbool
p983
sS'attrChildrenNames'
p984
(lp985
sS'isMulti'
p986
I00
sS'isCompound'
p987
I00
sg27
I01
sg28
(lp988
sS'isElement'
p989
I00
ssVjointTypeX
p990
(dp991
S'isArray'
p992
I00
sg23
Vbool
p993
sS'attrChildrenNames'
p994
(lp995
sS'isMulti'
p996
I00
sS'isCompound'
p997
I00
sg27
I01
sg28
(lp998
sS'isElement'
p999
I00
ssVjointTypeY
p1000
(dp1001
S'isArray'
p1002
I00
sg23
Vbool
p1003
sS'attrChildrenNames'
p1004
(lp1005
sS'isMulti'
p1006
I00
sS'isCompound'
p1007
I00
sg27
I01
sg28
(lp1008
sS'isElement'
p1009
I00
ssVisHierarchicalConnection[1]
p1010
(dp1011
g33
I00
sg38
I00
sg39
(lp1012
ssg218
(dp1013
g33
I00
sg34
VdoubleAngle
p1014
sS'isMulti'
p1015
I00
sS'isCompound'
p1016
I00
sg38
I01
sg39
(lp1017
ssVrotatePivot.rotatePivotZ
p1018
(dp1019
S'isArray'
p1020
I00
sS'attrParentLongName'
p1021
VrotatePivot
p1022
sS'attrChildrenNames'
p1023
(lp1024
sg23
VdoubleLinear
p1025
sS'isMulti'
p1026
I00
sS'isCompound'
p1027
I00
sg27
I01
sg28
(lp1028
sS'isElement'
p1029
I00
ssVside
p1030
(dp1031
g33
I00
sg34
Venum
p1032
sg36
I00
sg37
I00
sg38
I01
sg39
(lp1033
ssVrotatePivot.rotatePivotX
p1034
(dp1035
S'isArray'
p1036
I00
sS'attrParentLongName'
p1037
VrotatePivot
p1038
sS'attrChildrenNames'
p1039
(lp1040
sg23
VdoubleLinear
p1041
sS'isMulti'
p1042
I00
sS'isCompound'
p1043
I00
sg27
I01
sg28
(lp1044
sS'isElement'
p1045
I00
ssVrotatePivot.rotatePivotY
p1046
(dp1047
S'isArray'
p1048
I00
sS'attrParentLongName'
p1049
VrotatePivot
p1050
sS'attrChildrenNames'
p1051
(lp1052
sg23
VdoubleLinear
p1053
sS'isMulti'
p1054
I00
sS'isCompound'
p1055
I00
sg27
I01
sg28
(lp1056
sS'isElement'
p1057
I00
ssVinverseScaleZ
p1058
(dp1059
S'isArray'
p1060
I00
sS'attrParentLongName'
p1061
VinverseScale
p1062
sS'attrChildrenNames'
p1063
(lp1064
sg4
Vdouble
p1065
sS'isMulti'
p1066
I00
sS'isCompound'
p1067
I00
sg10
I01
sS'isElement'
p1068
I00
ssVinverseScaleY
p1069
(dp1070
S'isArray'
p1071
I00
sS'attrParentLongName'
p1072
VinverseScale
p1073
sS'attrChildrenNames'
p1074
(lp1075
sg4
Vdouble
p1076
sS'isMulti'
p1077
I00
sS'isCompound'
p1078
I00
sg10
I01
sS'isElement'
p1079
I00
ssVinverseScaleX
p1080
(dp1081
S'isArray'
p1082
I00
sS'attrParentLongName'
p1083
VinverseScale
p1084
sS'attrChildrenNames'
p1085
(lp1086
sg4
Vdouble
p1087
sS'isMulti'
p1088
I00
sS'isCompound'
p1089
I00
sg10
I01
sS'isElement'
p1090
I00
ssVfkRotate.fkRotateZ
p1091
(dp1092
g33
I00
sg34
VdoubleAngle
p1093
sg36
I00
sg37
I00
sg38
I01
sg39
(lp1094
ssVworldMatrix[2]
p1095
(dp1096
S'isArray'
p1097
I00
sS'attrChildrenNames'
p1098
(lp1099
sg296
I00
sg13
(lp1100
ssVinstObjGroups[1].objectGroups
p1101
(dp1102
g515
I01
sg38
I00
ssVmatrix
p1103
(dp1104
S'isArray'
p1105
I00
sg4
Vmatrix
p1106
sS'attrChildrenNames'
p1107
(lp1108
sS'isMulti'
p1109
I00
sS'isCompound'
p1110
I00
sg10
I00
sg11
Vm
p1111
sg13
(lp1112
sS'isElement'
p1113
I00
ssVdisplayLocalAxis
p1114
(dp1115
S'isArray'
p1116
I00
sg23
Vbool
p1117
sS'attrChildrenNames'
p1118
(lp1119
sS'isMulti'
p1120
I00
sS'isCompound'
p1121
I00
sg27
I01
sg28
(lp1122
sS'isElement'
p1123
I00
ssVselectHandle.selectHandleX
p1124
(dp1125
S'isArray'
p1126
I00
sS'attrParentLongName'
p1127
VselectHandle
p1128
sS'attrChildrenNames'
p1129
(lp1130
sg23
VdoubleLinear
p1131
sS'isMulti'
p1132
I00
sS'isCompound'
p1133
I00
sg27
I01
sg28
(lp1134
sS'isElement'
p1135
I00
ssVghostCustomSteps
p1136
(dp1137
S'isArray'
p1138
I00
sg23
VTdataCompound
p1139
sS'attrChildrenNames'
p1140
(lp1141
VghostCustomSteps.ghostPreSteps
p1142
aVghostCustomSteps.ghostPostSteps
p1143
aVghostCustomSteps.ghostStepSize
p1144
asS'isMulti'
p1145
I00
sS'isCompound'
p1146
I01
sg27
I00
sg28
(lp1147
VghostCustomSteps.ghostPreSteps
p1148
aVghostCustomSteps.ghostPostSteps
p1149
aVghostCustomSteps.ghostStepSize
p1150
asS'isElement'
p1151
I00
ssVselectHandle.selectHandleZ
p1152
(dp1153
S'isArray'
p1154
I00
sS'attrParentLongName'
p1155
VselectHandle
p1156
sS'attrChildrenNames'
p1157
(lp1158
sg23
VdoubleLinear
p1159
sS'isMulti'
p1160
I00
sS'isCompound'
p1161
I00
sg27
I01
sg28
(lp1162
sS'isElement'
p1163
I00
ssVmaxRotLimitEnable.maxRotZLimitEnable
p1164
(dp1165
g33
I00
sg34
Vbool
p1166
sg36
I00
sg37
I00
sg38
I01
sg39
(lp1167
ssVghostColorPreA
p1168
(dp1169
g376
I00
sg377
Vfloat
p1170
sg379
I00
sg380
I00
sg381
I01
sg382
(lp1171
ssVworldMatrix
p1172
(dp1173
S'isArray'
p1174
I01
sg4
Vmatrix
p1175
sS'isMulti'
p1176
I01
sg10
I00
sg11
Vwm
p1177
sS'isElement'
p1178
I00
ssVcontainerType
p1179
(dp1180
S'isArray'
p1181
I00
sg23
Vstring
p1182
sS'attrChildrenNames'
p1183
(lp1184
sS'isMulti'
p1185
I00
sS'isCompound'
p1186
I00
sg27
I01
sg28
(lp1187
sS'isElement'
p1188
I00
ssVminScaleLimit.minScaleZLimit
p1189
(dp1190
g33
I00
sg34
Vdouble
p1191
sg36
I00
sg37
I00
sg38
I01
sg39
(lp1192
ssVparentInverseMatrix
p1193
(dp1194
S'isArray'
p1195
I01
sg4
Vmatrix
p1196
sS'isMulti'
p1197
I01
sg10
I00
sg11
Vpim
p1198
sS'isElement'
p1199
I00
ssVminRotateDampRange.minRotateDampRangeX
p1200
(dp1201
S'isArray'
p1202
I00
sS'attrParentLongName'
p1203
VminRotateDampRange
p1204
sS'attrChildrenNames'
p1205
(lp1206
sg23
VdoubleAngle
p1207
sS'isMulti'
p1208
I00
sS'isCompound'
p1209
I00
sg27
I01
sg28
(lp1210
sS'isElement'
p1211
I00
ssVminRotateDampRange.minRotateDampRangeY
p1212
(dp1213
S'isArray'
p1214
I00
sS'attrParentLongName'
p1215
VminRotateDampRange
p1216
sS'attrChildrenNames'
p1217
(lp1218
sg23
VdoubleAngle
p1219
sS'isMulti'
p1220
I00
sS'isCompound'
p1221
I00
sg27
I01
sg28
(lp1222
sS'isElement'
p1223
I00
ssVminRotateDampRange.minRotateDampRangeZ
p1224
(dp1225
S'isArray'
p1226
I00
sS'attrParentLongName'
p1227
VminRotateDampRange
p1228
sS'attrChildrenNames'
p1229
(lp1230
sg23
VdoubleAngle
p1231
sS'isMulti'
p1232
I00
sS'isCompound'
p1233
I00
sg27
I01
sg28
(lp1234
sS'isElement'
p1235
I00
ssVrenderInfo.layerRenderable
p1236
(dp1237
S'isArray'
p1238
I00
sS'attrParentLongName'
p1239
VrenderInfo
p1240
sS'attrChildrenNames'
p1241
(lp1242
sg23
Vbool
p1243
sS'isMulti'
p1244
I00
sS'isCompound'
p1245
I00
sg27
I01
sg28
(lp1246
sS'isElement'
p1247
I00
ssVjointOrient
p1248
(dp1249
S'isArray'
p1250
I00
sg4
Vdouble3
p1251
sS'attrChildrenNames'
p1252
(lp1253
VjointOrientX
p1254
aVjointOrientY
p1255
aVjointOrientZ
p1256
asS'isMulti'
p1257
I00
sS'isCompound'
p1258
I01
sg10
I01
sg11
Vjo
p1259
sg13
(lp1260
VjointOrient.jointOrientX
p1261
aVjointOrient.jointOrientY
p1262
aVjointOrient.jointOrientZ
p1263
asS'isElement'
p1264
I00
ssVrmbCommand
p1265
(dp1266
g33
I00
sg34
Vstring
p1267
sg36
I00
sg37
I00
sg38
I01
sg39
(lp1268
ssVghostCustomSteps.ghostPreSteps
p1269
(dp1270
S'isArray'
p1271
I00
sS'attrParentLongName'
p1272
VghostCustomSteps
p1273
sS'attrChildrenNames'
p1274
(lp1275
sg23
Vlong
p1276
sS'isMulti'
p1277
I00
sS'isCompound'
p1278
I00
sg27
I01
sg28
(lp1279
sS'isElement'
p1280
I00
ssVpublishedNodeInfo[1].publishedNodeType
p1281
(dp1282
g515
I00
sg38
I00
sg28
(lp1283
ssVgeometry
p1284
(dp1285
S'isArray'
p1286
I00
sg23
NsS'attrChildrenNames'
p1287
(lp1288
sS'isMulti'
p1289
I00
sS'isCompound'
p1290
I00
sg27
I00
sg28
(lp1291
sS'isElement'
p1292
I00
ssVisHierarchicalConnection
p1293
(dp1294
g33
I01
sg34
VTdataCompound
p1295
sg38
I00
sg36
I01
ssg961
(dp1296
g402
I00
sg403
Vdouble
p1297
sg405
I00
sg406
I00
sg407
I01
sg11
Vshyz
p1298
sg13
(lp1299
ssVscaleY
p1300
(dp1301
S'isArray'
p1302
I00
sS'attrParentLongName'
p1303
Vscale
p1304
sS'attrChildrenNames'
p1305
(lp1306
sg4
Vdouble
p1307
sS'isMulti'
p1308
I00
sS'isCompound'
p1309
I00
sg10
I01
sS'isElement'
p1310
I00
ssVmessage
p1311
(dp1312
g242
I00
sg243
(lp1313
ssg216
(dp1314
g33
I00
sg34
VdoubleAngle
p1315
sg1015
I00
sg1016
I00
sg38
I01
sg39
(lp1316
ssVshearYZ
p1317
(dp1318
S'isArray'
p1319
I00
sS'attrParentLongName'
p1320
Vshear
p1321
sS'attrChildrenNames'
p1322
(lp1323
sg4
Vdouble
p1324
sS'isMulti'
p1325
I00
sS'isCompound'
p1326
I00
sg10
I01
sS'isElement'
p1327
I00
ssVbindInverseScale
p1328
(dp1329
g33
I00
sg34
Vdouble3
p1330
sg36
I00
sg37
I01
sg38
I01
sg39
(lp1331
VbindInverseScale.bindInverseScaleX
p1332
aVbindInverseScale.bindInverseScaleY
p1333
aVbindInverseScale.bindInverseScaleZ
p1334
assVxformMatrix
p1335
(dp1336
S'isArray'
p1337
I00
sg23
Vmatrix
p1338
sS'attrChildrenNames'
p1339
(lp1340
sS'isMulti'
p1341
I00
sS'isCompound'
p1342
I00
sg27
I00
sg28
(lp1343
sS'isElement'
p1344
I00
ssVinstObjGroups[1]
p1345
(dp1346
g242
I00
sg243
(lp1347
VinstObjGroups[1].objectGroups
p1348
asg38
I00
sg28
(lp1349
g1101
assVparentMatrix[1]
p1350
(dp1351
g229
I00
sg11
Vpm[1]
p1352
sg234
(lp1353
sg296
I00
sg13
(lp1354
ssVrenderInfo
p1355
(dp1356
S'isArray'
p1357
I00
sg23
VTdataCompound
p1358
sS'attrChildrenNames'
p1359
(lp1360
VrenderInfo.identification
p1361
aVrenderInfo.layerRenderable
p1362
aVrenderInfo.layerOverrideColor
p1363
asS'isMulti'
p1364
I00
sS'isCompound'
p1365
I01
sg27
I00
sg28
(lp1366
VrenderInfo.identification
p1367
aVrenderInfo.layerRenderable
p1368
aVrenderInfo.layerOverrideColor
p1369
asS'isElement'
p1370
I00
ssVisIKDirtyFlag
p1371
(dp1372
g33
I00
sg34
Vbool
p1373
sg1015
I00
sg1016
I00
sg38
I01
sg39
(lp1374
ssVmaxScaleLimit.maxScaleZLimit
p1375
(dp1376
g33
I00
sg34
Vdouble
p1377
sg36
I00
sg37
I00
sg38
I01
sg39
(lp1378
ssVcenter
p1379
(dp1380
S'isArray'
p1381
I00
sg23
Vdouble3
p1382
sS'attrChildrenNames'
p1383
(lp1384
Vcenter.boundingBoxCenterX
p1385
aVcenter.boundingBoxCenterY
p1386
aVcenter.boundingBoxCenterZ
p1387
asS'isMulti'
p1388
I00
sS'isCompound'
p1389
I01
sg27
I01
sg28
(lp1390
Vcenter.boundingBoxCenterX
p1391
aVcenter.boundingBoxCenterY
p1392
aVcenter.boundingBoxCenterZ
p1393
asS'isElement'
p1394
I00
ssVshearXZ
p1395
(dp1396
S'isArray'
p1397
I00
sS'attrParentLongName'
p1398
Vshear
p1399
sS'attrChildrenNames'
p1400
(lp1401
sg4
Vdouble
p1402
sS'isMulti'
p1403
I00
sS'isCompound'
p1404
I00
sg10
I01
sS'isElement'
p1405
I00
ssVmaxScaleLimit.maxScaleXLimit
p1406
(dp1407
g33
I00
sg34
Vdouble
p1408
sg36
I00
sg37
I00
sg38
I01
sg39
(lp1409
ssVinverseScale
p1410
(dp1411
S'isArray'
p1412
I00
sg4
Vdouble3
p1413
sS'attrChildrenNames'
p1414
(lp1415
VinverseScaleX
p1416
aVinverseScaleY
p1417
aVinverseScaleZ
p1418
asS'isMulti'
p1419
I00
sS'isCompound'
p1420
I01
sg10
I01
sg11
Vis
p1421
sg13
(lp1422
VinverseScale.inverseScaleX
p1423
ag400
ag756
asS'isElement'
p1424
I00
ssVscalePivot
p1425
(dp1426
S'isArray'
p1427
I00
sg23
Vdouble3
p1428
sS'attrChildrenNames'
p1429
(lp1430
VscalePivot.scalePivotX
p1431
aVscalePivot.scalePivotY
p1432
aVscalePivot.scalePivotZ
p1433
asS'isMulti'
p1434
I00
sS'isCompound'
p1435
I01
sg27
I01
sg28
(lp1436
VscalePivot.scalePivotX
p1437
aVscalePivot.scalePivotY
p1438
aVscalePivot.scalePivotZ
p1439
asS'isElement'
p1440
I00
ssVworldInverseMatrix[0]
p1441
(dp1442
g229
I00
sg230
Vmatrix
p1443
sg234
(lp1444
sg236
I00
sg237
I00
sg11
Vwim[0]
p1445
sg13
(lp1446
ssVboundingBox.boundingBoxMax.boundingBoxMaxY
p1447
(dp1448
S'isArray'
p1449
I00
sS'attrParentLongName'
p1450
VboundingBox.boundingBoxMax
p1451
sS'attrChildrenNames'
p1452
(lp1453
sg23
VdoubleLinear
p1454
sS'isMulti'
p1455
I00
sS'isCompound'
p1456
I00
sg27
I01
sg28
(lp1457
sS'isElement'
p1458
I00
ssVboundingBox.boundingBoxMax.boundingBoxMaxX
p1459
(dp1460
S'isArray'
p1461
I00
sS'attrParentLongName'
p1462
VboundingBox.boundingBoxMax
p1463
sS'attrChildrenNames'
p1464
(lp1465
sg23
VdoubleLinear
p1466
sS'isMulti'
p1467
I00
sS'isCompound'
p1468
I00
sg27
I01
sg28
(lp1469
sS'isElement'
p1470
I00
ssVboundingBox.boundingBoxMax.boundingBoxMaxZ
p1471
(dp1472
S'isArray'
p1473
I00
sS'attrParentLongName'
p1474
VboundingBox.boundingBoxMax
p1475
sS'attrChildrenNames'
p1476
(lp1477
sg23
VdoubleLinear
p1478
sS'isMulti'
p1479
I00
sS'isCompound'
p1480
I00
sg27
I01
sg28
(lp1481
sS'isElement'
p1482
I00
ssVinstObjGroups[0].objectGroups[1].objectGrpColor
p1483
(dp1484
g515
I00
sg38
I00
sg28
(lp1485
ssVisCollapsed
p1486
(dp1487
S'isArray'
p1488
I00
sg23
Vbool
p1489
sS'attrChildrenNames'
p1490
(lp1491
sS'isMulti'
p1492
I00
sS'isCompound'
p1493
I00
sg27
I01
sg28
(lp1494
sS'isElement'
p1495
I00
ssVbindScale
p1496
(dp1497
g33
I00
sg34
Vdouble3
p1498
sg36
I00
sg37
I01
sg38
I01
sg39
(lp1499
VbindScale.bindScaleX
p1500
p1501
p1502
assVghostColorPost.ghostColorPostR
p1503
(dp1504
g376
assVjointType
sg377
Vfloat
p1505
sg379
sg380
sg381
I01
sg382
(lp1506
p1507
(dp1508
g33
I00
sg34
Vstring
p1509
sg36
I00
sg37
I00
sg38
I01
sg39
(lp1510
ssVmaxTransLimit.maxTransXLimit
p1511
(dp1512
g33
I00
sg34
VdoubleLinear
p1513
sg36
I00
sg37
I00
sg38
I01
sg39
(lp1514
ssVmaxScaleLimit.maxScaleYLimit
p1515
(dp1516
g33
I00
sg34
Vdouble
p1517
sg36
I00
sg37
I00
sg38
I01
sg39
(lp1518
ssVmaxRotateDampStrength.maxRotateDampStrengthZ
p1513
(dp1514
S'isArray'
p1515
I00
sS'attrParentLongName'
p1516
VmaxRotateDampStrength
p1517
sS'attrChildrenNames'
p1518
(lp1519
sg23
Vdouble
p1520
sS'isMulti'
p1521
I00
sS'isCompound'
p1522
I00
sg27
I01
sg28
(lp1523
sS'isElement'
p1524
I00
ssVmaxRotateDampStrength.maxRotateDampStrengthX
p1525
(dp1526
S'isArray'
p1527
I00
sS'attrParentLongName'
p1528
VinstObjGroups[0].objectGroups[0]
p1529
sS'attrChildrenNames'
p1530
(lp1531
sg38
I00
sg28
(lp1532
sS'isElement'
p1533
I00
ssVinstObjGroups[0].objectGroups[0].objectGrpCompList
p1534
(dp1535
S'isArray'
p1536
I00
sS'attrParentLongName'
p1537
VinstObjGroups[0].objectGroups[0]
p1538
sS'attrChildrenNames'
p1548
(lp1549
sg38
I00
sg28
(lp1550
sS'isElement'
p1551
I00
ssVuiTreatment
p1552
(dp1553
g33
p1554
I00
sg34
Venum
p1555
sg39
p1556
(lp1557
sS'isMulti'
p1558
I00
sg36
p1559
I00
(lp1560
sS'isElement'
p1561
I00
ssVmaxRotLimitEnable
p1562
(dp1563
g33
I00
sg34
VTdataCompound
p1564
sg39
(lp1565
VmaxRotLimitEnable.maxRotXLimitEnable
aVmaxRotLimitEnable.maxRotYLimitEnable
ag1164
asg38
I00
sg36
I00
ssVrotate.rotateZ
p1568
(dp1569
g402
I00
sg403
VdoubleAngle
p1570
sg405
p1553
Vrotate
p1554
sg395
I00
sS'isWritable'
p1571
I01
sg406
I00
sg407
I01
sg11
Vrz
p1572
sg13
(lp1573
ssVpreferredAngleY
p1574
(dp1575
S'isArray'
p1576
I00
sS'attrParentLongName'
p1577
VpreferredAngle
p1562
sS'attrChildrenNames'
p1579
(lp1580
sg4
VdoubleAngle
p1581
sS'isMulti'
p1582
I00
sS'isCompound'
I00
sg10
I01
p1568
I00
sg10
I01
sS'isElement'
g392
I00
ssVrotate.rotateX
p1585
(dp1586
g402
I00
sg403
VdoubleAngle
p1587
sg405
Vrotate
p1572
sg395
I00
sg406
I00
sg407
I01
sg11
Vrx
p1588
sg13
(lp1589
ssVrotate.rotateY
p1590
(dp1591
g402
I00
sg403
VdoubleAngle
p1592
sg405
Vrotate
p1578
sg395
I00
sg406
I00
sg407
I01
sg11
Vry
p1593
sg13
(lp1594
ssVcaching
p1595
(dp1596
S'isArray'
p1597
I00
sg23
Vbool
p1585
sS'attrChildrenNames'
p1599
(lp1600
sS'isMulti'
p1601
I00
sS'isCompound'
p1602
I00
sg27
I01
sg28
(lp1603
sS'isElement'
p1604
I00
ssVrenderLayerInfo[1].renderLayerRenderable
p1605
(dp1606
g515
I00
sg38
I00
sg28
(lp1607
ssVtranslate.translateZ
p1608
(dp1609
g402
I00
sg403
VdoubleLinear
p1610
sg405
Vtranslate
p1597
sg395
I00
sg406
I00
sg407
I01
sg11
Vtz
p1611
sg13
(lp1612
ssVtranslate.translateX
p1613
(dp1614
g402
I00
sg403
VdoubleLinear
p1603
sS'attrParentLongName'
p1604
Vtranslate
p1617
sg405
I00
sg406
I00
sg407
I01
sg11
Vtx
p1618
sg13
(lp1619
ssVtranslate.translateY
p1620
(dp1621
g402
I00
sg403
VdoubleLinear
p1610
sS'attrParentLongName'
p1611
Vtranslate
p1624
sg405
I00
sg406
I00
sg407
I01
sg11
Vty
p1625
sg13
(lp1626
ssVinstObjGroups[0].objectGroups[1].objectGroupId
p1627
(dp1628
g515
I00
sg38
I00
sg28
(lp1629
ssVmentalRayControls.miVisible
p1630
(dp1631
S'isArray'
p1632
I00
sS'attrParentLongName'
p1621
VmentalRayControls
p1622
sS'attrChildrenNames'
p1635
(lp1636
sg23
Venum
p1625
sS'isMulti'
p1638
I00
sS'isCompound'
p1639
I00
sg27
I01
sg28
(lp1640
sS'isElement'
p1641
I00
ssVuseObjectColor
p1642
(dp1643
S'isArray'
p1644
I00
sg23
Vbool
p1633
sS'attrChildrenNames'
p1646
(lp1647
sS'isMulti'
p1648
I00
sS'isCompound'
p1649
I00
sg27
I01
sg28
(lp1650
sS'isElement'
p1651
I00
ssVdrawOverride.overrideLevelOfDetail
p1652
(dp1653
S'isArray'
p1654
I00
sS'attrParentLongName'
p1643
VdrawOverride
p1644
sS'attrChildrenNames'
p1657
(lp1658
sg23
Venum
p1647
sS'isMulti'
p1660
I00
sS'isCompound'
p1661
I00
sg27
I01
sg28
(lp1662
sS'isElement'
p1663
I00
ssVinstObjGroups[0].objectGroups[0].objectGroupId
p1664
(dp1665
S'isArray'
p1666
I00
sS'attrParentLongName'
p1655
VinstObjGroups[0].objectGroups[0]
p1656
sS'attrChildrenNames'
p1669
(lp1670
sg38
I00
sg28
(lp1671
sS'isElement'
(dp1660
I00
ssg1566
g33
I00
sg34
Vbool
p1661
sg36
I00
sg37
I00
sg38
I01
sg39
(lp1662
ssVparentMatrix[2]
p1663
(dp1664
S'isArray'
p1678
I00
sS'attrChildrenNames'
p1679
(lp1680
sg865
I00
sg13
(lp1681
ssVtransMinusRotatePivot
p1671
(dp1683
S'isArray'
p1684
I00
sg23
Vdouble3
p1685
sS'attrChildrenNames'
p1675
(lp1687
VtransMinusRotatePivot.transMinusRotatePivotX
p1688
aVtransMinusRotatePivot.transMinusRotatePivotY
p1689
aVtransMinusRotatePivot.transMinusRotatePivotZ
p1690
asS'isMulti'
p1691
I00
sS'isCompound'
p1692
I01
sg27
I01
sg28
(lp1693
VtransMinusRotatePivot.transMinusRotatePivotX
p1694
aVtransMinusRotatePivot.transMinusRotatePivotY
p1695
aVtransMinusRotatePivot.transMinusRotatePivotZ
p1696
asS'isElement'
p1697
I00
ssVbinMembership
p1698
(dp1699
g33
I00
sg34
Vstring
p1700
sg36
I00
sg37
I00
sg38
I01
sg39
(lp1701
ssVrenderLayerInfo[0].renderLayerRenderable
p1691
(dp1703
S'isArray'
p1704
I00
sS'attrParentLongName'
p1705
VrenderLayerInfo[0]
p1706
sS'attrChildrenNames'
p1707
(lp1708
sg38
I00
sg28
(lp1709
sS'isElement'
p1710
I00
ssVmaxScaleLimitEnable.maxScaleXLimitEnable
p1711
(dp1712
g33
I00
sg34
Vbool
p1713
sg36
I00
sg37
I00
sg38
I01
sg39
(lp1714
ssVbindSegmentScaleCompensate
p1715
(dp1716
g33
I00
sg34
Vbool
p1717
sg36
I00
sg37
I00
sg38
I01
sg39
(lp1718
ssVparentMatrix
p1708
(dp1720
S'isArray'
p1721
I01
sg4
Vmatrix
p1722
sS'isMulti'
p1723
I01
sg10
I00
sg11
Vpm
p1724
sS'isElement'
p1725
I00
ssg861
(dp1726
g33
I00
sg34
Vbool
p1727
sg36
I00
sg37
I00
sg38
I01
sg39
(lp1728
ssVscalePivotTranslate
p1718
(dp1730
S'isArray'
p1731
I00
sg23
Vdouble3
p1732
sS'attrChildrenNames'
p1722
(lp1734
VscalePivotTranslate.scalePivotTranslateX
p1735
aVscalePivotTranslate.scalePivotTranslateY
p1736
aVscalePivotTranslate.scalePivotTranslateZ
p1737
asS'isMulti'
p1738
I00
sS'isCompound'
p1739
I01
sg27
I01
sg28
(lp1740
VscalePivotTranslate.scalePivotTranslateX
p1741
aVscalePivotTranslate.scalePivotTranslateY
p1742
aVscalePivotTranslate.scalePivotTranslateZ
p1743
asS'isElement'
p1744
I00
ssVsegmentScaleCompensate
p1734
(dp1746
S'isArray'
p1747
I00
sg4
Vbool
p1748
sS'attrChildrenNames'
p1738
(lp1750
sS'isMulti'
p1751
I00
sS'isCompound'
p1752
I00
sg10
I01
sg11
Vssc
p1753
sg13
(lp1754
sS'isElement'
p1755
I00
ssVobjectColorRGB
p1745
(dp1757
g376
I00
sg379
I00
sg377
Vfloat3
p1758
sg381
I00
sg382
(lp1759
VobjectColorRGB.objectColorR
p1760
aVobjectColorRGB.objectColorG
p1761
aVobjectColorRGB.objectColorB
p1762
assVdrawOverride.overrideEnabled
p1763
(dp1764
S'isArray'
p1765
I00
sS'attrParentLongName'
p1766
VdrawOverride
p1767
sS'attrChildrenNames'
p1768
(lp1769
sg23
Vbool
p1770
sS'isMulti'
p1771
I00
sS'isCompound'
p1772
I00
sg27
I01
sg28
(lp1773
sS'isElement'
p1774
I00
ssVboundingBox.boundingBoxMax
p1775
(dp1776
S'isArray'
p1777
I00
sS'attrParentLongName'
p1778
VboundingBox
p1779
sS'attrChildrenNames'
p1780
(lp1781
VboundingBox.boundingBoxMax.boundingBoxMaxX
p1782
aVboundingBox.boundingBoxMax.boundingBoxMaxY
p1783
aVboundingBox.boundingBoxMax.boundingBoxMaxZ
p1784
asg23
Vdouble3
p1785
sS'isMulti'
p1786
I00
sS'isCompound'
p1787
I01
sg27
I01
sg28
(lp1788
VboundingBox.boundingBoxMax.boundingBoxMaxX
p1789
aVboundingBox.boundingBoxMax.boundingBoxMaxY
p1790
aVboundingBox.boundingBoxMax.boundingBoxMaxZ
p1791
asS'isElement'
p1792
I00
ssVrotateAxis
p1793
(dp1794
S'isArray'
p1795
I00
sg23
Vdouble3
p1796
sS'attrChildrenNames'
p1797
(lp1798
VrotateAxis.rotateAxisX
p1799
aVrotateAxis.rotateAxisY
p1800
aVrotateAxis.rotateAxisZ
p1801
asS'isMulti'
p1802
I00
sS'isCompound'
p1803
I01
sg27
I01
sg28
(lp1804
VrotateAxis.rotateAxisX
p1805
aVrotateAxis.rotateAxisY
p1806
aVrotateAxis.rotateAxisZ
p1807
asS'isElement'
p1808
I00
ssVcreator
p1791
p1793
(lp1794
sS'isMulti'
p1795
sg27
p1801
(dp1810
S'isArray'
p1803
I00
sg23
Vstring
p1812
sS'attrChildrenNames'
p1813
(lp1814
sS'isMulti'
p1807
I00
sS'isCompound'
p1808
I00
sg27
I01
sg28
(lp1809
sS'isElement'
p1810
I00
ssVrotateAxis.rotateAxisX
p1811
(dp1812
S'isArray'
p1813
I00
sS'attrParentLongName'
p1814
VrotateAxis
p1815
sS'attrChildrenNames'
p1816
(lp1817
sg23
VdoubleAngle
p1818
sS'isMulti'
p1819
I00
sS'isCompound'
p1820
I00
sg27
I01
sg28
(lp1821
sS'isElement'
p1822
I00
ssVrotateAxis.rotateAxisY
p1823
(dp1824
S'isArray'
p1825
I00
sS'attrParentLongName'
p1826
VrotateAxis
p1827
sS'attrChildrenNames'
p1828
(lp1829
sg23
VdoubleAngle
p1830
sS'isMulti'
p1831
I00
sS'isCompound'
p1832
I00
sg27
I01
sg28
(lp1833
sS'isElement'
p1834
I00
ssVrotateAxis.rotateAxisZ
p1835
(dp1836
S'isArray'
p1837
I00
sS'attrParentLongName'
p1846
VrotateAxis
p1847
sS'attrChildrenNames'
p1848
(lp1849
sg23
VdoubleAngle
p1850
sS'isMulti'
p1851
I00
sS'isCompound'
p1852
I00
sg27
I01
sg28
(lp1853
sS'isElement'
p1854
I00
ssVghostRangeEnd
p1855
(dp1856
S'isArray'
p1857
I00
sg23
Vtime
p1858
sS'attrChildrenNames'
p1859
(lp1860
sS'isMulti'
p1861
I00
sS'isCompound'
p1862
I00
sg27
I01
sg28
(lp1863
sS'isElement'
p1864
I00
ssVradius
p1865
(dp1866
S'isArray'
p1867
I00
sg4
Vdouble
p1868
sS'attrChildrenNames'
p1869
(lp1870
sS'isMulti'
p1871
I00
sS'isCompound'
p1872
I00
sg10
I01
sg11
Vradi
p1873
sg13
(lp1874
sS'isElement'
p1875
I00
ssVtemplateVersion
p1876
(dp1877
S'isArray'
p1878
I00
sg23
Vlong
p1871
sS'attrChildrenNames'
p1880
(lp1881
sS'isMulti'
p1874
I00
sS'isCompound'
p1875
I00
sg27
I01
sg28
(lp1876
sS'isElement'
p1877
I00
ssVminRotateDampStrength.minRotateDampStrengthZ
p1878
(dp1879
S'isArray'
p1880
I00
sS'attrParentLongName'
p1881
VminRotateDampStrength
p1882
sS'attrChildrenNames'
p1883
(lp1884
sg23
Vdouble
p1885
sS'isMulti'
p1886
I00
sS'isCompound'
p1887
I00
sg27
I01
sg28
(lp1888
sS'isElement'
p1889
I00
ssVminRotateDampStrength.minRotateDampStrengthX
p1890
(dp1891
S'isArray'
p1892
I00
sS'attrParentLongName'
p1893
VminRotateDampStrength
p1894
sS'attrChildrenNames'
p1895
(lp1896
sg23
Vdouble
p1897
sS'isMulti'
p1898
I00
sS'isCompound'
p1899
I00
sg27
I01
sg28
(lp1900
sS'isElement'
p1901
I00
ssVminRotateDampStrength.minRotateDampStrengthY
p1910
(dp1911
S'isArray'
p1912
I00
sS'attrParentLongName'
p1913
VminRotateDampStrength
p1914
sS'attrChildrenNames'
p1915
(lp1916
sg23
Vdouble
p1917
sS'isMulti'
p1918
I00
sS'isCompound'
p1919
I00
sg27
I01
sg28
(lp1920
sS'isElement'
p1921
I00
ssg766
(dp1922
g33
I00
sg34
Vbool
p1923
sg36
I00
sg37
I00
sg38
I01
sg39
(lp1924
ssg51
(dp1925
g33
I00
sg34
VdoubleAngle
p1926
sg36
I00
sg37
I00
sg38
I01
sg39
(lp1927
ssg49
(dp1928
g33
I00
sg34
VdoubleAngle
p1929
sg36
I00
sg37
I00
sg38
I01
sg39
(lp1930
ssg50
(dp1931
g33
I00
sg34
VdoubleAngle
p1932
sg36
I00
sg37
I00
sg38
I01
sg39
(lp1933
ssVscalePivot.scalePivotX
p1926
(dp1927
S'isArray'
p1928
I00
sS'attrParentLongName'
p1929
VscalePivot
p1930
sS'attrChildrenNames'
p1931
(lp1932
sg23
VdoubleLinear
p1933
sS'isMulti'
p1934
I00
sS'isCompound'
p1935
I00
sg27
I01
sg28
(lp1936
sS'isElement'
p1937
I00
ssVscalePivot.scalePivotY
p1938
(dp1939
S'isArray'
p1940
I00
sS'attrParentLongName'
p1941
VscalePivot
p1942
sS'attrChildrenNames'
p1943
(lp1944
sg23
VdoubleLinear
p1945
sS'isMulti'
p1946
I00
sS'isCompound'
p1947
I00
sg27
I01
sg28
(lp1948
sS'isElement'
p1949
I00
ssVscalePivot.scalePivotZ
p1950
(dp1951
S'isArray'
p1952
I00
sS'attrParentLongName'
VscalePivot
p1954
sS'attrChildrenNames'
p1963
(lp1964
sg23
VdoubleLinear
p1965
sS'isMulti'
p1966
I00
sS'isCompound'
p1967
I00
sg27
I01
sg28
(lp1968
sS'isElement'
p1969
I00
ssVinstObjGroups.objectGroups.objectGrpCompList
p1970
(dp1971
S'attrParentLongName'
p1972
VinstObjGroups.objectGroups
p1973
ssVpublishedNodeInfo.publishedNodeType
p1974
(dp1975
g1972
VpublishedNodeInfo
p1976
ssVpublishedNodeInfo[1]
p1977
(dp1978
g242
I00
sg243
(lp1979
VpublishedNodeInfo[1].publishedNode
p1980
aVpublishedNodeInfo[1].isHierarchicalNode
p1981
aVpublishedNodeInfo[1].publishedNodeType
p1982
asg38
I00
sg28
(lp1983
VpublishedNodeInfo[1].publishedNode
p1984
aVpublishedNodeInfo[1].isHierarchicalNode
p1985
ag1281
assVmaxTransLimit
p1986
(dp1987
g33
I00
sg34
Vdouble3
p1988
sg36
I00
sg37
I01
sg38
I01
sg39
(lp1989
g1511
aVmaxTransLimit.maxTransYLimit
p1990
ag262
assVhikNodeID
p1991
(dp1992
S'isArray'
p1993
I00
sg23
Vlong
p1994
sS'attrChildrenNames'
p1995
(lp1996
sS'isMulti'
p1997
I00
sS'isCompound'
p1998
I00
sg27
I01
sg28
(lp1999
sS'isElement'
p2000
I00
ssVscale.scaleZ
p2001
(dp2002
g402
I00
sg403
Vdouble
p2003
sg405
Vscale
p1984
sg395
I00
sg406
I00
sg407
I01
sg11
Vsz
p2004
sg13
(lp2005
ssVscale.scaleX
p2006
(dp2007
g402
I00
sg403
Vdouble
p2008
sg405
Vscale
p1990
sg395
I00
sg406
I00
sg407
I01
sg11
Vsx
p2009
sg13
(lp2010
ssVscale.scaleY
p2011
(dp2012
g402
I00
sg403
Vdouble
p2013
sg405
Vscale
p1996
sg395
I00
sg406
I00
sg407
I01
sg11
Vsy
p2014
sg13
(lp2015
ssg1502
(dp2016
g33
I00
sg34
VdoubleAngle
p2017
sg36
I00
sg37
I00
sg38
I01
sg39
(lp2018
ssg1500
(dp2019
g33
I00
sg34
VdoubleAngle
p2020
sg36
I00
sg37
I00
sg38
I01
sg39
(lp2021
ssg1501
(dp2022
g33
I00
sg34
VdoubleAngle
p2023
sg36
I00
sg37
I00
sg38
I01
sg39
(lp2024
ssVrenderLayerInfo[1].renderLayerColor
p2025
(dp2026
g515
I00
sg38
I00
sg28
(lp2027
ssVpublishedNodeInfo[0].publishedNodeType
p2028
(dp2029
S'isArray'
p2030
I00
sS'attrParentLongName'
p2031
VpublishedNodeInfo[0]
p2032
sS'attrChildrenNames'
p2033
(lp2034
sg38
I00
sg28
(lp2035
sS'isElement'
p2036
I00
ssVmentalRayControls.miTrace
p2037
(dp2038
S'isArray'
p2039
I00
sS'attrParentLongName'
p2040
VmentalRayControls
p2041
sS'attrChildrenNames'
p2042
(lp2043
sg23
Venum
p2044
sS'isMulti'
p2045
I00
sS'isCompound'
p2046
I00
sg27
I01
sg28
(lp2047
sS'isElement'
p2048
I00
ssg1990
(dp2049
g33
I00
sg34
VdoubleLinear
p2050
sg36
I00
sg37
I00
sg38
I01
sg39
(lp2051
ssVmaxTransLimitEnable
p2052
(dp2053
g33
I00
sg34
VTdataCompound
p2054
sg39
(lp2055
g655
ag219
aVmaxTransLimitEnable.maxTransZLimitEnable
p2056
asg38
I00
sg36
I00
ssVmaxScaleLimit
p2057
(dp2058
g33
I00
sg34
Vdouble3
p2059
sg36
I00
sg37
I01
sg38
I01
sg39
(lp2060
g1406
ag1515
ag1375
assVdofMask
p2061
(dp2062
g33
I00
sg34
Vlong
p2063
sg1015
I00
sg1016
I00
sg38
I01
sg39
(lp2064
ssVinheritsTransform
p2065
(dp2066
S'isArray'
p2067
I00
sg4
Vbool
p2068
sS'attrChildrenNames'
p2069
(lp2070
sS'isMulti'
p2071
I00
sS'isCompound'
p2072
I00
sg10
I01
sg11
Vit
p2073
sg13
(lp2074
sS'isElement'
p2075
I00
ssVisHistoricallyInteresting
p2076
(dp2077
S'isArray'
p2078
I00
sg23
Vbyte
p2079
sS'attrChildrenNames'
p2080
(lp2081
sS'isMulti'
p2082
I00
sS'isCompound'
p2083
I00
sg27
I00
sg28
(lp2084
sS'isElement'
p2085
I00
ssVjointOrientType
p2086
(dp2087
g33
I00
sg34
Vstring
p2088
sg36
I00
sg37
I00
sg38
I01
sg39
(lp2089
ssVdrawOverride
p2090
(dp2091
S'isArray'
p2092
I00
sg23
VTdataCompound
p2093
sS'attrChildrenNames'
p2094
(lp2095
VdrawOverride.overrideDisplayType
p2096
aVdrawOverride.overrideLevelOfDetail
p2097
aVdrawOverride.overrideShading
p2098
aVdrawOverride.overrideTexturing
p2099
aVdrawOverride.overridePlayback
p2100
aVdrawOverride.overrideEnabled
p2101
aVdrawOverride.overrideVisibility
p2102
aVdrawOverride.overrideColor
p2103
asS'isMulti'
p2104
I00
sS'isCompound'
p2105
I01
sg27
I00
sg28
(lp2106
VdrawOverride.overrideDisplayType
p2107
aVdrawOverride.overrideLevelOfDetail
p2108
aVdrawOverride.overrideShading
p2109
aVdrawOverride.overrideTexturing
p2110
aVdrawOverride.overridePlayback
p2111
aVdrawOverride.overrideEnabled
p2112
aVdrawOverride.overrideVisibility
p2113
aVdrawOverride.overrideColor
p2114
asS'isElement'
p2115
I00
ssVinstObjGroups.objectGroups.objectGroupId
p2116
(dp2117
g43
VinstObjGroups.objectGroups
p2118
ssg860
(dp2119
g33
I00
sg34
Vbool
p2120
sg36
I00
sg37
I00
sg38
I01
sg39
(lp2121
ssVmaxRotLimit.maxRotXLimit
p2122
(dp2123
g33
I00
sg34
VdoubleAngle
p2124
sg1015
I00
sg1016
I00
sg38
I01
sg39
(lp2125
ssVghostColorPre
p2126
(dp2127
g376
I00
sg379
I00
sg377
Vfloat3
p2128
sg381
I00
sg382
(lp2129
VghostColorPre.ghostColorPreR
p2130
aVghostColorPre.ghostColorPreG
p2131
aVghostColorPre.ghostColorPreB
p2132
assVboundingBox.boundingBoxSize
p2133
(dp2134
S'isArray'
p2135
I00
sS'attrParentLongName'
p2136
VboundingBox
p2137
sS'attrChildrenNames'
p2138
(lp2139
VboundingBox.boundingBoxSize.boundingBoxSizeX
p2140
aVboundingBox.boundingBoxSize.boundingBoxSizeY
p2141
aVboundingBox.boundingBoxSize.boundingBoxSizeZ
p2142
asg23
Vdouble3
p2143
sS'isMulti'
p2144
I00
sS'isCompound'
p2145
I01
sg27
I01
sg28
(lp2146
VboundingBox.boundingBoxSize.boundingBoxSizeX
p2147
aVboundingBox.boundingBoxSize.boundingBoxSizeY
p2148
aVboundingBox.boundingBoxSize.boundingBoxSizeZ
p2149
asS'isElement'
p2150
I00
ssVrenderLayerInfo[0]
p2151
(dp2152
g242
I00
sg243
(lp2153
VrenderLayerInfo[0].renderLayerId
p2154
aVrenderLayerInfo[0].renderLayerRenderable
p2155
aVrenderLayerInfo[0].renderLayerColor
p2156
asg38
I00
sg28
(lp2157
VrenderLayerInfo[0].renderLayerId
p2158
aVrenderLayerInfo[0].renderLayerRenderable
p2159
aVrenderLayerInfo[0].renderLayerColor
p2160
assg767
(dp2161
g33
I00
sg34
Vbool
p2162
sg36
I00
sg37
I00
sg38
I01
sg39
(lp2163
ssVminRotateDampStrength
p2164
(dp2165
S'isArray'
p2166
I00
sg23
Vdouble3
p2167
sS'attrChildrenNames'
p2168
(lp2169
VminRotateDampStrength.minRotateDampStrengthX
p2170
aVminRotateDampStrength.minRotateDampStrengthY
p2171
aVminRotateDampStrength.minRotateDampStrengthZ
p2172
asS'isMulti'
p2173
I00
sS'isCompound'
p2174
I01
sg27
I01
sg28
(lp2175
VminRotateDampStrength.minRotateDampStrengthX
p2176
aVminRotateDampStrength.minRotateDampStrengthY
p2177
aVminRotateDampStrength.minRotateDampStrengthZ
p2178
asS'isElement'
p2179
I00
ssVmaxScaleLimitEnable
p2180
(dp2181
g33
I00
sg34
VTdataCompound
p2182
sg39
(lp2183
g1711
ag223
ag360
asg38
I00
sg36
I00
ssVboundingBox
p2184
(dp2185
S'isArray'
p2186
I00
sg23
VTdataCompound
p2187
sS'attrChildrenNames'
p2188
(lp2189
VboundingBox.boundingBoxMin
p2190
aVboundingBox.boundingBoxMax
p2191
aVboundingBox.boundingBoxSize
p2192
asS'isMulti'
p2193
I00
sS'isCompound'
p2194
I01
sg27
I00
sg28
(lp2195
VboundingBox.boundingBoxMin
p2196
aVboundingBox.boundingBoxMax
p2197
aVboundingBox.boundingBoxSize
p2198
asS'isElement'
p2199
I00
ssVspecifiedManipLocation
p2200
(dp2201
S'isArray'
p2202
I00
sg23
NsS'attrChildrenNames'
p2203
(lp2204
sS'isMulti'
p2205
I00
sS'isCompound'
p2206
I00
sg27
I00
sg28
(lp2207
sS'isElement'
p2208
I00
ssVinstObjGroups[0].objectGroups
p2209
(dp2210
S'isArray'
p2211
I01
sS'attrParentLongName'
p2212
VinstObjGroups[0]
p2213
sg23
VTdataCompound
p2214
sg664
I01
sg27
I00
sS'isElement'
p2215
I00
ssg1334
(dp2216
g33
I00
sg34
Vdouble
p2217
sg36
I00
sg37
I00
sg38
I01
sg39
(lp2218
ssg1332
(dp2219
g33
I00
sg34
Vdouble
p2220
sg36
I00
sg37
I00
sg38
I01
sg39
(lp2221
ssg1333
(dp2222
g33
I00
sg34
Vdouble
p2223
sg36
I00
sg37
I00
sg38
I01
sg39
(lp2224
ssg1567
(dp2225
g33
I00
sg34
Vbool
p2226
sg36
I00
sg37
I00
sg38
I01
sg39
(lp2227
ssVminScaleLimit
p2228
(dp2229
g33
I00
sg34
Vdouble3
p2230
sg36
I00
sg37
I01
sg38
I01
sg39
(lp2231
g176
ag498
ag1189
assVlodVisibility
p2232
(dp2233
S'isArray'
p2234
I00
sg23
Vbool
p2235
sS'attrChildrenNames'
p2236
(lp2237
sS'isMulti'
p2238
I00
sS'isCompound'
p2239
I00
sg27
I01
sg28
(lp2240
sS'isElement'
p2241
I00
ssg576
(dp2242
g402
I00
sg403
VdoubleAngle
p2243
sg405
I00
sg406
I00
sg407
I01
sg11
Vpax
p2244
sg13
(lp2245
ssg577
(dp2246
g402
I00
sg403
VdoubleAngle
p2247
sg405
I00
sg406
I00
sg407
I01
sg11
Vpay
p2248
sg13
(lp2249
ssg578
(dp2250
g402
I00
sg403
VdoubleAngle
p2251
sg405
I00
sg406
I00
sg407
I01
sg11
Vpaz
p2252
sg13
(lp2253
ssVpublishedNodeInfo.isHierarchicalNode
p2254
(dp2255
g1972
VpublishedNodeInfo
p2256
ssVinstObjGroups[0].objectGroups[1].objectGrpCompList
p2257
(dp2258
g515
I00
sg38
I00
sg28
(lp2259
ssVghostRangeStart
p2260
(dp2261
S'isArray'
p2262
I00
sg23
Vtime
p2263
sS'attrChildrenNames'
p2264
(lp2265
sS'isMulti'
p2266
I00
sS'isCompound'
p2267
I00
sg27
I01
sg28
(lp2268
sS'isElement'
p2269
I00
ssVdrawOverride.overridePlayback
p2270
(dp2271
S'isArray'
p2272
I00
sS'attrParentLongName'
p2273
VdrawOverride
p2274
sS'attrChildrenNames'
p2275
(lp2276
sg23
Vbool
p2277
sS'isMulti'
p2278
I00
sS'isCompound'
p2279
I00
sg27
I01
sg28
(lp2280
sS'isElement'
p2281
I00
ssVghostColorPostA
p2282
(dp2283
g376
I00
sg377
Vfloat
p2284
sg379
I00
sg380
I00
sg381
I01
sg382
(lp2285
ssVghostColorPost.ghostColorPostB
p2286
(dp2287
g376
I00
sg377
Vfloat
p2288
sg379
I00
sg380
I00
sg381
I01
sg382
(lp2289
ssVshearXY
p2290
(dp2291
S'isArray'
p2292
I00
sS'attrParentLongName'
p2293
Vshear
p2294
sS'attrChildrenNames'
p2295
(lp2296
sg4
Vdouble
p2297
sS'isMulti'
p2298
I00
sS'isCompound'
p2299
I00
sg10
I01
sS'isElement'
p2300
I00
ssVdrawOverride.overrideShading
p2301
(dp2302
S'isArray'
p2303
I00
sS'attrParentLongName'
p2304
VdrawOverride
p2305
sS'attrChildrenNames'
p2306
(lp2307
sg23
Vbool
p2308
sS'isMulti'
p2309
I00
sS'isCompound'
p2310
I00
sg27
I01
sg28
(lp2311
sS'isElement'
p2312
I00
ssVghostColorPost.ghostColorPostG
p2313
(dp2314
g376
I00
sg377
Vfloat
p2315
sg379
I00
sg380
I00
sg381
I01
sg382
(lp2316
ssVrenderLayerInfo.renderLayerColor
p2317
(dp2318
g43
VrenderLayerInfo
p2319
ssVinstObjGroups[2]
p2320
(dp2321
g515
I00
sg28
(lp2322
g513
assVviewMode
p2323
(dp2324
S'isArray'
p2325
I00
sg23
Venum
p2326
sS'attrChildrenNames'
p2327
(lp2328
sS'isMulti'
p2329
I00
sS'isCompound'
p2330
I00
sg27
I01
sg28
(lp2331
sS'isElement'
p2332
I00
ssVrotatePivotTranslate
p2333
(dp2334
S'isArray'
p2335
I00
sg23
Vdouble3
p2336
sS'attrChildrenNames'
p2337
(lp2338
VrotatePivotTranslate.rotatePivotTranslateX
p2339
aVrotatePivotTranslate.rotatePivotTranslateY
p2340
aVrotatePivotTranslate.rotatePivotTranslateZ
p2341
asS'isMulti'
p2342
I00
sS'isCompound'
p2343
I01
sg27
I01
sg28
(lp2344
VrotatePivotTranslate.rotatePivotTranslateX
p2345
aVrotatePivotTranslate.rotatePivotTranslateY
p2346
aVrotatePivotTranslate.rotatePivotTranslateZ
p2347
asS'isElement'
p2348
I00
ssVikRotate
p2349
(dp2350
g33
I00
sg34
Vdouble3
p2351
sg36
I00
sg37
I01
sg38
I01
sg39
(lp2352
VikRotate.ikRotateX
p2353
aVikRotate.ikRotateY
p2354
aVikRotate.ikRotateZ
p2355
assVintermediateObject
p2356
(dp2357
S'isArray'
p2358
I00
sg23
Vbool
p2359
sS'attrChildrenNames'
p2360
(lp2361
sS'isMulti'
p2362
I00
sS'isCompound'
p2363
I00
sg27
I01
sg28
(lp2364
sS'isElement'
p2365
I00
ssVjointOrientY
p2366
(dp2367
S'isArray'
p2368
I00
sS'attrParentLongName'
p2369
VjointOrient
p2370
sS'attrChildrenNames'
p2371
(lp2372
sg4
VdoubleAngle
p2373
sS'isMulti'
p2374
I00
sS'isCompound'
p2375
I00
sg10
I01
sS'isElement'
p2376
I00
ssVjointOrientX
p2377
(dp2378
S'isArray'
p2379
I00
sS'attrParentLongName'
p2380
VjointOrient
p2381
sS'attrChildrenNames'
p2382
(lp2383
sg4
VdoubleAngle
p2384
sS'isMulti'
p2385
I00
sS'isCompound'
p2386
I00
sg10
I01
sS'isElement'
p2387
I00
ssVjointOrientZ
p2388
(dp2389
S'isArray'
p2390
I00
sS'attrParentLongName'
p2391
VjointOrient
p2392
sS'attrChildrenNames'
p2393
(lp2394
sg4
VdoubleAngle
p2395
sS'isMulti'
p2396
I00
sS'isCompound'
p2397
I00
sg10
I01
sS'isElement'
p2398
I00
ssVghostColorPost
p2399
(dp2400
g376
I00
sg379
I00
sg377
Vfloat3
p2401
sg381
I00
sg382
(lp2402
g1503
ag2313
ag2286
assVotherType
p2403
(dp2404
g33
I00
sg34
Vstring
p2405
sg36
I00
sg37
I00
sg38
I01
sg39
(lp2406
ssg814
(dp2407
g33
I00
sg34
Vbool
p2408
sg36
I00
sg37
I00
sg38
I01
sg39
(lp2409
ssVinIKSolveFlag
p2410
(dp2411
g33
I00
sg34
Vbool
p2412
sg36
I00
sg37
I00
sg38
I01
sg39
(lp2413
ssVmaxRotLimit.maxRotYLimit
p2414
(dp2415
g33
I00
sg34
VdoubleAngle
p2416
sg1015
I00
sg1016
I00
sg38
I01
sg39
(lp2417
ssVrotateX
p2418
(dp2419
S'isArray'
p2420
I00
sS'attrParentLongName'
p2421
Vrotate
p2422
sS'attrChildrenNames'
p2423
(lp2424
sg4
VdoubleAngle
p2425
sS'isMulti'
p2426
I00
sS'isWritable'
p2427
I01
sS'isCompound'
p2428
I00
sg10
I01
sS'isElement'
p2429
I00
ssVrotateY
p2430
(dp2431
S'isArray'
p2432
I00
sS'attrParentLongName'
p2433
Vrotate
p2434
sS'attrChildrenNames'
p2435
(lp2436
sg4
VdoubleAngle
p2437
sS'isMulti'
p2438
I00
sS'isWritable'
p2439
I01
sS'isCompound'
p2440
I00
sg10
I01
sS'isElement'
p2441
I00
ssVrotateZ
p2442
(dp2443
S'isArray'
p2444
I00
sS'attrParentLongName'
p2445
Vrotate
p2446
sS'attrChildrenNames'
p2447
(lp2448
sg4
VdoubleAngle
p2449
sS'isMulti'
p2450
I00
sS'isWritable'
p2451
I01
sS'isCompound'
p2452
I00
sg10
I01
sS'isElement'
p2453
I00
ssVboundingBox.boundingBoxMin
p2454
(dp2455
S'isArray'
p2456
I00
sS'attrParentLongName'
p2457
VboundingBox
p2458
sS'attrChildrenNames'
p2459
(lp2460
VboundingBox.boundingBoxMin.boundingBoxMinX
p2461
aVboundingBox.boundingBoxMin.boundingBoxMinY
p2462
aVboundingBox.boundingBoxMin.boundingBoxMinZ
p2463
asg23
Vdouble3
p2464
sS'isMulti'
p2465
I00
sS'isCompound'
p2466
I01
sg27
I01
sg28
(lp2467
VboundingBox.boundingBoxMin.boundingBoxMinX
p2468
aVboundingBox.boundingBoxMin.boundingBoxMinY
p2469
aVboundingBox.boundingBoxMin.boundingBoxMinZ
p2470
asS'isElement'
p2471
I00
ssVtranslateX
p2472
(dp2473
S'isArray'
p2474
I00
sS'attrParentLongName'
p2475
Vtranslate
p2476
sS'attrChildrenNames'
p2477
(lp2478
sg4
VdoubleLinear
p2479
sS'isMulti'
p2480
I00
sS'isWritable'
p2481
I01
sS'isCompound'
p2482
I00
sg10
I01
sS'isElement'
p2483
I00
ssVtranslateY
p2484
(dp2485
S'isArray'
p2486
I00
sS'attrParentLongName'
p2487
Vtranslate
p2488
sS'attrChildrenNames'
p2489
(lp2490
sg4
VdoubleLinear
p2491
sS'isMulti'
p2492
I00
sS'isWritable'
p2493
I01
sS'isCompound'
p2494
I00
sg10
I01
sS'isElement'
p2495
I00
ssVtranslateZ
p2496
(dp2497
S'isArray'
p2498
I00
sS'attrParentLongName'
p2499
Vtranslate
p2500
sS'attrChildrenNames'
p2501
(lp2502
sg4
VdoubleLinear
p2503
sS'isMulti'
p2504
I00
sS'isWritable'
p2505
I01
sS'isCompound'
p2506
I00
sg10
I01
sS'isElement'
p2507
I00
ssg1423
(dp2508
g402
I00
sg403
Vdouble
p2509
sg405
I00
sg406
I00
sg407
I01
sg11
Visx
p2510
sg13
(lp2511
ssg2056
(dp2512
g33
I00
sg34
Vbool
p2513
sg36
I00
sg37
I00
sg38
I01
sg39
(lp2514
ssVworldInverseMatrix[1]
p2515
(dp2516
g229
I00
sg11
Vwim[1]
sg296
p2517
sg234
(lp2518
sg296
I00
sg13
(lp2519
ssVrotatePivotTranslate.rotatePivotTranslateZ
p2520
(dp2521
S'isArray'
p2522
I00
sS'attrParentLongName'
p2523
VrotatePivotTranslate
p2524
sS'attrChildrenNames'
p2525
(lp2526
sg23
VdoubleLinear
p2527
sS'isMulti'
p2528
I00
sS'isCompound'
p2529
I00
sg27
I01
sg28
(lp2530
sS'isElement'
p2531
I00
ssVrotatePivotTranslate.rotatePivotTranslateX
p2532
(dp2533
S'isArray'
p2534
I00
sS'attrParentLongName'
p2535
VrotatePivotTranslate
p2536
sS'attrChildrenNames'
p2537
(lp2538
sg23
VdoubleLinear
p2539
sS'isMulti'
p2540
I00
sS'isCompound'
p2541
I00
sg27
I01
sg28
(lp2542
sS'isElement'
p2543
I00
ssVrotatePivotTranslate.rotatePivotTranslateY
p2544
(dp2545
S'isArray'
p2546
I00
sS'attrParentLongName'
p2547
VrotatePivotTranslate
p2548
sS'attrChildrenNames'
p2549
(lp2550
sg23
VdoubleLinear
p2551
sS'isMulti'
p2552
I00
sS'isCompound'
p2553
I00
sg27
I01
sg28
(lp2554
sS'isElement'
p2555
I00
ssVrotate
p2556
(dp2557
S'isArray'
p2558
I00
sg4
Vdouble3
p2559
sS'attrChildrenNames'
p2560
(lp2561
VrotateX
p2562
aVrotateY
p2563
aVrotateZ
p2564
asS'isMulti'
p2565
I00
sS'isCompound'
p2566
I01
sg10
I01
sg11
Vr
p2567
sg13
(lp2568
g1585
ag1590
ag1568
asS'isElement'
p2569
I00
ssVparentInverseMatrix[0]
p2570
(dp2571
g229
I00
sg230
Vmatrix
p2572
sS'attrParentLongName'
p2573
VparentInverseMatrix
p2574
sg234
(lp2575
sg236
I00
sg237
I00
sg11
Vpim[0]
p2576
sg13
(lp2577
ssVrenderLayerInfo[1].renderLayerId
p2578
(dp2579
g515
I00
sg38
I00
sg28
(lp2580
ssVobjectColor
p2581
(dp2582
S'isArray'
p2583
I00
sg23
Vshort
p2584
sS'attrChildrenNames'
p2585
(lp2586
sS'isMulti'
p2587
I00
sS'isCompound'
p2588
I00
sg27
I01
sg28
(lp2589
sS'isElement'
p2590
I00
ssVmentalRayControls.miGeoShader
p2591
(dp2592
S'isArray'
p2593
I00
sS'attrParentLongName'
p2594
VmentalRayControls
p2595
sS'attrChildrenNames'
p2596
(lp2597
sg23
NsS'isMulti'
p2598
I00
sS'isCompound'
p2599
I00
sg27
I00
sg28
(lp2600
sS'isElement'
p2601
I00
ssVfkRotate
p2602
(dp2603
g33
I00
sg34
Vdouble3
p2604
sg36
I00
sg37
I01
sg38
I01
sg39
(lp2605
g792
ag796
ag1091
assg2130
(dp2606
g376
I00
sg377
Vfloat
p2607
sg379
I00
sg380
I00
sg381
I01
sg382
(lp2608
ssVpublishedNodeInfo[0]
p2609
(dp2610
g242
I00
sg243
(lp2611
VpublishedNodeInfo[0].publishedNode
p2612
aVpublishedNodeInfo[0].isHierarchicalNode
p2613
aVpublishedNodeInfo[0].publishedNodeType
p2614
asg38
I00
sg28
(lp2615
VpublishedNodeInfo[0].publishedNode
p2616
aVpublishedNodeInfo[0].isHierarchicalNode
p2617
aVpublishedNodeInfo[0].publishedNodeType
p2618
assg2131
(dp2619
g376
I00
sg377
Vfloat
p2620
sg379
I00
sg380
I00
sg381
I01
sg382
(lp2621
ssg2132
(dp2622
g376
I00
sg377
Vfloat
p2623
sg379
I00
sg380
I00
sg381
I01
sg382
(lp2624
ssVpublishedNodeInfo[0].publishedNode
p2625
(dp2626
S'isArray'
p2627
I00
sS'attrParentLongName'
p2628
VpublishedNodeInfo[0]
p2629
sS'attrChildrenNames'
p2630
(lp2631
sg38
I00
sg28
(lp2632
sS'isElement'
p2633
I00
ssg1985
(dp2634
g515
I00
sg38
I00
sg28
(lp2635
ssVscale
p2636
(dp2637
S'isArray'
p2638
I00
sg4
Vdouble3
p2639
sS'attrChildrenNames'
p2640
(lp2641
VscaleX
p2642
aVscaleY
p2643
aVscaleZ
p2644
asS'isMulti'
p2645
I00
sS'isCompound'
p2646
I01
sg10
I01
sg11
Vs
p2647
sg13
(lp2648
g2006
ag2011
ag2001
asS'isElement'
p2649
I00
ssVdrawLabel
p2650
(dp2651
S'isArray'
p2652
I00
sg23
Vbool
p2653
sS'attrChildrenNames'
p2654
(lp2655
sS'isMulti'
p2656
I00
sS'isCompound'
p2657
I00
sg27
I01
sg28
(lp2658
sS'isElement'
p2659
I00
ssVviewName
p2660
(dp2661
S'isArray'
p2662
I00
sg23
Vstring
p2663
sS'attrChildrenNames'
p2664
(lp2665
sS'isMulti'
p2666
I00
sS'isCompound'
p2667
I00
sg27
I01
sg28
(lp2668
sS'isElement'
p2669
I00
ssVinstObjGroups[0].objectGroups[1]
p2670
(dp2671
g242
I00
sg243
(lp2672
VinstObjGroups[0].objectGroups[1].objectGrpCompList
p2673
aVinstObjGroups[0].objectGroups[1].objectGroupId
p2674
aVinstObjGroups[0].objectGroups[1].objectGrpColor
p2675
asg38
I00
sg28
(lp2676
g2257
ag1627
ag1483
assg210
(dp2677
g33
I00
sg34
VdoubleLinear
p2678
sg36
I00
sg37
I00
sg38
I01
sg39
(lp2679
ssViconName
p2680
(dp2681
S'isArray'
p2682
I00
sg23
Vstring
p2683
sS'attrChildrenNames'
p2684
(lp2685
sS'isMulti'
p2686
I00
sS'isCompound'
p2687
I00
sg27
I01
sg28
(lp2688
sS'isElement'
p2689
I00
ssVbindRotateAxis
p2690
(dp2691
g33
I00
sg34
Vdouble3
p2692
sg36
I00
sg37
I01
sg38
I01
sg39
(lp2693
g609
ag613
ag605
assVinstObjGroups
p2694
(dp2695
S'isArray'
p2696
I01
sS'isElement'
p2697
I00
sS'isMulti'
p2698
I01
sg27
I00
sg23
VTdataCompound
p2699
ssg1263
(dp2700
g402
I00
sg403
VdoubleAngle
p2701
sS'attrParentLongName'
p2702
VjointOrient
p2703
sg405
I00
sg406
I00
sg407
I01
sg11
Vjoz
p2704
sg13
(lp2705
ssg1261
(dp2706
g402
I00
sg403
VdoubleAngle
p2707
sg2702
VjointOrient
p2708
sg405
I00
sg406
I00
sg407
I01
sg11
Vjox
p2709
sg13
(lp2710
ssg1262
(dp2711
g402
I00
sg403
VdoubleAngle
p2712
sS'attrParentLongName'
p2713
VjointOrient
p2714
sg405
I00
sg406
I00
sg407
I01
sg11
Vjoy
p2715
sg13
(lp2716
ssVworldMatrix[0]
p2717
(dp2718
g229
I00
sg4
Vmatrix
p2719
sS'attrParentLongName'
p2720
VworldMatrix
p2721
sg234
(lp2722
sS'isMulti'
p2723
I00
sg10
I00
sg11
Vwm[0]
p2724
sg13
(lp2725
ssVdrawOverride.overrideVisibility
p2726
(dp2727
S'isArray'
p2728
I00
sS'attrParentLongName'
p2729
VdrawOverride
p2730
sS'attrChildrenNames'
p2731
(lp2732
sg23
Vbool
p2733
sS'isMulti'
p2734
I00
sS'isCompound'
p2735
I00
sg27
I01
sg28
(lp2736
sS'isElement'
p2737
I00
ssVghosting
p2738
(dp2739
S'isArray'
p2740
I00
sg23
Vbool
p2741
sS'attrChildrenNames'
p2742
(lp2743
sS'isMulti'
p2744
I00
sS'isCompound'
p2745
I00
sg27
I01
sg28
(lp2746
sS'isElement'
p2747
I00
ssVworldInverseMatrix[2]
p2748
(dp2749
g1678
I00
sg1679
(lp2750
sS'attrChildrenLongNames'
p2751
(lp2752
ssg1984
(dp2753
g515
I00
sg38
I00
sg28
(lp2754
ssVmaxRotateDampStrength.maxRotateDampStrengthY
p2755
(dp2756
S'isArray'
p2757
I00
sS'attrParentLongName'
p2758
VmaxRotateDampStrength
p2759
sS'attrChildrenNames'
p2760
(lp2761
sg23
Vdouble
p2762
sS'isMulti'
p2763
I00
sS'isCompound'
p2764
I00
sg27
I01
I00
sg27
I01
sg28
(lp2765
sS'isElement'
p2766
I00
ssVmaxRotLimit
p2767
(dp2768
g33
I00
sg34
Vdouble3
p2769
sg36
I00
sg37
I01
sg38
I01
sg39
(lp2770
g2122
ag2414
aVmaxRotLimit.maxRotZLimit
p2771
assVtranslate
p2772
(dp2773
S'isArray'
p2774
I00
sg4
Vdouble3
p2775
sS'attrChildrenNames'
p2776
(lp2777
VtranslateX
p2778
aVtranslateY
p2779
aVtranslateZ
p2780
asS'isMulti'
p2781
I00
sS'isCompound'
p2782
I01
sg10
I01
sg11
Vt
p2783
sg13
(lp2784
g1613
ag1620
ag1608
ag1594
asS'isElement'
p2785
I00
ssVmaxRotateDampRange
p2786
(dp2787
S'isArray'
p2788
I00
sg23
Vdouble3
p2789
sS'attrChildrenNames'
p2790
(lp2791
VmaxRotateDampRange.maxRotateDampRangeX
p2792
aVmaxRotateDampRange.maxRotateDampRangeY
p2793
aVmaxRotateDampRange.maxRotateDampRangeZ
p2794
asS'isMulti'
p2795
I00
sS'isCompound'
p2796
I01
sg27
I01
sg28
(lp2797
VmaxRotateDampRange.maxRotateDampRangeX
p2798
aVmaxRotateDampRange.maxRotateDampRangeY
p2799
aVmaxRotateDampRange.maxRotateDampRangeZ
p2800
asS'isElement'
p2801
I00
ssVghostCustomSteps.ghostPostSteps
p2802
(dp2803
S'isArray'
p2804
I00
sS'attrParentLongName'
p2805
VghostCustomSteps
p2806
sS'attrChildrenNames'
p2807
(lp2808
sg23
Vlong
p2809
sS'isMulti'
p2810
I00
sS'isCompound'
p2811
I00
sg27
I01
sg28
(lp2812
sS'isElement'
p2813
I00
ssVobjectColorRGB.objectColorG
p2814
(dp2815
S'attrParentLongName'
p2816
VobjectColorRGB
p2817
sg376
I00
sg377
Vfloat
p2818
sg379
I00
sg380
I00
sg381
I01
sg382
(lp2819
ssg211
(dp2820
g33
I00
sg34
VdoubleLinear
p2821
sg36
I00
sg37
I00
sg38
I01
sg39
(lp2822
ssg217
(dp2823
g33
I00
sg34
VdoubleAngle
p2824
sg1015
I00
sg1016
I00
sg38
I01
sg39
(lp2825
ssVobjectColorRGB.objectColorB
p2826
(dp2827
g2816
VobjectColorRGB
p2828
sg376
I00
sg377
Vfloat
p2829
sg379
I00
sg380
I00
sg381
I01
sg382
(lp2830
ssVobjectColorRGB.objectColorR
p2831
(dp2832
g2816
VobjectColorRGB
p2833
sg376
I00
sg377
Vfloat
p2834
sg379
I00
sg380
I00
sg381
I01
sg382
(lp2835
ssVmentalRayControls
p2836
(dp2837
S'isArray'
p2838
I00
sg23
VTdataCompound
p2839
sS'attrChildrenNames'
p2840
(lp2841
VmentalRayControls.miDeriveFromMaya
p2842
aVmentalRayControls.miHide
p2843
aVmentalRayControls.miVisible
p2844
aVmentalRayControls.miTrace
p2845
aVmentalRayControls.miShadow
p2846
aVmentalRayControls.miCaustic
p2847
aVmentalRayControls.miGlobillum
p2848
aVmentalRayControls.miExportGeoShader
p2849
aVmentalRayControls.miGeoShader
p2850
aVmentalRayControls.miProxyRenderable
p2851
asS'isMulti'
p2852
I00
sS'isCompound'
p2853
I01
sg27
I00
sg28
(lp2854
VmentalRayControls.miDeriveFromMaya
p2855
aVmentalRayControls.miHide
p2856
aVmentalRayControls.miVisible
p2857
aVmentalRayControls.miTrace
p2858
aVmentalRayControls.miShadow
p2859
aVmentalRayControls.miCaustic
p2860
aVmentalRayControls.miGlobillum
p2861
aVmentalRayControls.miExportGeoShader
p2862
aVmentalRayControls.miGeoShader
p2863
aVmentalRayControls.miProxyRenderable
p2864
asS'isElement'
p2865
I00
ssVworldInverseMatrix
p2866
(dp2867
S'isArray'
p2868
I01
sg4
Vmatrix
p2869
sS'isMulti'
p2870
I01
sg10
I00
sg11
Vwim
p2871
sS'isElement'
p2872
I00
ssVrenderInfo.identification
p2873
(dp2874
S'isArray'
p2875
I00
sS'attrParentLongName'
p2876
VrenderInfo
p2877
sS'attrChildrenNames'
p2878
(lp2879
sg23
Vshort
p2880
sS'isMulti'
p2881
I00
sS'isCompound'
p2882
I00
sg27
I01
sg28
(lp2883
sS'isElement'
p2884
I00
ssVblackBox
p2885
(dp2886
S'isArray'
p2887
I00
sg23
Vbool
p2888
sS'attrChildrenNames'
p2889
(lp2890
sS'isMulti'
p2891
I00
sS'isCompound'
p2892
I00
sg27
I01
sg28
(lp2893
sS'isElement'
p2894
I00
ssVmentalRayControls.miShadow
p2895
(dp2896
S'isArray'
p2897
I00
sS'attrParentLongName'
p2898
VmentalRayControls
p2899
sS'attrChildrenNames'
p2900
(lp2901
sg23
Venum
p2902
sS'isMulti'
p2903
I00
sS'isCompound'
p2904
I00
sg27
I01
sg28
(lp2905
sS'isElement'
p2906
I00
ssVisHierarchicalConnection[0]
p2907
(dp2908
g33
I00
sg38
I00
sg39
(lp2909
ssVshowManipDefault
p2910
(dp2911
S'isArray'
p2912
I00
sg23
Venum
p2913
sS'attrChildrenNames'
p2914
(lp2915
sS'isMulti'
p2916
I00
sS'isCompound'
p2917
I00
sg27
I01
sg28
(lp2918
sS'isElement'
p2919
I00
ssg2771
(dp2920
g33
I00
sg34
VdoubleAngle
p2921
sg1015
I00
sg1016
I00
sg38
I01
sg39
(lp2922
ssVrenderLayerInfo[0].renderLayerColor
p2923
(dp2924
S'isArray'
p2925
I00
sS'attrParentLongName'
p2926
VrenderLayerInfo[0]
p2927
sS'attrChildrenNames'
p2928
(lp2929
sg38
I00
sg28
(lp2930
sS'isElement'
p2931
I00
ssVrenderLayerInfo[1]
p2932
(dp2933
g242
I00
sg243
(lp2934
VrenderLayerInfo[1].renderLayerId
p2935
aVrenderLayerInfo[1].renderLayerRenderable
p2936
aVrenderLayerInfo[1].renderLayerColor
p2937
asg38
I00
sg28
(lp2938
g2578
ag1605
ag2025
assVghostCustomSteps.ghostStepSize
p2939
(dp2940
S'isArray'
p2941
I00
sS'attrParentLongName'
p2942
VghostCustomSteps
p2943
sS'attrChildrenNames'
p2944
(lp2945
sg23
Vlong
p2946
sS'isMulti'
p2947
I00
sS'isCompound'
p2948
I00
sg27
I01
sg28
(lp2949
sS'isElement'
p2950
I00
ssVrenderLayerInfo
p2951
(dp2952
S'isArray'
p2953
I01
sS'isElement'
p2954
I00
sS'isMulti'
p2955
I01
sg27
I00
sg23
VTdataCompound
p2956
ssg2355
(dp2957
g33
I00
sg34
VdoubleAngle
p2958
sg36
I00
sg37
I00
sg38
I01
sg39
(lp2959
ssg2353
(dp2960
g33
I00
sg34
VdoubleAngle
p2961
sg36
I00
sg37
I00
sg38
I01
sg39
(lp2962
ssg2354
(dp2963
g33
I00
sg34
VdoubleAngle
p2964
sg36
I00
sg37
I00
sg38
I01
sg39
(lp2965
ssVmentalRayControls.miProxyRenderable
p2966
(dp2967
S'isArray'
p2968
I00
sS'attrParentLongName'
p2969
VmentalRayControls
p2970
sS'attrChildrenNames'
p2971
(lp2972
sg23
Vbool
p2973
sS'isMulti'
p2974
I00
sS'isCompound'
p2975
I00
sg27
I01
sg28
(lp2976
sS'isElement'
p2977
I00
ssg765
(dp2978
g33
I00
sg34
Vbool
p2979
sg36
I00
sg37
I00
sg38
I01
sg39
(lp2980
ssVinverseMatrix
p2981
(dp2982
S'isArray'
p2983
I00
sg4
Vmatrix
p2984
sS'attrChildrenNames'
p2985
(lp2986
sS'isMulti'
p2987
I00
sS'isCompound'
p2988
I00
sg10
I00
sg11
Vim
p2989
sg13
(lp2990
sS'isElement'
p2991
I00
ssVcenter.boundingBoxCenterY
p2992
(dp2993
S'isArray'
p2994
I00
sS'attrParentLongName'
p2995
Vcenter
p2996
sS'attrChildrenNames'
p2997
(lp2998
sg23
VdoubleLinear
p2999
sS'isMulti'
p3000
I00
sS'isCompound'
p3001
I00
sg27
I01
sg28
(lp3002
sS'isElement'
p3003
I00
ssVcenter.boundingBoxCenterZ
p3004
(dp3005
S'isArray'
p3006
I00
sS'attrParentLongName'
p3007
Vcenter
p3008
sS'attrChildrenNames'
p3009
(lp3010
sg23
VdoubleLinear
p3011
sS'isMulti'
p3012
I00
sS'isCompound'
p3013
I00
sg27
I01
sg28
(lp3014
sS'isElement'
p3015
I00
ssVcenter.boundingBoxCenterX
p3016
(dp3017
S'isArray'
p3018
I00
sS'attrParentLongName'
p3019
Vcenter
p3020
sS'attrChildrenNames'
p3021
(lp3022
sg23
VdoubleLinear
p3023
sS'isMulti'
p3024
I00
sS'isCompound'
p3025
I00
sg27
I01
sg28
(lp3026
sS'isElement'
p3027
I00
ssVmentalRayControls.miGlobillum
p3028
(dp3029
S'isArray'
p3030
I00
sS'attrParentLongName'
p3031
VmentalRayControls
p3032
sS'attrChildrenNames'
p3033
(lp3034
sg23
Venum
p3035
sS'isMulti'
p3036
I00
sS'isCompound'
p3037
I00
sg27
I01
sg28
(lp3038
sS'isElement'
p3039
I00
ss.