(dp0
VcompInstObjGroups[0].compObjectGroups[0].compObjectGroupId
p1
(dp2
S'isArray'
p3
I00
sS'attrParentLongName'
p4
VcompInstObjGroups[0].compObjectGroups[0]
p5
sS'attrChildrenNames'
p6
(lp7
sS'attrType'
p8
Vlong
p9
sS'isSimple'
p10
I00
sS'isReadable'
p11
I01
sS'attrChildrenLongNames'
p12
(lp13
sS'isElement'
p14
I00
ssVcompInstObjGroups[0].compObjectGroups[1].compObjectGrpCompList
p15
(dp16
S'isArray'
p17
I00
sg10
I00
sg12
(lp18
ssVdrawOverride.overrideColor
p19
(dp20
S'isArray'
p21
I00
sS'attrParentLongName'
p22
VdrawOverride
p23
sS'attrChildrenNames'
p24
(lp25
sS'attrType'
p26
Vbyte
p27
sS'isMulti'
p28
I00
sS'isSimple'
p29
I00
sS'isReadable'
p30
I00
sg12
(lp31
sS'isElement'
p32
I00
ssVintermediateObject
p33
(dp34
S'isArray'
p35
I00
sS'attrType'
p36
Vbool
p37
sS'attrChildrenNames'
p38
(lp39
sS'isMulti'
p40
I00
sS'isCompound'
p41
I00
sg29
I01
sS'isReadable'
p42
I01
sg12
(lp43
sS'isElement'
p44
I00
ssVinstObjGroups[0].objectGroups[1].objectGroupId
p45
(dp46
g17
I00
sg10
I00
sg12
(lp47
ssVrenderLayerInfo.renderLayerId
p48
(dp49
S'attrParentLongName'
p50
VrenderLayerInfo
p51
ssVuseObjectColor
p52
(dp53
S'isArray'
p54
I00
sS'attrType'
p55
Vbool
p56
sS'attrChildrenNames'
p57
(lp58
sS'isMulti'
p59
I00
sS'isCompound'
p60
I00
sg29
I01
sS'isReadable'
p61
I01
sg12
(lp62
sS'isElement'
p63
I00
ssVworldPosition[0].worldPositionY
p64
(dp65
S'isArray'
p66
I00
sS'attrParentLongName'
p67
VworldPosition[0]
p68
sS'attrChildrenNames'
p69
(lp70
sS'attrType'
p71
VdoubleLinear
p72
sg10
I00
sS'isReadable'
p73
I01
sg12
(lp74
sS'isElement'
p75
I00
ssVworldPosition[0].worldPositionX
p76
(dp77
S'isArray'
p78
I00
sS'attrParentLongName'
p79
VworldPosition[0]
p80
sS'attrChildrenNames'
p81
(lp82
sS'attrType'
p83
VdoubleLinear
p84
sg10
I00
sS'isReadable'
p85
I01
sg12
(lp86
sS'isElement'
p87
I00
ssVghostColorPost
p88
(dp89
S'isArray'
p90
I00
sS'attrType'
p91
Vfloat3
p92
sS'isMulti'
p93
I00
sS'isSimple'
p94
I00
sS'attrChildrenLongNames'
p95
(lp96
VghostColorPost.ghostColorPostR
p97
aVghostColorPost.ghostColorPostG
p98
aVghostColorPost.ghostColorPostB
p99
assVworldPosition[0].worldPositionZ
p100
(dp101
S'isArray'
p102
I00
sS'attrParentLongName'
p103
VworldPosition[0]
p104
sS'attrChildrenNames'
p105
(lp106
sS'attrType'
p107
VdoubleLinear
p108
sg10
I00
sS'isReadable'
p109
I01
sg12
(lp110
sS'isElement'
p111
I00
ssVantialiasingLevel
p112
(dp113
S'isArray'
p114
I00
sS'attrType'
p115
Vlong
p116
sS'attrChildrenNames'
p117
(lp118
sS'isMulti'
p119
I00
sS'isCompound'
p120
I00
sg29
I01
sS'isReadable'
p121
I01
sg12
(lp122
sS'isElement'
p123
I00
ssVignoreSelfShadowing
p124
(dp125
S'isArray'
p126
I00
sS'attrType'
p127
Vbool
p128
sS'attrChildrenNames'
p129
(lp130
sS'isMulti'
p131
I00
sS'isCompound'
p132
I00
sg29
I01
sS'isReadable'
p133
I01
sg12
(lp134
sS'isElement'
p135
I00
ssVinstObjGroups[0].objectGroups[1].objectGrpCompList
p136
(dp137
g17
I00
sg10
I00
sg12
(lp138
ssVrenderLayerInfo[1].renderLayerColor
p139
(dp140
g17
I00
sg10
I00
sg12
(lp141
ssVbinMembership
p142
(dp143
g17
I00
sS'attrType'
p144
Vstring
p145
sg93
I00
sS'isCompound'
p146
I00
sg10
I01
sg12
(lp147
ssVcustomTreatment
p148
(dp149
S'isArray'
p150
I00
sS'attrType'
p151
Vstring
p152
sS'attrChildrenNames'
p153
(lp154
sS'isMulti'
p155
I00
sS'isCompound'
p156
I00
sg29
I01
sS'isReadable'
p157
I01
sg12
(lp158
sS'isElement'
p159
I00
ssVisHierarchicalConnection[0]
p160
(dp161
g17
I00
sg10
I00
sg12
(lp162
ssVrenderLayerInfo[0].renderLayerRenderable
p163
(dp164
S'isArray'
p165
I00
sS'attrParentLongName'
p166
VrenderLayerInfo[0]
p167
sS'attrChildrenNames'
p168
(lp169
sS'attrType'
p170
Vbool
p171
sg10
I00
sS'isReadable'
p172
I01
sg12
(lp173
sS'isElement'
p174
I00
ssVprimaryVisibility
p175
(dp176
S'isArray'
p177
I00
sS'attrType'
p178
Vbool
p179
sS'attrChildrenNames'
p180
(lp181
sS'isMulti'
p182
I00
sS'isCompound'
p183
I00
sg29
I01
sS'isReadable'
p184
I01
sg12
(lp185
sS'isElement'
p186
I00
ssVboundingBox.boundingBoxMin
p187
(dp188
S'isArray'
p189
I00
sS'attrParentLongName'
p190
VboundingBox
p191
sS'attrChildrenNames'
p192
(lp193
VboundingBox.boundingBoxMin.boundingBoxMinX
p194
aVboundingBox.boundingBoxMin.boundingBoxMinY
p195
aVboundingBox.boundingBoxMin.boundingBoxMinZ
p196
asS'attrType'
p197
Vdouble3
p198
sS'isMulti'
p199
I00
sS'isCompound'
p200
I01
sg29
I01
sS'isReadable'
p201
I01
sg12
(lp202
VboundingBox.boundingBoxMin.boundingBoxMinX
p203
aVboundingBox.boundingBoxMin.boundingBoxMinY
p204
aVboundingBox.boundingBoxMin.boundingBoxMinZ
p205
asS'isElement'
p206
I00
ssVboundingBox.boundingBoxMin.boundingBoxMinX
p207
(dp208
S'isArray'
p209
I00
sS'attrParentLongName'
p210
VboundingBox.boundingBoxMin
p211
sS'attrChildrenNames'
p212
(lp213
sS'attrType'
p214
VdoubleLinear
p215
sS'isMulti'
p216
I00
sS'isCompound'
p217
I00
sg29
I01
sS'isReadable'
p218
I01
sg12
(lp219
sS'isElement'
p220
I00
ssVcompInstObjGroups[0].compObjectGroups[0].compObjectGrpCompList
p221
(dp222
S'isArray'
p223
I00
sS'attrParentLongName'
p224
VcompInstObjGroups[0].compObjectGroups[0]
p225
sS'attrChildrenNames'
p226
(lp227
sS'attrType'
p228
Nsg10
I00
sS'isReadable'
p229
I00
sg12
(lp230
sS'isElement'
p231
I00
ssVboundingBox.boundingBoxMin.boundingBoxMinZ
p232
(dp233
S'isArray'
p234
I00
sS'attrParentLongName'
p235
VboundingBox.boundingBoxMin
p236
sS'attrChildrenNames'
p237
(lp238
sS'attrType'
p239
VdoubleLinear
p240
sS'isMulti'
p241
I00
sS'isCompound'
p242
I00
sg29
I01
sS'isReadable'
p243
I01
sg12
(lp244
sS'isElement'
p245
I00
ssVshadingSamplesOverride
p246
(dp247
S'isArray'
p248
I00
sS'attrType'
p249
Vbool
p250
sS'attrChildrenNames'
p251
(lp252
sS'isMulti'
p253
I00
sS'isCompound'
p254
I00
sg29
I01
sS'isReadable'
p255
I01
sg12
(lp256
sS'isElement'
p257
I00
ssVdrawOverride.overrideLevelOfDetail
p258
(dp259
S'isArray'
p260
I00
sS'attrParentLongName'
p261
VdrawOverride
p262
sS'attrChildrenNames'
p263
(lp264
sS'attrType'
p265
Venum
p266
sS'isMulti'
p267
I00
sS'isCompound'
p268
I00
sg29
I01
sS'isReadable'
p269
I01
sg12
(lp270
sS'isElement'
p271
I00
ssVworldPosition[2].worldPositionX
p272
(dp273
g17
I00
sg10
I00
sg12
(lp274
ssVmotionBlur
p275
(dp276
S'isArray'
p277
I00
sS'attrType'
p278
Vbool
p279
sS'attrChildrenNames'
p280
(lp281
sS'isMulti'
p282
I00
sS'isCompound'
p283
I00
sg29
I01
sS'isReadable'
p284
I01
sg12
(lp285
sS'isElement'
p286
I00
ssVvolumeSamplesOverride
p287
(dp288
S'isArray'
p289
I00
sS'attrType'
p290
Vbool
p291
sS'attrChildrenNames'
p292
(lp293
sS'isMulti'
p294
I00
sS'isCompound'
p295
I00
sg29
I01
sS'isReadable'
p296
I01
sg12
(lp297
sS'isElement'
p298
I00
ssVinstObjGroups[0].objectGroups[0].objectGroupId
p299
(dp300
S'isArray'
p301
I00
sS'attrParentLongName'
p302
VinstObjGroups[0].objectGroups[0]
p303
sS'attrChildrenNames'
p304
(lp305
sS'attrType'
p306
Vlong
p307
sg10
I00
sS'isReadable'
p308
I01
sg12
(lp309
sS'isElement'
p310
I00
ssVrenderLayerInfo[0].renderLayerId
p311
(dp312
S'isArray'
p313
I00
sS'attrParentLongName'
p314
VrenderLayerInfo[0]
p315
sS'attrChildrenNames'
p316
(lp317
sS'attrType'
p318
Vshort
p319
sg10
I00
sS'isReadable'
p320
I01
sg12
(lp321
sS'isElement'
p322
I00
ssVworldInverseMatrix[1]
p323
(dp324
S'isArray'
p325
I00
sS'attrChildrenNames'
p326
(lp327
sg10
I00
sg12
(lp328
ssVcompInstObjGroups.compObjectGroups.compObjectGroupId
p329
(dp330
g50
VcompInstObjGroups.compObjectGroups
p331
ssVcreationDate
p332
(dp333
S'isArray'
p334
I00
sS'attrType'
p335
Vstring
p336
sS'attrChildrenNames'
p337
(lp338
sS'isMulti'
p339
I00
sS'isCompound'
p340
I00
sg29
I01
sS'isReadable'
p341
I01
sg12
(lp342
sS'isElement'
p343
I00
ssVtemplatePath
p344
(dp345
S'isArray'
p346
I00
sS'attrType'
p347
Vstring
p348
sS'attrChildrenNames'
p349
(lp350
sS'isMulti'
p351
I00
sS'isCompound'
p352
I00
sg29
I01
sS'isReadable'
p353
I01
sg12
(lp354
sS'isElement'
p355
I00
ssVreceiveShadows
p356
(dp357
S'isArray'
p358
I00
sS'attrType'
p359
Vbool
p360
sS'attrChildrenNames'
p361
(lp362
sS'isMulti'
p363
I00
sS'isCompound'
p364
I00
sg29
I01
sS'isReadable'
p365
I01
sg12
(lp366
sS'isElement'
p367
I00
ssVvolumeSamples
p368
(dp369
S'isArray'
p370
I00
sS'attrType'
p371
Vlong
p372
sS'attrChildrenNames'
p373
(lp374
sS'isMulti'
p375
I00
sS'isCompound'
p376
I00
sg29
I01
sS'isReadable'
p377
I01
sg12
(lp378
sS'isElement'
p379
I00
ssVlocalPosition.localPositionZ
p380
(dp381
S'isArray'
p382
I00
sS'attrParentLongName'
p383
VlocalPosition
p384
sS'attrChildrenNames'
p385
(lp386
sS'attrType'
p387
VdoubleLinear
p388
sS'isMulti'
p389
I00
sS'isCompound'
p390
I00
sg29
I01
sS'isReadable'
p391
I01
sg12
(lp392
sS'isElement'
p393
I00
ssVlocalPosition.localPositionX
p394
(dp395
S'isArray'
p396
I00
sS'attrParentLongName'
p397
VlocalPosition
p398
sS'attrChildrenNames'
p399
(lp400
sS'attrType'
p401
VdoubleLinear
p402
sS'isMulti'
p403
I00
sS'isCompound'
p404
I00
sg29
I01
sS'isReadable'
p405
I01
sg12
(lp406
sS'isElement'
p407
I00
ssVlocalPosition.localPositionY
p408
(dp409
S'isArray'
p410
I00
sS'attrParentLongName'
p411
VlocalPosition
p412
sS'attrChildrenNames'
p413
(lp414
sS'attrType'
p415
VdoubleLinear
p416
sS'isMulti'
p417
I00
sS'isCompound'
p418
I00
sg29
I01
sS'isReadable'
p419
I01
sg12
(lp420
sS'isElement'
p421
I00
ssVshadingSamples
p422
(dp423
S'isArray'
p424
I00
sS'attrType'
p425
Vlong
p426
sS'attrChildrenNames'
p427
(lp428
sS'isMulti'
p429
I00
sS'isCompound'
p430
I00
sg29
I01
sS'isReadable'
p431
I01
sg12
(lp432
sS'isElement'
p433
I00
ssVworldPosition.worldPositionZ
p434
(dp435
g50
VworldPosition
p436
ssVworldPosition.worldPositionX
p437
(dp438
g50
VworldPosition
p439
ssVisHierarchicalConnection[1]
p440
(dp441
g17
I00
sg10
I00
sg12
(lp442
ssVparentInverseMatrix[0]
p443
(dp444
g325
I00
sg326
(lp445
sg10
I00
sg12
(lp446
ssVrenderLayerInfo[1].renderLayerId
p447
(dp448
g17
I00
sg10
I00
sg12
(lp449
ssVlocalScale.localScaleZ
p450
(dp451
S'isArray'
p452
I00
sS'attrParentLongName'
p453
VlocalScale
p454
sS'attrChildrenNames'
p455
(lp456
sS'attrType'
p457
VdoubleLinear
p458
sS'isMulti'
p459
I00
sS'isCompound'
p460
I00
sg29
I01
sS'isReadable'
p461
I01
sg12
(lp462
sS'isElement'
p463
I00
ssVobjectColor
p464
(dp465
S'isArray'
p466
I00
sS'attrType'
p467
Vshort
p468
sS'attrChildrenNames'
p469
(lp470
sS'isMulti'
p471
I00
sS'isCompound'
p472
I00
sg29
I01
sS'isReadable'
p473
I01
sg12
(lp474
sS'isElement'
p475
I00
ssVlocalScale.localScaleX
p476
(dp477
S'isArray'
p478
I00
sS'attrParentLongName'
p479
VlocalScale
p480
sS'attrChildrenNames'
p481
(lp482
sS'attrType'
p483
VdoubleLinear
p484
sS'isMulti'
p485
I00
sS'isCompound'
p486
I00
sg29
I01
sS'isReadable'
p487
I01
sg12
(lp488
sS'isElement'
p489
I00
ssVdrawOverride.overrideEnabled
p490
(dp491
S'isArray'
p492
I00
sS'attrParentLongName'
p493
VdrawOverride
p494
sS'attrChildrenNames'
p495
(lp496
sS'attrType'
p497
Vbool
p498
sS'isMulti'
p499
I00
sS'isCompound'
p500
I00
sg29
I01
sS'isReadable'
p501
I01
sg12
(lp502
sS'isElement'
p503
I00
ssVboundingBox.boundingBoxMax
p504
(dp505
S'isArray'
p506
I00
sS'attrParentLongName'
p507
VboundingBox
p508
sS'attrChildrenNames'
p509
(lp510
VboundingBox.boundingBoxMax.boundingBoxMaxX
p511
aVboundingBox.boundingBoxMax.boundingBoxMaxY
p512
aVboundingBox.boundingBoxMax.boundingBoxMaxZ
p513
asS'attrType'
p514
Vdouble3
p515
sS'isMulti'
p516
I00
sS'isCompound'
p517
I01
sg29
I01
sS'isReadable'
p518
I01
sg12
(lp519
VboundingBox.boundingBoxMax.boundingBoxMaxX
p520
aVboundingBox.boundingBoxMax.boundingBoxMaxY
p521
aVboundingBox.boundingBoxMax.boundingBoxMaxZ
p522
asS'isElement'
p523
I00
ssVparentMatrix[0]
p524
(dp525
g325
I00
sg326
(lp526
sg10
I00
sg12
(lp527
ssVghostColorPre.ghostColorPreR
p528
(dp529
g90
I00
sg91
Vfloat
p530
sg93
I00
sg146
I00
sg94
I01
sg95
(lp531
ssVcreator
p532
(dp533
S'isArray'
p534
I00
sS'attrType'
p535
Vstring
p536
sS'attrChildrenNames'
p537
(lp538
sS'isMulti'
p539
I00
sS'isCompound'
p540
I00
sg29
I01
sS'isReadable'
p541
I01
sg12
(lp542
sS'isElement'
p543
I00
ssVdepthJitter
p544
(dp545
S'isArray'
p546
I00
sS'attrType'
p547
Vbool
p548
sS'attrChildrenNames'
p549
(lp550
sS'isMulti'
p551
I00
sS'isCompound'
p552
I00
sg29
I01
sS'isReadable'
p553
I01
sg12
(lp554
sS'isElement'
p555
I00
ssVinstObjGroups[0].objectGroups[0]
p556
(dp557
g325
I00
sg326
(lp558
VinstObjGroups[0].objectGroups[0].objectGrpCompList
p559
aVinstObjGroups[0].objectGroups[0].objectGroupId
p560
aVinstObjGroups[0].objectGroups[0].objectGrpColor
p561
asg10
I00
sg12
(lp562
VinstObjGroups[0].objectGroups[0].objectGrpCompList
p563
aVinstObjGroups[0].objectGroups[0].objectGroupId
p564
aVinstObjGroups[0].objectGroups[0].objectGrpColor
p565
assVghostRangeEnd
p566
(dp567
S'isArray'
p568
I00
sS'attrType'
p569
Vtime
p570
sS'attrChildrenNames'
p571
(lp572
sS'isMulti'
p573
I00
sS'isCompound'
p574
I00
sg29
I01
sS'isReadable'
p575
I01
sg12
(lp576
sS'isElement'
p577
I00
ssVobjectColorRGB
p578
(dp579
g90
I00
sg91
Vfloat3
p580
sg93
I00
sg94
I00
sg95
(lp581
VobjectColorRGB.objectColorR
p582
aVobjectColorRGB.objectColorG
p583
aVobjectColorRGB.objectColorB
p584
assVcompInstObjGroups.compObjectGroups.compObjectGrpCompList
p585
(dp586
g50
VcompInstObjGroups.compObjectGroups
p587
ssVghostColorPre.ghostColorPreG
p588
(dp589
g90
I00
sg91
Vfloat
p590
sg93
I00
sg146
I00
sg94
I01
sg95
(lp591
ssVghostColorPre.ghostColorPreB
p592
(dp593
g90
I00
sg91
Vfloat
p594
sg93
I00
sg146
I00
sg94
I01
sg95
(lp595
ssVpublishedNodeInfo[0].publishedNode
p596
(dp597
S'isArray'
p598
I00
sS'attrParentLongName'
p599
VpublishedNodeInfo[0]
p600
sS'attrChildrenNames'
p601
(lp602
sS'attrType'
p603
Vmessage
p604
sg10
I00
sS'isReadable'
p605
I00
sg12
(lp606
sS'isElement'
p607
I00
ssVpublishedNodeInfo[1].isHierarchicalNode
p608
(dp609
g17
I00
sg10
I00
sg12
(lp610
ssVtemplateVersion
p611
(dp612
S'isArray'
p613
I00
sS'attrType'
p614
Vlong
p615
sS'attrChildrenNames'
p616
(lp617
sS'isMulti'
p618
I00
sS'isCompound'
p619
I00
sg29
I01
sS'isReadable'
p620
I01
sg12
(lp621
sS'isElement'
p622
I00
ssVinstObjGroups[1].objectGroups
p623
(dp624
g17
I01
sg10
I00
ssVrenderLayerInfo.renderLayerRenderable
p625
(dp626
g50
VrenderLayerInfo
p627
ssVmatrix
p628
(dp629
S'isArray'
p630
I00
sS'attrType'
p631
Vmatrix
p632
sS'attrChildrenNames'
p633
(lp634
sS'isMulti'
p635
I00
sg29
I00
sS'isReadable'
p636
I00
sg12
(lp637
sS'isElement'
p638
I00
ssVghostCustomSteps
p639
(dp640
S'isArray'
p641
I00
sS'attrType'
p642
VTdataCompound
p643
sS'attrChildrenNames'
p644
(lp645
VghostCustomSteps.ghostPreSteps
p646
aVghostCustomSteps.ghostPostSteps
p647
aVghostCustomSteps.ghostStepSize
p648
asS'isMulti'
p649
I00
sg29
I00
sS'isReadable'
p650
I00
sg12
(lp651
VghostCustomSteps.ghostPreSteps
p652
aVghostCustomSteps.ghostPostSteps
p653
aVghostCustomSteps.ghostStepSize
p654
asS'isElement'
p655
I00
ssVcompInstObjGroups[0].compObjectGroups[0]
p656
(dp657
g325
I00
sg326
(lp658
VcompInstObjGroups[0].compObjectGroups[0].compObjectGrpCompList
p659
aVcompInstObjGroups[0].compObjectGroups[0].compObjectGroupId
p660
asg10
I00
sg12
(lp661
VcompInstObjGroups[0].compObjectGroups[0].compObjectGrpCompList
p662
aVcompInstObjGroups[0].compObjectGroups[0].compObjectGroupId
p663
assVworldPosition[0]
p664
(dp665
g325
I00
sg326
(lp666
VworldPosition[0].worldPositionX
p667
aVworldPosition[0].worldPositionY
p668
aVworldPosition[0].worldPositionZ
p669
asg10
I00
sg12
(lp670
VworldPosition[0].worldPositionX
p671
aVworldPosition[0].worldPositionY
p672
aVworldPosition[0].worldPositionZ
p673
assVworldPosition.worldPositionY
p674
(dp675
g50
VworldPosition
p676
ssVworldMatrix
p677
(dp678
S'isArray'
p679
I01
sS'attrType'
p680
Vmatrix
p681
sS'isMulti'
p682
I01
sg29
I00
sS'isReadable'
p683
I00
sS'isElement'
p684
I00
ssVtemplate
p685
(dp686
S'isArray'
p687
I00
sS'attrType'
p688
Vbool
p689
sS'attrChildrenNames'
p690
(lp691
sS'isMulti'
p692
I00
sS'isCompound'
p693
I00
sg29
I01
sS'isReadable'
p694
I01
sg12
(lp695
sS'isElement'
p696
I00
ssVworldPosition[2].worldPositionZ
p697
(dp698
g17
I00
sg10
I00
sg12
(lp699
ssVcontainerType
p700
(dp701
S'isArray'
p702
I00
sS'attrType'
p703
Vstring
p704
sS'attrChildrenNames'
p705
(lp706
sS'isMulti'
p707
I00
sS'isCompound'
p708
I00
sg29
I01
sS'isReadable'
p709
I01
sg12
(lp710
sS'isElement'
p711
I00
ssVworldPosition[2].worldPositionY
p712
(dp713
g17
I00
sg10
I00
sg12
(lp714
ssVgeometryAntialiasingOverride
p715
(dp716
S'isArray'
p717
I00
sS'attrType'
p718
Vbool
p719
sS'attrChildrenNames'
p720
(lp721
sS'isMulti'
p722
I00
sS'isCompound'
p723
I00
sg29
I01
sS'isReadable'
p724
I01
sg12
(lp725
sS'isElement'
p726
I00
ssVinstObjGroups.objectGroups.objectGrpCompList
p727
(dp728
g50
VinstObjGroups.objectGroups
p729
ssVparentInverseMatrix
p730
(dp731
S'isArray'
p732
I01
sS'attrType'
p733
Vmatrix
p734
sS'isMulti'
p735
I01
sg29
I00
sS'isReadable'
p736
I00
sS'isElement'
p737
I00
ssVviewName
p738
(dp739
S'isArray'
p740
I00
sS'attrType'
p741
Vstring
p742
sS'attrChildrenNames'
p743
(lp744
sS'isMulti'
p745
I00
sS'isCompound'
p746
I00
sg29
I01
sS'isReadable'
p747
I01
sg12
(lp748
sS'isElement'
p749
I00
ssVpublishedNodeInfo.publishedNodeType
p750
(dp751
g50
VpublishedNodeInfo
p752
ssVparentInverseMatrix[1]
p753
(dp754
g325
I00
sg326
(lp755
sg10
I00
sg12
(lp756
ssVpublishedNodeInfo[1]
p757
(dp758
g325
I00
sg326
(lp759
VpublishedNodeInfo[1].publishedNode
p760
aVpublishedNodeInfo[1].isHierarchicalNode
p761
aVpublishedNodeInfo[1].publishedNodeType
p762
asg10
I00
sg12
(lp763
VpublishedNodeInfo[1].publishedNode
p764
ag608
aVpublishedNodeInfo[1].publishedNodeType
p765
assVrenderInfo.layerRenderable
p766
(dp767
S'isArray'
p768
I00
sS'attrParentLongName'
p769
VrenderInfo
p770
sS'attrChildrenNames'
p771
(lp772
sS'attrType'
p773
Vbool
p774
sS'isMulti'
p775
I00
sS'isCompound'
p776
I00
sg29
I01
sS'isReadable'
p777
I01
sg12
(lp778
sS'isElement'
p779
I00
ssVrmbCommand
p780
(dp781
g17
I00
sg144
Vstring
p782
sg93
I00
sg146
I00
sg10
I01
sg12
(lp783
ssVghostCustomSteps.ghostPreSteps
p784
(dp785
S'isArray'
p786
I00
sS'attrParentLongName'
p787
VghostCustomSteps
p788
sS'attrChildrenNames'
p789
(lp790
sS'attrType'
p791
Vlong
p792
sS'isMulti'
p793
I00
sS'isCompound'
p794
I00
sg29
I01
sS'isReadable'
p795
I01
sg12
(lp796
sS'isElement'
p797
I00
ssg765
(dp798
g17
I00
sg10
I00
sg12
(lp799
ssVlocalScale.localScaleY
p800
(dp801
S'isArray'
p802
I00
sS'attrParentLongName'
p803
VlocalScale
p804
sS'attrChildrenNames'
p805
(lp806
sS'attrType'
p807
VdoubleLinear
p808
sS'isMulti'
p809
I00
sS'isCompound'
p810
I00
sg29
I01
sS'isReadable'
p811
I01
sg12
(lp812
sS'isElement'
p813
I00
ssVdrawOverride.overrideTexturing
p814
(dp815
S'isArray'
p816
I00
sS'attrParentLongName'
p817
VdrawOverride
p818
sS'attrChildrenNames'
p819
(lp820
sS'attrType'
p821
Vbool
p822
sS'isMulti'
p823
I00
sS'isCompound'
p824
I00
sg29
I01
sS'isReadable'
p825
I01
sg12
(lp826
sS'isElement'
p827
I00
ssVlocalScale
p828
(dp829
S'isArray'
p830
I00
sS'attrType'
p831
Vdouble3
p832
sS'attrChildrenNames'
p833
(lp834
VlocalScale.localScaleX
p835
aVlocalScale.localScaleY
p836
aVlocalScale.localScaleZ
p837
asS'isMulti'
p838
I00
sS'isCompound'
p839
I01
sg29
I01
sS'isReadable'
p840
I01
sg12
(lp841
VlocalScale.localScaleX
p842
aVlocalScale.localScaleY
p843
aVlocalScale.localScaleZ
p844
asS'isElement'
p845
I00
ssVcompInstObjGroups[0].compObjectGroups[1]
p846
(dp847
g325
I00
sg326
(lp848
VcompInstObjGroups[0].compObjectGroups[1].compObjectGrpCompList
p849
aVcompInstObjGroups[0].compObjectGroups[1].compObjectGroupId
p850
asg10
I00
sg12
(lp851
g15
aVcompInstObjGroups[0].compObjectGroups[1].compObjectGroupId
p852
assVinstObjGroups[0].objectGroups[1]
p853
(dp854
g325
I00
sg326
(lp855
VinstObjGroups[0].objectGroups[1].objectGrpCompList
p856
aVinstObjGroups[0].objectGroups[1].objectGroupId
p857
aVinstObjGroups[0].objectGroups[1].objectGrpColor
p858
asg10
I00
sg12
(lp859
g136
ag45
aVinstObjGroups[0].objectGroups[1].objectGrpColor
p860
assVghostRangeStart
p861
(dp862
S'isArray'
p863
I00
sS'attrType'
p864
Vtime
p865
sS'attrChildrenNames'
p866
(lp867
sS'isMulti'
p868
I00
sS'isCompound'
p869
I00
sg29
I01
sS'isReadable'
p870
I01
sg12
(lp871
sS'isElement'
p872
I00
ssVpublishedNodeInfo[0].publishedNodeType
p873
(dp874
S'isArray'
p875
I00
sS'attrParentLongName'
p876
VpublishedNodeInfo[0]
p877
sS'attrChildrenNames'
p878
(lp879
sS'attrType'
p880
Vstring
p881
sg10
I00
sS'isReadable'
p882
I01
sg12
(lp883
sS'isElement'
p884
I00
ssVisHierarchicalConnection
p885
(dp886
g17
I01
sg144
VTdataCompound
p887
sg10
I00
sg93
I01
ssVinstObjGroups.objectGroups.objectGrpColor
p888
(dp889
g50
VinstObjGroups.objectGroups
p890
ssVinstObjGroups[2]
p891
(dp892
S'isArray'
p893
I00
sS'attrChildrenLongNames'
p894
(lp895
VinstObjGroups[2].objectGroups
p896
assVinstObjGroups
p897
(dp898
S'isArray'
p899
I01
sS'attrType'
p900
VTdataCompound
p901
sS'isMulti'
p902
I01
sg29
I00
sS'isReadable'
p903
I00
sS'isElement'
p904
I00
ssVselectionChildHighlighting
p905
(dp906
g90
I00
sg91
Vbool
p907
sg93
I00
sg146
I00
sg94
I01
sg95
(lp908
ssVmaxVisibilitySamples
p909
(dp910
S'isArray'
p911
I00
sS'attrType'
p912
Vlong
p913
sS'attrChildrenNames'
p914
(lp915
sS'isMulti'
p916
I00
sS'isCompound'
p917
I00
sg29
I01
sS'isReadable'
p918
I01
sg12
(lp919
sS'isElement'
p920
I00
ssVworldPosition
p921
(dp922
S'isArray'
p923
I01
sS'attrType'
p924
Vdouble3
p925
sS'isMulti'
p926
I01
sg29
I01
sS'isReadable'
p927
I01
sg12
(lp928
VworldPosition[-1].worldPositionX
p929
aVworldPosition[-1].worldPositionY
p930
aVworldPosition[-1].worldPositionZ
p931
asS'isElement'
p932
I00
ssVvisibleFraction
p933
(dp934
S'isArray'
p935
I00
sS'attrType'
p936
Vfloat
p937
sS'attrChildrenNames'
p938
(lp939
sS'isMulti'
p940
I00
sS'isCompound'
p941
I00
sg29
I01
sS'isReadable'
p942
I01
sg12
(lp943
sS'isElement'
p944
I00
ssVworldMatrix[0]
p945
(dp946
g325
I00
sg326
(lp947
sg10
I00
sg12
(lp948
ssVdrawOverride.overrideVisibility
p949
(dp950
S'isArray'
p951
I00
sS'attrParentLongName'
p952
VdrawOverride
p953
sS'attrChildrenNames'
p954
(lp955
sS'attrType'
p956
Vbool
p957
sS'isMulti'
p958
I00
sS'isCompound'
p959
I00
sg29
I01
sS'isReadable'
p960
I01
sg12
(lp961
sS'isElement'
p962
I00
ssVghosting
p963
(dp964
S'isArray'
p965
I00
sS'attrType'
p966
Vbool
p967
sS'attrChildrenNames'
p968
(lp969
sS'isMulti'
p970
I00
sS'isCompound'
p971
I00
sg29
I01
sS'isReadable'
p972
I01
sg12
(lp973
sS'isElement'
p974
I00
ssg764
(dp975
g17
I00
sg10
I00
sg12
(lp976
ssVisHistoricallyInteresting
p977
(dp978
S'isArray'
p979
I00
sS'attrType'
p980
Vbyte
p981
sS'attrChildrenNames'
p982
(lp983
sS'isMulti'
p984
I00
sg29
I00
sS'isReadable'
p985
I00
sg12
(lp986
sS'isElement'
p987
I00
ssVcompInstObjGroups[0]
p988
(dp989
g325
I00
sg326
(lp990
VcompInstObjGroups[0].compObjectGroups
p991
asg10
I00
sg12
(lp992
VcompInstObjGroups[0].compObjectGroups
p993
assg896
(dp994
g893
I01
ssVinstObjGroups[1]
p995
(dp996
g325
I00
sg326
(lp997
VinstObjGroups[1].objectGroups
p998
asg10
I00
sg12
(lp999
g623
assVvisibleInReflections
p1000
(dp1001
S'isArray'
p1002
I00
sS'attrType'
p1003
Vbool
p1004
sS'attrChildrenNames'
p1005
(lp1006
sS'isMulti'
p1007
I00
sS'isCompound'
p1008
I00
sg29
I01
sS'isReadable'
p1009
I01
sg12
(lp1010
sS'isElement'
p1011
I00
ssVinstObjGroups.objectGroups
p1012
(dp1013
g50
VinstObjGroups
p1014
ssVdrawOverride
p1015
(dp1016
S'isArray'
p1017
I00
sS'attrType'
p1018
VTdataCompound
p1019
sS'attrChildrenNames'
p1020
(lp1021
VdrawOverride.overrideDisplayType
p1022
aVdrawOverride.overrideLevelOfDetail
p1023
aVdrawOverride.overrideShading
p1024
aVdrawOverride.overrideTexturing
p1025
aVdrawOverride.overridePlayback
p1026
aVdrawOverride.overrideEnabled
p1027
aVdrawOverride.overrideVisibility
p1028
aVdrawOverride.overrideColor
p1029
asS'isMulti'
p1030
I00
sg29
I00
sS'isReadable'
p1031
I00
sg12
(lp1032
VdrawOverride.overrideDisplayType
p1033
aVdrawOverride.overrideLevelOfDetail
p1034
aVdrawOverride.overrideShading
p1035
aVdrawOverride.overrideTexturing
p1036
aVdrawOverride.overridePlayback
p1037
aVdrawOverride.overrideEnabled
p1038
aVdrawOverride.overrideVisibility
p1039
aVdrawOverride.overrideColor
p1040
asS'isElement'
p1041
I00
ssVparentMatrix[1]
p1042
(dp1043
g325
I00
sg326
(lp1044
sg10
I00
sg12
(lp1045
ssVpublishedNodeInfo[0]
p1046
(dp1047
g325
I00
sg326
(lp1048
VpublishedNodeInfo[0].publishedNode
p1049
aVpublishedNodeInfo[0].isHierarchicalNode
p1050
aVpublishedNodeInfo[0].publishedNodeType
p1051
asg10
I00
sg12
(lp1052
VpublishedNodeInfo[0].publishedNode
p1053
aVpublishedNodeInfo[0].isHierarchicalNode
p1054
aVpublishedNodeInfo[0].publishedNodeType
p1055
assVvisibility
p1056
(dp1057
S'isArray'
p1058
I00
sS'attrType'
p1059
Vbool
p1060
sS'attrChildrenNames'
p1061
(lp1062
sS'isMulti'
p1063
I00
sS'isCompound'
p1064
I00
sg29
I01
sS'isReadable'
p1065
I01
sg12
(lp1066
sS'isElement'
p1067
I00
ssVcompInstObjGroups.compObjectGroups
p1068
(dp1069
g50
VcompInstObjGroups
p1070
ssVpublishedNodeInfo
p1071
(dp1072
S'isArray'
p1073
I01
sS'attrType'
p1074
VTdataCompound
p1075
sS'isMulti'
p1076
I01
sg29
I00
sS'isReadable'
p1077
I00
sS'isElement'
p1078
I00
ssVvisibleInRefractions
p1079
(dp1080
S'isArray'
p1081
I00
sS'attrType'
p1082
Vbool
p1083
sS'attrChildrenNames'
p1084
(lp1085
sS'isMulti'
p1086
I00
sS'isCompound'
p1087
I00
sg29
I01
sS'isReadable'
p1088
I01
sg12
(lp1089
sS'isElement'
p1090
I00
ssVghostCustomSteps.ghostPostSteps
p1091
(dp1092
S'isArray'
p1093
I00
sS'attrParentLongName'
p1094
VghostCustomSteps
p1095
sS'attrChildrenNames'
p1096
(lp1097
sS'attrType'
p1098
Vlong
p1099
sS'isMulti'
p1100
I00
sS'isCompound'
p1101
I00
sg29
I01
sS'isReadable'
p1102
I01
sg12
(lp1103
sS'isElement'
p1104
I00
ssVboundingBox
p1105
(dp1106
S'isArray'
p1107
I00
sS'attrType'
p1108
VTdataCompound
p1109
sS'attrChildrenNames'
p1110
(lp1111
VboundingBox.boundingBoxMin
p1112
aVboundingBox.boundingBoxMax
p1113
aVboundingBox.boundingBoxSize
p1114
asS'isMulti'
p1115
I00
sg29
I00
sS'isReadable'
p1116
I00
sg12
(lp1117
VboundingBox.boundingBoxMin
p1118
aVboundingBox.boundingBoxMax
p1119
aVboundingBox.boundingBoxSize
p1120
asS'isElement'
p1121
I00
ssVuiTreatment
p1122
(dp1123
S'isArray'
p1124
I00
sS'attrType'
p1125
Venum
p1126
sS'attrChildrenNames'
p1127
(lp1128
sS'isMulti'
p1129
I00
sS'isCompound'
p1130
I00
sg29
I01
sS'isReadable'
p1131
I01
sg12
(lp1132
sS'isElement'
p1133
I00
ssVghostColorPre
p1134
(dp1135
g90
I00
sg91
Vfloat3
p1136
sg93
I00
sg94
I00
sg95
(lp1137
g528
ag588
ag592
assVobjectColorRGB.objectColorG
p1138
(dp1139
S'attrParentLongName'
p1140
VobjectColorRGB
p1141
sg90
I00
sg91
Vfloat
p1142
sg93
I00
sg146
I00
sg94
I01
sg95
(lp1143
ssVobjectColorRGB.objectColorB
p1144
(dp1145
g1140
VobjectColorRGB
p1146
sg90
I00
sg91
Vfloat
p1147
sg93
I00
sg146
I00
sg94
I01
sg95
(lp1148
ssViconName
p1149
(dp1150
S'isArray'
p1151
I00
sS'attrType'
p1152
Vstring
p1153
sS'attrChildrenNames'
p1154
(lp1155
sS'isMulti'
p1156
I00
sS'isCompound'
p1157
I00
sg29
I01
sS'isReadable'
p1158
I01
sg12
(lp1159
sS'isElement'
p1160
I00
ssVcompInstObjGroups
p1161
(dp1162
S'isArray'
p1163
I01
sS'attrType'
p1164
VTdataCompound
p1165
sS'isMulti'
p1166
I01
sg29
I00
sS'isReadable'
p1167
I00
sS'isElement'
p1168
I00
ssVcompInstObjGroups[1]
p1169
(dp1170
g325
I00
sg326
(lp1171
VcompInstObjGroups[1].compObjectGroups
p1172
asg10
I00
sg12
(lp1173
VcompInstObjGroups[1].compObjectGroups
p1174
assVboundingBox.boundingBoxSize
p1175
(dp1176
S'isArray'
p1177
I00
sS'attrParentLongName'
p1178
VboundingBox
p1179
sS'attrChildrenNames'
p1180
(lp1181
VboundingBox.boundingBoxSize.boundingBoxSizeX
p1182
aVboundingBox.boundingBoxSize.boundingBoxSizeY
p1183
aVboundingBox.boundingBoxSize.boundingBoxSizeZ
p1184
asS'attrType'
p1185
Vdouble3
p1186
sS'isMulti'
p1187
I00
sS'isCompound'
p1188
I01
sg29
I01
sS'isReadable'
p1189
I01
sg12
(lp1190
VboundingBox.boundingBoxSize.boundingBoxSizeX
p1191
aVboundingBox.boundingBoxSize.boundingBoxSizeY
p1192
aVboundingBox.boundingBoxSize.boundingBoxSizeZ
p1193
asS'isElement'
p1194
I00
ssVrenderInfo.layerOverrideColor
p1195
(dp1196
S'isArray'
p1197
I00
sS'attrParentLongName'
p1198
VrenderInfo
p1199
sS'attrChildrenNames'
p1200
(lp1201
sS'attrType'
p1202
Vbyte
p1203
sS'isMulti'
p1204
I00
sg29
I00
sS'isReadable'
p1205
I00
sg12
(lp1206
sS'isElement'
p1207
I00
ssVrenderType
p1208
(dp1209
S'isArray'
p1210
I00
sS'attrType'
p1211
Vshort
p1212
sS'attrChildrenNames'
p1213
(lp1214
sS'isMulti'
p1215
I00
sS'isCompound'
p1216
I00
sg29
I01
sS'isReadable'
p1217
I01
sg12
(lp1218
sS'isElement'
p1219
I00
ssVunderWorldObject
p1220
(dp1221
g17
I00
sg144
Vbool
p1222
sg93
I00
sg146
I00
sg10
I01
sg12
(lp1223
ssVrenderLayerInfo[0]
p1224
(dp1225
g325
I00
sg326
(lp1226
VrenderLayerInfo[0].renderLayerId
p1227
aVrenderLayerInfo[0].renderLayerRenderable
p1228
aVrenderLayerInfo[0].renderLayerColor
p1229
asg10
I00
sg12
(lp1230
VrenderLayerInfo[0].renderLayerId
p1231
aVrenderLayerInfo[0].renderLayerRenderable
p1232
aVrenderLayerInfo[0].renderLayerColor
p1233
assVworldPosition[1]
p1234
(dp1235
g325
I00
sg326
(lp1236
VworldPosition[1].worldPositionX
p1237
aVworldPosition[1].worldPositionY
p1238
aVworldPosition[1].worldPositionZ
p1239
asg10
I00
sg12
(lp1240
VworldPosition[1].worldPositionX
p1241
aVworldPosition[1].worldPositionY
p1242
aVworldPosition[1].worldPositionZ
p1243
assVobjectColorRGB.objectColorR
p1244
(dp1245
g1140
VobjectColorRGB
p1246
sg90
I00
sg91
Vfloat
p1247
sg93
I00
sg146
I00
sg94
I01
sg95
(lp1248
ssVinstObjGroups[0]
p1249
(dp1250
g325
I00
sg93
I00
sg326
(lp1251
VinstObjGroups[0].objectGroups
p1252
asg10
I00
sg12
(lp1253
VinstObjGroups[0].objectGroups
p1254
assVcompInstObjGroups[0].compObjectGroups
p1255
(dp1256
S'isArray'
p1257
I01
sS'attrParentLongName'
p1258
VcompInstObjGroups[0]
p1259
sS'attrType'
p1260
VTdataCompound
p1261
sg10
I00
sS'isReadable'
p1262
I00
sS'isElement'
p1263
I00
ssg1174
(dp1264
g17
I01
sg10
I00
ssVboundingBox.boundingBoxMin.boundingBoxMinY
p1265
(dp1266
S'isArray'
p1267
I00
sS'attrParentLongName'
p1268
VboundingBox.boundingBoxMin
p1269
sS'attrChildrenNames'
p1270
(lp1271
sS'attrType'
p1272
VdoubleLinear
p1273
sS'isMulti'
p1274
I00
sS'isCompound'
p1275
I00
sg29
I01
sS'isReadable'
p1276
I01
sg12
(lp1277
sS'isElement'
p1278
I00
ssVmaxShadingSamples
p1279
(dp1280
S'isArray'
p1281
I00
sS'attrType'
p1282
Vlong
p1283
sS'attrChildrenNames'
p1284
(lp1285
sS'isMulti'
p1286
I00
sS'isCompound'
p1287
I00
sg29
I01
sS'isReadable'
p1288
I01
sg12
(lp1289
sS'isElement'
p1290
I00
ssVinstObjGroups[0].objectGroups
p1291
(dp1292
S'isArray'
p1293
I01
sS'attrParentLongName'
p1294
VinstObjGroups[0]
p1295
sS'attrType'
p1296
VTdataCompound
p1297
sg93
I01
sg10
I00
sS'isReadable'
p1298
I00
sS'isElement'
p1299
I00
ssVrenderInfo
p1300
(dp1301
S'isArray'
p1302
I00
sS'attrType'
p1303
VTdataCompound
p1304
sS'attrChildrenNames'
p1305
(lp1306
VrenderInfo.identification
p1307
aVrenderInfo.layerRenderable
p1308
aVrenderInfo.layerOverrideColor
p1309
asS'isMulti'
p1310
I00
sg29
I00
sS'isReadable'
p1311
I00
sg12
(lp1312
VrenderInfo.identification
p1313
aVrenderInfo.layerRenderable
p1314
aVrenderInfo.layerOverrideColor
p1315
asS'isElement'
p1316
I00
ssVworldInverseMatrix[0]
p1317
(dp1318
g325
I00
sg326
(lp1319
sg10
I00
sg12
(lp1320
ssVboundingBox.boundingBoxMax.boundingBoxMaxY
p1321
(dp1322
S'isArray'
p1323
I00
sS'attrParentLongName'
p1324
VboundingBox.boundingBoxMax
p1325
sS'attrChildrenNames'
p1326
(lp1327
sS'attrType'
p1328
VdoubleLinear
p1329
sS'isMulti'
p1330
I00
sS'isCompound'
p1331
I00
sg29
I01
sS'isReadable'
p1332
I01
sg12
(lp1333
sS'isElement'
p1334
I00
ssVboundingBox.boundingBoxMax.boundingBoxMaxX
p1335
(dp1336
S'isArray'
p1337
I00
sS'attrParentLongName'
p1338
VboundingBox.boundingBoxMax
p1339
sS'attrChildrenNames'
p1340
(lp1341
sS'attrType'
p1342
VdoubleLinear
p1343
sS'isMulti'
p1344
I00
sS'isCompound'
p1345
I00
sg29
I01
sS'isReadable'
p1346
I01
sg12
(lp1347
sS'isElement'
p1348
I00
ssVpublishedNodeInfo[0].isHierarchicalNode
p1349
(dp1350
S'isArray'
p1351
I00
sS'attrParentLongName'
p1352
VpublishedNodeInfo[0]
p1353
sS'attrChildrenNames'
p1354
(lp1355
sS'attrType'
p1356
Vbool
p1357
sg10
I00
sS'isReadable'
p1358
I01
sg12
(lp1359
sS'isElement'
p1360
I00
ssVboundingBox.boundingBoxMax.boundingBoxMaxZ
p1361
(dp1362
S'isArray'
p1363
I00
sS'attrParentLongName'
p1364
VboundingBox.boundingBoxMax
p1365
sS'attrChildrenNames'
p1366
(lp1367
sS'attrType'
p1368
VdoubleLinear
p1369
sS'isMulti'
p1370
I00
sS'isCompound'
p1371
I00
sg29
I01
sS'isReadable'
p1372
I01
sg12
(lp1373
sS'isElement'
p1374
I00
ssVworldInverseMatrix
p1375
(dp1376
S'isArray'
p1377
I01
sS'attrType'
p1378
Vmatrix
p1379
sS'isMulti'
p1380
I01
sg29
I00
sS'isReadable'
p1381
I00
sS'isElement'
p1382
I00
ssVmaxVisibilitySamplesOverride
p1383
(dp1384
S'isArray'
p1385
I00
sS'attrType'
p1386
Vbool
p1387
sS'attrChildrenNames'
p1388
(lp1389
sS'isMulti'
p1390
I00
sS'isCompound'
p1391
I00
sg29
I01
sS'isReadable'
p1392
I01
sg12
(lp1393
sS'isElement'
p1394
I00
ssVboundingBox.boundingBoxSize.boundingBoxSizeY
p1395
(dp1396
S'isArray'
p1397
I00
sS'attrParentLongName'
p1398
VboundingBox.boundingBoxSize
p1399
sS'attrChildrenNames'
p1400
(lp1401
sS'attrType'
p1402
VdoubleLinear
p1403
sS'isMulti'
p1404
I00
sS'isCompound'
p1405
I00
sg29
I01
sS'isReadable'
p1406
I01
sg12
(lp1407
sS'isElement'
p1408
I00
ssVboundingBox.boundingBoxSize.boundingBoxSizeX
p1409
(dp1410
S'isArray'
p1411
I00
sS'attrParentLongName'
p1412
VboundingBox.boundingBoxSize
p1413
sS'attrChildrenNames'
p1414
(lp1415
sS'attrType'
p1416
VdoubleLinear
p1417
sS'isMulti'
p1418
I00
sS'isCompound'
p1419
I00
sg29
I01
sS'isReadable'
p1420
I01
sg12
(lp1421
sS'isElement'
p1422
I00
ssVboundingBox.boundingBoxSize.boundingBoxSizeZ
p1423
(dp1424
S'isArray'
p1425
I00
sS'attrParentLongName'
p1426
VboundingBox.boundingBoxSize
p1427
sS'attrChildrenNames'
p1428
(lp1429
sS'attrType'
p1430
VdoubleLinear
p1431
sS'isMulti'
p1432
I00
sS'isCompound'
p1433
I00
sg29
I01
sS'isReadable'
p1434
I01
sg12
(lp1435
sS'isElement'
p1436
I00
ssVblackBox
p1437
(dp1438
S'isArray'
p1439
I00
sS'attrType'
p1440
Vbool
p1441
sS'attrChildrenNames'
p1442
(lp1443
sS'isMulti'
p1444
I00
sS'isCompound'
p1445
I00
sg29
I01
sS'isReadable'
p1446
I01
sg12
(lp1447
sS'isElement'
p1448
I00
ssVtemplateName
p1449
(dp1450
S'isArray'
p1451
I00
sS'attrType'
p1452
Vstring
p1453
sS'attrChildrenNames'
p1454
(lp1455
sS'isMulti'
p1456
I00
sS'isCompound'
p1457
I00
sg29
I01
sS'isReadable'
p1458
I01
sg12
(lp1459
sS'isElement'
p1460
I00
ssVghostingControl
p1461
(dp1462
S'isArray'
p1463
I00
sS'attrType'
p1464
Venum
p1465
sS'attrChildrenNames'
p1466
(lp1467
sS'isMulti'
p1468
I00
sS'isCompound'
p1469
I00
sg29
I01
sS'isReadable'
p1470
I01
sg12
(lp1471
sS'isElement'
p1472
I00
ssVviewMode
p1473
(dp1474
S'isArray'
p1475
I00
sS'attrType'
p1476
Venum
p1477
sS'attrChildrenNames'
p1478
(lp1479
sS'isMulti'
p1480
I00
sS'isCompound'
p1481
I00
sg29
I01
sS'isReadable'
p1482
I01
sg12
(lp1483
sS'isElement'
p1484
I00
ssVcastsShadows
p1485
(dp1486
S'isArray'
p1487
I00
sS'attrType'
p1488
Vbool
p1489
sS'attrChildrenNames'
p1490
(lp1491
sS'isMulti'
p1492
I00
sS'isCompound'
p1493
I00
sg29
I01
sS'isReadable'
p1494
I01
sg12
(lp1495
sS'isElement'
p1496
I00
ssVrenderLayerInfo[0].renderLayerColor
p1497
(dp1498
S'isArray'
p1499
I00
sS'attrParentLongName'
p1500
VrenderLayerInfo[0]
p1501
sS'attrChildrenNames'
p1502
(lp1503
sS'attrType'
p1504
Vbyte
p1505
sg10
I00
sS'isReadable'
p1506
I00
sg12
(lp1507
sS'isElement'
p1508
I00
ssVinstObjGroups.objectGroups.objectGroupId
p1509
(dp1510
g50
VinstObjGroups.objectGroups
p1511
ssVrenderVolume
p1512
(dp1513
S'isArray'
p1514
I00
sS'attrType'
p1515
Vbool
p1516
sS'attrChildrenNames'
p1517
(lp1518
sS'isMulti'
p1519
I00
sS'isCompound'
p1520
I00
sg29
I01
sS'isReadable'
p1521
I01
sg12
(lp1522
sS'isElement'
p1523
I00
ssVparentMatrix
p1524
(dp1525
S'isArray'
p1526
I01
sS'attrType'
p1527
Vmatrix
p1528
sS'isMulti'
p1529
I01
sg29
I00
sS'isReadable'
p1530
I00
sS'isElement'
p1531
I00
ssVdrawOverride.overrideDisplayType
p1532
(dp1533
S'isArray'
p1534
I00
sS'attrParentLongName'
p1535
VdrawOverride
p1536
sS'attrChildrenNames'
p1537
(lp1538
sS'attrType'
p1539
Venum
p1540
sS'isMulti'
p1541
I00
sS'isCompound'
p1542
I00
sg29
I01
sS'isReadable'
p1543
I01
sg12
(lp1544
sS'isElement'
p1545
I00
ssVisCollapsed
p1546
(dp1547
S'isArray'
p1548
I00
sS'attrType'
p1549
Vbool
p1550
sS'attrChildrenNames'
p1551
(lp1552
sS'isMulti'
p1553
I00
sS'isCompound'
p1554
I00
sg29
I01
sS'isReadable'
p1555
I01
sg12
(lp1556
sS'isElement'
p1557
I00
ssVnodeState
p1558
(dp1559
S'isArray'
p1560
I00
sS'attrType'
p1561
Venum
p1562
sS'attrChildrenNames'
p1563
(lp1564
sS'isMulti'
p1565
I00
sS'isCompound'
p1566
I00
sg29
I01
sS'isReadable'
p1567
I01
sg12
(lp1568
sS'isElement'
p1569
I00
ssVpublishedNodeInfo.isHierarchicalNode
p1570
(dp1571
g50
VpublishedNodeInfo
p1572
ssVlocalPosition
p1573
(dp1574
S'isArray'
p1575
I00
sS'attrType'
p1576
Vdouble3
p1577
sS'attrChildrenNames'
p1578
(lp1579
VlocalPosition.localPositionX
p1580
aVlocalPosition.localPositionY
p1581
aVlocalPosition.localPositionZ
p1582
asS'isMulti'
p1583
I00
sS'isCompound'
p1584
I01
sg29
I01
sS'isReadable'
p1585
I01
sg12
(lp1586
VlocalPosition.localPositionX
p1587
aVlocalPosition.localPositionY
p1588
aVlocalPosition.localPositionZ
p1589
asS'isElement'
p1590
I00
ssVrenderInfo.identification
p1591
(dp1592
S'isArray'
p1593
I00
sS'attrParentLongName'
p1594
VrenderInfo
p1595
sS'attrChildrenNames'
p1596
(lp1597
sS'attrType'
p1598
Vshort
p1599
sS'isMulti'
p1600
I00
sS'isCompound'
p1601
I00
sg29
I01
sS'isReadable'
p1602
I01
sg12
(lp1603
sS'isElement'
p1604
I00
ssVghostColorPreA
p1605
(dp1606
g90
I00
sg91
Vfloat
p1607
sg93
I00
sg146
I00
sg94
I01
sg95
(lp1608
ssg1242
(dp1609
g17
I00
sg10
I00
sg12
(lp1610
ssg1243
(dp1611
g17
I00
sg10
I00
sg12
(lp1612
ssg852
(dp1613
g17
I00
sg10
I00
sg12
(lp1614
ssVrenderLayerInfo[1]
p1615
(dp1616
g325
I00
sg326
(lp1617
VrenderLayerInfo[1].renderLayerId
p1618
aVrenderLayerInfo[1].renderLayerRenderable
p1619
aVrenderLayerInfo[1].renderLayerColor
p1620
asg10
I00
sg12
(lp1621
g447
aVrenderLayerInfo[1].renderLayerRenderable
p1622
ag139
assVworldPosition[2]
p1623
(dp1624
g17
I00
sg10
I00
sg12
(lp1625
g272
ag712
ag697
assVghostCustomSteps.ghostStepSize
p1626
(dp1627
S'isArray'
p1628
I00
sS'attrParentLongName'
p1629
VghostCustomSteps
p1630
sS'attrChildrenNames'
p1631
(lp1632
sS'attrType'
p1633
Vlong
p1634
sS'isMulti'
p1635
I00
sS'isCompound'
p1636
I00
sg29
I01
sS'isReadable'
p1637
I01
sg12
(lp1638
sS'isElement'
p1639
I00
ssVdrawOverride.overridePlayback
p1640
(dp1641
S'isArray'
p1642
I00
sS'attrParentLongName'
p1643
VdrawOverride
p1644
sS'attrChildrenNames'
p1645
(lp1646
sS'attrType'
p1647
Vbool
p1648
sS'isMulti'
p1649
I00
sS'isCompound'
p1650
I00
sg29
I01
sS'isReadable'
p1651
I01
sg12
(lp1652
sS'isElement'
p1653
I00
ssVghostColorPostA
p1654
(dp1655
g90
I00
sg91
Vfloat
p1656
sg93
I00
sg146
I00
sg94
I01
sg95
(lp1657
ssVrenderLayerInfo
p1658
(dp1659
S'isArray'
p1660
I01
sS'attrType'
p1661
VTdataCompound
p1662
sS'isMulti'
p1663
I01
sg29
I00
sS'isReadable'
p1664
I00
sS'isElement'
p1665
I00
ssVlodVisibility
p1666
(dp1667
S'isArray'
p1668
I00
sS'attrType'
p1669
Vbool
p1670
sS'attrChildrenNames'
p1671
(lp1672
sS'isMulti'
p1673
I00
sS'isCompound'
p1674
I00
sg29
I01
sS'isReadable'
p1675
I01
sg12
(lp1676
sS'isElement'
p1677
I00
ssVworldMatrix[1]
p1678
(dp1679
g325
I00
sg326
(lp1680
sg10
I00
sg12
(lp1681
ssVinstObjGroups[0].objectGroups[0].objectGrpCompList
p1682
(dp1683
S'isArray'
p1684
I00
sS'attrParentLongName'
p1685
VinstObjGroups[0].objectGroups[0]
p1686
sS'attrChildrenNames'
p1687
(lp1688
sS'attrType'
p1689
VcomponentList
p1690
sg10
I00
sS'isReadable'
p1691
I00
sg12
(lp1692
sS'isElement'
p1693
I00
ssg99
(dp1694
g90
I00
sg91
Vfloat
p1695
sg93
I00
sg146
I00
sg94
I01
sg95
(lp1696
ssVcenter
p1697
(dp1698
S'isArray'
p1699
I00
sS'attrType'
p1700
Vdouble3
p1701
sS'attrChildrenNames'
p1702
(lp1703
Vcenter.boundingBoxCenterX
p1704
aVcenter.boundingBoxCenterY
p1705
aVcenter.boundingBoxCenterZ
p1706
asS'isMulti'
p1707
I00
sS'isCompound'
p1708
I01
sg29
I01
sS'isReadable'
p1709
I01
sg12
(lp1710
Vcenter.boundingBoxCenterX
p1711
aVcenter.boundingBoxCenterY
p1712
aVcenter.boundingBoxCenterZ
p1713
asS'isElement'
p1714
I00
ssVdrawOverride.overrideShading
p1715
(dp1716
S'isArray'
p1717
I00
sS'attrParentLongName'
p1718
VdrawOverride
p1719
sS'attrChildrenNames'
p1720
(lp1721
sS'attrType'
p1722
Vbool
p1723
sS'isMulti'
p1724
I00
sS'isCompound'
p1725
I00
sg29
I01
sS'isReadable'
p1726
I01
sg12
(lp1727
sS'isElement'
p1728
I00
ssg98
(dp1729
g90
I00
sg91
Vfloat
p1730
sg93
I00
sg146
I00
sg94
I01
sg95
(lp1731
ssVcenter.boundingBoxCenterZ
p1732
(dp1733
S'isArray'
p1734
I00
sS'attrParentLongName'
p1735
Vcenter
p1736
sS'attrChildrenNames'
p1737
(lp1738
sS'attrType'
p1739
VdoubleLinear
p1740
sS'isMulti'
p1741
I00
sS'isCompound'
p1742
I00
sg29
I01
sS'isReadable'
p1743
I01
sg12
(lp1744
sS'isElement'
p1745
I00
ssVrenderLayerInfo.renderLayerColor
p1746
(dp1747
g50
VrenderLayerInfo
p1748
ssg1241
(dp1749
g17
I00
sg10
I00
sg12
(lp1750
ssg860
(dp1751
g17
I00
sg10
I00
sg12
(lp1752
ssg97
(dp1753
g90
I00
sg91
Vfloat
p1754
sg93
I00
sg146
I00
sg94
I01
sg95
(lp1755
ssVcenter.boundingBoxCenterX
p1756
(dp1757
S'isArray'
p1758
I00
sS'attrParentLongName'
p1759
Vcenter
p1760
sS'attrChildrenNames'
p1761
(lp1762
sS'attrType'
p1763
VdoubleLinear
p1764
sS'isMulti'
p1765
I00
sS'isCompound'
p1766
I00
sg29
I01
sS'isReadable'
p1767
I01
sg12
(lp1768
sS'isElement'
p1769
I00
ssVcaching
p1770
(dp1771
S'isArray'
p1772
I00
sS'attrType'
p1773
Vbool
p1774
sS'attrChildrenNames'
p1775
(lp1776
sS'isMulti'
p1777
I00
sS'isCompound'
p1778
I00
sg29
I01
sS'isReadable'
p1779
I01
sg12
(lp1780
sS'isElement'
p1781
I00
ssVinverseMatrix
p1782
(dp1783
S'isArray'
p1784
I00
sS'attrType'
p1785
Vmatrix
p1786
sS'attrChildrenNames'
p1787
(lp1788
sS'isMulti'
p1789
I00
sg29
I00
sS'isReadable'
p1790
I00
sg12
(lp1791
sS'isElement'
p1792
I00
ssVghostFrames
p1793
(dp1794
S'isArray'
p1795
I00
sS'attrType'
p1796
NsS'attrChildrenNames'
p1797
(lp1798
sS'isMulti'
p1799
I00
sg29
I00
sS'isReadable'
p1800
I00
sg12
(lp1801
sS'isElement'
p1802
I00
ssg1622
(dp1803
g17
I00
sg10
I00
sg12
(lp1804
ssVinstObjGroups[0].objectGroups[0].objectGrpColor
p1805
(dp1806
S'isArray'
p1807
I00
sS'attrParentLongName'
p1808
VinstObjGroups[0].objectGroups[0]
p1809
sS'attrChildrenNames'
p1810
(lp1811
sS'attrType'
p1812
Vshort
p1813
sg10
I00
sS'isReadable'
p1814
I01
sg12
(lp1815
sS'isElement'
p1816
I00
ssVcenter.boundingBoxCenterY
p1817
(dp1818
S'isArray'
p1819
I00
sS'attrParentLongName'
p1820
Vcenter
p1821
sS'attrChildrenNames'
p1822
(lp1823
sS'attrType'
p1824
VdoubleLinear
p1825
sS'isMulti'
p1826
I00
sS'isCompound'
p1827
I00
sg29
I01
sS'isReadable'
p1828
I01
sg12
(lp1829
sS'isElement'
p1830
I00
ss.