(dp0
VrotateOrder
p1
(dp2
S'isArray'
p3
I00
sS'attrType'
p4
Venum
p5
sS'isMulti'
p6
I00
sS'isCompound'
p7
I00
sS'isSimple'
p8
I01
sS'attrChildrenLongNames'
p9
(lp10
ssVupAxis
p11
(dp12
g3
I00
sg4
Venum
p13
sg6
I00
sg7
I00
sg8
I01
sg9
(lp14
ssVorientationMarkerTime[0]
p15
(dp16
g3
I00
sg9
(lp17
ssVworldUpVector.worldUpVectorZ
p18
(dp19
g3
I00
sg4
Vdouble
p20
sg6
I00
sg7
I00
sg8
I01
sg9
(lp21
ssVupdateOM
p22
(dp23
g3
I00
sg4
Vbool
p24
sg6
I00
sg7
I00
sg8
I01
sg9
(lp25
ssVinverseUp
p26
(dp27
g3
I00
sg4
Vbool
p28
sg6
I00
sg7
I00
sg8
I01
sg9
(lp29
ssVpositionMarkerTime[0]
p30
(dp31
g3
I00
sg4
Vtime
p32
sg6
I00
sg7
I00
sg8
I01
sg9
(lp33
ssVfollow
p34
(dp35
g3
I00
sg4
Vbool
p36
sg6
I00
sg7
I00
sg8
I01
sg9
(lp37
ssVworldUpMatrix
p38
(dp39
g3
I00
sg6
I00
sg4
Vmatrix
p40
sg8
I00
sg9
(lp41
ssVupTwist
p42
(dp43
g3
I00
sg4
VdoubleAngle
p44
sg6
I00
sg7
I00
sg8
I01
sg9
(lp45
ssVfrontTwist
p46
(dp47
g3
I00
sg4
VdoubleAngle
p48
sg6
I00
sg7
I00
sg8
I01
sg9
(lp49
ssVorientMatrix
p50
(dp51
g3
I00
sg6
I00
sg4
Vmatrix
p52
sg8
I00
sg9
(lp53
ssVbankLimit
p54
(dp55
g3
I00
sg4
VdoubleAngle
p56
sg6
I00
sg7
I00
sg8
I01
sg9
(lp57
ssVpositionMarkerTime[2]
p58
(dp59
g3
I00
sg4
Vtime
p60
sg6
I00
sg7
I00
sg8
I01
sg9
(lp61
ssVnormal
p62
(dp63
g3
I00
sg4
Vbool
p64
sg6
I00
sg7
I00
sg8
I01
sg9
(lp65
ssVallCoordinates.zCoordinate
p66
(dp67
g3
I00
sg4
VdoubleLinear
p68
sg6
I00
sg7
I00
sg8
I01
sg9
(lp69
ssVpositionMarkerTime[4]
p70
(dp71
g3
I00
sg9
(lp72
ssVbinMembership
p73
(dp74
g3
I00
sg4
Vstring
p75
sg6
I00
sg7
I00
sg8
I01
sg9
(lp76
ssVallCoordinates.xCoordinate
p77
(dp78
g3
I00
sg4
VdoubleLinear
p79
sg6
I00
sg7
I00
sg8
I01
sg9
(lp80
ssVallCoordinates
p81
(dp82
g3
I00
sg4
Vdouble3
p83
sg6
I00
sg7
I01
sg8
I01
sg9
(lp84
g77
aVallCoordinates.yCoordinate
p85
ag66
assVworldUpVector
p86
(dp87
g3
I00
sg4
Vdouble3
p88
sg6
I00
sg7
I01
sg8
I01
sg9
(lp89
VworldUpVector.worldUpVectorX
p90
aVworldUpVector.worldUpVectorY
p91
ag18
assVbankScale
p92
(dp93
g3
I00
sg4
Vdouble
p94
sg6
I00
sg7
I00
sg8
I01
sg9
(lp95
ssVsideTwist
p96
(dp97
g3
I00
sg4
VdoubleAngle
p98
sg6
I00
sg7
I00
sg8
I01
sg9
(lp99
ssVorientationMarkerTime[1]
p100
(dp101
g3
I00
sg9
(lp102
ssVisHistoricallyInteresting
p103
(dp104
g3
I00
sg6
I00
sg4
Vbyte
p105
sg8
I00
sg9
(lp106
ssVnodeState
p107
(dp108
g3
I00
sg4
Venum
p109
sg6
I00
sg7
I00
sg8
I01
sg9
(lp110
ssVorientationMarkerTime
p111
(dp112
g3
I01
sg6
I01
sg8
I00
sg4
VTdataCompound
p113
ssVfractionMode
p114
(dp115
g3
I00
sg4
Vbool
p116
sg6
I00
sg7
I00
sg8
I01
sg9
(lp117
ssVpositionMarkerTime
p118
(dp119
g3
I01
sg6
I01
sg8
I00
sg4
VTdataCompound
p120
ssVpositionMarkerTime[1]
p121
(dp122
g3
I00
sg4
Vtime
p123
sg6
I00
sg7
I00
sg8
I01
sg9
(lp124
ssVgeometryPath
p125
(dp126
g3
I00
sg6
I00
sg4
VnurbsCurve
p127
sg8
I00
sg9
(lp128
ssVinverseFront
p129
(dp130
g3
I00
sg4
Vbool
p131
sg6
I00
sg7
I00
sg8
I01
sg9
(lp132
ssVpositionMarkerTime[3]
p133
(dp134
g3
I00
sg9
(lp135
ssg85
(dp136
g3
I00
sg4
VdoubleLinear
p137
sg6
I00
sg7
I00
sg8
I01
sg9
(lp138
ssg90
(dp139
g3
I00
sg4
Vdouble
p140
sg6
I00
sg7
I00
sg8
I01
sg9
(lp141
ssVbank
p142
(dp143
g3
I00
sg4
Vbool
p144
sg6
I00
sg7
I00
sg8
I01
sg9
(lp145
ssVworldUpType
p146
(dp147
g3
I00
sg4
Venum
p148
sg6
I00
sg7
I00
sg8
I01
sg9
(lp149
ssVrotate
p150
(dp151
g3
I00
sg4
Vdouble3
p152
sg6
I00
sg7
I01
sg8
I01
sg9
(lp153
Vrotate.rotateX
p154
aVrotate.rotateY
p155
aVrotate.rotateZ
p156
assVfrontAxis
p157
(dp158
g3
I00
sg4
Venum
p159
sg6
I00
sg7
I00
sg8
I01
sg9
(lp160
ssg156
(dp161
g3
I00
sg4
VdoubleAngle
p162
sg6
I00
sg7
I00
sg8
I01
sg9
(lp163
ssg154
(dp164
g3
I00
sg4
VdoubleAngle
p165
sg6
I00
sg7
I00
sg8
I01
sg9
(lp166
ssg155
(dp167
g3
I00
sg4
VdoubleAngle
p168
sg6
I00
sg7
I00
sg8
I01
sg9
(lp169
ssVcaching
p170
(dp171
g3
I00
sg4
Vbool
p172
sg6
I00
sg7
I00
sg8
I01
sg9
(lp173
ssVuValue
p174
(dp175
g3
I00
sg4
VdoubleLinear
p176
sg6
I00
sg7
I00
sg8
I01
sg9
(lp177
ssg91
(dp178
g3
I00
sg4
Vdouble
p179
sg6
I00
sg7
I00
sg8
I01
sg9
(lp180
ss.