(dp0
Vinput2
p1
(dp2
S'isArray'
p3
I00
sS'attrType'
p4
Vfloat3
p5
sS'attrChildrenNames'
p6
(lp7
Vinput2.input2X
p8
aVinput2.input2Y
p9
aVinput2.input2Z
p10
asS'isMulti'
p11
I00
sS'isCompound'
p12
I01
sS'isSimple'
p13
I00
sS'attrChildrenLongNames'
p14
(lp15
Vinput2.input2X
p16
aVinput2.input2Y
p17
aVinput2.input2Z
p18
asS'isElement'
p19
I00
ssVinput1
p20
(dp21
S'isArray'
p22
I00
sg4
Vfloat3
p23
sS'attrChildrenNames'
p24
(lp25
Vinput1.input1X
p26
aVinput1.input1Y
p27
aVinput1.input1Z
p28
asS'isMulti'
p29
I00
sS'isCompound'
p30
I01
sg13
I00
sg14
(lp31
Vinput1.input1X
p32
aVinput1.input1Y
p33
aVinput1.input1Z
p34
asS'isElement'
p35
I00
ssVoutput.outputZ
p36
(dp37
S'isArray'
p38
I00
sS'attrParentLongName'
p39
Voutput
p40
sS'attrChildrenNames'
p41
(lp42
sg4
Vfloat
p43
sS'isMulti'
p44
I00
sS'isCompound'
p45
I00
sg13
I01
sg14
(lp46
sS'isElement'
p47
I00
ssVoutput.outputX
p48
(dp49
S'isArray'
p50
I00
sS'attrParentLongName'
p51
Voutput
p52
sS'attrChildrenNames'
p53
(lp54
sg4
Vfloat
p55
sS'isMulti'
p56
I00
sS'isCompound'
p57
I00
sg13
I01
sg14
(lp58
sS'isElement'
p59
I00
ssVoutput.outputY
p60
(dp61
S'isArray'
p62
I00
sS'attrParentLongName'
p63
Voutput
p64
sS'attrChildrenNames'
p65
(lp66
sg4
Vfloat
p67
sS'isMulti'
p68
I00
sS'isCompound'
p69
I00
sg13
I01
sg14
(lp70
sS'isElement'
p71
I00
ssVoperation
p72
(dp73
S'isArray'
p74
I00
sg4
Venum
p75
sS'attrChildrenNames'
p76
(lp77
sS'isMulti'
p78
I00
sS'isCompound'
p79
I00
sg13
I01
sg14
(lp80
sS'isElement'
p81
I00
ssVisHistoricallyInteresting
p82
(dp83
S'isArray'
p84
I00
sS'attrType'
p85
Vbyte
p86
sS'isMulti'
p87
I00
sS'isSimple'
p88
I00
sS'attrChildrenLongNames'
p89
(lp90
ssVinput1.input1Z
p91
(dp92
S'isArray'
p93
I00
sS'attrParentLongName'
p94
Vinput1
p95
sS'attrChildrenNames'
p96
(lp97
sg4
Vfloat
p98
sS'isMulti'
p99
I00
sS'isWritable'
p100
I01
sS'isCompound'
p101
I00
sg13
I01
sg14
(lp102
sS'isElement'
p103
I00
ssVoutput.output.outputX
p104
(dp105
S'isArray'
p106
I00
sS'attrChildrenNames'
p107
(lp108
ssVinput1.input1Y
p109
(dp110
S'isArray'
p111
I00
sS'attrParentLongName'
p112
Vinput1
p113
sS'attrChildrenNames'
p114
(lp115
sg4
Vfloat
p116
sS'isMulti'
p117
I00
sS'isWritable'
p118
I01
sS'isCompound'
p119
I00
sg13
I01
sg14
(lp120
sS'isElement'
p121
I00
ssVbinMembership
p122
(dp123
g84
I00
sg85
Vstring
p124
sg87
I00
sS'isCompound'
p125
I00
sg88
I01
sg89
(lp126
ssVnodeState
p127
(dp128
g84
I00
sg85
Venum
p129
sg87
I00
sg125
I00
sg88
I01
sg89
(lp130
ssVinput2.input2X
p131
(dp132
S'isArray'
p133
I00
sS'attrParentLongName'
p134
Vinput2
p135
sS'attrChildrenNames'
p136
(lp137
sg4
Vfloat
p138
sS'isMulti'
p139
I00
sS'isWritable'
p140
I01
sS'isCompound'
p141
I00
sg13
I01
sg14
(lp142
sS'isElement'
p143
I00
ssVoutput
p144
(dp145
S'isArray'
p146
I00
sg4
Vfloat3
p147
sS'attrChildrenNames'
p148
(lp149
Voutput.outputX
p150
aVoutput.outputY
p151
aVoutput.outputZ
p152
asS'isMulti'
p153
I00
sS'isCompound'
p154
I01
sg13
I00
sg14
(lp155
Voutput.outputX
p156
aVoutput.outputY
p157
aVoutput.outputZ
p158
asS'isElement'
p159
I00
ssVoutput.output.outputZ
p160
(dp161
g106
I00
sg107
(lp162
ssVinput2.input2.input2Z
p163
(dp164
g106
I00
sg107
(lp165
ssVinput2.input2.input2Y
p166
(dp167
g106
I00
sg107
(lp168
ssVinput2.input2.input2X
p169
(dp170
g106
I00
sg107
(lp171
ssVinput1.input1.input1X
p172
(dp173
g106
I00
sg107
(lp174
ssVinput1.input1.input1Y
p175
(dp176
g106
I00
sg107
(lp177
ssVinput1.input1.input1Z
p178
(dp179
g106
I00
sg107
(lp180
ssVinput1.input1X
p181
(dp182
S'isArray'
p183
I00
sS'attrParentLongName'
p184
Vinput1
p185
sS'attrChildrenNames'
p186
(lp187
sg4
Vfloat
p188
sS'isMulti'
p189
I00
sg100
I01
sS'isCompound'
p190
I00
sg13
I01
sg14
(lp191
sS'isElement'
p192
I00
ssVoutput.output.outputY
p193
(dp194
g106
I00
sg107
(lp195
ssVcaching
p196
(dp197
g84
I00
sg85
Vbool
p198
sg87
I00
sg125
I00
sg88
I01
sg89
(lp199
ssVinput2.input2Y
p200
(dp201
S'isArray'
p202
I00
sS'attrParentLongName'
p203
Vinput2
p204
sS'attrChildrenNames'
p205
(lp206
sg4
Vfloat
p207
sS'isMulti'
p208
I00
sg140
I01
sS'isCompound'
p209
I00
sg13
I01
sg14
(lp210
sS'isElement'
p211
I00
ssVinput2.input2Z
p212
(dp213
S'isArray'
p214
I00
sS'attrParentLongName'
p215
Vinput2
p216
sS'attrChildrenNames'
p217
(lp218
sg4
Vfloat
p219
sS'isMulti'
p220
I00
sS'isCompound'
p221
I00
sg13
I01
sg14
(lp222
sS'isElement'
p223
I00
ss.