(dp0
VinPosition.inPositionX
p1
(dp2
S'isArray'
p3
I00
sS'attrType'
p4
VdoubleLinear
p5
sS'isMulti'
p6
I00
sS'isCompound'
p7
I00
sS'isSimple'
p8
I01
sS'attrChildrenLongNames'
p9
(lp10
ssVinPosition.inPositionY
p11
(dp12
g3
I00
sg4
VdoubleLinear
p13
sg6
I00
sg7
I00
sg8
I01
sg9
(lp14
ssVinPosition.inPositionZ
p15
(dp16
g3
I00
sg4
VdoubleLinear
p17
sg6
I00
sg7
I00
sg8
I01
sg9
(lp18
ssVresult
p19
(dp20
g3
I00
sg6
I00
sg4
VTdataCompound
p21
sg8
I00
sg9
(lp22
Vresult.position
p23
aVresult.parameter
p24
assVresult.parameter
p25
(dp26
S'attrParentLongName'
p27
Vresult
p28
sg3
I00
sg4
Vdouble
p29
sg6
I00
sg7
I00
sg8
I01
sg9
(lp30
ssVresult.position.positionZ
p31
(dp32
g27
Vresult.position
p33
sg3
I00
sg4
VdoubleLinear
p34
sg6
I00
sg7
I00
sg8
I01
sg9
(lp35
ssVnodeState
p36
(dp37
g3
I00
sg4
Venum
p38
sg6
I00
sg7
I00
sg8
I01
sg9
(lp39
ssVinPosition
p40
(dp41
g3
I00
sg4
Vdouble3
p42
sg6
I00
sg7
I01
sg8
I01
sg9
(lp43
g1
ag11
ag15
assVisHistoricallyInteresting
p44
(dp45
g3
I00
sg6
I00
sg4
Vbyte
p46
sg8
I00
sg9
(lp47
ssVresult.position
p48
(dp49
g27
Vresult
p50
sg3
I00
sg4
Vdouble3
p51
sg6
I00
sg7
I01
sg8
I01
sg9
(lp52
Vresult.position.positionX
p53
aVresult.position.positionY
p54
aVresult.position.positionZ
p55
assVbinMembership
p56
(dp57
g3
I00
sg4
Vstring
p58
sg6
I00
sg7
I00
sg8
I01
sg9
(lp59
ssVresult.position.positionX
p60
(dp61
g27
Vresult.position
p62
sg3
I00
sg4
VdoubleLinear
p63
sg6
I00
sg7
I00
sg8
I01
sg9
(lp64
ssVcaching
p65
(dp66
g3
I00
sg4
Vbool
p67
sg6
I00
sg7
I00
sg8
I01
sg9
(lp68
ssVresult.position.positionY
p69
(dp70
g27
Vresult.position
p71
sg3
I00
sg4
VdoubleLinear
p72
sg6
I00
sg7
I00
sg8
I01
sg9
(lp73
ssVinputCurve
p74
(dp75
g3
I00
sg6
I00
sg4
Nsg8
I00
sg9
(lp76
ss.