(dp0
VisHistoricallyInteresting
p1
(dp2
S'isArray'
p3
I00
sS'isMulti'
p4
I00
sS'attrChildrenNames'
p5
(lp6
sS'isSimple'
p7
I00
sS'attrType'
p8
Vbyte
p9
ssVcategory
p10
(dp11
g3
I00
sg4
I00
sg5
(lp12
sg7
I00
sg8
NssVnodeState
p13
(dp14
g3
I00
sg8
Venum
p15
sg5
(lp16
sg4
I00
sS'isCompound'
p17
I00
sg7
I01
ssVoutputList
p18
(dp19
g3
I00
sg4
I00
sg5
(lp20
sg7
I00
sg8
VdataSelectionList
p21
ssVinvert
p22
(dp23
g3
I00
sg8
Vbool
p24
sg5
(lp25
sg4
I00
sg17
I00
sg7
I01
ssVfilterType
p26
(dp27
g3
I00
sg8
Venum
p28
sg5
(lp29
sg4
I00
sg17
I00
sg7
I01
ssVinputList
p30
(dp31
g3
I00
sg4
I00
sg5
(lp32
sg7
I00
sg8
NssVfilterClass
p33
(dp34
g3
I00
sg8
Venum
p35
sg5
(lp36
sg4
I00
sg17
I00
sg7
I01
ssVresultList
p37
(dp38
g3
I00
sg4
I00
sg5
(lp39
sg7
I00
sg8
VdataSelectionList
p40
ssVdisable
p41
(dp42
g3
I00
sg8
Vbool
p43
sg5
(lp44
sg4
I00
sg17
I00
sg7
I01
ssVchild
p45
(dp46
g3
I00
sg8
Vbool
p47
sg5
(lp48
sg4
I00
sg17
I00
sg7
I01
ssVcaching
p49
(dp50
g3
I00
sg8
Vbool
p51
sg5
(lp52
sg4
I00
sg17
I00
sg7
I01
ssVannotation
p53
(dp54
g3
I00
sg8
Vstring
p55
sg5
(lp56
sg4
I00
sg17
I00
sg7
I01
ss.