(dp0
VrotateOrder
p1
(dp2
S'isArray'
p3
I00
sS'attrType'
p4
Venum
p5
sS'isMulti'
p6
I00
sS'isCompound'
p7
I00
sS'isSimple'
p8
I01
sS'attrChildrenLongNames'
p9
(lp10
ssVtarget[1].targetParentMatrix
p11
(dp12
S'isArray'
p13
I00
sS'isMulti'
p14
I00
sS'attrChildrenLongNames'
p15
(lp16
sS'isSimple'
p17
I00
sS'attrType'
p18
Vmatrix
p19
ssVghostCustomSteps
p20
(dp21
g3
I00
sg4
VTdataCompound
p22
sg6
I00
sg8
I00
sg9
(lp23
VghostCustomSteps.ghostPreSteps
p24
aVghostCustomSteps.ghostPostSteps
p25
aVghostCustomSteps.ghostStepSize
p26
assVminTransLimitEnable.minTransYLimitEnable
p27
(dp28
g3
I00
sg4
Vbool
p29
sg6
I00
sg7
I00
sg8
I01
sg9
(lp30
ssVrenderLayerInfo.renderLayerRenderable
p31
(dp32
S'attrParentLongName'
p33
VrenderLayerInfo
p34
ssVboundingBox.boundingBoxMin.boundingBoxMinY
p35
(dp36
g3
I00
sg4
VdoubleLinear
p37
sS'attrParentLongName'
p38
VboundingBox.boundingBoxMin
p39
sg8
I01
sg9
(lp40
ssVboundingBox.boundingBoxMin.boundingBoxMinX
p41
(dp42
g3
I00
sg4
VdoubleLinear
p43
sg38
VboundingBox.boundingBoxMin
p44
sg8
I01
sg9
(lp45
ssVboundingBox.boundingBoxMin.boundingBoxMinZ
p46
(dp47
g3
I00
sg4
VdoubleLinear
p48
sg38
VboundingBox.boundingBoxMin
p49
sg8
I01
sg9
(lp50
ssVminRotLimitEnable.minRotYLimitEnable
p51
(dp52
g3
I00
sg4
Vbool
p53
sg6
I00
sg7
I00
sg8
I01
sg9
(lp54
ssVselectHandle
p55
(dp56
g3
I00
sg4
Vdouble3
p57
sg6
I00
sg7
I01
sg8
I01
sg9
(lp58
VselectHandle.selectHandleX
p59
aVselectHandle.selectHandleY
p60
aVselectHandle.selectHandleZ
p61
assVtarget[0].targetRotateCached.targetRotateCachedY
p62
(dp63
S'isArray'
p64
I00
sS'attrType'
p65
VdoubleAngle
p66
sS'attrChildrenNames'
p67
(lp68
sS'isMulti'
p69
I00
sS'isCompound'
p70
I00
sS'isSimple'
p71
I01
sg15
(lp72
ssVtarget[0].targetRotateCached.targetRotateCachedX
p73
(dp74
g64
I00
sg65
VdoubleAngle
p75
sg67
(lp76
sg69
I00
sg70
I00
sg71
I01
sg15
(lp77
ssVtarget[0].targetRotateCached.targetRotateCachedZ
p78
(dp79
g64
I00
sg65
VdoubleAngle
p80
sg67
(lp81
sg69
I00
sg70
I00
sg71
I01
sg15
(lp82
ssVrotateQuaternion.rotateQuaternionZ
p83
(dp84
g3
I00
sg4
Vdouble
p85
sg6
I00
sg7
I00
sg8
I01
sg9
(lp86
ssVrenderLayerInfo[0].renderLayerId
p87
(dp88
g3
I00
sg8
I00
sg9
(lp89
ssVrotateQuaternion.rotateQuaternionX
p90
(dp91
g3
I00
sg4
Vdouble
p92
sg6
I00
sg7
I00
sg8
I01
sg9
(lp93
ssVrotateQuaternion.rotateQuaternionY
p94
(dp95
g3
I00
sg4
Vdouble
p96
sg6
I00
sg7
I00
sg8
I01
sg9
(lp97
ssVmaxRotLimitEnable.maxRotXLimitEnable
p98
(dp99
g3
I00
sg4
Vbool
p100
sg6
I00
sg7
I00
sg8
I01
sg9
(lp101
ssVminScaleLimit.minScaleXLimit
p102
(dp103
g3
I00
sg4
Vdouble
p104
sg6
I00
sg7
I00
sg8
I01
sg9
(lp105
ssVrotateQuaternion.rotateQuaternionW
p106
(dp107
g3
I00
sg4
Vdouble
p108
sg6
I00
sg7
I00
sg8
I01
sg9
(lp109
ssVtemplatePath
p110
(dp111
g3
I00
sg4
Vstring
p112
sg6
I00
sg7
I00
sg8
I01
sg9
(lp113
ssVminTransLimit
p114
(dp115
g3
I00
sg4
Vdouble3
p116
sg6
I00
sg7
I01
sg8
I01
sg9
(lp117
VminTransLimit.minTransXLimit
p118
aVminTransLimit.minTransYLimit
p119
aVminTransLimit.minTransZLimit
p120
assVminRotLimit
p121
(dp122
g3
I00
sg4
Vdouble3
p123
sg6
I00
sg7
I01
sg8
I01
sg9
(lp124
VminRotLimit.minRotXLimit
p125
aVminRotLimit.minRotYLimit
p126
aVminRotLimit.minRotZLimit
p127
assVconstraintRotate
p128
(dp129
g64
I00
sg65
Vdouble3
p130
sg67
(lp131
VconstraintRotate.constraintRotateX
p132
aVconstraintRotate.constraintRotateY
p133
aVconstraintRotate.constraintRotateZ
p134
asg69
I00
sg70
I01
sg71
I01
sg15
(lp135
VconstraintRotate.constraintRotateX
p136
aVconstraintRotate.constraintRotateY
p137
aVconstraintRotate.constraintRotateZ
p138
assVmaxTransLimitEnable.maxTransYLimitEnable
p139
(dp140
g3
I00
sg4
Vbool
p141
sg6
I00
sg7
I00
sg8
I01
sg9
(lp142
ssVlockOutput
p143
(dp144
g3
I00
sg4
Vbool
p145
sg6
I00
sg7
I00
sg8
I01
sg9
(lp146
ssVconstraintParentInverseMatrix
p147
(dp148
g64
I00
sg65
Vmatrix
p149
sg67
(lp150
sg69
I00
sg71
I00
sg15
(lp151
ssVmaxScaleLimitEnable.maxScaleYLimitEnable
p152
(dp153
g3
I00
sg4
Vbool
p154
sg6
I00
sg7
I00
sg8
I01
sg9
(lp155
ssVparentMatrix[0]
p156
(dp157
g3
I00
sg8
I00
sg9
(lp158
ssVinstObjGroups[0].objectGroups[0]
p159
(dp160
g3
I00
sg8
I00
sg9
(lp161
VinstObjGroups[0].objectGroups[0].objectGrpCompList
p162
aVinstObjGroups[0].objectGroups[0].objectGroupId
p163
aVinstObjGroups[0].objectGroups[0].objectGrpColor
p164
assVdynamics
p165
(dp166
g3
I00
sg4
Vbool
p167
sg6
I00
sg7
I00
sg8
I01
sg9
(lp168
ssVmaxTransLimit.maxTransZLimit
p169
(dp170
g3
I00
sg4
VdoubleLinear
p171
sg6
I00
sg7
I00
sg8
I01
sg9
(lp172
ssVrenderLayerInfo[0]
p173
(dp174
g3
I00
sg8
I00
sg9
(lp175
g87
aVrenderLayerInfo[0].renderLayerRenderable
p176
aVrenderLayerInfo[0].renderLayerColor
p177
assVoffset.offsetZ
p178
(dp179
g3
I00
sg4
VdoubleAngle
p180
sg6
I00
sg7
I00
sg8
I01
sg9
(lp181
ssVoffset.offsetX
p182
(dp183
g3
I00
sg4
VdoubleAngle
p184
sg6
I00
sg7
I00
sg8
I01
sg9
(lp185
ssVoffset.offsetY
p186
(dp187
g3
I00
sg4
VdoubleAngle
p188
sg6
I00
sg7
I00
sg8
I01
sg9
(lp189
ssVrotatePivot
p190
(dp191
g3
I00
sg4
Vdouble3
p192
sg6
I00
sg7
I01
sg8
I01
sg9
(lp193
VrotatePivot.rotatePivotX
p194
aVrotatePivot.rotatePivotY
p195
aVrotatePivot.rotatePivotZ
p196
assVtarget[2].targetRotate
p197
(dp198
g13
I00
sS'isMulti'
p199
I00
sS'isSimple'
p200
I00
sg15
(lp201
Vtarget[2].targetRotate.targetRotateX
p202
aVtarget[2].targetRotate.targetRotateY
p203
aVtarget[2].targetRotate.targetRotateZ
p204
assVtemplate
p205
(dp206
g3
I00
sg4
Vbool
p207
sg6
I00
sg7
I00
sg8
I01
sg9
(lp208
ssVtarget[2]
p209
(dp210
g64
I00
sg199
I00
sg67
(lp211
Vtarget[2].targetRotate
p212
aVtarget[2].targetRotateOrder
p213
aVtarget[2].targetJointOrient
p214
aVtarget[2].targetParentMatrix
p215
aVtarget[2].targetWeight
p216
aVtarget[2].targetRotateCached
p217
asg200
I00
sg15
(lp218
Vtarget[2].targetRotate
p219
aVtarget[2].targetRotateOrder
p220
aVtarget[2].targetJointOrient
p221
aVtarget[2].targetParentMatrix
p222
aVtarget[2].targetWeight
p223
aVtarget[2].targetRotateCached
p224
assVparentInverseMatrix[1]
p225
(dp226
g3
I00
sg8
I00
sg9
(lp227
ssg118
(dp228
g3
I00
sg4
VdoubleLinear
p229
sg6
I00
sg7
I00
sg8
I01
sg9
(lp230
ssVdisplayScalePivot
p231
(dp232
g3
I00
sg4
Vbool
p233
sg6
I00
sg7
I00
sg8
I01
sg9
(lp234
ssVmentalRayControls.miHide
p235
(dp236
g3
I00
sg4
Vbool
p237
sg6
I00
sg7
I00
sg8
I01
sg9
(lp238
ssVinstObjGroups.objectGroups
p239
(dp240
g33
VinstObjGroups
p241
ssVpublishedNodeInfo
p242
(dp243
g3
I01
sg4
VTdataCompound
p244
sg8
I00
sg6
I01
ssVdrawOverride.overrideTexturing
p245
(dp246
g3
I00
sg4
Vbool
p247
sg6
I00
sg7
I00
sg8
I01
sg9
(lp248
ssVtarget[2].targetParentMatrix
p249
(dp250
g13
I00
sg199
I00
sg200
I00
sg15
(lp251
ssg163
(dp252
g3
I00
sg8
I00
sg9
(lp253
ssVdisplayHandle
p254
(dp255
g3
I00
sg4
Vbool
p256
sg6
I00
sg7
I00
sg8
I01
sg9
(lp257
ssVminRotLimitEnable.minRotXLimitEnable
p258
(dp259
g3
I00
sg4
Vbool
p260
sg6
I00
sg7
I00
sg8
I01
sg9
(lp261
ssg119
(dp262
g3
I00
sg4
VdoubleLinear
p263
sg6
I00
sg7
I00
sg8
I01
sg9
(lp264
ssVrotateQuaternion
p265
(dp266
g3
I00
sg4
Vdouble4
p267
sg6
I00
sg8
I00
sg9
(lp268
g90
ag94
ag83
ag106
assVtransMinusRotatePivot.transMinusRotatePivotZ
p269
(dp270
g3
I00
sg4
VdoubleLinear
p271
sg6
I00
sg7
I00
sg8
I01
sg9
(lp272
ssVtransMinusRotatePivot.transMinusRotatePivotX
p273
(dp274
g3
I00
sg4
VdoubleLinear
p275
sg6
I00
sg7
I00
sg8
I01
sg9
(lp276
ssVtransMinusRotatePivot.transMinusRotatePivotY
p277
(dp278
g3
I00
sg4
VdoubleLinear
p279
sg6
I00
sg7
I00
sg8
I01
sg9
(lp280
ssVrotationInterpolation
p281
(dp282
g3
I00
sg4
Venum
p283
sg6
I00
sg7
I00
sg8
I01
sg9
(lp284
ssVminScaleLimit.minScaleYLimit
p285
(dp286
g3
I00
sg4
Vdouble
p287
sg6
I00
sg7
I00
sg8
I01
sg9
(lp288
ssVinstObjGroups[2].objectGroups
p289
(dp290
S'isArray'
p291
I01
sS'isSimple'
p292
I00
ssVtarget[4].targetRotate
p293
(dp294
S'isArray'
p295
I00
sS'attrChildrenLongNames'
p296
(lp297
Vtarget[4].targetRotate.targetRotateX
p298
aVtarget[4].targetRotate.targetRotateY
p299
aVtarget[4].targetRotate.targetRotateZ
p300
assVshear.shearXZ
p301
(dp302
g3
I00
sg4
Vdouble
p303
sg6
I00
sg7
I00
sg8
I01
sg9
(lp304
ssVshear.shearXY
p305
(dp306
g3
I00
sg4
Vdouble
p307
sg6
I00
sg7
I00
sg8
I01
sg9
(lp308
ssVtarget[4].targetJointOrient.targetJointOrientZ
p309
(dp310
g295
I00
sg296
(lp311
ssVvisibility
p312
(dp313
g3
I00
sg4
Vbool
p314
sS'isMulti'
p315
I00
sS'isCompound'
p316
I00
sg8
I01
sg9
(lp317
ssVtarget[4].targetJointOrient.targetJointOrientX
p318
(dp319
g295
I00
sg296
(lp320
ssVenableRestPosition
p321
(dp322
g3
I00
sg4
Vbool
p323
sg315
I00
sg316
I00
sg8
I01
sg9
(lp324
ssVlastTargetRotate.lastTargetRotateX
p325
(dp326
g3
I00
sg4
VdoubleAngle
p327
sS'isMulti'
p328
I00
sS'isCompound'
p329
I00
sg8
I01
sg9
(lp330
ssVlastTargetRotate.lastTargetRotateY
p331
(dp332
g3
I00
sg4
VdoubleAngle
p333
sg328
I00
sg329
I00
sg8
I01
sg9
(lp334
ssVlastTargetRotate.lastTargetRotateZ
p335
(dp336
g3
I00
sg4
VdoubleAngle
p337
sg315
I00
sg316
I00
sg8
I01
sg9
(lp338
ssVtarget.targetJointOrient
p339
(dp340
g33
Vtarget
p341
ssVinterpType
p342
(dp343
g3
I00
sg4
Venum
p344
sg315
I00
sg316
I00
sg8
I01
sg9
(lp345
ssVlastTargetRotate
p346
(dp347
g3
I00
sg4
Vdouble3
p348
sg6
I00
sg7
I01
sg8
I01
sg9
(lp349
g325
ag331
ag335
assVrenderInfo.layerOverrideColor
p350
(dp351
g3
I00
sg4
Vbyte
p352
sg38
VrenderInfo
p353
sg6
I00
sg8
I00
sg9
(lp354
ssVdisplayRotatePivot
p355
(dp356
g3
I00
sg4
Vbool
p357
sg6
I00
sg7
I00
sg8
I01
sg9
(lp358
ssVmaxTransLimitEnable.maxTransXLimitEnable
p359
(dp360
g3
I00
sg4
Vbool
p361
sg6
I00
sg7
I00
sg8
I01
sg9
(lp362
ssVinstObjGroups[0]
p363
(dp364
g3
I00
sg8
I00
sg9
(lp365
VinstObjGroups[0].objectGroups
p366
assVtarget[4].targetJointOrient
p367
(dp368
g295
I00
sg296
(lp369
g318
aVtarget[4].targetJointOrient.targetJointOrientY
p370
ag309
assVmentalRayControls.miCaustic
p371
(dp372
g3
I00
sg4
Venum
p373
sg6
I00
sg7
I00
sg8
I01
sg9
(lp374
ssVpublishedNodeInfo[0].isHierarchicalNode
p375
(dp376
g3
I00
sg8
I00
sg9
(lp377
ssVtarget[3].targetJointOrient
p378
(dp379
g13
I00
sg200
I00
sg15
(lp380
Vtarget[3].targetJointOrient.targetJointOrientX
p381
aVtarget[3].targetJointOrient.targetJointOrientY
p382
aVtarget[3].targetJointOrient.targetJointOrientZ
p383
assVtarget[1].targetRotateCached.targetRotateCachedX
p384
(dp385
g13
I00
sg18
VdoubleAngle
p386
sg14
I00
sS'isCompound'
p387
I00
sg17
I01
sg15
(lp388
ssVtarget[1].targetRotateCached.targetRotateCachedY
p389
(dp390
g13
I00
sg18
VdoubleAngle
p391
sg14
I00
sg387
I00
sg17
I01
sg15
(lp392
ssVtarget[1].targetRotateCached.targetRotateCachedZ
p393
(dp394
g13
I00
sg18
VdoubleAngle
p395
sg14
I00
sg387
I00
sg17
I01
sg15
(lp396
ssVboundingBox.boundingBoxSize.boundingBoxSizeY
p397
(dp398
g3
I00
sg4
VdoubleLinear
p399
sg38
VboundingBox.boundingBoxSize
p400
sg8
I01
sg9
(lp401
ssVboundingBox.boundingBoxSize.boundingBoxSizeX
p402
(dp403
g3
I00
sg4
VdoubleLinear
p404
sg38
VboundingBox.boundingBoxSize
p405
sg8
I01
sg9
(lp406
ssVmentalRayControls.miExportGeoShader
p407
(dp408
g3
I00
sg4
Vbool
p409
sg6
I00
sg7
I00
sg8
I01
sg9
(lp410
ssVboundingBox.boundingBoxSize.boundingBoxSizeZ
p411
(dp412
g3
I00
sg4
VdoubleLinear
p413
sg38
VboundingBox.boundingBoxSize
p414
sg8
I01
sg9
(lp415
ssVtemplateName
p416
(dp417
g3
I00
sg4
Vstring
p418
sg6
I00
sg7
I00
sg8
I01
sg9
(lp419
ssVtarget[3].targetRotate.targetRotateZ
p420
(dp421
g13
I00
sg200
I00
sg15
(lp422
ssVghostingControl
p423
(dp424
g3
I00
sg4
Venum
p425
sg6
I00
sg7
I00
sg8
I01
sg9
(lp426
ssVtarget[3].targetRotate.targetRotateX
p427
(dp428
g13
I00
sg200
I00
sg15
(lp429
ssVtarget[3].targetRotate.targetRotateY
p430
(dp431
g13
I00
sg200
I00
sg15
(lp432
ssVminScaleLimitEnable
p433
(dp434
g3
I00
sg4
VTdataCompound
p435
sg6
I00
sg8
I00
sg9
(lp436
VminScaleLimitEnable.minScaleXLimitEnable
p437
aVminScaleLimitEnable.minScaleYLimitEnable
p438
aVminScaleLimitEnable.minScaleZLimitEnable
p439
assVmentalRayControls.miDeriveFromMaya
p440
(dp441
g3
I00
sg4
Vbool
p442
sg6
I00
sg7
I00
sg8
I01
sg9
(lp443
ssVtarget.targetRotateOrder
p444
(dp445
g38
Vtarget
p446
ssVdrawOverride.overrideDisplayType
p447
(dp448
g3
I00
sg4
Venum
p449
sg6
I00
sg7
I00
sg8
I01
sg9
(lp450
ssVtarget[2].targetWeight
p451
(dp452
g13
I00
sg199
I00
sg200
I00
sg15
(lp453
ssVnodeState
p454
(dp455
g3
I00
sg4
Venum
p456
sg315
I00
sg316
I00
sg8
I01
sg9
(lp457
ssVtarget[1].targetRotateOrder
p458
(dp459
g13
I00
sg18
Venum
p460
sg14
I00
sg387
I00
sg17
I01
sg15
(lp461
ssVminRotLimitEnable
p462
(dp463
g3
I00
sg4
VTdataCompound
p464
sg6
I00
sg8
I00
sg9
(lp465
g258
ag51
aVminRotLimitEnable.minRotZLimitEnable
p466
assVworldMatrix[1]
p467
(dp468
g3
I00
sg8
I00
sg9
(lp469
ssVscalePivotTranslate.scalePivotTranslateZ
p470
(dp471
g3
I00
sg4
VdoubleLinear
p472
sg6
I00
sg7
I00
sg8
I01
sg9
(lp473
ssVscalePivotTranslate.scalePivotTranslateX
p474
(dp475
g3
I00
sg4
VdoubleLinear
p476
sg6
I00
sg7
I00
sg8
I01
sg9
(lp477
ssVscalePivotTranslate.scalePivotTranslateY
p478
(dp479
g3
I00
sg4
VdoubleLinear
p480
sg6
I00
sg7
I00
sg8
I01
sg9
(lp481
ssVtarget[3].targetRotateCached
p482
(dp483
g13
I00
sg200
I00
sg15
(lp484
Vtarget[3].targetRotateCached.targetRotateCachedX
p485
aVtarget[3].targetRotateCached.targetRotateCachedY
p486
aVtarget[3].targetRotateCached.targetRotateCachedZ
p487
assVminTransLimitEnable
p488
(dp489
g3
I00
sg4
VTdataCompound
p490
sg6
I00
sg8
I00
sg9
(lp491
VminTransLimitEnable.minTransXLimitEnable
p492
ag27
aVminTransLimitEnable.minTransZLimitEnable
p493
assVparentInverseMatrix[2]
p494
(dp495
g291
I00
sg292
I00
sS'attrChildrenLongNames'
p496
(lp497
ssVtarget[4].targetRotateCached
p498
(dp499
g295
I00
sg296
(lp500
Vtarget[4].targetRotateCached.targetRotateCachedX
p501
aVtarget[4].targetRotateCached.targetRotateCachedY
p502
aVtarget[4].targetRotateCached.targetRotateCachedZ
p503
assVghostFrames
p504
(dp505
g3
I00
sg4
Nsg6
I00
sg8
I00
sg9
(lp506
ssg164
(dp507
g3
I00
sg8
I00
sg9
(lp508
ssVtarget[2].targetRotateCached
p509
(dp510
g13
I00
sg199
I00
sg200
I00
sg15
(lp511
Vtarget[2].targetRotateCached.targetRotateCachedX
p512
aVtarget[2].targetRotateCached.targetRotateCachedY
p513
aVtarget[2].targetRotateCached.targetRotateCachedZ
p514
assVdrawOverride.overrideColor
p515
(dp516
g3
I00
sg4
Vbyte
p517
sg6
I00
sg8
I00
sg9
(lp518
ssVrenderLayerInfo.renderLayerId
p519
(dp520
g33
VrenderLayerInfo
p521
ssVtarget[1].targetJointOrient
p522
(dp523
g13
I00
sg18
Vdouble3
p524
sg14
I00
sg387
I01
sg17
I01
sg15
(lp525
Vtarget[1].targetJointOrient.targetJointOrientX
p526
aVtarget[1].targetJointOrient.targetJointOrientY
p527
aVtarget[1].targetJointOrient.targetJointOrientZ
p528
assVrenderLayerInfo[1].renderLayerColor
p529
(dp530
g3
I00
sg8
I00
sg9
(lp531
ssVtarget.targetParentMatrix
p532
(dp533
g38
Vtarget
p534
ssVcustomTreatment
p535
(dp536
g3
I00
sg4
Vstring
p537
sg6
I00
sg7
I00
sg8
I01
sg9
(lp538
ssVshear
p539
(dp540
g3
I00
sg4
Vdouble3
p541
sg6
I00
sg7
I01
sg8
I01
sg9
(lp542
g305
ag301
aVshear.shearYZ
p543
assVinstObjGroups.objectGroups.objectGrpColor
p544
(dp545
g33
VinstObjGroups.objectGroups
p546
ssVcreationDate
p547
(dp548
g3
I00
sg4
Vstring
p549
sg6
I00
sg7
I00
sg8
I01
sg9
(lp550
ssVtarget[3].targetWeight
p551
(dp552
g13
I00
sg200
I00
sg15
(lp553
ssVtarget[2].targetRotateCached.targetRotateCachedY
p554
(dp555
g13
I00
sg199
I00
sg200
I00
sg15
(lp556
ssVtarget[2].targetRotateCached.targetRotateCachedX
p557
(dp558
g13
I00
sg199
I00
sg200
I00
sg15
(lp559
ssVisHierarchicalConnection[1]
p560
(dp561
g3
I00
sg8
I00
sg9
(lp562
ssg127
(dp563
g3
I00
sg4
VdoubleAngle
p564
sg6
I00
sg7
I00
sg8
I01
sg9
(lp565
ssg196
(dp566
g3
I00
sg4
VdoubleLinear
p567
sg6
I00
sg7
I00
sg8
I01
sg9
(lp568
ssg194
(dp569
g3
I00
sg4
VdoubleLinear
p570
sg6
I00
sg7
I00
sg8
I01
sg9
(lp571
ssg195
(dp572
g3
I00
sg4
VdoubleLinear
p573
sg6
I00
sg7
I00
sg8
I01
sg9
(lp574
ssVworldMatrix[2]
p575
(dp576
g291
I00
sg292
I00
sg496
(lp577
ssVinstObjGroups[1].objectGroups
p578
(dp579
g3
I01
sg8
I00
ssVghosting
p580
(dp581
g3
I00
sg4
Vbool
p582
sg6
I00
sg7
I00
sg8
I01
sg9
(lp583
ssVmatrix
p584
(dp585
g3
I00
sg4
Vmatrix
p586
sg6
I00
sg8
I00
sg9
(lp587
ssVdisplayLocalAxis
p588
(dp589
g3
I00
sg4
Vbool
p590
sg6
I00
sg7
I00
sg8
I01
sg9
(lp591
ssg59
(dp592
g3
I00
sg4
VdoubleLinear
p593
sg6
I00
sg7
I00
sg8
I01
sg9
(lp594
ssg60
(dp595
g3
I00
sg4
VdoubleLinear
p596
sg6
I00
sg7
I00
sg8
I01
sg9
(lp597
ssg61
(dp598
g3
I00
sg4
VdoubleLinear
p599
sg6
I00
sg7
I00
sg8
I01
sg9
(lp600
ssVmaxRotLimitEnable.maxRotZLimitEnable
p601
(dp602
g3
I00
sg4
Vbool
p603
sg6
I00
sg7
I00
sg8
I01
sg9
(lp604
ssVworldMatrix
p605
(dp606
g3
I01
sg4
Vmatrix
p607
sg8
I00
sg6
I01
ssVcontainerType
p608
(dp609
g3
I00
sg4
Vstring
p610
sg6
I00
sg7
I00
sg8
I01
sg9
(lp611
ssVminScaleLimit.minScaleZLimit
p612
(dp613
g3
I00
sg4
Vdouble
p614
sg6
I00
sg7
I00
sg8
I01
sg9
(lp615
ssVparentInverseMatrix
p616
(dp617
g3
I01
sg4
Vmatrix
p618
sg8
I00
sg6
I01
ssVtarget[2].targetJointOrient
p619
(dp620
g13
I00
sg199
I00
sg200
I00
sg15
(lp621
Vtarget[2].targetJointOrient.targetJointOrientX
p622
aVtarget[2].targetJointOrient.targetJointOrientY
p623
aVtarget[2].targetJointOrient.targetJointOrientZ
p624
assVtarget[1].targetRotateCached
p625
(dp626
g13
I00
sg18
Vdouble3
p627
sg14
I00
sg387
I01
sg17
I01
sg15
(lp628
Vtarget[1].targetRotateCached.targetRotateCachedX
p629
aVtarget[1].targetRotateCached.targetRotateCachedY
p630
aVtarget[1].targetRotateCached.targetRotateCachedZ
p631
assVrenderInfo.layerRenderable
p632
(dp633
g3
I00
sg4
Vbool
p634
sg38
VrenderInfo
p635
sg6
I00
sg7
I00
sg8
I01
sg9
(lp636
ssVrmbCommand
p637
(dp638
g3
I00
sg4
Vstring
p639
sg6
I00
sg7
I00
sg8
I01
sg9
(lp640
ssg24
(dp641
g3
I00
sg4
Vlong
p642
sg6
I00
sg7
I00
sg8
I01
sg9
(lp643
ssVpublishedNodeInfo[1].publishedNodeType
p644
(dp645
g3
I00
sg8
I00
sg9
(lp646
ssVgeometry
p647
(dp648
g3
I00
sg4
Nsg6
I00
sg8
I00
sg9
(lp649
ssVisHierarchicalConnection
p650
(dp651
g3
I01
sg4
VTdataCompound
p652
sg8
I00
sg6
I01
ssg543
(dp653
g3
I00
sg4
Vdouble
p654
sg6
I00
sg7
I00
sg8
I01
sg9
(lp655
ssVtarget[4].targetParentMatrix
p656
(dp657
g295
I00
sg296
(lp658
ssg502
(dp659
g295
I00
sg296
(lp660
ssg501
(dp661
g295
I00
sg296
(lp662
ssg503
(dp663
g295
I00
sg296
(lp664
ssg125
(dp665
g3
I00
sg4
VdoubleAngle
p666
sg6
I00
sg7
I00
sg8
I01
sg9
(lp667
ssVxformMatrix
p668
(dp669
g3
I00
sg4
Vmatrix
p670
sg6
I00
sg8
I00
sg9
(lp671
ssVinstObjGroups[1]
p672
(dp673
g3
I00
sg8
I00
sg9
(lp674
g578
assVtarget[0].targetRotateCached
p675
(dp676
g64
I00
sg65
Vdouble3
p677
sg67
(lp678
g73
ag62
ag78
asg69
I00
sg70
I01
sg71
I01
sg15
(lp679
Vtarget[0].targetRotateCached.targetRotateCachedX
p680
aVtarget[0].targetRotateCached.targetRotateCachedY
p681
aVtarget[0].targetRotateCached.targetRotateCachedZ
p682
assVparentMatrix[1]
p683
(dp684
g3
I00
sg8
I00
sg9
(lp685
ssVrenderInfo
p686
(dp687
g3
I00
sg4
VTdataCompound
p688
sg6
I00
sg8
I00
sg9
(lp689
VrenderInfo.identification
p690
ag632
ag350
assVmaxScaleLimit.maxScaleZLimit
p691
(dp692
g3
I00
sg4
Vdouble
p693
sg6
I00
sg7
I00
sg8
I01
sg9
(lp694
ssVtarget
p695
(dp696
g64
I01
sg69
I01
sg71
I00
sg65
VTdataCompound
p697
ssVtarget[3]
p698
(dp699
g13
I00
sg200
I00
sg15
(lp700
Vtarget[3].targetRotate
p701
aVtarget[3].targetRotateOrder
p702
aVtarget[3].targetJointOrient
p703
aVtarget[3].targetParentMatrix
p704
aVtarget[3].targetWeight
p705
aVtarget[3].targetRotateCached
p706
assVmaxScaleLimit.maxScaleXLimit
p707
(dp708
g3
I00
sg4
Vdouble
p709
sg6
I00
sg7
I00
sg8
I01
sg9
(lp710
ssVscalePivot
p711
(dp712
g3
I00
sg4
Vdouble3
p713
sg6
I00
sg7
I01
sg8
I01
sg9
(lp714
VscalePivot.scalePivotX
p715
aVscalePivot.scalePivotY
p716
aVscalePivot.scalePivotZ
p717
assVworldInverseMatrix[0]
p718
(dp719
g3
I00
sg8
I00
sg9
(lp720
ssVtarget[3].targetRotate
p721
(dp722
g13
I00
sg200
I00
sg15
(lp723
Vtarget[3].targetRotate.targetRotateX
p724
aVtarget[3].targetRotate.targetRotateY
p725
aVtarget[3].targetRotate.targetRotateZ
p726
assVboundingBox.boundingBoxMax.boundingBoxMaxX
p727
(dp728
g3
I00
sg4
VdoubleLinear
p729
sg38
VboundingBox.boundingBoxMax
p730
sg8
I01
sg9
(lp731
ssVtarget[1].targetRotate
p732
(dp733
g13
I00
sg18
Vdouble3
p734
sg14
I00
sg387
I01
sg17
I01
sg15
(lp735
Vtarget[1].targetRotate.targetRotateX
p736
aVtarget[1].targetRotate.targetRotateY
p737
aVtarget[1].targetRotate.targetRotateZ
p738
assVboundingBox.boundingBoxMax.boundingBoxMaxZ
p739
(dp740
g3
I00
sg4
VdoubleLinear
p741
sg38
VboundingBox.boundingBoxMax
p742
sg8
I01
sg9
(lp743
ssVinstObjGroups[0].objectGroups[1].objectGrpColor
p744
(dp745
g3
I00
sg8
I00
sg9
(lp746
ssVisCollapsed
p747
(dp748
g3
I00
sg4
Vbool
p749
sg6
I00
sg7
I00
sg8
I01
sg9
(lp750
ssVtarget[2].targetRotateOrder
p751
(dp752
g13
I00
sg199
I00
sg200
I00
sg15
(lp753
ssVuseOldOffsetCalculation
p754
(dp755
g3
I00
sg4
Vbool
p756
sg6
I00
sg7
I00
sg8
I01
sg9
(lp757
ssVmaxTransLimit.maxTransXLimit
p758
(dp759
g3
I00
sg4
VdoubleLinear
p760
sg6
I00
sg7
I00
sg8
I01
sg9
(lp761
ssVmaxScaleLimit.maxScaleYLimit
p762
(dp763
g3
I00
sg4
Vdouble
p764
sg6
I00
sg7
I00
sg8
I01
sg9
(lp765
ssVtarget.targetJointOrientX
p766
(dp767
g33
Vtarget.targetJointOrient
p768
ssVtarget.targetJointOrientY
p769
(dp770
g33
Vtarget.targetJointOrient
p771
ssVtarget[4].targetWeight
p772
(dp773
g295
I00
sg296
(lp774
ssg162
(dp775
g3
I00
sg8
I00
sg9
(lp776
ssVuiTreatment
p777
(dp778
g3
I00
sg4
Venum
p779
sg6
I00
sg7
I00
sg8
I01
sg9
(lp780
ssVrotate.rotateZ
p781
(dp782
g3
I00
sg4
VdoubleAngle
p783
sg315
I00
sg316
I00
sg8
I01
sg9
(lp784
ssVrotate.rotateX
p785
(dp786
g3
I00
sg4
VdoubleAngle
p787
sg315
I00
sg316
I00
sg8
I01
sg9
(lp788
ssVrotate.rotateY
p789
(dp790
g3
I00
sg4
VdoubleAngle
p791
sg315
I00
sg316
I00
sg8
I01
sg9
(lp792
ssVcaching
p793
(dp794
g3
I00
sg4
Vbool
p795
sg6
I00
sg7
I00
sg8
I01
sg9
(lp796
ssVrenderLayerInfo[1].renderLayerRenderable
p797
(dp798
g3
I00
sg8
I00
sg9
(lp799
ssVtranslate.translateZ
p800
(dp801
g3
I00
sg4
VdoubleLinear
p802
sg315
I00
sg316
I00
sg8
I01
sg9
(lp803
ssVtarget[3].targetRotateOrder
p804
(dp805
g13
I00
sg200
I00
sg15
(lp806
ssVtranslate.translateX
p807
(dp808
g3
I00
sg4
VdoubleLinear
p809
sg315
I00
sg316
I00
sg8
I01
sg9
(lp810
ssVtranslate.translateY
p811
(dp812
g3
I00
sg4
VdoubleLinear
p813
sg315
I00
sg316
I00
sg8
I01
sg9
(lp814
ssg25
(dp815
g3
I00
sg4
Vlong
p816
sg6
I00
sg7
I00
sg8
I01
sg9
(lp817
ssVmentalRayControls.miVisible
p818
(dp819
g3
I00
sg4
Venum
p820
sg6
I00
sg7
I00
sg8
I01
sg9
(lp821
ssVuseObjectColor
p822
(dp823
g3
I00
sg4
Vbool
p824
sg328
I00
sg329
I00
sg8
I01
sg9
(lp825
ssVdrawOverride.overrideLevelOfDetail
p826
(dp827
g3
I00
sg4
Venum
p828
sg6
I00
sg7
I00
sg8
I01
sg9
(lp829
ssVtarget.targetRotateCachedZ
p830
(dp831
g33
Vtarget.targetRotateCached
p832
ssVtarget.targetRotateCachedY
p833
(dp834
g33
Vtarget.targetRotateCached
p835
ssVtarget.targetRotateCachedX
p836
(dp837
g33
Vtarget.targetRotateCached
p838
ssVparentMatrix[2]
p839
(dp840
g291
I00
sg292
I00
sg496
(lp841
ssVtransMinusRotatePivot
p842
(dp843
g3
I00
sg4
Vdouble3
p844
sg6
I00
sg7
I01
sg8
I01
sg9
(lp845
g273
ag277
ag269
assVbinMembership
p846
(dp847
g3
I00
sg4
Vstring
p848
sg6
I00
sg7
I00
sg8
I01
sg9
(lp849
ssg176
(dp850
g3
I00
sg8
I00
sg9
(lp851
ssVtarget[2].targetRotate.targetRotateZ
p852
(dp853
g13
I00
sg199
I00
sg200
I00
sg15
(lp854
ssVtarget[2].targetRotate.targetRotateY
p855
(dp856
g13
I00
sg199
I00
sg200
I00
sg15
(lp857
ssVtarget[2].targetRotate.targetRotateX
p858
(dp859
g13
I00
sg199
I00
sg200
I00
sg15
(lp860
ssVparentMatrix
p861
(dp862
g3
I01
sg4
Vmatrix
p863
sg8
I00
sg6
I01
ssg493
(dp864
g3
I00
sg4
Vbool
p865
sg6
I00
sg7
I00
sg8
I01
sg9
(lp866
ssVscalePivotTranslate
p867
(dp868
g3
I00
sg4
Vdouble3
p869
sg6
I00
sg7
I01
sg8
I01
sg9
(lp870
g474
ag478
ag470
assVrestRotate
p871
(dp872
g3
I00
sg4
Vdouble3
p873
sg6
I00
sg7
I01
sg8
I01
sg9
(lp874
VrestRotate.restRotateX
p875
aVrestRotate.restRotateY
p876
aVrestRotate.restRotateZ
p877
assVdrawOverride.overrideEnabled
p878
(dp879
g3
I00
sg4
Vbool
p880
sg6
I00
sg7
I00
sg8
I01
sg9
(lp881
ssVboundingBox.boundingBoxMax
p882
(dp883
g3
I00
sg4
Vdouble3
p884
sg38
VboundingBox
p885
sg8
I01
sg9
(lp886
g727
aVboundingBox.boundingBoxMax.boundingBoxMaxY
p887
ag739
assVrotateAxis
p888
(dp889
g3
I00
sg4
Vdouble3
p890
sg6
I00
sg7
I01
sg8
I01
sg9
(lp891
VrotateAxis.rotateAxisX
p892
aVrotateAxis.rotateAxisY
p893
aVrotateAxis.rotateAxisZ
p894
assVcreator
p895
(dp896
g3
I00
sg4
Vstring
p897
sg6
I00
sg7
I00
sg8
I01
sg9
(lp898
ssg892
(dp899
g3
I00
sg4
VdoubleAngle
p900
sg6
I00
sg7
I00
sg8
I01
sg9
(lp901
ssg893
(dp902
g3
I00
sg4
VdoubleAngle
p903
sg6
I00
sg7
I00
sg8
I01
sg9
(lp904
ssg894
(dp905
g3
I00
sg4
VdoubleAngle
p906
sg6
I00
sg7
I00
sg8
I01
sg9
(lp907
ssVghostRangeEnd
p908
(dp909
g3
I00
sg4
Vtime
p910
sg6
I00
sg7
I00
sg8
I01
sg9
(lp911
ssVtemplateVersion
p912
(dp913
g3
I00
sg4
Vlong
p914
sg6
I00
sg7
I00
sg8
I01
sg9
(lp915
ssVtarget[0].targetJointOrient.targetJointOrientZ
p916
(dp917
g64
I00
sg65
VdoubleAngle
p918
sg67
(lp919
sg69
I00
sg70
I00
sg71
I01
sg15
(lp920
ssVtarget[0].targetJointOrient.targetJointOrientY
p921
(dp922
g64
I00
sg65
VdoubleAngle
p923
sg67
(lp924
sg69
I00
sg70
I00
sg71
I01
sg15
(lp925
ssVtarget[0].targetJointOrient.targetJointOrientX
p926
(dp927
g64
I00
sg65
VdoubleAngle
p928
sg67
(lp929
sg69
I00
sg70
I00
sg71
I01
sg15
(lp930
ssg438
(dp931
g3
I00
sg4
Vbool
p932
sg6
I00
sg7
I00
sg8
I01
sg9
(lp933
ssVmaxScaleLimitEnable.maxScaleXLimitEnable
p934
(dp935
g3
I00
sg4
Vbool
p936
sg6
I00
sg7
I00
sg8
I01
sg9
(lp937
ssVtarget[0].targetJointOrient
p938
(dp939
g64
I00
sg65
Vdouble3
p940
sg67
(lp941
g926
ag921
ag916
asg69
I00
sg70
I01
sg71
I01
sg15
(lp942
Vtarget[0].targetJointOrient.targetJointOrientX
p943
aVtarget[0].targetJointOrient.targetJointOrientY
p944
aVtarget[0].targetJointOrient.targetJointOrientZ
p945
assVtarget[0].targetRotate.targetRotateY
p946
(dp947
g64
I00
sg65
VdoubleAngle
p948
sg67
(lp949
sg69
I00
sg70
I00
sg71
I01
sg15
(lp950
ssVtarget[0].targetRotate.targetRotateX
p951
(dp952
g64
I00
sg65
VdoubleAngle
p953
sg67
(lp954
sg69
I00
sg70
I00
sg71
I01
sg15
(lp955
ssVtarget[0].targetRotate.targetRotateZ
p956
(dp957
g64
I00
sg65
VdoubleAngle
p958
sg67
(lp959
sg69
I00
sg70
I00
sg71
I01
sg15
(lp960
ssg715
(dp961
g3
I00
sg4
VdoubleLinear
p962
sg6
I00
sg7
I00
sg8
I01
sg9
(lp963
ssg716
(dp964
g3
I00
sg4
VdoubleLinear
p965
sg6
I00
sg7
I00
sg8
I01
sg9
(lp966
ssg717
(dp967
g3
I00
sg4
VdoubleLinear
p968
sg6
I00
sg7
I00
sg8
I01
sg9
(lp969
ssVinstObjGroups.objectGroups.objectGrpCompList
p970
(dp971
g33
VinstObjGroups.objectGroups
p972
ssVpublishedNodeInfo.publishedNodeType
p973
(dp974
g33
VpublishedNodeInfo
p975
ssVpublishedNodeInfo[1]
p976
(dp977
g3
I00
sg8
I00
sg9
(lp978
VpublishedNodeInfo[1].publishedNode
p979
aVpublishedNodeInfo[1].isHierarchicalNode
p980
ag644
assVmaxTransLimit
p981
(dp982
g3
I00
sg4
Vdouble3
p983
sg6
I00
sg7
I01
sg8
I01
sg9
(lp984
g758
aVmaxTransLimit.maxTransYLimit
p985
ag169
assVtarget[1].targetRotate.targetRotateX
p986
(dp987
g13
I00
sg18
VdoubleAngle
p988
sg14
I00
sg387
I00
sg17
I01
sg15
(lp989
ssVtarget[1].targetRotate.targetRotateY
p990
(dp991
g13
I00
sg18
VdoubleAngle
p992
sg14
I00
sg387
I00
sg17
I01
sg15
(lp993
ssVtarget[1].targetRotate.targetRotateZ
p994
(dp995
g13
I00
sg18
VdoubleAngle
p996
sg14
I00
sg387
I00
sg17
I01
sg15
(lp997
ssVscale.scaleZ
p998
(dp999
g3
I00
sg4
Vdouble
p1000
sg315
I00
sg316
I00
sg8
I01
sg9
(lp1001
ssVtarget[3].targetRotateCached.targetRotateCachedX
p1002
(dp1003
g13
I00
sg200
I00
sg15
(lp1004
ssVscale.scaleY
p1005
(dp1006
g3
I00
sg4
Vdouble
p1007
sg315
I00
sg316
I00
sg8
I01
sg9
(lp1008
ssVghostRangeStart
p1009
(dp1010
g3
I00
sg4
Vtime
p1011
sg6
I00
sg7
I00
sg8
I01
sg9
(lp1012
ssVpublishedNodeInfo[0].publishedNodeType
p1013
(dp1014
g3
I00
sg8
I00
sg9
(lp1015
ssVmentalRayControls.miTrace
p1016
(dp1017
g3
I00
sg4
Venum
p1018
sg6
I00
sg7
I00
sg8
I01
sg9
(lp1019
ssg985
(dp1020
g3
I00
sg4
VdoubleLinear
p1021
sg6
I00
sg7
I00
sg8
I01
sg9
(lp1022
ssVmaxTransLimitEnable
p1023
(dp1024
g3
I00
sg4
VTdataCompound
p1025
sg6
I00
sg8
I00
sg9
(lp1026
g359
ag139
aVmaxTransLimitEnable.maxTransZLimitEnable
p1027
assVmaxScaleLimit
p1028
(dp1029
g3
I00
sg4
Vdouble3
p1030
sg6
I00
sg7
I01
sg8
I01
sg9
(lp1031
g707
ag762
ag691
assVinheritsTransform
p1032
(dp1033
g3
I00
sg4
Vbool
p1034
sg6
I00
sg7
I00
sg8
I01
sg9
(lp1035
ssVisHistoricallyInteresting
p1036
(dp1037
g3
I00
sg4
Vbyte
p1038
sg6
I00
sg8
I00
sg9
(lp1039
ssVtarget[0]
p1040
(dp1041
g64
I00
sg65
VTdataCompound
p1042
sg67
(lp1043
Vtarget[0].targetRotate
p1044
aVtarget[0].targetRotateOrder
p1045
ag938
aVtarget[0].targetParentMatrix
p1046
aVtarget[0].targetWeight
p1047
ag675
asg69
I00
sg71
I00
sg15
(lp1048
Vtarget[0].targetRotate
p1049
aVtarget[0].targetRotateOrder
p1050
aVtarget[0].targetJointOrient
p1051
aVtarget[0].targetParentMatrix
p1052
aVtarget[0].targetWeight
p1053
aVtarget[0].targetRotateCached
p1054
assVdrawOverride
p1055
(dp1056
g3
I00
sg4
VTdataCompound
p1057
sg6
I00
sg8
I00
sg9
(lp1058
g447
ag826
aVdrawOverride.overrideShading
p1059
ag245
aVdrawOverride.overridePlayback
p1060
ag878
aVdrawOverride.overrideVisibility
p1061
ag515
assVtarget[1].targetJointOrient.targetJointOrientZ
p1062
(dp1063
g13
I00
sg18
VdoubleAngle
p1064
sg14
I00
sg387
I00
sg17
I01
sg15
(lp1065
ssVtarget[1].targetJointOrient.targetJointOrientX
p1066
(dp1067
g13
I00
sg18
VdoubleAngle
p1068
sg14
I00
sg387
I00
sg17
I01
sg15
(lp1069
ssVtarget[1].targetJointOrient.targetJointOrientY
p1070
(dp1071
g13
I00
sg18
VdoubleAngle
p1072
sg14
I00
sg387
I00
sg17
I01
sg15
(lp1073
ssVinstObjGroups.objectGroups.objectGroupId
p1074
(dp1075
g33
VinstObjGroups.objectGroups
p1076
ssg492
(dp1077
g3
I00
sg4
Vbool
p1078
sg6
I00
sg7
I00
sg8
I01
sg9
(lp1079
ssVboundingBox
p1080
(dp1081
g3
I00
sg4
VTdataCompound
p1082
sg8
I00
sg9
(lp1083
VboundingBox.boundingBoxMin
p1084
ag882
aVboundingBox.boundingBoxSize
p1085
assg1044
(dp1086
g64
I00
sg65
Vdouble3
p1087
sg67
(lp1088
g951
ag946
ag956
asg69
I00
sg70
I01
sg71
I01
sg15
(lp1089
Vtarget[0].targetRotate.targetRotateX
p1090
aVtarget[0].targetRotate.targetRotateY
p1091
aVtarget[0].targetRotate.targetRotateZ
p1092
assg1085
(dp1093
g3
I00
sg4
Vdouble3
p1094
sg38
VboundingBox
p1095
sg8
I01
sg9
(lp1096
g402
ag397
ag411
assVinterpCache
p1097
(dp1098
g3
I00
sg4
Vlong
p1099
sg6
I00
sg7
I00
sg8
I01
sg9
(lp1100
ssVtarget[3].targetRotateCached.targetRotateCachedZ
p1101
(dp1102
g13
I00
sg200
I00
sg15
(lp1103
ssg439
(dp1104
g3
I00
sg4
Vbool
p1105
sg6
I00
sg7
I00
sg8
I01
sg9
(lp1106
ssg887
(dp1107
g3
I00
sg4
VdoubleLinear
p1108
sg38
VboundingBox.boundingBoxMax
p1109
sg8
I01
sg9
(lp1110
ssVmaxScaleLimitEnable
p1111
(dp1112
g3
I00
sg4
VTdataCompound
p1113
sg6
I00
sg8
I00
sg9
(lp1114
g934
ag152
aVmaxScaleLimitEnable.maxScaleZLimitEnable
p1115
assVscale.scaleX
p1116
(dp1117
g3
I00
sg4
Vdouble
p1118
sg315
I00
sg316
I00
sg8
I01
sg9
(lp1119
ssg1115
(dp1120
g3
I00
sg4
Vbool
p1121
sg6
I00
sg7
I00
sg8
I01
sg9
(lp1122
ssg1084
(dp1123
g3
I00
sg4
Vdouble3
p1124
sg38
VboundingBox
p1125
sg8
I01
sg9
(lp1126
g41
ag35
ag46
assVtarget[3].targetRotateCached.targetRotateCachedY
p1127
(dp1128
g13
I00
sg200
I00
sg15
(lp1129
ssg1045
(dp1130
g64
I00
sg65
Venum
p1131
sg67
(lp1132
sg69
I00
sg70
I00
sg71
I01
sg15
(lp1133
ssVspecifiedManipLocation
p1134
(dp1135
g3
I00
sg4
Nsg6
I00
sg8
I00
sg9
(lp1136
ssg366
(dp1137
g3
I01
sg8
I00
ssVmaxRotLimitEnable.maxRotYLimitEnable
p1138
(dp1139
g3
I00
sg4
Vbool
p1140
sg6
I00
sg7
I00
sg8
I01
sg9
(lp1141
ssVminScaleLimit
p1142
(dp1143
g3
I00
sg4
Vdouble3
p1144
sg6
I00
sg7
I01
sg8
I01
sg9
(lp1145
g102
ag285
ag612
assVlodVisibility
p1146
(dp1147
g3
I00
sg4
Vbool
p1148
sg6
I00
sg7
I00
sg8
I01
sg9
(lp1149
ssVpublishedNodeInfo.isHierarchicalNode
p1150
(dp1151
g33
VpublishedNodeInfo
p1152
ssVinstObjGroups[0].objectGroups[1].objectGrpCompList
p1153
(dp1154
g3
I00
sg8
I00
sg9
(lp1155
ssg1060
(dp1156
g3
I00
sg4
Vbool
p1157
sg6
I00
sg7
I00
sg8
I01
sg9
(lp1158
ssVblackBox
p1159
(dp1160
g3
I00
sg4
Vbool
p1161
sg6
I00
sg7
I00
sg8
I01
sg9
(lp1162
ssVcenter
p1163
(dp1164
g3
I00
sg4
Vdouble3
p1165
sg8
I01
sg9
(lp1166
Vcenter.boundingBoxCenterX
p1167
aVcenter.boundingBoxCenterY
p1168
aVcenter.boundingBoxCenterZ
p1169
assg1059
(dp1170
g3
I00
sg4
Vbool
p1171
sg6
I00
sg7
I00
sg8
I01
sg9
(lp1172
ssVmentalRayControls.miShadow
p1173
(dp1174
g3
I00
sg4
Venum
p1175
sg6
I00
sg7
I00
sg8
I01
sg9
(lp1176
ssVinstObjGroups[2]
p1177
(dp1178
g291
I00
sg292
I00
sg496
(lp1179
g289
assVviewMode
p1180
(dp1181
g3
I00
sg4
Venum
p1182
sg6
I00
sg7
I00
sg8
I01
sg9
(lp1183
ssVrotatePivotTranslate
p1184
(dp1185
g3
I00
sg4
Vdouble3
p1186
sg6
I00
sg7
I01
sg8
I01
sg9
(lp1187
VrotatePivotTranslate.rotatePivotTranslateX
p1188
aVrotatePivotTranslate.rotatePivotTranslateY
p1189
aVrotatePivotTranslate.rotatePivotTranslateZ
p1190
assVintermediateObject
p1191
(dp1192
g3
I00
sg4
Vbool
p1193
sg6
I00
sg7
I00
sg8
I01
sg9
(lp1194
ssg466
(dp1195
g3
I00
sg4
Vbool
p1196
sg6
I00
sg7
I00
sg8
I01
sg9
(lp1197
ssVtarget[1].targetWeight
p1198
(dp1199
g13
I00
sg18
Vdouble
p1200
sg14
I00
sg387
I00
sg17
I01
sg15
(lp1201
ssVmaxRotLimit.maxRotYLimit
p1202
(dp1203
g3
I00
sg4
VdoubleAngle
p1204
sg6
I00
sg7
I00
sg8
I01
sg9
(lp1205
ssVtarget.targetRotateCached
p1206
(dp1207
g33
Vtarget
p1208
ssVtarget[3].targetJointOrient.targetJointOrientX
p1209
(dp1210
g13
I00
sg200
I00
sg15
(lp1211
ssVtarget[3].targetJointOrient.targetJointOrientY
p1212
(dp1213
g13
I00
sg200
I00
sg15
(lp1214
ssVtarget[3].targetJointOrient.targetJointOrientZ
p1215
(dp1216
g13
I00
sg200
I00
sg15
(lp1217
ssVtarget[2].targetRotateCached.targetRotateCachedZ
p1218
(dp1219
g13
I00
sg199
I00
sg200
I00
sg15
(lp1220
ssg1027
(dp1221
g3
I00
sg4
Vbool
p1222
sg6
I00
sg7
I00
sg8
I01
sg9
(lp1223
ssVworldInverseMatrix[1]
p1224
(dp1225
g3
I00
sg8
I00
sg9
(lp1226
ssg1190
(dp1227
g3
I00
sg4
VdoubleLinear
p1228
sg6
I00
sg7
I00
sg8
I01
sg9
(lp1229
ssg1188
(dp1230
g3
I00
sg4
VdoubleLinear
p1231
sg6
I00
sg7
I00
sg8
I01
sg9
(lp1232
ssg1189
(dp1233
g3
I00
sg4
VdoubleLinear
p1234
sg6
I00
sg7
I00
sg8
I01
sg9
(lp1235
ssVrotate
p1236
(dp1237
g3
I00
sg4
Vdouble3
p1238
sg6
I00
sg7
I01
sg8
I01
sg9
(lp1239
g785
ag789
ag781
assVparentInverseMatrix[0]
p1240
(dp1241
g3
I00
sg8
I00
sg9
(lp1242
ssVrenderLayerInfo[1].renderLayerId
p1243
(dp1244
g3
I00
sg8
I00
sg9
(lp1245
ssVobjectColor
p1246
(dp1247
g3
I00
sg4
Vshort
p1248
sg328
I00
sg329
I00
sg8
I01
sg9
(lp1249
ssVmentalRayControls.miGeoShader
p1250
(dp1251
g3
I00
sg4
Nsg6
I00
sg8
I00
sg9
(lp1252
ssVconstraintRotateOrder
p1253
(dp1254
g64
I00
sg65
Venum
p1255
sg67
(lp1256
sg69
I00
sg70
I00
sg71
I01
sg15
(lp1257
ssVpublishedNodeInfo[0]
p1258
(dp1259
g3
I00
sg8
I00
sg9
(lp1260
VpublishedNodeInfo[0].publishedNode
p1261
ag375
ag1013
assg1047
(dp1262
g64
I00
sg65
Vdouble
p1263
sg67
(lp1264
sg69
I00
sg70
I00
sg71
I01
sg15
(lp1265
ssg1261
(dp1266
g3
I00
sg8
I00
sg9
(lp1267
ssg980
(dp1268
g3
I00
sg8
I00
sg9
(lp1269
ssVscale
p1270
(dp1271
g3
I00
sg4
Vdouble3
p1272
sg6
I00
sg7
I01
sg8
I01
sg9
(lp1273
g1116
ag1005
ag998
assVtarget.targetRotateZ
p1274
(dp1275
g33
Vtarget.targetRotate
p1276
ssVtarget.targetRotateY
p1277
(dp1278
g33
Vtarget.targetRotate
p1279
ssVtarget.targetRotateX
p1280
(dp1281
g33
Vtarget.targetRotate
p1282
ssVviewName
p1283
(dp1284
g3
I00
sg4
Vstring
p1285
sg6
I00
sg7
I00
sg8
I01
sg9
(lp1286
ssVinstObjGroups[0].objectGroups[1]
p1287
(dp1288
g3
I00
sg8
I00
sg9
(lp1289
g1153
aVinstObjGroups[0].objectGroups[1].objectGroupId
p1290
ag744
assVoffset
p1291
(dp1292
g3
I00
sg4
Vdouble3
p1293
sg6
I00
sg7
I01
sg8
I01
sg9
(lp1294
g182
ag186
ag178
assViconName
p1295
(dp1296
g3
I00
sg4
Vstring
p1297
sg6
I00
sg7
I00
sg8
I01
sg9
(lp1298
ssVinstObjGroups
p1299
(dp1300
g3
I01
sg4
VTdataCompound
p1301
sg8
I00
sg6
I01
ssVtarget.targetJointOrientZ
p1302
(dp1303
g33
Vtarget.targetJointOrient
p1304
ssVworldMatrix[0]
p1305
(dp1306
g3
I00
sg8
I00
sg9
(lp1307
ssg1061
(dp1308
g3
I00
sg4
Vbool
p1309
sg6
I00
sg7
I00
sg8
I01
sg9
(lp1310
ssg299
(dp1311
g295
I00
sg296
(lp1312
ssg298
(dp1313
g295
I00
sg296
(lp1314
ssg300
(dp1315
g295
I00
sg296
(lp1316
ssVworldInverseMatrix[2]
p1317
(dp1318
g291
I00
sg292
I00
sg496
(lp1319
ssg979
(dp1320
g3
I00
sg8
I00
sg9
(lp1321
ssVmaxRotLimit
p1322
(dp1323
g3
I00
sg4
Vdouble3
p1324
sg6
I00
sg7
I01
sg8
I01
sg9
(lp1325
VmaxRotLimit.maxRotXLimit
p1326
ag1202
aVmaxRotLimit.maxRotZLimit
p1327
assVtarget.targetRotate
p1328
(dp1329
g38
Vtarget
p1330
ssVtranslate
p1331
(dp1332
g3
I00
sg4
Vdouble3
p1333
sg6
I00
sg7
I01
sg8
I01
sg9
(lp1334
g807
ag811
ag800
assVtarget[4]
p1335
(dp1336
g295
I00
sg296
(lp1337
g293
aVtarget[4].targetRotateOrder
p1338
ag367
ag656
ag772
ag498
assVmaxRotLimitEnable
p1339
(dp1340
g3
I00
sg4
VTdataCompound
p1341
sg6
I00
sg8
I00
sg9
(lp1342
g98
ag1138
ag601
assVtarget[3].targetParentMatrix
p1343
(dp1344
g13
I00
sg200
I00
sg15
(lp1345
ssg1290
(dp1346
g3
I00
sg8
I00
sg9
(lp1347
ssVconstraintJointOrient
p1348
(dp1349
g64
I00
sg65
Vdouble3
p1350
sg67
(lp1351
VconstraintJointOrient.constraintJointOrientX
p1352
aVconstraintJointOrient.constraintJointOrientY
p1353
aVconstraintJointOrient.constraintJointOrientZ
p1354
asg69
I00
sg70
I01
sg71
I01
sg15
(lp1355
VconstraintJointOrient.constraintJointOrientX
p1356
aVconstraintJointOrient.constraintJointOrientY
p1357
aVconstraintJointOrient.constraintJointOrientZ
p1358
assg120
(dp1359
g3
I00
sg4
VdoubleLinear
p1360
sg6
I00
sg7
I00
sg8
I01
sg9
(lp1361
ssg126
(dp1362
g3
I00
sg4
VdoubleAngle
p1363
sg6
I00
sg7
I00
sg8
I01
sg9
(lp1364
ssg877
(dp1365
g3
I00
sg4
VdoubleAngle
p1366
sg315
I00
sg316
I00
sg8
I01
sg9
(lp1367
ssg875
(dp1368
g3
I00
sg4
VdoubleAngle
p1369
sg328
I00
sg329
I00
sg8
I01
sg9
(lp1370
ssg876
(dp1371
g3
I00
sg4
VdoubleAngle
p1372
sg328
I00
sg329
I00
sg8
I01
sg9
(lp1373
ssg1354
(dp1374
g64
I00
sg65
VdoubleAngle
p1375
sg67
(lp1376
sg69
I00
sg70
I00
sg71
I01
sg15
(lp1377
ssg1352
(dp1378
g64
I00
sg65
VdoubleAngle
p1379
sg67
(lp1380
sg69
I00
sg70
I00
sg71
I01
sg15
(lp1381
ssg1353
(dp1382
g64
I00
sg65
VdoubleAngle
p1383
sg67
(lp1384
sg69
I00
sg70
I00
sg71
I01
sg15
(lp1385
ssVmentalRayControls
p1386
(dp1387
g3
I00
sg4
VTdataCompound
p1388
sg6
I00
sg8
I00
sg9
(lp1389
g440
ag235
ag818
ag1016
ag1173
ag371
aVmentalRayControls.miGlobillum
p1390
ag407
ag1250
aVmentalRayControls.miProxyRenderable
p1391
assVworldInverseMatrix
p1392
(dp1393
g3
I01
sg4
Vmatrix
p1394
sg8
I00
sg6
I01
ssg690
(dp1395
g3
I00
sg4
Vshort
p1396
sg38
VrenderInfo
p1397
sg6
I00
sg7
I00
sg8
I01
sg9
(lp1398
ssg1326
(dp1399
g3
I00
sg4
VdoubleAngle
p1400
sg6
I00
sg7
I00
sg8
I01
sg9
(lp1401
ssVrenderLayerInfo.renderLayerColor
p1402
(dp1403
g33
VrenderLayerInfo
p1404
ssg132
(dp1405
g64
I00
sg65
VdoubleAngle
p1406
sS'attrParentLongName'
p1407
VconstraintRotate
p1408
sg67
(lp1409
sg69
I00
sg70
I00
sg71
I01
sg15
(lp1410
ssg133
(dp1411
g64
I00
sg65
VdoubleAngle
p1412
sg1407
VconstraintRotate
p1413
sg67
(lp1414
sg69
I00
sg70
I00
sg71
I01
sg15
(lp1415
ssg134
(dp1416
g64
I00
sg65
VdoubleAngle
p1417
sg1407
VconstraintRotate
p1418
sg67
(lp1419
sg69
I00
sS'isWritable'
p1420
Nsg70
I00
sg71
I01
sg15
(lp1421
ssVisHierarchicalConnection[0]
p1422
(dp1423
g3
I00
sg8
I00
sg9
(lp1424
ssVshowManipDefault
p1425
(dp1426
g3
I00
sg4
Venum
p1427
sg6
I00
sg7
I00
sg8
I01
sg9
(lp1428
ssg1327
(dp1429
g3
I00
sg4
VdoubleAngle
p1430
sg6
I00
sg7
I00
sg8
I01
sg9
(lp1431
ssg177
(dp1432
g3
I00
sg8
I00
sg9
(lp1433
ssVrenderLayerInfo[1]
p1434
(dp1435
g3
I00
sg8
I00
sg9
(lp1436
g1243
ag797
ag529
assg1338
(dp1437
g295
I00
sg296
(lp1438
ssg26
(dp1439
g3
I00
sg4
Vlong
p1440
sg6
I00
sg7
I00
sg8
I01
sg9
(lp1441
ssg370
(dp1442
g295
I00
sg296
(lp1443
ssVrenderLayerInfo
p1444
(dp1445
g3
I01
sg4
VTdataCompound
p1446
sg8
I00
sg6
I01
ssVtarget[1]
p1447
(dp1448
g64
I00
sg18
VTdataCompound
p1449
sg67
(lp1450
Vtarget[1].targetRotate
p1451
aVtarget[1].targetRotateOrder
p1452
aVtarget[1].targetJointOrient
p1453
aVtarget[1].targetParentMatrix
p1454
aVtarget[1].targetWeight
p1455
aVtarget[1].targetRotateCached
p1456
asg14
I00
sg17
I00
sg15
(lp1457
Vtarget[1].targetRotate
p1458
aVtarget[1].targetRotateOrder
p1459
aVtarget[1].targetJointOrient
p1460
aVtarget[1].targetParentMatrix
p1461
aVtarget[1].targetWeight
p1462
aVtarget[1].targetRotateCached
p1463
assg1046
(dp1464
g64
I00
sg65
Vmatrix
p1465
sg67
(lp1466
sg69
I00
sg71
I00
sg15
(lp1467
ssVtarget[2].targetJointOrient.targetJointOrientY
p1468
(dp1469
g13
I00
sg199
I00
sg200
I00
sg15
(lp1470
ssVtarget[2].targetJointOrient.targetJointOrientX
p1471
(dp1472
g13
I00
sg199
I00
sg200
I00
sg15
(lp1473
ssVtarget[2].targetJointOrient.targetJointOrientZ
p1474
(dp1475
g13
I00
sg199
I00
sg200
I00
sg15
(lp1476
ssg1391
(dp1477
g3
I00
sg4
Vbool
p1478
sg6
I00
sg7
I00
sg8
I01
sg9
(lp1479
ssg437
(dp1480
g3
I00
sg4
Vbool
p1481
sg6
I00
sg7
I00
sg8
I01
sg9
(lp1482
ssVinverseMatrix
p1483
(dp1484
g3
I00
sg4
Vmatrix
p1485
sg6
I00
sg8
I00
sg9
(lp1486
ssg1390
(dp1487
g3
I00
sg4
Venum
p1488
sg6
I00
sg7
I00
sg8
I01
sg9
(lp1489
ssg1169
(dp1490
g3
I00
sg4
VdoubleLinear
p1491
sg38
Vcenter
p1492
sg8
I01
sg9
(lp1493
ssg1167
(dp1494
g3
I00
sg4
VdoubleLinear
p1495
sg38
Vcenter
p1496
sg8
I01
sg9
(lp1497
ssg1168
(dp1498
g3
I00
sg4
VdoubleLinear
p1499
sg38
Vcenter
p1500
sg8
I01
sg9
(lp1501
ss.