(dp0
Vinput1D[2]
p1
(dp2
S'isArray'
p3
I00
sS'attrType'
p4
Vfloat
p5
sS'attrParentLongName'
p6
Vinput1D
p7
sS'isMulti'
p8
I00
sS'isCompound'
p9
I00
sS'isSimple'
p10
I01
sS'attrChildrenLongNames'
p11
(lp12
ssVinput2D[1].input2Dx
p13
(dp14
S'isArray'
p15
I00
sS'attrParentLongName'
p16
Vinput2D[1]
p17
sS'isMulti'
p18
I00
sS'isSimple'
p19
I00
sS'attrChildrenLongNames'
p20
(lp21
sS'isElement'
p22
I00
ssVinput2D[0].input2Dy
p23
(dp24
S'isArray'
p25
I00
sS'attrParentLongName'
p26
Vinput2D[0]
p27
sS'attrChildrenNames'
p28
(lp29
sg18
I00
sg19
I00
sg20
(lp30
sS'isElement'
p31
I00
ssVinput2D[0].input2Dx
p32
(dp33
S'isArray'
p34
I00
sS'attrParentLongName'
p35
Vinput2D[0]
p36
sS'attrChildrenNames'
p37
(lp38
sg18
I00
sg19
I00
sg20
(lp39
sS'isElement'
p40
I00
ssVinput3D[2]
p41
(dp42
S'isArray'
p43
I00
sS'isMulti'
p44
I00
sg19
I00
sS'attrChildrenLongNames'
p45
(lp46
Vinput3D[2].input3Dx
p47
aVinput3D[2].input3Dy
p48
aVinput3D[2].input3Dz
p49
assVinput1D
p50
(dp51
S'isArray'
p52
I01
sS'isElement'
p53
I00
sS'isMulti'
p54
I01
sS'isSimple'
p55
I00
sS'attrType'
p56
VTdataCompound
p57
ssVinput1D[0]
p58
(dp59
g15
I00
sg8
I00
sS'attrParentLongName'
p60
Vinput1D
p61
sg19
I00
sg20
(lp62
ssVinput3D[3].input3Dx
p63
(dp64
S'isArray'
p65
I00
sg44
I00
sg19
I00
sS'attrChildrenLongNames'
p66
(lp67
ssVinput3D[0]
p68
(dp69
g15
I00
sS'attrParentLongName'
p70
Vinput3D
p71
sg56
Vfloat3
p72
sS'isMulti'
p73
I00
sg55
I00
sg20
(lp74
Vinput3D[0].input3Dx
p75
aVinput3D[0].input3Dy
p76
aVinput3D[0].input3Dz
p77
assVinput3D
p78
(dp79
S'isArray'
p80
I01
sS'isElement'
p81
I00
sS'isMulti'
p82
I01
sg55
I00
sg56
VTdataCompound
p83
ssVinput2D[1].input2Dy
p84
(dp85
g15
I00
sg16
Vinput2D[1]
p86
sg18
I00
sg19
I00
sg20
(lp87
sg22
I00
ssVinput1D[4]
p88
(dp89
S'isArray'
p90
I00
sS'isSimple'
p91
I00
sS'attrChildrenLongNames'
p92
(lp93
ssVoperation
p94
(dp95
S'isArray'
p96
I00
sg56
Venum
p97
sS'attrChildrenNames'
p98
(lp99
sS'isMulti'
p100
I00
sS'isWritable'
p101
NsS'isCompound'
p102
I00
sg55
I01
sg20
(lp103
sS'isElement'
p104
I00
ssVinput2D[5].input2Dy
p105
(dp106
S'isArray'
p107
I00
sS'attrChildrenLongNames'
p108
(lp109
ssVinput2D[5].input2Dx
p110
(dp111
g107
I00
sg108
(lp112
ssVisHistoricallyInteresting
p113
(dp114
S'isArray'
p115
I00
sS'attrType'
p116
Vbyte
p117
sS'attrChildrenNames'
p118
(lp119
sS'isMulti'
p120
I00
sS'isCompound'
p121
I00
sS'isSimple'
p122
I00
sS'attrChildrenLongNames'
p123
(lp124
sS'isElement'
p125
I00
ssVoutput2D
p126
(dp127
S'isArray'
p128
I00
sg56
Vfloat2
p129
sS'attrChildrenNames'
p130
(lp131
Voutput2D.output2Dx
p132
aVoutput2D.output2Dy
p133
asS'isMulti'
p134
I00
sS'isCompound'
p135
I01
sg55
I00
sg20
(lp136
Voutput2D.output2Dx
p137
aVoutput2D.output2Dy
p138
asS'isElement'
p139
I00
ssVinput2D.input2Dx
p140
(dp141
S'attrParentLongName'
p142
Vinput2D
p143
ssVinput2D[0]
p144
(dp145
g15
I00
sg18
I00
sg19
I00
sg20
(lp146
Vinput2D[0].input2Dx
p147
aVinput2D[0].input2Dy
p148
assVinput2D.input2Dy
p149
(dp150
g142
Vinput2D
p151
ssVinput2D[3].input2Dx
p152
(dp153
S'isArray'
p154
I00
sS'attrType'
p155
Vfloat
p156
sS'isMulti'
p157
I00
sS'isCompound'
p158
I00
sS'isSimple'
p159
I01
sS'attrChildrenLongNames'
p160
(lp161
ssVinput2D[3].input2Dy
p162
(dp163
g154
I00
sg155
Vfloat
p164
sg157
I00
sg158
I00
sg159
I01
sg160
(lp165
ssVbinMembership
p166
(dp167
S'isArray'
p168
I00
sg116
Vstring
p169
sg18
I00
sS'isCompound'
p170
I00
sg122
I01
sg123
(lp171
ssVinput3D[4]
p172
(dp173
S'isArray'
p174
I00
sS'attrChildrenLongNames'
p175
(lp176
Vinput3D[4].input3Dx
p177
aVinput3D[4].input3Dy
p178
aVinput3D[4].input3Dz
p179
assVinput2D[1]
p180
(dp181
g15
I00
sg18
I00
sg19
I00
sg20
(lp182
Vinput2D[1].input2Dx
p183
aVinput2D[1].input2Dy
p184
assVinput2D[4].input2Dy
p185
(dp186
S'isArray'
p187
I00
sS'attrChildrenLongNames'
p188
(lp189
ssVinput2D[4].input2Dx
p190
(dp191
g187
I00
sg188
(lp192
ssVinput3D.input3Dx
p193
(dp194
g142
Vinput3D
p195
ssVinput2D[3]
p196
(dp197
g154
I00
sg157
I00
sg160
(lp198
g152
ag162
asg159
I00
sg155
Vfloat2
p199
ssVinput1D[3]
p200
(dp201
S'isArray'
p202
I00
sg6
Vinput1D
p203
sg91
I00
sS'attrChildrenLongNames'
p204
(lp205
ssVnodeState
p206
(dp207
S'isArray'
p208
I00
sg116
Venum
p209
sS'attrChildrenNames'
p210
(lp211
sS'isMulti'
p212
I00
sS'isCompound'
p213
I00
sg122
I01
sg123
(lp214
sS'isElement'
p215
I00
ssVinput3D[3]
p216
(dp217
g65
I00
sg44
I00
sg19
I00
sg66
(lp218
g63
aVinput3D[3].input3Dy
p219
aVinput3D[3].input3Dz
p220
assVinput1D[5]
p221
(dp222
S'isArray'
p223
I00
sS'attrChildrenLongNames'
p224
(lp225
ssVinput3D.input3Dz
p226
(dp227
g142
Vinput3D
p228
ssVinput3D[1]
p229
(dp230
g15
I00
sg70
Vinput3D
p231
sg56
Vfloat3
p232
sg73
I00
sg55
I00
sg20
(lp233
Vinput3D[1].input3Dx
p234
aVinput3D[1].input3Dy
p235
aVinput3D[1].input3Dz
p236
assVinput1D[1]
p237
(dp238
g15
I00
sg8
I00
sS'attrParentLongName'
p239
Vinput1D
p240
sg19
I00
sg20
(lp241
ssVinput3D.input3Dy
p242
(dp243
g142
Vinput3D
p244
ssVoutput3D.output3Dx
p245
(dp246
S'isArray'
p247
I00
sS'attrParentLongName'
p248
Voutput3D
p249
sS'attrChildrenNames'
p250
(lp251
sg56
Vfloat
p252
sS'isMulti'
p253
I00
sg101
NsS'isCompound'
p254
I00
sg55
I01
sg20
(lp255
sS'isElement'
p256
I00
ssVinput3D[2].input3Dz
p257
(dp258
g43
I00
sg44
I00
sg19
I00
sg45
(lp259
ssVoutput3D.output3Dz
p260
(dp261
S'isArray'
p262
I00
sS'attrParentLongName'
p263
Voutput3D
p264
sS'attrChildrenNames'
p265
(lp266
sg56
Vfloat
p267
sS'isMulti'
p268
I00
sg101
NsS'isCompound'
p269
I00
sg55
I01
sg20
(lp270
sS'isElement'
p271
I00
ssVoutput3D.output3Dy
p272
(dp273
S'isArray'
p274
I00
sS'attrParentLongName'
p275
Voutput3D
p276
sS'attrChildrenNames'
p277
(lp278
sg56
Vfloat
p279
sS'isMulti'
p280
I00
sg101
NsS'isCompound'
p281
I00
sg55
I01
sg20
(lp282
sS'isElement'
p283
I00
ssVinput2D
p284
(dp285
S'isArray'
p286
I01
sS'isElement'
p287
I00
sS'isMulti'
p288
I01
sg55
I00
sg56
VTdataCompound
p289
ssVinput3D[2].input3Dy
p290
(dp291
g43
I00
sg44
I00
sg19
I00
sg45
(lp292
ssVoutput2D.output2Dx
p293
(dp294
S'isArray'
p295
I00
sS'attrParentLongName'
p296
Voutput2D
p297
sS'attrChildrenNames'
p298
(lp299
sg56
Vfloat
p300
sS'isMulti'
p301
I00
sS'isCompound'
p302
I00
sg55
I01
sg20
(lp303
sS'isElement'
p304
I00
ssVoutput2D.output2Dy
p305
(dp306
S'isArray'
p307
I00
sS'attrParentLongName'
p308
Voutput2D
p309
sS'attrChildrenNames'
p310
(lp311
sg56
Vfloat
p312
sS'isMulti'
p313
I00
sS'isCompound'
p314
I00
sg55
I01
sg20
(lp315
sS'isElement'
p316
I00
ssVinput3D[5].input3Dx
p317
(dp318
g174
I00
sg175
(lp319
ssVinput3D[5].input3Dy
p320
(dp321
g174
I00
sg175
(lp322
ssVinput3D[5].input3Dz
p323
(dp324
g174
I00
sg175
(lp325
ssVinput3D[2].input3Dx
p326
(dp327
g43
I00
sg44
I00
sg19
I00
sg45
(lp328
ssg178
(dp329
g174
I00
sg175
(lp330
ssg177
(dp331
g174
I00
sg175
(lp332
ssg179
(dp333
g174
I00
sg175
(lp334
ssVinput2D[2].input2Dy
p335
(dp336
g154
I00
sS'attrType'
p337
Vfloat
p338
sS'isMulti'
p339
I00
sS'isCompound'
p340
I00
sS'isSimple'
p341
I01
sg160
(lp342
ssVinput2D[2].input2Dx
p343
(dp344
g154
I00
sg337
Vfloat
p345
sg339
I00
sg340
I00
sg341
I01
sg160
(lp346
ssVoutput3D
p347
(dp348
S'isArray'
p349
I00
sg56
Vfloat3
p350
sS'attrChildrenNames'
p351
(lp352
Voutput3D.output3Dx
p353
aVoutput3D.output3Dy
p354
aVoutput3D.output3Dz
p355
asS'isMulti'
p356
I00
sS'isCompound'
p357
I01
sg55
I00
sg20
(lp358
Voutput3D.output3Dx
p359
aVoutput3D.output3Dy
p360
aVoutput3D.output3Dz
p361
asS'isElement'
p362
I00
ssVoutput1D
p363
(dp364
S'isArray'
p365
I00
sg56
Vfloat
p366
sS'attrChildrenNames'
p367
(lp368
sS'isMulti'
p369
I00
sS'isCompound'
p370
I00
sg55
I01
sg20
(lp371
sS'isElement'
p372
I00
ssVinput2D[2]
p373
(dp374
g154
I00
sg339
I00
sg337
Vfloat2
p375
sg341
I00
sg160
(lp376
g343
ag335
assVinput2D[4]
p377
(dp378
g187
I00
sg188
(lp379
g190
ag185
assVinput3D[5]
p380
(dp381
g174
I00
sg175
(lp382
g317
ag320
ag323
assVinput3D[1].input3Dx
p383
(dp384
g15
I00
sg56
Vfloat
p385
sg73
I00
sg101
NsS'isCompound'
p386
I00
sg55
I01
sg20
(lp387
sg22
I00
ssVinput3D[1].input3Dy
p388
(dp389
g15
I00
sg56
Vfloat
p390
sg73
I00
sg101
Nsg386
I00
sg55
I01
sg20
(lp391
sg22
I00
ssVinput3D[1].input3Dz
p392
(dp393
g15
I00
sg56
Vfloat
p394
sg73
I00
sg101
Nsg386
I00
sg55
I01
sg20
(lp395
sg22
I00
ssVcaching
p396
(dp397
S'isArray'
p398
I00
sg116
Vbool
p399
sS'attrChildrenNames'
p400
(lp401
sS'isMulti'
p402
I00
sS'isCompound'
p403
I00
sg122
I01
sg123
(lp404
sS'isElement'
p405
I00
ssVinput2D[5]
p406
(dp407
g107
I00
sg108
(lp408
g110
ag105
assVinput3D[7]
p409
(dp410
S'attrType'
p411
Vfloat3
p412
sS'isSimple'
p413
I00
ssg219
(dp414
g65
I00
sg44
I00
sg19
I00
sg66
(lp415
ssVinput3D[0].input3Dy
p416
(dp417
S'isArray'
p418
I00
sS'attrParentLongName'
p419
Vinput3D[0]
p420
sS'attrChildrenNames'
p421
(lp422
sg56
Vfloat
p423
sg73
I00
sg101
Nsg386
I00
sg55
I01
sg20
(lp424
sS'isElement'
p425
I00
ssVinput3D[0].input3Dx
p426
(dp427
S'isArray'
p428
I00
sS'attrParentLongName'
p429
Vinput3D[0]
p430
sS'attrChildrenNames'
p431
(lp432
sg56
Vfloat
p433
sg73
I00
sg101
Nsg386
I00
sg55
I01
sg20
(lp434
sS'isElement'
p435
I00
ssg220
(dp436
g65
I00
sg44
I00
sg19
I00
sg66
(lp437
ssVinput3D[0].input3Dz
p438
(dp439
S'isArray'
p440
I00
sS'attrParentLongName'
p441
Vinput3D[0]
p442
sS'attrChildrenNames'
p443
(lp444
sg56
Vfloat
p445
sg73
I00
sg101
Nsg386
I00
sg55
I01
sg20
(lp446
sS'isElement'
p447
I00
ss.