(dp0
Vresult.normalizedTangent.normalizedTangentY
p1
(dp2
S'isArray'
p3
I00
sS'attrParentLongName'
p4
Vresult.normalizedTangent
p5
sS'attrChildrenNames'
p6
(lp7
sS'attrType'
p8
VdoubleLinear
p9
sS'isMulti'
p10
I00
sS'isCompound'
p11
I00
sS'isSimple'
p12
I01
sS'attrChildrenLongNames'
p13
(lp14
sS'isElement'
p15
I00
ssVresult.curvatureRadius
p16
(dp17
S'isArray'
p18
I00
sS'attrParentLongName'
p19
Vresult
p20
sS'attrChildrenNames'
p21
(lp22
sg8
VdoubleLinear
p23
sS'isMulti'
p24
I00
sS'isCompound'
p25
I00
sg12
I01
sg13
(lp26
sS'isElement'
p27
I00
ssVresult.tangent.tangentZ
p28
(dp29
S'isArray'
p30
I00
sS'attrParentLongName'
p31
Vresult.tangent
p32
sS'attrChildrenNames'
p33
(lp34
sg8
VdoubleLinear
p35
sS'isMulti'
p36
I00
sS'isCompound'
p37
I00
sg12
I01
sg13
(lp38
sS'isElement'
p39
I00
ssVresult.position.positionX
p40
(dp41
S'isArray'
p42
I00
sS'attrParentLongName'
p43
Vresult.position
p44
sS'attrChildrenNames'
p45
(lp46
sg8
VdoubleLinear
p47
sS'isMulti'
p48
I00
sS'isCompound'
p49
I00
sg12
I01
sg13
(lp50
sS'isElement'
p51
I00
ssVresult.tangent
p52
(dp53
S'isArray'
p54
I00
sS'attrParentLongName'
p55
Vresult
p56
sS'attrChildrenNames'
p57
(lp58
Vresult.tangent.tangentX
p59
aVresult.tangent.tangentY
p60
aVresult.tangent.tangentZ
p61
asg8
Vdouble3
p62
sS'isMulti'
p63
I00
sS'isCompound'
p64
I01
sg12
I01
sg13
(lp65
Vresult.tangent.tangentX
p66
aVresult.tangent.tangentY
p67
aVresult.tangent.tangentZ
p68
asS'isElement'
p69
I00
ssVresult.tangent.tangentX
p70
(dp71
S'isArray'
p72
I00
sS'attrParentLongName'
p73
Vresult.tangent
p74
sS'attrChildrenNames'
p75
(lp76
sg8
VdoubleLinear
p77
sS'isMulti'
p78
I00
sS'isCompound'
p79
I00
sg12
I01
sg13
(lp80
sS'isElement'
p81
I00
ssVresult.tangent.tangentY
p82
(dp83
S'isArray'
p84
I00
sS'attrParentLongName'
p85
Vresult.tangent
p86
sS'attrChildrenNames'
p87
(lp88
sg8
VdoubleLinear
p89
sS'isMulti'
p90
I00
sS'isCompound'
p91
I00
sg12
I01
sg13
(lp92
sS'isElement'
p93
I00
ssVresult.normalizedNormal
p94
(dp95
S'isArray'
p96
I00
sS'attrParentLongName'
p97
Vresult
p98
sS'attrChildrenNames'
p99
(lp100
Vresult.normalizedNormal.normalizedNormalX
p101
aVresult.normalizedNormal.normalizedNormalY
p102
aVresult.normalizedNormal.normalizedNormalZ
p103
asg8
Vdouble3
p104
sS'isMulti'
p105
I00
sS'isCompound'
p106
I01
sg12
I01
sg13
(lp107
Vresult.normalizedNormal.normalizedNormalX
p108
aVresult.normalizedNormal.normalizedNormalY
p109
aVresult.normalizedNormal.normalizedNormalZ
p110
asS'isElement'
p111
I00
ssVisHistoricallyInteresting
p112
(dp113
S'isArray'
p114
I00
sg8
Vbyte
p115
sS'attrChildrenNames'
p116
(lp117
sS'isMulti'
p118
I00
sS'isCompound'
p119
I00
sg12
I00
sg13
(lp120
sS'isElement'
p121
I00
ssVresult.normalizedNormal.normalizedNormalX
p122
(dp123
S'isArray'
p124
I00
sS'attrParentLongName'
p125
Vresult.normalizedNormal
p126
sS'attrChildrenNames'
p127
(lp128
sg8
VdoubleLinear
p129
sS'isMulti'
p130
I00
sS'isCompound'
p131
I00
sg12
I01
sg13
(lp132
sS'isElement'
p133
I00
ssVresult.normalizedNormal.normalizedNormalY
p134
(dp135
S'isArray'
p136
I00
sS'attrParentLongName'
p137
Vresult.normalizedNormal
p138
sS'attrChildrenNames'
p139
(lp140
sg8
VdoubleLinear
p141
sS'isMulti'
p142
I00
sS'isCompound'
p143
I00
sg12
I01
sg13
(lp144
sS'isElement'
p145
I00
ssVresult.normalizedNormal.normalizedNormalZ
p146
(dp147
S'isArray'
p148
I00
sS'attrParentLongName'
p149
Vresult.normalizedNormal
p150
sS'attrChildrenNames'
p151
(lp152
sg8
VdoubleLinear
p153
sS'isMulti'
p154
I00
sS'isCompound'
p155
I00
sg12
I01
sg13
(lp156
sS'isElement'
p157
I00
ssVbinMembership
p158
(dp159
S'isArray'
p160
I00
sg8
Vstring
p161
sS'isMulti'
p162
I00
sS'isCompound'
p163
I00
sg12
I01
sg13
(lp164
ssVresult.curvatureCenter.curvatureCenterZ
p165
(dp166
S'isArray'
p167
I00
sS'attrParentLongName'
p168
Vresult.curvatureCenter
p169
sS'attrChildrenNames'
p170
(lp171
sg8
VdoubleLinear
p172
sS'isMulti'
p173
I00
sS'isCompound'
p174
I00
sg12
I01
sg13
(lp175
sS'isElement'
p176
I00
ssVresult.curvatureCenter.curvatureCenterX
p177
(dp178
S'isArray'
p179
I00
sS'attrParentLongName'
p180
Vresult.curvatureCenter
p181
sS'attrChildrenNames'
p182
(lp183
sg8
VdoubleLinear
p184
sS'isMulti'
p185
I00
sS'isCompound'
p186
I00
sg12
I01
sg13
(lp187
sS'isElement'
p188
I00
ssVresult.curvatureCenter.curvatureCenterY
p189
(dp190
S'isArray'
p191
I00
sS'attrParentLongName'
p192
Vresult.curvatureCenter
p193
sS'attrChildrenNames'
p194
(lp195
sg8
VdoubleLinear
p196
sS'isMulti'
p197
I00
sS'isCompound'
p198
I00
sg12
I01
sg13
(lp199
sS'isElement'
p200
I00
ssVparameter
p201
(dp202
S'isArray'
p203
I00
sg8
Vdouble
p204
sS'attrChildrenNames'
p205
(lp206
sS'isMulti'
p207
I00
sS'isCompound'
p208
I00
sg12
I01
sg13
(lp209
sS'isElement'
p210
I00
ssVinputCurve
p211
(dp212
S'isArray'
p213
I00
sg8
VnurbsCurve
p214
sS'attrChildrenNames'
p215
(lp216
sS'isMulti'
p217
I00
sS'isCompound'
p218
I00
sg12
I00
sg13
(lp219
sS'isElement'
p220
I00
ssVnodeState
p221
(dp222
S'isArray'
p223
I00
sg8
Venum
p224
sS'attrChildrenNames'
p225
(lp226
sS'isMulti'
p227
I00
sS'isCompound'
p228
I00
sg12
I01
sg13
(lp229
sS'isElement'
p230
I00
ssVresult.normal.normalZ
p231
(dp232
S'isArray'
p233
I00
sS'attrParentLongName'
p234
Vresult.normal
p235
sS'attrChildrenNames'
p236
(lp237
sg8
VdoubleLinear
p238
sS'isMulti'
p239
I00
sS'isCompound'
p240
I00
sg12
I01
sg13
(lp241
sS'isElement'
p242
I00
ssVresult.normalizedTangent
p243
(dp244
S'isArray'
p245
I00
sS'attrParentLongName'
p246
Vresult
p247
sS'attrChildrenNames'
p248
(lp249
Vresult.normalizedTangent.normalizedTangentX
p250
aVresult.normalizedTangent.normalizedTangentY
p251
aVresult.normalizedTangent.normalizedTangentZ
p252
asg8
Vdouble3
p253
sS'isMulti'
p254
I00
sS'isCompound'
p255
I01
sg12
I01
sg13
(lp256
Vresult.normalizedTangent.normalizedTangentX
p257
aVresult.normalizedTangent.normalizedTangentY
p258
aVresult.normalizedTangent.normalizedTangentZ
p259
asS'isElement'
p260
I00
ssVresult.curvatureCenter
p261
(dp262
S'isArray'
p263
I00
sS'attrParentLongName'
p264
Vresult
p265
sS'attrChildrenNames'
p266
(lp267
Vresult.curvatureCenter.curvatureCenterX
p268
aVresult.curvatureCenter.curvatureCenterY
p269
aVresult.curvatureCenter.curvatureCenterZ
p270
asg8
Vdouble3
p271
sS'isMulti'
p272
I00
sS'isCompound'
p273
I01
sg12
I01
sg13
(lp274
Vresult.curvatureCenter.curvatureCenterX
p275
aVresult.curvatureCenter.curvatureCenterY
p276
aVresult.curvatureCenter.curvatureCenterZ
p277
asS'isElement'
p278
I00
ssVfrozen
p279
(dp280
S'isArray'
p281
I00
sS'attrType'
p282
Vbool
p283
sS'isMulti'
p284
I00
sS'isCompound'
p285
I00
sS'isSimple'
p286
I01
sS'attrChildrenLongNames'
p287
(lp288
ssVresult.normalizedTangent.normalizedTangentZ
p289
(dp290
S'isArray'
p291
I00
sS'attrParentLongName'
p292
Vresult.normalizedTangent
p293
sS'attrChildrenNames'
p294
(lp295
sg8
VdoubleLinear
p296
sS'isMulti'
p297
I00
sS'isCompound'
p298
I00
sg12
I01
sg13
(lp299
sS'isElement'
p300
I00
ssVresult.normalizedTangent.normalizedTangentX
p301
(dp302
S'isArray'
p303
I00
sS'attrParentLongName'
p304
Vresult.normalizedTangent
p305
sS'attrChildrenNames'
p306
(lp307
sg8
VdoubleLinear
p308
sS'isMulti'
p309
I00
sS'isCompound'
p310
I00
sg12
I01
sg13
(lp311
sS'isElement'
p312
I00
ssVresult.normal
p313
(dp314
S'isArray'
p315
I00
sS'attrParentLongName'
p316
Vresult
p317
sS'attrChildrenNames'
p318
(lp319
Vresult.normal.normalX
p320
aVresult.normal.normalY
p321
aVresult.normal.normalZ
p322
asg8
Vdouble3
p323
sS'isMulti'
p324
I00
sS'isCompound'
p325
I01
sg12
I01
sg13
(lp326
Vresult.normal.normalX
p327
aVresult.normal.normalY
p328
aVresult.normal.normalZ
p329
asS'isElement'
p330
I00
ssVresult.position.positionZ
p331
(dp332
S'isArray'
p333
I00
sS'attrParentLongName'
p334
Vresult.position
p335
sS'attrChildrenNames'
p336
(lp337
sg8
VdoubleLinear
p338
sS'isMulti'
p339
I00
sS'isCompound'
p340
I00
sg12
I01
sg13
(lp341
sS'isElement'
p342
I00
ssVturnOnPercentage
p343
(dp344
S'isArray'
p345
I00
sg8
Vbool
p346
sS'attrChildrenNames'
p347
(lp348
sS'isMulti'
p349
I00
sS'isCompound'
p350
I00
sg12
I01
sg13
(lp351
sS'isElement'
p352
I00
ssVresult.position.positionY
p353
(dp354
S'isArray'
p355
I00
sS'attrParentLongName'
p356
Vresult.position
p357
sS'attrChildrenNames'
p358
(lp359
sg8
VdoubleLinear
p360
sS'isMulti'
p361
I00
sS'isCompound'
p362
I00
sg12
I01
sg13
(lp363
sS'isElement'
p364
I00
ssVresult.position
p365
(dp366
S'isArray'
p367
I00
sS'attrParentLongName'
p368
Vresult
p369
sS'attrChildrenNames'
p370
(lp371
Vresult.position.positionX
p372
aVresult.position.positionY
p373
aVresult.position.positionZ
p374
asg8
Vdouble3
p375
sS'isMulti'
p376
I00
sS'isCompound'
p377
I01
sg12
I01
sg13
(lp378
Vresult.position.positionX
p379
aVresult.position.positionY
p380
aVresult.position.positionZ
p381
asS'isElement'
p382
I00
ssVcaching
p383
(dp384
S'isArray'
p385
I00
sg8
Vbool
p386
sS'attrChildrenNames'
p387
(lp388
sS'isMulti'
p389
I00
sS'isCompound'
p390
I00
sg12
I01
sg13
(lp391
sS'isElement'
p392
I00
ssVresult.normal.normalX
p393
(dp394
S'isArray'
p395
I00
sS'attrParentLongName'
p396
Vresult.normal
p397
sS'attrChildrenNames'
p398
(lp399
sg8
VdoubleLinear
p400
sS'isMulti'
p401
I00
sS'isCompound'
p402
I00
sg12
I01
sg13
(lp403
sS'isElement'
p404
I00
ssVresult.normal.normalY
p405
(dp406
S'isArray'
p407
I00
sS'attrParentLongName'
p408
Vresult.normal
p409
sS'attrChildrenNames'
p410
(lp411
sg8
VdoubleLinear
p412
sS'isMulti'
p413
I00
sS'isCompound'
p414
I00
sg12
I01
sg13
(lp415
sS'isElement'
p416
I00
ssVresult
p417
(dp418
S'isArray'
p419
I00
sg8
VTdataCompound
p420
sS'attrChildrenNames'
p421
(lp422
Vresult.position
p423
aVresult.normal
p424
aVresult.normalizedNormal
p425
aVresult.tangent
p426
aVresult.normalizedTangent
p427
aVresult.curvatureCenter
p428
aVresult.curvatureRadius
p429
asS'isMulti'
p430
I00
sS'isCompound'
p431
I01
sg12
I00
sg13
(lp432
Vresult.position
p433
aVresult.normal
p434
aVresult.normalizedNormal
p435
aVresult.tangent
p436
aVresult.normalizedTangent
p437
aVresult.curvatureCenter
p438
aVresult.curvatureRadius
p439
asS'isElement'
p440
I00
ss.