(dp0
Vdepth.depthMin
p1
(dp2
S'isArray'
p3
I00
sS'attrParentLongName'
p4
Vdepth
p5
sS'attrChildrenNames'
p6
(lp7
sS'isMulti'
p8
I00
sS'isCompound'
p9
I00
sS'isElement'
p10
I00
ssVvertexUvThree
p11
(dp12
S'isArray'
p13
I00
sS'isElement'
p14
I00
sS'isCompound'
p15
I01
sS'attrChildrenNames'
p16
(lp17
VvertexUvThree.vertexUvThreeU
p18
aVvertexUvThree.vertexUvThreeV
p19
asS'isMulti'
p20
I00
ssVtransparencyOffset.transparencyOffsetB
p21
(dp22
S'isArray'
p23
I00
sS'attrParentLongName'
p24
VtransparencyOffset
p25
sS'attrChildrenNames'
p26
(lp27
sS'isMulti'
p28
I00
sS'isCompound'
p29
I00
sS'isElement'
p30
I00
ssVrefPointCamera.refPointCameraX
p31
(dp32
S'isArray'
p33
I00
sS'attrParentLongName'
p34
VrefPointCamera
p35
sS'attrChildrenNames'
p36
(lp37
sS'isMulti'
p38
I00
sS'isCompound'
p39
I00
sS'isElement'
p40
I00
ssVrefPointCamera.refPointCameraY
p41
(dp42
S'isArray'
p43
I00
sS'attrParentLongName'
p44
VrefPointCamera
p45
sS'attrChildrenNames'
p46
(lp47
sS'isMulti'
p48
I00
sS'isCompound'
p49
I00
sS'isElement'
p50
I00
ssVrefPointCamera.refPointCameraZ
p51
(dp52
S'isArray'
p53
I00
sS'attrParentLongName'
p54
VrefPointCamera
p55
sS'attrChildrenNames'
p56
(lp57
sS'isMulti'
p58
I00
sS'isCompound'
p59
I00
sS'isElement'
p60
I00
ssVratio
p61
(dp62
S'isArray'
p63
I00
sS'isElement'
p64
I00
sS'isMulti'
p65
I00
sS'isCompound'
p66
I00
sS'attrChildrenNames'
p67
(lp68
ssVdepth.depthMax
p69
(dp70
S'isArray'
p71
I00
sS'attrParentLongName'
p72
Vdepth
p73
sS'attrChildrenNames'
p74
(lp75
sS'isMulti'
p76
I00
sS'isCompound'
p77
I00
sS'isElement'
p78
I00
ssVdefaultColor
p79
(dp80
S'isArray'
p81
I00
sS'isElement'
p82
I00
sS'attrChildrenNames'
p83
(lp84
VdefaultColor.defaultColorR
p85
aVdefaultColor.defaultColorG
p86
aVdefaultColor.defaultColorB
p87
asS'isCompound'
p88
I01
sS'isMulti'
p89
I00
ssVrefPointObj.refPointObjX
p90
(dp91
S'isArray'
p92
I00
sS'attrParentLongName'
p93
VrefPointObj
p94
sS'attrChildrenNames'
p95
(lp96
sS'isMulti'
p97
I00
sS'isCompound'
p98
I00
sS'isElement'
p99
I00
ssVrefPointObj.refPointObjY
p100
(dp101
S'isArray'
p102
I00
sS'attrParentLongName'
p103
VrefPointObj
p104
sS'attrChildrenNames'
p105
(lp106
sS'isMulti'
p107
I00
sS'isCompound'
p108
I00
sS'isElement'
p109
I00
ssVprojType
p110
(dp111
S'isArray'
p112
I00
sS'isElement'
p113
I00
sS'attrChildrenNames'
p114
(lp115
sS'isCompound'
p116
I00
sS'isMulti'
p117
I00
ssVcamPos
p118
(dp119
S'isArray'
p120
I00
sS'isElement'
p121
I00
sS'isMulti'
p122
I00
sS'isCompound'
p123
I01
sS'attrChildrenNames'
p124
(lp125
VcamPos.camPsX
p126
aVcamPos.camPsY
p127
aVcamPos.camPsZ
p128
assVvertexUvOne.vertexUvOneV
p129
(dp130
S'isArray'
p131
I00
sS'attrParentLongName'
p132
VvertexUvOne
p133
sS'attrChildrenNames'
p134
(lp135
sS'isMulti'
p136
I00
sS'isCompound'
p137
I00
sS'isElement'
p138
I00
ssVvertexUvOne.vertexUvOneU
p139
(dp140
S'isArray'
p141
I00
sS'attrParentLongName'
p142
VvertexUvOne
p143
sS'attrChildrenNames'
p144
(lp145
sS'isMulti'
p146
I00
sS'isCompound'
p147
I00
sS'isElement'
p148
I00
ssVsrfNormal
p149
(dp150
S'isArray'
p151
I00
sS'isElement'
p152
I00
sS'isMulti'
p153
I00
sS'attrChildrenNames'
p154
(lp155
VsrfNormal.srfNormalX
p156
aVsrfNormal.srfNormalY
p157
aVsrfNormal.srfNormalZ
p158
asS'isCompound'
p159
I01
ssVfilterOffset
p160
(dp161
S'isArray'
p162
I00
sS'isElement'
p163
I00
sS'attrChildrenNames'
p164
(lp165
sS'isCompound'
p166
I00
sS'isMulti'
p167
I00
ssVdefaultTransparency
p168
(dp169
S'isArray'
p170
I00
sS'isElement'
p171
I00
sS'isMulti'
p172
I00
sS'attrChildrenNames'
p173
(lp174
VdefaultTransparency.defaultTransparencyR
p175
aVdefaultTransparency.defaultTransparencyG
p176
aVdefaultTransparency.defaultTransparencyB
p177
asS'isCompound'
p178
I01
ssVpointObj
p179
(dp180
S'isArray'
p181
I00
sS'isElement'
p182
I00
sS'isMulti'
p183
I00
sS'isCompound'
p184
I01
sS'attrChildrenNames'
p185
(lp186
VpointObj.pointObjX
p187
aVpointObj.pointObjY
p188
aVpointObj.pointObjZ
p189
assVpointCamera.pointCameraZ
p190
(dp191
S'isArray'
p192
I00
sS'attrParentLongName'
p193
VpointCamera
p194
sS'attrChildrenNames'
p195
(lp196
sS'isMulti'
p197
I00
sS'isCompound'
p198
I00
sS'isElement'
p199
I00
ssVpointCamera.pointCameraX
p200
(dp201
S'isArray'
p202
I00
sS'attrParentLongName'
p203
VpointCamera
p204
sS'attrChildrenNames'
p205
(lp206
sS'isMulti'
p207
I00
sS'isCompound'
p208
I00
sS'isElement'
p209
I00
ssVpointCamera.pointCameraY
p210
(dp211
S'isArray'
p212
I00
sS'attrParentLongName'
p213
VpointCamera
p214
sS'attrChildrenNames'
p215
(lp216
sS'isMulti'
p217
I00
sS'isCompound'
p218
I00
sS'isElement'
p219
I00
ssValphaOffset
p220
(dp221
S'isArray'
p222
I00
sS'isElement'
p223
I00
sS'isCompound'
p224
I00
sS'attrChildrenNames'
p225
(lp226
sS'isMulti'
p227
I00
ssVtangentUCamera
p228
(dp229
S'isArray'
p230
I00
sS'isElement'
p231
I00
sS'isCompound'
p232
I01
sS'attrChildrenNames'
p233
(lp234
VtangentUCamera.tangentUx
p235
aVtangentUCamera.tangentUy
p236
aVtangentUCamera.tangentUz
p237
asS'isMulti'
p238
I00
ssVtransparency.transparencyR
p239
(dp240
S'isArray'
p241
I00
sS'attrParentLongName'
p242
Vtransparency
p243
sS'attrChildrenNames'
p244
(lp245
sS'isMulti'
p246
I00
sS'isCompound'
p247
I00
sS'isElement'
p248
I00
ssVcolorOffset.colorOffsetG
p249
(dp250
S'isArray'
p251
I00
sS'attrParentLongName'
p252
VcolorOffset
p253
sS'attrChildrenNames'
p254
(lp255
sS'isMulti'
p256
I00
sS'isCompound'
p257
I00
sS'isElement'
p258
I00
ssVtangentUCamera.tangentUy
p259
(dp260
S'isArray'
p261
I00
sS'attrParentLongName'
p262
VtangentUCamera
p263
sS'attrChildrenNames'
p264
(lp265
sS'isMulti'
p266
I00
sS'isCompound'
p267
I00
sS'isElement'
p268
I00
ssVtangentUCamera.tangentUx
p269
(dp270
S'isArray'
p271
I00
sS'attrParentLongName'
p272
VtangentUCamera
p273
sS'attrChildrenNames'
p274
(lp275
sS'isMulti'
p276
I00
sS'isCompound'
p277
I00
sS'isElement'
p278
I00
ssVpointCamera
p279
(dp280
S'isArray'
p281
I00
sS'isElement'
p282
I00
sS'attrChildrenNames'
p283
(lp284
VpointCamera.pointCameraX
p285
aVpointCamera.pointCameraY
p286
aVpointCamera.pointCameraZ
p287
asS'isCompound'
p288
I01
sS'isMulti'
p289
I00
ssVamplitudeY
p290
(dp291
S'isArray'
p292
I00
sS'isElement'
p293
I00
sS'isMulti'
p294
I00
sS'attrChildrenNames'
p295
(lp296
sS'isCompound'
p297
I00
ssVamplitudeX
p298
(dp299
S'isArray'
p300
I00
sS'isElement'
p301
I00
sS'isMulti'
p302
I00
sS'isCompound'
p303
I00
sS'attrChildrenNames'
p304
(lp305
ssVtransparency.transparencyG
p306
(dp307
S'isArray'
p308
I00
sS'attrParentLongName'
p309
Vtransparency
p310
sS'attrChildrenNames'
p311
(lp312
sS'isMulti'
p313
I00
sS'isCompound'
p314
I00
sS'isElement'
p315
I00
ssVtransparency.transparencyB
p316
(dp317
S'isArray'
p318
I00
sS'attrParentLongName'
p319
Vtransparency
p320
sS'attrChildrenNames'
p321
(lp322
sS'isMulti'
p323
I00
sS'isCompound'
p324
I00
sS'isElement'
p325
I00
ssVtangentUCamera.tangentUz
p326
(dp327
S'isArray'
p328
I00
sS'attrParentLongName'
p329
VtangentUCamera
p330
sS'attrChildrenNames'
p331
(lp332
sS'isMulti'
p333
I00
sS'isCompound'
p334
I00
sS'isElement'
p335
I00
ssVcolorOffset.colorOffsetR
p336
(dp337
S'isArray'
p338
I00
sS'attrParentLongName'
p339
VcolorOffset
p340
sS'attrChildrenNames'
p341
(lp342
sS'isMulti'
p343
I00
sS'isCompound'
p344
I00
sS'isElement'
p345
I00
ssVplacementMatrix
p346
(dp347
S'isArray'
p348
I00
sS'isElement'
p349
I00
sS'isCompound'
p350
I00
sS'attrChildrenNames'
p351
(lp352
sS'isMulti'
p353
I00
ssVoutTransparency.outTransparencyR
p354
(dp355
S'isArray'
p356
I00
sS'attrParentLongName'
p357
VoutTransparency
p358
sS'attrChildrenNames'
p359
(lp360
sS'isMulti'
p361
I00
sS'isCompound'
p362
I00
sS'isElement'
p363
I00
ssVvertexCameraThree.vertexCameraThreeX
p364
(dp365
S'isArray'
p366
I00
sS'attrParentLongName'
p367
VvertexCameraThree
p368
sS'attrChildrenNames'
p369
(lp370
sS'isMulti'
p371
I00
sS'isCompound'
p372
I00
sS'isElement'
p373
I00
ssVvertexCameraThree.vertexCameraThreeY
p374
(dp375
S'isArray'
p376
I00
sS'attrParentLongName'
p377
VvertexCameraThree
p378
sS'attrChildrenNames'
p379
(lp380
sS'isMulti'
p381
I00
sS'isCompound'
p382
I00
sS'isElement'
p383
I00
ssVcolorOffset.colorOffsetB
p384
(dp385
S'isArray'
p386
I00
sS'attrParentLongName'
p387
VcolorOffset
p388
sS'attrChildrenNames'
p389
(lp390
sS'isMulti'
p391
I00
sS'isCompound'
p392
I00
sS'isElement'
p393
I00
ssVdepWts
p394
(dp395
S'isArray'
p396
I00
sS'isElement'
p397
I00
sS'isMulti'
p398
I00
sS'isCompound'
p399
I00
sS'attrChildrenNames'
p400
(lp401
ssVoutTransparency.outTransparencyG
p402
(dp403
S'isArray'
p404
I00
sS'attrParentLongName'
p405
VoutTransparency
p406
sS'attrChildrenNames'
p407
(lp408
sS'isMulti'
p409
I00
sS'isCompound'
p410
I00
sS'isElement'
p411
I00
ssVoutTransparency.outTransparencyB
p412
(dp413
S'isArray'
p414
I00
sS'attrParentLongName'
p415
VoutTransparency
p416
sS'attrChildrenNames'
p417
(lp418
sS'isMulti'
p419
I00
sS'isCompound'
p420
I00
sS'isElement'
p421
I00
ssVripples.ripplesZ
p422
(dp423
S'isArray'
p424
I00
sS'attrParentLongName'
p425
Vripples
p426
sS'attrChildrenNames'
p427
(lp428
sS'isMulti'
p429
I00
sS'isCompound'
p430
I00
sS'isElement'
p431
I00
ssVcolorGain
p432
(dp433
S'isArray'
p434
I00
sS'isElement'
p435
I00
sS'isCompound'
p436
I01
sS'attrChildrenNames'
p437
(lp438
VcolorGain.colorGainR
p439
aVcolorGain.colorGainG
p440
aVcolorGain.colorGainB
p441
asS'isMulti'
p442
I00
ssVripples.ripplesX
p443
(dp444
S'isArray'
p445
I00
sS'attrParentLongName'
p446
Vripples
p447
sS'attrChildrenNames'
p448
(lp449
sS'isMulti'
p450
I00
sS'isCompound'
p451
I00
sS'isElement'
p452
I00
ssVripples.ripplesY
p453
(dp454
S'isArray'
p455
I00
sS'attrParentLongName'
p456
Vripples
p457
sS'attrChildrenNames'
p458
(lp459
sS'isMulti'
p460
I00
sS'isCompound'
p461
I00
sS'isElement'
p462
I00
ssVfitType
p463
(dp464
S'isArray'
p465
I00
sS'isElement'
p466
I00
sS'isCompound'
p467
I00
sS'attrChildrenNames'
p468
(lp469
sS'isMulti'
p470
I00
ssVnormalCamera
p471
(dp472
S'isArray'
p473
I00
sS'isElement'
p474
I00
sS'attrChildrenNames'
p475
(lp476
VnormalCamera.normalCameraX
p477
aVnormalCamera.normalCameraY
p478
aVnormalCamera.normalCameraZ
p479
asS'isCompound'
p480
I01
sS'isMulti'
p481
I00
ssVnormalCamera.normalCameraX
p482
(dp483
S'isArray'
p484
I00
sS'attrParentLongName'
p485
VnormalCamera
p486
sS'attrChildrenNames'
p487
(lp488
sS'isMulti'
p489
I00
sS'isCompound'
p490
I00
sS'isElement'
p491
I00
ssVnormalCamera.normalCameraY
p492
(dp493
S'isArray'
p494
I00
sS'attrParentLongName'
p495
VnormalCamera
p496
sS'attrChildrenNames'
p497
(lp498
sS'isMulti'
p499
I00
sS'isCompound'
p500
I00
sS'isElement'
p501
I00
ssVvertexCameraOne.vertexCameraOneX
p502
(dp503
S'isArray'
p504
I00
sS'attrParentLongName'
p505
VvertexCameraOne
p506
sS'attrChildrenNames'
p507
(lp508
sS'isMulti'
p509
I00
sS'isCompound'
p510
I00
sS'isElement'
p511
I00
ssVvertexCameraOne.vertexCameraOneY
p512
(dp513
S'isArray'
p514
I00
sS'attrParentLongName'
p515
VvertexCameraOne
p516
sS'attrChildrenNames'
p517
(lp518
sS'isMulti'
p519
I00
sS'isCompound'
p520
I00
sS'isElement'
p521
I00
ssVinfoBits
p522
(dp523
S'isArray'
p524
I00
sS'isElement'
p525
I00
sS'isMulti'
p526
I00
sS'attrChildrenNames'
p527
(lp528
sS'isCompound'
p529
I00
ssVcolorOffset
p530
(dp531
S'isArray'
p532
I00
sS'isElement'
p533
I00
sS'isMulti'
p534
I00
sS'isCompound'
p535
I01
sS'attrChildrenNames'
p536
(lp537
VcolorOffset.colorOffsetR
p538
aVcolorOffset.colorOffsetG
p539
aVcolorOffset.colorOffsetB
p540
assVtransparencyGain.transparencyGainR
p541
(dp542
S'isArray'
p543
I00
sS'attrParentLongName'
p544
VtransparencyGain
p545
sS'attrChildrenNames'
p546
(lp547
sS'isMulti'
p548
I00
sS'isCompound'
p549
I00
sS'isElement'
p550
I00
ssVxPixelAngle
p551
(dp552
S'isArray'
p553
I00
sS'isElement'
p554
I00
sS'attrChildrenNames'
p555
(lp556
sS'isCompound'
p557
I00
sS'isMulti'
p558
I00
ssVvAngle
p559
(dp560
S'isArray'
p561
I00
sS'isElement'
p562
I00
sS'isCompound'
p563
I00
sS'attrChildrenNames'
p564
(lp565
sS'isMulti'
p566
I00
ssVrefPointObj
p567
(dp568
S'isArray'
p569
I00
sS'isElement'
p570
I00
sS'isCompound'
p571
I01
sS'attrChildrenNames'
p572
(lp573
VrefPointObj.refPointObjX
p574
aVrefPointObj.refPointObjY
p575
aVrefPointObj.refPointObjZ
p576
asS'isMulti'
p577
I00
ssVvertexCameraOne
p578
(dp579
S'isArray'
p580
I00
sS'isElement'
p581
I00
sS'isMulti'
p582
I00
sS'isCompound'
p583
I01
sS'attrChildrenNames'
p584
(lp585
VvertexCameraOne.vertexCameraOneX
p586
aVvertexCameraOne.vertexCameraOneY
p587
aVvertexCameraOne.vertexCameraOneZ
p588
assVvertexUvTwo.vertexUvTwoV
p589
(dp590
S'isArray'
p591
I00
sS'attrParentLongName'
p592
VvertexUvTwo
p593
sS'attrChildrenNames'
p594
(lp595
sS'isMulti'
p596
I00
sS'isCompound'
p597
I00
sS'isElement'
p598
I00
ssVfitFill
p599
(dp600
S'isArray'
p601
I00
sS'isElement'
p602
I00
sS'attrChildrenNames'
p603
(lp604
sS'isCompound'
p605
I00
sS'isMulti'
p606
I00
ssVvertexUvTwo.vertexUvTwoU
p607
(dp608
S'isArray'
p609
I00
sS'attrParentLongName'
p610
VvertexUvTwo
p611
sS'attrChildrenNames'
p612
(lp613
sS'isMulti'
p614
I00
sS'isCompound'
p615
I00
sS'isElement'
p616
I00
ssVtangentVCamera
p617
(dp618
S'isArray'
p619
I00
sS'isElement'
p620
I00
sS'isMulti'
p621
I00
sS'isCompound'
p622
I01
sS'attrChildrenNames'
p623
(lp624
VtangentVCamera.tangentVx
p625
aVtangentVCamera.tangentVy
p626
aVtangentVCamera.tangentVz
p627
assVfilter
p628
(dp629
S'isArray'
p630
I00
sS'isElement'
p631
I00
sS'isCompound'
p632
I00
sS'attrChildrenNames'
p633
(lp634
sS'isMulti'
p635
I00
ssVvertexUvOne
p636
(dp637
S'isArray'
p638
I00
sS'isElement'
p639
I00
sS'isCompound'
p640
I01
sS'attrChildrenNames'
p641
(lp642
VvertexUvOne.vertexUvOneU
p643
aVvertexUvOne.vertexUvOneV
p644
asS'isMulti'
p645
I00
ssVvertexCameraTwo.vertexCameraTwoZ
p646
(dp647
S'isArray'
p648
I00
sS'attrParentLongName'
p649
VvertexCameraTwo
p650
sS'attrChildrenNames'
p651
(lp652
sS'isMulti'
p653
I00
sS'isCompound'
p654
I00
sS'isElement'
p655
I00
ssVvertexCameraTwo.vertexCameraTwoX
p656
(dp657
S'isArray'
p658
I00
sS'attrParentLongName'
p659
VvertexCameraTwo
p660
sS'attrChildrenNames'
p661
(lp662
sS'isMulti'
p663
I00
sS'isCompound'
p664
I00
sS'isElement'
p665
I00
ssVvertexCameraTwo.vertexCameraTwoY
p666
(dp667
S'isArray'
p668
I00
sS'attrParentLongName'
p669
VvertexCameraTwo
p670
sS'attrChildrenNames'
p671
(lp672
sS'isMulti'
p673
I00
sS'isCompound'
p674
I00
sS'isElement'
p675
I00
ssValphaGain
p676
(dp677
S'isArray'
p678
I00
sS'isElement'
p679
I00
sS'attrChildrenNames'
p680
(lp681
sS'isCompound'
p682
I00
sS'isMulti'
p683
I00
ssVuvFilterSize.uvFilterSizeY
p684
(dp685
S'isArray'
p686
I00
sS'attrParentLongName'
p687
VuvFilterSize
p688
sS'attrChildrenNames'
p689
(lp690
sS'isMulti'
p691
I00
sS'isCompound'
p692
I00
sS'isElement'
p693
I00
ssVrefPointObj.refPointObjZ
p694
(dp695
S'isArray'
p696
I00
sS'attrParentLongName'
p697
VrefPointObj
p698
sS'attrChildrenNames'
p699
(lp700
sS'isMulti'
p701
I00
sS'isCompound'
p702
I00
sS'isElement'
p703
I00
ssVimage
p704
(dp705
S'isArray'
p706
I00
sS'isElement'
p707
I00
sS'isCompound'
p708
I01
sS'attrChildrenNames'
p709
(lp710
Vimage.imageR
p711
aVimage.imageG
p712
aVimage.imageB
p713
asS'isMulti'
p714
I00
ssVtransparencyGain
p715
(dp716
S'isArray'
p717
I00
sS'isElement'
p718
I00
sS'isMulti'
p719
I00
sS'isCompound'
p720
I01
sS'attrChildrenNames'
p721
(lp722
VtransparencyGain.transparencyGainR
p723
aVtransparencyGain.transparencyGainG
p724
aVtransparencyGain.transparencyGainB
p725
assVfilterSize
p726
(dp727
S'isArray'
p728
I00
sS'isElement'
p729
I00
sS'isMulti'
p730
I00
sS'attrChildrenNames'
p731
(lp732
VfilterSize.filterSizeX
p733
aVfilterSize.filterSizeY
p734
aVfilterSize.filterSizeZ
p735
asS'isCompound'
p736
I01
ssVtangentVCamera.tangentVy
p737
(dp738
S'isArray'
p739
I00
sS'attrParentLongName'
p740
VtangentVCamera
p741
sS'attrChildrenNames'
p742
(lp743
sS'isMulti'
p744
I00
sS'isCompound'
p745
I00
sS'isElement'
p746
I00
ssVtangentVCamera.tangentVx
p747
(dp748
S'isArray'
p749
I00
sS'attrParentLongName'
p750
VtangentVCamera
p751
sS'attrChildrenNames'
p752
(lp753
sS'isMulti'
p754
I00
sS'isCompound'
p755
I00
sS'isElement'
p756
I00
ssVtangentVCamera.tangentVz
p757
(dp758
S'isArray'
p759
I00
sS'attrParentLongName'
p760
VtangentVCamera
p761
sS'attrChildrenNames'
p762
(lp763
sS'isMulti'
p764
I00
sS'isCompound'
p765
I00
sS'isElement'
p766
I00
ssVwrap
p767
(dp768
S'isArray'
p769
I00
sS'isElement'
p770
I00
sS'attrChildrenNames'
p771
(lp772
sS'isCompound'
p773
I00
sS'isMulti'
p774
I00
ssVuvCoord.vCoord
p775
(dp776
S'isArray'
p777
I00
sS'attrParentLongName'
p778
VuvCoord
p779
sS'attrChildrenNames'
p780
(lp781
sS'isMulti'
p782
I00
sS'isCompound'
p783
I00
sS'isElement'
p784
I00
ssVisHistoricallyInteresting
p785
(dp786
S'isArray'
p787
I00
sS'isElement'
p788
I00
sS'isMulti'
p789
I00
sS'isCompound'
p790
I00
sS'attrChildrenNames'
p791
(lp792
ssVfilterSize.filterSizeZ
p793
(dp794
S'isArray'
p795
I00
sS'attrParentLongName'
p796
VfilterSize
p797
sS'attrChildrenNames'
p798
(lp799
sS'isMulti'
p800
I00
sS'isCompound'
p801
I00
sS'isElement'
p802
I00
ssVfilterSize.filterSizeX
p803
(dp804
S'isArray'
p805
I00
sS'attrParentLongName'
p806
VfilterSize
p807
sS'attrChildrenNames'
p808
(lp809
sS'isMulti'
p810
I00
sS'isCompound'
p811
I00
sS'isElement'
p812
I00
ssVfilterSize.filterSizeY
p813
(dp814
S'isArray'
p815
I00
sS'attrParentLongName'
p816
VfilterSize
p817
sS'attrChildrenNames'
p818
(lp819
sS'isMulti'
p820
I00
sS'isCompound'
p821
I00
sS'isElement'
p822
I00
ssVdefaultTransparency.defaultTransparencyR
p823
(dp824
S'isArray'
p825
I00
sS'attrParentLongName'
p826
VdefaultTransparency
p827
sS'attrChildrenNames'
p828
(lp829
sS'isMulti'
p830
I00
sS'isCompound'
p831
I00
sS'isElement'
p832
I00
ssVinvert
p833
(dp834
S'isArray'
p835
I00
sS'isElement'
p836
I00
sS'isCompound'
p837
I00
sS'attrChildrenNames'
p838
(lp839
sS'isMulti'
p840
I00
ssVripples
p841
(dp842
S'isArray'
p843
I00
sS'isElement'
p844
I00
sS'isCompound'
p845
I01
sS'attrChildrenNames'
p846
(lp847
Vripples.ripplesX
p848
aVripples.ripplesY
p849
aVripples.ripplesZ
p850
asS'isMulti'
p851
I00
ssVoutAlpha
p852
(dp853
S'isArray'
p854
I00
sS'isElement'
p855
I00
sS'isCompound'
p856
I00
sS'attrChildrenNames'
p857
(lp858
sS'isMulti'
p859
I00
ssVdefaultTransparency.defaultTransparencyB
p860
(dp861
S'isArray'
p862
I00
sS'attrParentLongName'
p863
VdefaultTransparency
p864
sS'attrChildrenNames'
p865
(lp866
sS'isMulti'
p867
I00
sS'isCompound'
p868
I00
sS'isElement'
p869
I00
ssVdefaultTransparency.defaultTransparencyG
p870
(dp871
S'isArray'
p872
I00
sS'attrParentLongName'
p873
VdefaultTransparency
p874
sS'attrChildrenNames'
p875
(lp876
sS'isMulti'
p877
I00
sS'isCompound'
p878
I00
sS'isElement'
p879
I00
ssVtransparencyOffset.transparencyOffsetR
p880
(dp881
S'isArray'
p882
I00
sS'attrParentLongName'
p883
VtransparencyOffset
p884
sS'attrChildrenNames'
p885
(lp886
sS'isMulti'
p887
I00
sS'isCompound'
p888
I00
sS'isElement'
p889
I00
ssVcamAg.camAngZ
p890
(dp891
S'isArray'
p892
I00
sS'attrParentLongName'
p893
VcamAg
p894
sS'attrChildrenNames'
p895
(lp896
sS'isMulti'
p897
I00
sS'isCompound'
p898
I00
sS'isElement'
p899
I00
ssVcamAg.camAngY
p900
(dp901
S'isArray'
p902
I00
sS'attrParentLongName'
p903
VcamAg
p904
sS'attrChildrenNames'
p905
(lp906
sS'isMulti'
p907
I00
sS'isCompound'
p908
I00
sS'isElement'
p909
I00
ssVcamAg.camAngX
p910
(dp911
S'isArray'
p912
I00
sS'attrParentLongName'
p913
VcamAg
p914
sS'attrChildrenNames'
p915
(lp916
sS'isMulti'
p917
I00
sS'isCompound'
p918
I00
sS'isElement'
p919
I00
ssVsrfNormal.srfNormalZ
p920
(dp921
S'isArray'
p922
I00
sS'attrParentLongName'
p923
VsrfNormal
p924
sS'attrChildrenNames'
p925
(lp926
sS'isMulti'
p927
I00
sS'isCompound'
p928
I00
sS'isElement'
p929
I00
ssVsrfNormal.srfNormalX
p930
(dp931
S'isArray'
p932
I00
sS'attrParentLongName'
p933
VsrfNormal
p934
sS'attrChildrenNames'
p935
(lp936
sS'isMulti'
p937
I00
sS'isCompound'
p938
I00
sS'isElement'
p939
I00
ssVsrfNormal.srfNormalY
p940
(dp941
S'isArray'
p942
I00
sS'attrParentLongName'
p943
VsrfNormal
p944
sS'attrChildrenNames'
p945
(lp946
sS'isMulti'
p947
I00
sS'isCompound'
p948
I00
sS'isElement'
p949
I00
ssVtransparencyOffset.transparencyOffsetG
p950
(dp951
S'isArray'
p952
I00
sS'attrParentLongName'
p953
VtransparencyOffset
p954
sS'attrChildrenNames'
p955
(lp956
sS'isMulti'
p957
I00
sS'isCompound'
p958
I00
sS'isElement'
p959
I00
ssVimage.imageG
p960
(dp961
S'isArray'
p962
I00
sS'attrParentLongName'
p963
Vimage
p964
sS'attrChildrenNames'
p965
(lp966
sS'isMulti'
p967
I00
sS'isCompound'
p968
I00
sS'isElement'
p969
I00
ssVdefaultColor.defaultColorG
p970
(dp971
S'isArray'
p972
I00
sS'attrParentLongName'
p973
VdefaultColor
p974
sS'attrChildrenNames'
p975
(lp976
sS'isMulti'
p977
I00
sS'isCompound'
p978
I00
sS'isElement'
p979
I00
ssVuvFilterSize.uvFilterSizeX
p980
(dp981
S'isArray'
p982
I00
sS'attrParentLongName'
p983
VuvFilterSize
p984
sS'attrChildrenNames'
p985
(lp986
sS'isMulti'
p987
I00
sS'isCompound'
p988
I00
sS'isElement'
p989
I00
ssVdefaultColor.defaultColorB
p990
(dp991
S'isArray'
p992
I00
sS'attrParentLongName'
p993
VdefaultColor
p994
sS'attrChildrenNames'
p995
(lp996
sS'isMulti'
p997
I00
sS'isCompound'
p998
I00
sS'isElement'
p999
I00
ssVcamPos.camPsZ
p1000
(dp1001
S'isArray'
p1002
I00
sS'attrParentLongName'
p1003
VcamPos
p1004
sS'attrChildrenNames'
p1005
(lp1006
sS'isMulti'
p1007
I00
sS'isCompound'
p1008
I00
sS'isElement'
p1009
I00
ssVcamPos.camPsX
p1010
(dp1011
S'isArray'
p1012
I00
sS'attrParentLongName'
p1013
VcamPos
p1014
sS'attrChildrenNames'
p1015
(lp1016
sS'isMulti'
p1017
I00
sS'isCompound'
p1018
I00
sS'isElement'
p1019
I00
ssVcamPos.camPsY
p1020
(dp1021
S'isArray'
p1022
I00
sS'attrParentLongName'
p1023
VcamPos
p1024
sS'attrChildrenNames'
p1025
(lp1026
sS'isMulti'
p1027
I00
sS'isCompound'
p1028
I00
sS'isElement'
p1029
I00
ssVuAngle
p1030
(dp1031
S'isArray'
p1032
I00
sS'isElement'
p1033
I00
sS'attrChildrenNames'
p1034
(lp1035
sS'isCompound'
p1036
I00
sS'isMulti'
p1037
I00
ssVtransparency
p1038
(dp1039
S'isArray'
p1040
I00
sS'isElement'
p1041
I00
sS'isMulti'
p1042
I00
sS'isCompound'
p1043
I01
sS'attrChildrenNames'
p1044
(lp1045
Vtransparency.transparencyR
p1046
aVtransparency.transparencyG
p1047
aVtransparency.transparencyB
p1048
assVcamAg
p1049
(dp1050
S'isArray'
p1051
I00
sS'isElement'
p1052
I00
sS'attrChildrenNames'
p1053
(lp1054
VcamAg.camAngX
p1055
aVcamAg.camAngY
p1056
aVcamAg.camAngZ
p1057
asS'isCompound'
p1058
I01
sS'isMulti'
p1059
I00
ssVuvCoord.uCoord
p1060
(dp1061
S'isArray'
p1062
I00
sS'attrParentLongName'
p1063
VuvCoord
p1064
sS'attrChildrenNames'
p1065
(lp1066
sS'isMulti'
p1067
I00
sS'isCompound'
p1068
I00
sS'isElement'
p1069
I00
ssVdefaultColor.defaultColorR
p1070
(dp1071
S'isArray'
p1072
I00
sS'attrParentLongName'
p1073
VdefaultColor
p1074
sS'attrChildrenNames'
p1075
(lp1076
sS'isMulti'
p1077
I00
sS'isCompound'
p1078
I00
sS'isElement'
p1079
I00
ssVoutColor.outColorR
p1080
(dp1081
S'isArray'
p1082
I00
sS'attrParentLongName'
p1083
VoutColor
p1084
sS'attrChildrenNames'
p1085
(lp1086
sS'isMulti'
p1087
I00
sS'isCompound'
p1088
I00
sS'isElement'
p1089
I00
ssVmatrixEyeToWorld
p1090
(dp1091
S'isArray'
p1092
I00
sS'isElement'
p1093
I00
sS'attrChildrenNames'
p1094
(lp1095
sS'isCompound'
p1096
I00
sS'isMulti'
p1097
I00
ssVoutColor.outColorG
p1098
(dp1099
S'isArray'
p1100
I00
sS'attrParentLongName'
p1101
VoutColor
p1102
sS'attrChildrenNames'
p1103
(lp1104
sS'isMulti'
p1105
I00
sS'isCompound'
p1106
I00
sS'isElement'
p1107
I00
ssVoutColor.outColorB
p1108
(dp1109
S'isArray'
p1110
I00
sS'attrParentLongName'
p1111
VoutColor
p1112
sS'attrChildrenNames'
p1113
(lp1114
sS'isMulti'
p1115
I00
sS'isCompound'
p1116
I00
sS'isElement'
p1117
I00
ssVoutTransparency
p1118
(dp1119
S'isArray'
p1120
I00
sS'isElement'
p1121
I00
sS'isCompound'
p1122
I01
sS'attrChildrenNames'
p1123
(lp1124
VoutTransparency.outTransparencyR
p1125
aVoutTransparency.outTransparencyG
p1126
aVoutTransparency.outTransparencyB
p1127
asS'isMulti'
p1128
I00
ssVnormalCamera.normalCameraZ
p1129
(dp1130
S'isArray'
p1131
I00
sS'attrParentLongName'
p1132
VnormalCamera
p1133
sS'attrChildrenNames'
p1134
(lp1135
sS'isMulti'
p1136
I00
sS'isCompound'
p1137
I00
sS'isElement'
p1138
I00
ssVoutColor
p1139
(dp1140
S'isArray'
p1141
I00
sS'isElement'
p1142
I00
sS'isMulti'
p1143
I00
sS'attrChildrenNames'
p1144
(lp1145
VoutColor.outColorR
p1146
aVoutColor.outColorG
p1147
aVoutColor.outColorB
p1148
asS'isCompound'
p1149
I01
ssVrefPointCamera
p1150
(dp1151
S'isArray'
p1152
I00
sS'isElement'
p1153
I00
sS'isMulti'
p1154
I00
sS'isCompound'
p1155
I01
sS'attrChildrenNames'
p1156
(lp1157
VrefPointCamera.refPointCameraX
p1158
aVrefPointCamera.refPointCameraY
p1159
aVrefPointCamera.refPointCameraZ
p1160
assVpassTr
p1161
(dp1162
S'isArray'
p1163
I00
sS'isElement'
p1164
I00
sS'isMulti'
p1165
I00
sS'attrChildrenNames'
p1166
(lp1167
sS'isCompound'
p1168
I00
ssVuvCoord
p1169
(dp1170
S'isArray'
p1171
I00
sS'isElement'
p1172
I00
sS'isMulti'
p1173
I00
sS'isCompound'
p1174
I01
sS'attrChildrenNames'
p1175
(lp1176
VuvCoord.uCoord
p1177
aVuvCoord.vCoord
p1178
assVpointObj.pointObjZ
p1179
(dp1180
S'isArray'
p1181
I00
sS'attrParentLongName'
p1182
VpointObj
p1183
sS'attrChildrenNames'
p1184
(lp1185
sS'isMulti'
p1186
I00
sS'isCompound'
p1187
I00
sS'isElement'
p1188
I00
ssVpointObj.pointObjX
p1189
(dp1190
S'isArray'
p1191
I00
sS'attrParentLongName'
p1192
VpointObj
p1193
sS'attrChildrenNames'
p1194
(lp1195
sS'isMulti'
p1196
I00
sS'isCompound'
p1197
I00
sS'isElement'
p1198
I00
ssVpointObj.pointObjY
p1199
(dp1200
S'isArray'
p1201
I00
sS'attrParentLongName'
p1202
VpointObj
p1203
sS'attrChildrenNames'
p1204
(lp1205
sS'isMulti'
p1206
I00
sS'isCompound'
p1207
I00
sS'isElement'
p1208
I00
ssVcolorGain.colorGainR
p1209
(dp1210
S'isArray'
p1211
I00
sS'attrParentLongName'
p1212
VcolorGain
p1213
sS'attrChildrenNames'
p1214
(lp1215
sS'isMulti'
p1216
I00
sS'isCompound'
p1217
I00
sS'isElement'
p1218
I00
ssVnodeState
p1219
(dp1220
S'isArray'
p1221
I00
sS'isElement'
p1222
I00
sS'isMulti'
p1223
I00
sS'attrChildrenNames'
p1224
(lp1225
sS'isCompound'
p1226
I00
ssVuvFilterSize
p1227
(dp1228
S'isArray'
p1229
I00
sS'isElement'
p1230
I00
sS'isCompound'
p1231
I01
sS'attrChildrenNames'
p1232
(lp1233
VuvFilterSize.uvFilterSizeX
p1234
aVuvFilterSize.uvFilterSizeY
p1235
asS'isMulti'
p1236
I00
ssVcolorGain.colorGainB
p1237
(dp1238
S'isArray'
p1239
I00
sS'attrParentLongName'
p1240
VcolorGain
p1241
sS'attrChildrenNames'
p1242
(lp1243
sS'isMulti'
p1244
I00
sS'isCompound'
p1245
I00
sS'isElement'
p1246
I00
ssVtransparencyOffset
p1247
(dp1248
S'isArray'
p1249
I00
sS'isElement'
p1250
I00
sS'attrChildrenNames'
p1251
(lp1252
VtransparencyOffset.transparencyOffsetR
p1253
aVtransparencyOffset.transparencyOffsetG
p1254
aVtransparencyOffset.transparencyOffsetB
p1255
asS'isCompound'
p1256
I01
sS'isMulti'
p1257
I00
ssVvertexCameraThree.vertexCameraThreeZ
p1258
(dp1259
S'isArray'
p1260
I00
sS'attrParentLongName'
p1261
VvertexCameraThree
p1262
sS'attrChildrenNames'
p1263
(lp1264
sS'isMulti'
p1265
I00
sS'isCompound'
p1266
I00
sS'isElement'
p1267
I00
ssVcolorGain.colorGainG
p1268
(dp1269
S'isArray'
p1270
I00
sS'attrParentLongName'
p1271
VcolorGain
p1272
sS'attrChildrenNames'
p1273
(lp1274
sS'isMulti'
p1275
I00
sS'isCompound'
p1276
I00
sS'isElement'
p1277
I00
ssVtransparencyGain.transparencyGainB
p1278
(dp1279
S'isArray'
p1280
I00
sS'attrParentLongName'
p1281
VtransparencyGain
p1282
sS'attrChildrenNames'
p1283
(lp1284
sS'isMulti'
p1285
I00
sS'isCompound'
p1286
I00
sS'isElement'
p1287
I00
ssVvertexCameraOne.vertexCameraOneZ
p1288
(dp1289
S'isArray'
p1290
I00
sS'attrParentLongName'
p1291
VvertexCameraOne
p1292
sS'attrChildrenNames'
p1293
(lp1294
sS'isMulti'
p1295
I00
sS'isCompound'
p1296
I00
sS'isElement'
p1297
I00
ssVtransparencyGain.transparencyGainG
p1298
(dp1299
S'isArray'
p1300
I00
sS'attrParentLongName'
p1301
VtransparencyGain
p1302
sS'attrChildrenNames'
p1303
(lp1304
sS'isMulti'
p1305
I00
sS'isCompound'
p1306
I00
sS'isElement'
p1307
I00
ssVimage.imageB
p1308
(dp1309
S'isArray'
p1310
I00
sS'attrParentLongName'
p1311
Vimage
p1312
sS'attrChildrenNames'
p1313
(lp1314
sS'isMulti'
p1315
I00
sS'isCompound'
p1316
I00
sS'isElement'
p1317
I00
ssVvertexCameraTwo
p1318
(dp1319
S'isArray'
p1320
I00
sS'isElement'
p1321
I00
sS'attrChildrenNames'
p1322
(lp1323
VvertexCameraTwo.vertexCameraTwoX
p1324
aVvertexCameraTwo.vertexCameraTwoY
p1325
aVvertexCameraTwo.vertexCameraTwoZ
p1326
asS'isCompound'
p1327
I01
sS'isMulti'
p1328
I00
ssVangWts
p1329
(dp1330
S'isArray'
p1331
I00
sS'isElement'
p1332
I00
sS'isMulti'
p1333
I00
sS'attrChildrenNames'
p1334
(lp1335
sS'isCompound'
p1336
I00
ssVvertexUvThree.vertexUvThreeV
p1337
(dp1338
S'isArray'
p1339
I00
sS'attrParentLongName'
p1340
VvertexUvThree
p1341
sS'attrChildrenNames'
p1342
(lp1343
sS'isMulti'
p1344
I00
sS'isCompound'
p1345
I00
sS'isElement'
p1346
I00
ssVvertexCameraThree
p1347
(dp1348
S'isArray'
p1349
I00
sS'isElement'
p1350
I00
sS'isMulti'
p1351
I00
sS'attrChildrenNames'
p1352
(lp1353
VvertexCameraThree.vertexCameraThreeX
p1354
aVvertexCameraThree.vertexCameraThreeY
p1355
aVvertexCameraThree.vertexCameraThreeZ
p1356
asS'isCompound'
p1357
I01
ssVimage.imageR
p1358
(dp1359
S'isArray'
p1360
I00
sS'attrParentLongName'
p1361
Vimage
p1362
sS'attrChildrenNames'
p1363
(lp1364
sS'isMulti'
p1365
I00
sS'isCompound'
p1366
I00
sS'isElement'
p1367
I00
ssVvertexUvTwo
p1368
(dp1369
S'isArray'
p1370
I00
sS'isElement'
p1371
I00
sS'isCompound'
p1372
I01
sS'attrChildrenNames'
p1373
(lp1374
VvertexUvTwo.vertexUvTwoU
p1375
aVvertexUvTwo.vertexUvTwoV
p1376
asS'isMulti'
p1377
I00
ssVdepth
p1378
(dp1379
S'isArray'
p1380
I00
sS'isElement'
p1381
I00
sS'isMulti'
p1382
I00
sS'isCompound'
p1383
I01
sS'attrChildrenNames'
p1384
(lp1385
Vdepth.depthMin
p1386
aVdepth.depthMax
p1387
assVcaching
p1388
(dp1389
S'isArray'
p1390
I00
sS'isElement'
p1391
I00
sS'isMulti'
p1392
I00
sS'attrChildrenNames'
p1393
(lp1394
sS'isCompound'
p1395
I00
ssVvertexUvThree.vertexUvThreeU
p1396
(dp1397
S'isArray'
p1398
I00
sS'attrParentLongName'
p1399
VvertexUvThree
p1400
sS'attrChildrenNames'
p1401
(lp1402
sS'isMulti'
p1403
I00
sS'isCompound'
p1404
I00
sS'isElement'
p1405
I00
ssVblend
p1406
(dp1407
S'isArray'
p1408
I00
sS'isElement'
p1409
I00
sS'isCompound'
p1410
I00
sS'attrChildrenNames'
p1411
(lp1412
sS'isMulti'
p1413
I00
ssValphaIsLuminance
p1414
(dp1415
S'isArray'
p1416
I00
sS'isElement'
p1417
I00
sS'attrChildrenNames'
p1418
(lp1419
sS'isCompound'
p1420
I00
sS'isMulti'
p1421
I00
ss.