(dp0
VcolorEntryList[13].color
p1
(dp2
S'isArray'
p3
I00
sS'attrType'
p4
Vfloat3
p5
sS'isSimple'
p6
I00
sS'attrChildrenLongNames'
p7
(lp8
VcolorEntryList[13].color.colorR
p9
aVcolorEntryList[13].color.colorG
p10
aVcolorEntryList[13].color.colorB
p11
assVcolorEntryList[23].color.colorR
p12
(dp13
S'isArray'
p14
I00
sS'attrType'
p15
Vfloat
p16
sS'isSimple'
p17
I01
sS'attrChildrenLongNames'
p18
(lp19
ssVcolorEntryList[12].position
p20
(dp21
g3
I00
sg4
Vfloat
p22
sS'isMulti'
p23
I00
sS'isCompound'
p24
I00
sg6
I01
sg7
(lp25
sS'isNumeric'
p26
I01
ssVcolorEntryList[15].position
p27
(dp28
S'isArray'
p29
I00
sS'attrType'
p30
Vfloat
p31
sS'isMulti'
p32
I00
sS'isCompound'
p33
I00
sS'isSimple'
p34
I01
sS'attrChildrenLongNames'
p35
(lp36
sS'isNumeric'
p37
I01
ssVcolorEntryList[23].color.colorG
p38
(dp39
g14
I00
sg15
Vfloat
p40
sg17
I01
sg18
(lp41
ssVvalNoise
p42
(dp43
S'isArray'
p44
I00
sS'attrType'
p45
Vfloat
p46
sS'isMulti'
p47
I00
sS'isCompound'
p48
I00
sS'isSimple'
p49
I01
sS'attrChildrenLongNames'
p50
(lp51
sS'isNumeric'
p52
I01
sS'isElement'
p53
I00
ssVcolorEntryList[23].color.colorB
p54
(dp55
g14
I00
sg15
Vfloat
p56
sg17
I01
sg18
(lp57
ssValphaGain
p58
(dp59
g44
I00
sg45
Vfloat
p60
sg47
I00
sg48
I00
sg49
I01
sg50
(lp61
sg52
I01
sg53
I00
ssVcolorOffset
p62
(dp63
g44
I00
sg45
Vfloat3
p64
sg47
I00
sg49
I00
sg50
(lp65
VcolorOffset.colorOffsetR
p66
aVcolorOffset.colorOffsetG
p67
aVcolorOffset.colorOffsetB
p68
asg52
I01
sg53
I00
ssVcolorEntryList[8].color
p69
(dp70
S'isArray'
p71
I00
sS'attrType'
p72
Vfloat3
p73
sS'isSimple'
p74
I00
sS'attrChildrenLongNames'
p75
(lp76
VcolorEntryList[8].color.colorR
p77
aVcolorEntryList[8].color.colorG
p78
aVcolorEntryList[8].color.colorB
p79
assVcolorEntryList[0].color.colorR
p80
(dp81
g44
I00
sg45
Vfloat
p82
sS'attrParentLongName'
p83
VcolorEntryList[0].color
p84
sS'isMulti'
p85
I00
sS'isCompound'
p86
I00
sg49
I01
sg50
(lp87
sS'isNumeric'
p88
I01
sg53
I00
ssVcolorEntryList[4].color.colorR
p89
(dp90
g44
I00
sg53
I00
sS'attrType'
p91
Vfloat
p92
sg49
I00
sg50
(lp93
ssVsatNoise
p94
(dp95
g44
I00
sg45
Vfloat
p96
sg47
I00
sg48
I00
sg49
I01
sg50
(lp97
sg52
I01
sg53
I00
ssVdefaultColor
p98
(dp99
g44
I00
sg45
Vfloat3
p100
sg47
I00
sg49
I00
sg50
(lp101
VdefaultColor.defaultColorR
p102
aVdefaultColor.defaultColorG
p103
aVdefaultColor.defaultColorB
p104
asg52
I01
sg53
I00
ssVcolorEntryList[4]
p105
(dp106
S'isArray'
p107
I00
sS'attrType'
p108
VTdataCompound
p109
sS'isSimple'
p110
I00
sS'attrChildrenLongNames'
p111
(lp112
VcolorEntryList[4].position
p113
aVcolorEntryList[4].color
p114
assVcolorEntryList[4].color.colorG
p115
(dp116
g44
I00
sg53
I00
sg91
Vfloat
p117
sg49
I00
sg50
(lp118
ssVcolorEntryList[0].color.colorB
p119
(dp120
g44
I00
sg45
Vfloat
p121
sg85
I00
sg86
I00
sg49
I01
sg50
(lp122
sg88
I01
sg53
I00
ssVcolorEntryList[15].color
p123
(dp124
g29
I00
sg30
Vfloat3
p125
sg34
I00
sg35
(lp126
VcolorEntryList[15].color.colorR
p127
aVcolorEntryList[15].color.colorG
p128
aVcolorEntryList[15].color.colorB
p129
assVcolorEntryList[12].color
p130
(dp131
g3
I00
sg4
Vfloat3
p132
sg6
I00
sg7
(lp133
VcolorEntryList[12].color.colorR
p134
aVcolorEntryList[12].color.colorG
p135
aVcolorEntryList[12].color.colorB
p136
assVcolorEntryList[0].color.colorG
p137
(dp138
g44
I00
sg45
Vfloat
p139
sS'isMulti'
p140
I00
sS'isCompound'
p141
I00
sg49
I01
sg50
(lp142
sS'isNumeric'
p143
I01
sg53
I00
ssVcolorEntryList[4].color.colorB
p144
(dp145
g44
I00
sg53
I00
sg91
Vfloat
p146
sg49
I00
sg50
(lp147
ssVcolorEntryList[9].position
p148
(dp149
g71
I00
sg72
Vfloat
p150
sS'isMulti'
p151
I00
sS'isCompound'
p152
I00
sg74
I01
sg75
(lp153
sS'isNumeric'
p154
I01
ssVcolorEntryList[19].color.colorG
p155
(dp156
S'isArray'
p157
I00
sS'attrType'
p158
Vfloat
p159
sS'isSimple'
p160
I01
sS'attrChildrenLongNames'
p161
(lp162
ssVcolorEntryList[18].position
p163
(dp164
g157
I00
sg158
Vfloat
p165
sS'isMulti'
p166
I00
sS'isCompound'
p167
I00
sg160
I01
sg161
(lp168
sS'isNumeric'
p169
I01
ssVcolorEntryList[14].color.colorG
p170
(dp171
g29
I00
sg30
Vfloat
p172
sg34
I01
sg35
(lp173
ssVcolorEntryList[14].color.colorB
p174
(dp175
g29
I00
sg30
Vfloat
p176
sg34
I01
sg35
(lp177
ssVcolorEntryList[15]
p178
(dp179
g29
I00
sg30
VTdataCompound
p180
sg34
I00
sg35
(lp181
g27
ag123
assVhueNoiseFreq
p182
(dp183
g44
I00
sg45
Vfloat
p184
sg47
I00
sg48
I00
sg49
I01
sg50
(lp185
sg52
I01
sg53
I00
ssVcolorEntryList[7]
p186
(dp187
S'isArray'
p188
I00
sS'attrType'
p189
VTdataCompound
p190
sS'isSimple'
p191
I00
sS'attrChildrenLongNames'
p192
(lp193
VcolorEntryList[7].position
p194
aVcolorEntryList[7].color
p195
assVcolorEntryList[19].color
p196
(dp197
g157
I00
sg158
Vfloat3
p198
sg160
I00
sg161
(lp199
VcolorEntryList[19].color.colorR
p200
ag155
aVcolorEntryList[19].color.colorB
p201
assVcolorEntryList[14].color.colorR
p202
(dp203
g29
I00
sg30
Vfloat
p204
sg34
I01
sg35
(lp205
ssVcolorEntryList[18].color.colorB
p206
(dp207
g157
I00
sg158
Vfloat
p208
sg160
I01
sg161
(lp209
ssValphaOffset
p210
(dp211
g44
I00
sg45
Vfloat
p212
sg47
I00
sg48
I00
sg49
I01
sg50
(lp213
sg52
I01
sg53
I00
ssVcolorEntryList[22].color.colorB
p214
(dp215
g14
I00
sg15
Vfloat
p216
sg17
I01
sg18
(lp217
ssVcolorEntryList[5].color
p218
(dp219
g44
I00
sg53
I00
sg50
(lp220
VcolorEntryList[5].color.colorR
p221
aVcolorEntryList[5].color.colorG
p222
aVcolorEntryList[5].color.colorB
p223
asg49
I00
sS'attrType'
p224
Vfloat3
p225
ssVcolorEntryList[4].color
p226
(dp227
g44
I00
sg53
I00
sg91
Vfloat3
p228
sg49
I00
sg50
(lp229
g89
ag115
ag144
assVcolorEntryList[22].color.colorG
p230
(dp231
g14
I00
sg15
Vfloat
p232
sg17
I01
sg18
(lp233
ssg11
(dp234
g3
I00
sg4
Vfloat
p235
sg6
I01
sg7
(lp236
ssg77
(dp237
g71
I00
sg72
Vfloat
p238
sg74
I01
sg75
(lp239
ssg68
(dp240
g44
I00
sg45
Vfloat
p241
sg47
I00
sg48
I00
sg49
I01
sg50
(lp242
sg53
I00
ssg10
(dp243
g3
I00
sg4
Vfloat
p244
sg6
I01
sg7
(lp245
ssVcolorEntryList[20].color.colorR
p246
(dp247
S'isArray'
p248
I00
sS'attrType'
p249
Vfloat
p250
sS'isSimple'
p251
I01
sS'attrChildrenLongNames'
p252
(lp253
ssVcolorEntryList[22].color.colorR
p254
(dp255
g14
I00
sg15
Vfloat
p256
sg17
I01
sg18
(lp257
ssVcolorEntryList[1].position
p258
(dp259
g44
I00
sg45
Vfloat
p260
sg140
I00
sg141
I00
sg49
I01
sg50
(lp261
sg143
I01
sg53
I00
ssVcolorEntryList[3].color
p262
(dp263
g44
I00
sg53
I00
sg50
(lp264
VcolorEntryList[3].color.colorR
p265
aVcolorEntryList[3].color.colorG
p266
aVcolorEntryList[3].color.colorB
p267
asg49
I00
sg45
Vfloat3
p268
ssg67
(dp269
g44
I00
sg45
Vfloat
p270
sg47
I00
sg48
I00
sg49
I01
sg50
(lp271
sg53
I00
ssg9
(dp272
g3
I00
sg4
Vfloat
p273
sg6
I01
sg7
(lp274
ssg79
(dp275
g71
I00
sg72
Vfloat
p276
sg74
I01
sg75
(lp277
ssVcolorEntryList[20].color.colorG
p278
(dp279
g248
I00
sg249
Vfloat
p280
sg251
I01
sg252
(lp281
ssg78
(dp282
g71
I00
sg72
Vfloat
p283
sg74
I01
sg75
(lp284
ssVcolorEntryList[20].color.colorB
p285
(dp286
g248
I00
sg249
Vfloat
p287
sg251
I01
sg252
(lp288
ssVcolorEntryList[16]
p289
(dp290
S'isArray'
p291
I00
sS'attrType'
p292
VTdataCompound
p293
sS'isSimple'
p294
I00
sS'attrChildrenLongNames'
p295
(lp296
VcolorEntryList[16].position
p297
aVcolorEntryList[16].color
p298
assVcolorEntryList[8].position
p299
(dp300
g71
I00
sg72
Vfloat
p301
sg151
I00
sg152
I00
sg74
I01
sg75
(lp302
sg154
I01
ssVcolorEntryList[18]
p303
(dp304
g157
I00
sg158
VTdataCompound
p305
sg160
I00
sg161
(lp306
g163
aVcolorEntryList[18].color
p307
assVcolorEntryList[21].color.colorR
p308
(dp309
g248
I00
sg249
Vfloat
p310
sg251
I01
sg252
(lp311
ssg134
(dp312
g3
I00
sg4
Vfloat
p313
sg6
I01
sg7
(lp314
ssVcolorEntryList[11].color
p315
(dp316
S'isArray'
p317
I00
sS'attrType'
p318
Vfloat3
p319
sS'isSimple'
p320
I00
sS'attrChildrenLongNames'
p321
(lp322
VcolorEntryList[11].color.colorR
p323
aVcolorEntryList[11].color.colorG
p324
aVcolorEntryList[11].color.colorB
p325
assg135
(dp326
g3
I00
sg4
Vfloat
p327
sg6
I01
sg7
(lp328
ssVcolorGain
p329
(dp330
g44
I00
sg45
Vfloat3
p331
sg47
I00
sg49
I00
sg50
(lp332
VcolorGain.colorGainR
p333
aVcolorGain.colorGainG
p334
aVcolorGain.colorGainB
p335
asg52
I01
sg53
I00
ssVcolorEntryList[21].color.colorB
p336
(dp337
g248
I00
sg249
Vfloat
p338
sg251
I01
sg252
(lp339
ssVcolorEntryList[2]
p340
(dp341
g107
I00
sg108
VTdataCompound
p342
sg111
(lp343
VcolorEntryList[2].position
p344
aVcolorEntryList[2].color
p345
asg110
I00
sg85
I00
ssg136
(dp346
g3
I00
sg4
Vfloat
p347
sg6
I01
sg7
(lp348
ssVcolorEntryList[21].color.colorG
p349
(dp350
g248
I00
sg249
Vfloat
p351
sg251
I01
sg252
(lp352
ssVcolorEntryList[5].position
p353
(dp354
g44
I00
sg53
I00
sg50
(lp355
sg49
I00
sg224
Vfloat
p356
ssValphaIsLuminance
p357
(dp358
g44
I00
sg45
Vbool
p359
sg47
I00
sg48
I00
sg49
I01
sg50
(lp360
sg52
I01
sg53
I00
ssVcolorEntryList[22].color
p361
(dp362
g14
I00
sg15
Vfloat3
p363
sg17
I00
sg18
(lp364
g254
ag230
ag214
assVcolorEntryList[21].color
p365
(dp366
g248
I00
sg249
Vfloat3
p367
sg251
I00
sg252
(lp368
g308
ag349
ag336
assVcolorEntryList[21]
p369
(dp370
g248
I00
sg249
VTdataCompound
p371
sg251
I00
sg252
(lp372
VcolorEntryList[21].position
p373
ag365
assVcolorEntryList[19]
p374
(dp375
g157
I00
sg158
VTdataCompound
p376
sg160
I00
sg161
(lp377
VcolorEntryList[19].position
p378
ag196
assVcolorEntryList[6]
p379
(dp380
g188
I00
sg189
VTdataCompound
p381
sg191
I00
sg192
(lp382
VcolorEntryList[6].position
p383
aVcolorEntryList[6].color
p384
assVcolorEntryList[11]
p385
(dp386
g317
I00
sg318
VTdataCompound
p387
sg320
I00
sg321
(lp388
VcolorEntryList[11].position
p389
ag315
assVcolorEntryList[1].color.colorR
p390
(dp391
g44
I00
sg45
Vfloat
p392
sg140
I00
sg141
I00
sg49
I01
sg50
(lp393
sg143
I01
sg53
I00
ssVcolorEntryList[14].position
p394
(dp395
g29
I00
sg30
Vfloat
p396
sg32
I00
sg33
I00
sg34
I01
sg35
(lp397
sg37
I01
ssVnoise
p398
(dp399
g44
I00
sg45
Vfloat
p400
sg47
I00
sg48
I00
sg49
I01
sg50
(lp401
sg52
I01
sg53
I00
ssVsatNoiseFreq
p402
(dp403
g44
I00
sg45
Vfloat
p404
sg47
I00
sg48
I00
sg49
I01
sg50
(lp405
sg52
I01
sg53
I00
ssVcolorEntryList[17]
p406
(dp407
g291
I00
sg292
VTdataCompound
p408
sg294
I00
sg295
(lp409
VcolorEntryList[17].position
p410
aVcolorEntryList[17].color
p411
assVcolorEntryList[17].color.colorG
p412
(dp413
g291
I00
sg292
Vfloat
p414
sg294
I01
sg295
(lp415
ssg129
(dp416
g29
I00
sg30
Vfloat
p417
sg34
I01
sg35
(lp418
ssVcolorEntryList[17].color.colorB
p419
(dp420
g291
I00
sg292
Vfloat
p421
sg294
I01
sg295
(lp422
ssg128
(dp423
g29
I00
sg30
Vfloat
p424
sg34
I01
sg35
(lp425
ssg194
(dp426
g188
I00
sg189
Vfloat
p427
sS'isMulti'
p428
I00
sS'isCompound'
p429
I00
sg191
I01
sg192
(lp430
sS'isNumeric'
p431
I01
ssg127
(dp432
g29
I00
sg30
Vfloat
p433
sg34
I01
sg35
(lp434
ssg389
(dp435
g317
I00
sg318
Vfloat
p436
sS'isMulti'
p437
I00
sS'isCompound'
p438
I00
sg320
I01
sg321
(lp439
sS'isNumeric'
p440
I01
ssVcolorEntryList[17].color.colorR
p441
(dp442
g291
I00
sg292
Vfloat
p443
sg294
I01
sg295
(lp444
ssVcolorEntryList[16].color.colorB
p445
(dp446
g291
I00
sg292
Vfloat
p447
sg294
I01
sg295
(lp448
ssg195
(dp449
g188
I00
sg189
Vfloat3
p450
sg191
I00
sg192
(lp451
VcolorEntryList[7].color.colorR
p452
aVcolorEntryList[7].color.colorG
p453
aVcolorEntryList[7].color.colorB
p454
assg307
(dp455
g157
I00
sg158
Vfloat3
p456
sg160
I00
sg161
(lp457
VcolorEntryList[18].color.colorR
p458
aVcolorEntryList[18].color.colorG
p459
ag206
assVcolorEntryList[16].color.colorG
p460
(dp461
g291
I00
sg292
Vfloat
p462
sg294
I01
sg295
(lp463
ssVcolorEntryList[0].position
p464
(dp465
g44
I00
sg45
Vfloat
p466
sg140
I00
sg141
I00
sg49
I01
sg50
(lp467
sg143
I01
sg53
I00
ssg453
(dp468
g188
I00
sg189
Vfloat
p469
sg191
I01
sg192
(lp470
ssg454
(dp471
g188
I00
sg189
Vfloat
p472
sg191
I01
sg192
(lp473
ssVcolorEntryList[3].position
p474
(dp475
g44
I00
sg45
Vfloat
p476
sg140
I00
sg141
I00
sg49
I01
sg50
(lp477
sg143
I01
sg53
I00
ssVfilter
p478
(dp479
g44
I00
sg45
Vfloat
p480
sg47
I00
sg48
I00
sg49
I01
sg50
(lp481
sg52
I01
sg53
I00
ssVcolorEntryList[16].color.colorR
p482
(dp483
g291
I00
sg292
Vfloat
p484
sg294
I01
sg295
(lp485
ssVuWave
p486
(dp487
g44
I00
sg45
Vfloat
p488
sg47
I00
sg48
I00
sg49
I01
sg50
(lp489
sg52
I01
sg53
I00
ssg452
(dp490
g188
I00
sg189
Vfloat
p491
sg191
I01
sg192
(lp492
ssVcolorEntryList[1]
p493
(dp494
g107
I00
sg108
VTdataCompound
p495
sg111
(lp496
VcolorEntryList[1].position
p497
aVcolorEntryList[1].color
p498
asg110
I00
sg85
I00
ssVcolorEntryList[10].color
p499
(dp500
g317
I00
sg318
Vfloat3
p501
sg320
I00
sg321
(lp502
VcolorEntryList[10].color.colorR
p503
aVcolorEntryList[10].color.colorG
p504
aVcolorEntryList[10].color.colorB
p505
assVuvFilterSize.uvFilterSizeX
p506
(dp507
g44
I00
sg45
Vfloat
p508
sg47
I00
sg48
I00
sg49
I01
sg50
(lp509
sg53
I00
ssVuvFilterSize.uvFilterSizeY
p510
(dp511
g44
I00
sg45
Vfloat
p512
sg47
I00
sg48
I00
sg49
I01
sg50
(lp513
sg53
I00
ssg410
(dp514
g291
I00
sg292
Vfloat
p515
sS'isMulti'
p516
I00
sS'isCompound'
p517
I00
sg294
I01
sg295
(lp518
sS'isNumeric'
p519
I01
ssVfilterOffset
p520
(dp521
g44
I00
sg45
Vfloat
p522
sg47
I00
sg48
I00
sg49
I01
sg50
(lp523
sg52
I01
sg53
I00
ssg66
(dp524
g44
I00
sg45
Vfloat
p525
sg47
I00
sg48
I00
sg49
I01
sg50
(lp526
sg53
I00
ssVcolorEntryList[20].position
p527
(dp528
g248
I00
sg249
Vfloat
p529
sS'isMulti'
p530
I00
sS'isCompound'
p531
I00
sg251
I01
sg252
(lp532
sS'isNumeric'
p533
I01
ssVnoiseFreq
p534
(dp535
g44
I00
sg45
Vfloat
p536
sg47
I00
sg48
I00
sg49
I01
sg50
(lp537
sg52
I01
sg53
I00
ssVcolorEntryList[20].color
p538
(dp539
g248
I00
sg249
Vfloat3
p540
sg251
I00
sg252
(lp541
g246
ag278
ag285
assVuvCoord.vCoord
p542
(dp543
g44
I00
sg45
Vfloat
p544
sg47
I00
sg48
I00
sg49
I01
sg50
(lp545
sg52
I01
sg53
I00
ssVcolorEntryList[0]
p546
(dp547
g107
I00
sg108
VTdataCompound
p548
sg111
(lp549
VcolorEntryList[0].position
p550
aVcolorEntryList[0].color
p551
asg110
I00
sg85
I00
ssVisHistoricallyInteresting
p552
(dp553
g44
I00
sg45
Vbyte
p554
sg47
I00
sg49
I00
sg50
(lp555
sg53
I00
ssVcolorEntryList
p556
(dp557
g44
I01
sg53
I00
sg47
I01
sg49
I00
sg45
VTdataCompound
p558
ssVcolorEntryList[8]
p559
(dp560
g71
I00
sg72
VTdataCompound
p561
sg74
I00
sg75
(lp562
g299
ag69
assVcolorEntryList[23]
p563
(dp564
g14
I00
sg15
VTdataCompound
p565
sg17
I00
sg18
(lp566
VcolorEntryList[23].position
p567
aVcolorEntryList[23].color
p568
assVinvert
p569
(dp570
g44
I00
sg45
Vbool
p571
sg47
I00
sg48
I00
sg49
I01
sg50
(lp572
sg52
I01
sg53
I00
ssVbinMembership
p573
(dp574
g44
I00
sg45
Vstring
p575
sg47
I00
sg48
I00
sg49
I01
sg50
(lp576
sg53
I00
ssVoutAlpha
p577
(dp578
g44
I00
sg45
Vfloat
p579
sg140
I00
sg141
I00
sg49
I01
sg50
(lp580
sS'isNumeric'
p581
I01
sg53
I00
ssVcolorEntryList[13]
p582
(dp583
g3
I00
sg4
VTdataCompound
p584
sg6
I00
sg7
(lp585
VcolorEntryList[13].position
p586
ag1
assg383
(dp587
g188
I00
sg189
Vfloat
p588
sg428
I00
sg429
I00
sg191
I01
sg192
(lp589
sg431
I01
ssVcolorEntryList[0].color
p590
(dp591
g44
I00
sg45
Vfloat3
p592
sg85
I00
sS'isCompound'
p593
I01
sg49
I00
sg50
(lp594
g80
ag137
ag119
asS'isNumeric'
p595
I01
sg53
I00
ssg568
(dp596
g14
I00
sg15
Vfloat3
p597
sg17
I00
sg18
(lp598
g12
ag38
ag54
assVtype
p599
(dp600
g44
I00
sg45
Venum
p601
sg47
I00
sg48
I00
sg49
I01
sg50
(lp602
sg52
I01
sg53
I00
ssg567
(dp603
g14
I00
sg15
Vfloat
p604
sg17
I01
sg18
(lp605
ssVcolorEntryList[2].position
p606
(dp607
g44
I00
sg45
Vfloat
p608
sg140
I00
sg141
I00
sg49
I01
sg50
(lp609
sg143
I01
sg53
I00
ssg324
(dp610
g317
I00
sg318
Vfloat
p611
sg320
I01
sg321
(lp612
ssg325
(dp613
g317
I00
sg318
Vfloat
p614
sg320
I01
sg321
(lp615
ssg200
(dp616
g157
I00
sg158
Vfloat
p617
sg160
I01
sg161
(lp618
ssVcolorEntryList[9].color
p619
(dp620
g71
I00
sg72
Vfloat3
p621
sg74
I00
sg75
(lp622
VcolorEntryList[9].color.colorR
p623
aVcolorEntryList[9].color.colorG
p624
aVcolorEntryList[9].color.colorB
p625
assg586
(dp626
g3
I00
sg4
Vfloat
p627
sg23
I00
sg24
I00
sg6
I01
sg7
(lp628
sg26
I01
ssg323
(dp629
g317
I00
sg318
Vfloat
p630
sg320
I01
sg321
(lp631
ssVcolorEntryList[3]
p632
(dp633
g107
I00
sg108
VTdataCompound
p634
sg110
I00
sg111
(lp635
VcolorEntryList[3].position
p636
aVcolorEntryList[3].color
p637
assVcolorEntryList[1].color.colorG
p638
(dp639
g44
I00
sg45
Vfloat
p640
sg85
I00
sg86
I00
sg49
I01
sg50
(lp641
sS'isNumeric'
p642
I01
sg53
I00
ssVcolorEntryList[1].color.colorB
p643
(dp644
g44
I00
sg45
Vfloat
p645
sg140
I00
sg141
I00
sg49
I01
sg50
(lp646
sg143
I01
sg53
I00
ssg504
(dp647
g317
I00
sg318
Vfloat
p648
sg320
I01
sg321
(lp649
ssVcolorEntryList[22]
p650
(dp651
g14
I00
sg15
VTdataCompound
p652
sg17
I00
sg18
(lp653
VcolorEntryList[22].position
p654
ag361
assg103
(dp655
g44
I00
sg45
Vfloat
p656
sg47
I00
sg48
I00
sg49
I01
sg50
(lp657
sg53
I00
ssg625
(dp658
g71
I00
sg72
Vfloat
p659
sg74
I01
sg75
(lp660
ssVcolorEntryList.position
p661
(dp662
S'attrParentLongName'
p663
VcolorEntryList
p664
sg53
I00
ssg104
(dp665
g44
I00
sg45
Vfloat
p666
sg47
I00
sg48
I00
sg49
I01
sg50
(lp667
sg53
I00
ssVhueNoise
p668
(dp669
g44
I00
sg45
Vfloat
p670
sg47
I00
sg48
I00
sg49
I01
sg50
(lp671
sg52
I01
sg53
I00
ssVvalNoiseFreq
p672
(dp673
g44
I00
sg45
Vfloat
p674
sg47
I00
sg48
I00
sg49
I01
sg50
(lp675
sg52
I01
sg53
I00
ssVcolorEntryList[10]
p676
(dp677
g317
I00
sg318
VTdataCompound
p678
sg320
I00
sg321
(lp679
VcolorEntryList[10].position
p680
ag499
assg201
(dp681
g157
I00
sg158
Vfloat
p682
sg160
I01
sg161
(lp683
ssVcolorEntryList[5]
p684
(dp685
g107
I00
sg108
VTdataCompound
p686
sg110
I00
sg111
(lp687
VcolorEntryList[5].position
p688
aVcolorEntryList[5].color
p689
assVvWave
p690
(dp691
g44
I00
sg45
Vfloat
p692
sg47
I00
sg48
I00
sg49
I01
sg50
(lp693
sg52
I01
sg53
I00
ssVuvCoord.uCoord
p694
(dp695
g663
VuvCoord
p696
sg45
Vfloat
p697
sg47
I00
sg48
I00
sg49
I01
sg44
I00
sg50
(lp698
sg52
I01
sg53
I00
ssg102
(dp699
g44
I00
sg45
Vfloat
p700
sg47
I00
sg48
I00
sg49
I01
sg50
(lp701
sg53
I00
ssVcolorEntryList[6].color.colorR
p702
(dp703
g188
I00
sg189
Vfloat
p704
sg191
I01
sg192
(lp705
ssVcolorEntryList[1].color
p706
(dp707
g44
I00
sg45
Vfloat3
p708
sg85
I00
sS'isCompound'
p709
I01
sg49
I00
sg50
(lp710
g390
ag638
ag643
asg595
I01
sg53
I00
ssVoutColor.outColorR
p711
(dp712
g44
I00
sg45
Vfloat
p713
sg140
I00
sg141
I00
sg49
I01
sg50
(lp714
sg581
I01
sg53
I00
ssVcolorEntryList[12]
p715
(dp716
g3
I00
sg4
VTdataCompound
p717
sg6
I00
sg7
(lp718
g20
ag130
assVcolorEntryList.color
p719
(dp720
g663
VcolorEntryList
p721
sg53
I00
ssVoutColor.outColorG
p722
(dp723
g44
I00
sg45
Vfloat
p724
sg140
I00
sg141
I00
sg49
I01
sg50
(lp725
sg581
I01
sg53
I00
ssVcolorEntryList[4].position
p726
(dp727
g44
I00
sg53
I00
sg91
Vfloat
p728
sg49
I00
sg50
(lp729
ssVcolorEntryList[6].color.colorB
p730
(dp731
g188
I00
sg189
Vfloat
p732
sg191
I01
sg192
(lp733
ssVoutColor.outColorB
p734
(dp735
g44
I00
sg45
Vfloat
p736
sg47
I00
sg48
I00
sg49
I01
sg50
(lp737
sg88
I01
sg53
I00
ssVcolorEntryList[6].color.colorG
p738
(dp739
g188
I00
sg189
Vfloat
p740
sg191
I01
sg192
(lp741
ssVcolorEntryList[20]
p742
(dp743
g248
I00
sg249
VTdataCompound
p744
sg251
I00
sg252
(lp745
g527
ag538
assg297
(dp746
g291
I00
sg292
Vfloat
p747
sg516
I00
sg517
I00
sg294
I01
sg295
(lp748
sg519
I01
ssg624
(dp749
g71
I00
sg72
Vfloat
p750
sg74
I01
sg75
(lp751
ssVcolorEntryList[14]
p752
(dp753
g29
I00
sg30
VTdataCompound
p754
sg34
I00
sg35
(lp755
g394
aVcolorEntryList[14].color
p756
assg267
(dp757
g44
I00
sg45
Vfloat
p758
sg140
I00
sg141
I00
sg49
I01
sg50
(lp759
sg143
I01
sg53
I00
ssg298
(dp760
g291
I00
sg292
Vfloat3
p761
sg294
I00
sg295
(lp762
g482
ag460
ag445
assg266
(dp763
g44
I00
sg53
I00
sg50
(lp764
sg49
I01
sg45
Vfloat
p765
ssg411
(dp766
g291
I00
sg292
Vfloat3
p767
sg294
I00
sg295
(lp768
g441
ag412
ag419
assVuvCoord
p769
(dp770
g44
I00
sg45
Vfloat2
p771
sg47
I00
sg49
I00
sg50
(lp772
VuvCoord.uCoord
p773
ag542
asg53
I00
ssg265
(dp774
g44
I00
sg45
Vfloat
p775
sS'isMulti'
p776
I00
sS'isCompound'
p777
I00
sg49
I01
sg50
(lp778
sS'isNumeric'
p779
I01
sg53
I00
ssVinterpolation
p780
(dp781
g44
I00
sg45
Venum
p782
sg47
I00
sg48
I00
sg49
I01
sg50
(lp783
sg52
I01
sg53
I00
ssg333
(dp784
g44
I00
sg45
Vfloat
p785
sg47
I00
sg48
I00
sg49
I01
sg50
(lp786
sg53
I00
ssVnodeState
p787
(dp788
g44
I00
sg45
Venum
p789
sg47
I00
sg48
I00
sg49
I01
sg50
(lp790
sg52
I01
sg53
I00
ssg458
(dp791
g157
I00
sg158
Vfloat
p792
sg160
I01
sg161
(lp793
ssVuvFilterSize
p794
(dp795
g44
I00
sg45
Vfloat2
p796
sg47
I00
sg49
I00
sg50
(lp797
g506
ag510
asg53
I00
ssVcolorEntryList[2].color.colorG
p798
(dp799
g44
I00
sg45
Vfloat
p800
sg140
I00
sg141
I00
sg49
I01
sg50
(lp801
sg143
I01
sg53
I00
ssVcolorEntryList.colorR
p802
(dp803
g663
VcolorEntryList.color
p804
sg53
I00
ssg654
(dp805
g14
I00
sg15
Vfloat
p806
sg17
I01
sg18
(lp807
ssVcolorEntryList[2].color.colorB
p808
(dp809
g44
I00
sg45
Vfloat
p810
sg140
I00
sg141
I00
sg49
I01
sg50
(lp811
sg143
I01
sg53
I00
ssg335
(dp812
g44
I00
sg45
Vfloat
p813
sg47
I00
sg48
I00
sg49
I01
sg50
(lp814
sg53
I00
ssg221
(dp815
g44
I00
sg53
I00
sg50
(lp816
sg49
I00
sg224
Vfloat
p817
ssg334
(dp818
g44
I00
sg45
Vfloat
p819
sg47
I00
sg48
I00
sg49
I01
sg50
(lp820
sg53
I00
ssg623
(dp821
g71
I00
sg72
Vfloat
p822
sg74
I01
sg75
(lp823
ssVcolorEntryList.colorB
p824
(dp825
g663
VcolorEntryList.color
p826
sg53
I00
ssVcolorEntryList.colorG
p827
(dp828
g663
VcolorEntryList.color
p829
sg53
I00
ssVcolorEntryList[2].color.colorR
p830
(dp831
g44
I00
sg45
Vfloat
p832
sg140
I00
sg141
I00
sg49
I01
sg50
(lp833
sg143
I01
sg53
I00
ssg378
(dp834
g157
I00
sg158
Vfloat
p835
sg166
I00
sg167
I00
sg160
I01
sg161
(lp836
sg169
I01
ssg505
(dp837
g317
I00
sg318
Vfloat
p838
sg320
I01
sg321
(lp839
ssg384
(dp840
g188
I00
sg189
Vfloat3
p841
sg191
I00
sg192
(lp842
g702
ag738
ag730
assg680
(dp843
g317
I00
sg318
Vfloat
p844
sg437
I00
sg438
I00
sg320
I01
sg321
(lp845
sg440
I01
ssg223
(dp846
g44
I00
sg53
I00
sg50
(lp847
sg49
I00
sg224
Vfloat
p848
ssVcolorEntryList[2].color
p849
(dp850
g44
I00
sg45
Vfloat3
p851
sg85
I00
sg49
I00
sg50
(lp852
g830
ag798
ag808
asg595
I01
sg53
I00
ssg222
(dp853
g44
I00
sg53
I00
sg50
(lp854
sg49
I00
sg224
Vfloat
p855
ssVoutColor
p856
(dp857
g44
I00
sg45
Vfloat3
p858
sg47
I00
sg49
I00
sg50
(lp859
g711
ag722
ag734
asg595
I01
sg53
I00
ssg503
(dp860
g317
I00
sg318
Vfloat
p861
sg320
I01
sg321
(lp862
ssg756
(dp863
g29
I00
sg30
Vfloat3
p864
sg34
I00
sg35
(lp865
g202
ag170
ag174
assVcaching
p866
(dp867
g44
I00
sg45
Vbool
p868
sg47
I00
sg48
I00
sg49
I01
sg50
(lp869
sg52
I01
sg53
I00
ssg459
(dp870
g157
I00
sg158
Vfloat
p871
sg160
I01
sg161
(lp872
ssVcolorEntryList[9]
p873
(dp874
g71
I00
sg72
VTdataCompound
p875
sg74
I00
sg75
(lp876
g148
ag619
assg373
(dp877
g248
I00
sg249
Vfloat
p878
sg530
I00
sg531
I00
sg251
I01
sg252
(lp879
sg533
I01
ss.