(dp0
VmatchFKEndRot
p1
(dp2
S'isArray'
p3
I00
sS'attrType'
p4
Vbool
p5
sS'isMulti'
p6
I00
sS'isCompound'
p7
I00
sS'isSimple'
p8
I01
sS'attrChildrenLongNames'
p9
(lp10
ssVmiddleIKJntInMatrix
p11
(dp12
g3
I00
sg4
Vmatrix
p13
sg8
I00
sg9
(lp14
ssVendIKJntDefaultCacheList
p15
(dp16
g3
I00
sg4
VdoubleArray
p17
sg8
I00
sg9
(lp18
ssVmiddleIKCtrlDefaultCacheList
p19
(dp20
g3
I00
sg4
VdoubleArray
p21
sg8
I00
sg9
(lp22
ssVmiddleFKJntDefaultCacheList
p23
(dp24
g3
I00
sg4
VdoubleArray
p25
sg8
I00
sg9
(lp26
ssVendFKJntDefaultCacheList
p27
(dp28
g3
I00
sg4
VdoubleArray
p29
sg8
I00
sg9
(lp30
ssVendIKJntInMatrix
p31
(dp32
g3
I00
sg4
Vmatrix
p33
sg8
I00
sg9
(lp34
ssVisHistoricallyInteresting
p35
(dp36
g3
I00
sg4
Vbyte
p37
sg8
I00
sg9
(lp38
ssVzeroFKSubCtrl
p39
(dp40
g3
I00
sg4
Vbool
p41
sg8
I01
sg9
(lp42
ssVfkSubCtrlList
p43
(dp44
g3
I00
sg4
Nsg8
I00
sg9
(lp45
ssVendIKCtrlDefaultCacheList
p46
(dp47
g3
I00
sg4
VdoubleArray
p48
sg8
I00
sg9
(lp49
ssVstartIKJntDefaultCacheList
p50
(dp51
g3
I00
sg4
VdoubleArray
p52
sg8
I00
sg9
(lp53
ssVmatchType
p54
(dp55
g3
I00
sg4
Venum
p56
sg8
I01
sg9
(lp57
ssVnodeState
p58
(dp59
g3
I00
sg4
Venum
p60
sg8
I01
sg9
(lp61
ssVreCache
p62
(dp63
g3
I00
sg4
Vbool
p64
sg8
I01
sg9
(lp65
ssVmiddleFKCtrlDefaultCacheList
p66
(dp67
g3
I00
sg4
VdoubleArray
p68
sg8
I00
sg9
(lp69
ssVcaching
p70
(dp71
g3
I00
sg4
Vbool
p72
sg8
I01
sg9
(lp73
ssVstartIKCtrlDefaultCacheList
p74
(dp75
g3
I00
sg4
Nsg8
I00
sg9
(lp76
ssVcompute
p77
(dp78
g3
I00
sg4
Venum
p79
sg8
I01
sg9
(lp80
ssVstartFKJntInMatrix
p81
(dp82
g3
I00
sg4
Vmatrix
p83
sg8
I00
sg9
(lp84
ssVikSubCtrlList
p85
(dp86
g3
I00
sg4
Nsg8
I00
sg9
(lp87
ssVzeroIKSubCtrl
p88
(dp89
g3
I00
sg4
Vbool
p90
sg8
I01
sg9
(lp91
ssVswitcherAttr
p92
(dp93
g3
I00
sg4
Vdouble
p94
sg8
I01
sg9
(lp95
ssVmiddleIKJntDefaultCacheList
p96
(dp97
g3
I00
sg4
VdoubleArray
p98
sg8
I00
sg9
(lp99
ssVstartIKJntInMatrix
p100
(dp101
g3
I00
sg4
Vmatrix
p102
sg8
I00
sg9
(lp103
ssVmiddleFKJntInMatrix
p104
(dp105
g3
I00
sg4
Vmatrix
p106
sg8
I00
sg9
(lp107
ssVstartFKCtrlDefaultCacheList
p108
(dp109
g3
I00
sg4
VdoubleArray
p110
sg8
I00
sg9
(lp111
ssVviewName
p112
(dp113
g3
I00
sg4
Vstring
p114
sg6
I00
sg7
I00
sg8
I01
sg9
(lp115
ssVendFKCtrlDefaultCacheList
p116
(dp117
g3
I00
sg4
VdoubleArray
p118
sg8
I00
sg9
(lp119
ssVstartFKJntDefaultCacheList
p120
(dp121
g3
I00
sg4
VdoubleArray
p122
sg8
I00
sg9
(lp123
ssVendFKJntInMatrix
p124
(dp125
g3
I00
sg4
Vmatrix
p126
sg8
I00
sg9
(lp127
ssVoutput
p128
(dp129
g3
I00
sg4
Vdouble
p130
sg8
I01
sg9
(lp131
ss.