(dp0
Vmatrix[199]
p1
(dp2
S'isArray'
p3
I00
sS'isMulti'
p4
I00
sS'attrType'
p5
Vmatrix
p6
sS'isSimple'
p7
I00
sS'attrChildrenLongNames'
p8
(lp9
ssVweightList[492].weights
p10
(dp11
g3
I01
sg4
I01
sg7
I00
sg5
VTdataCompound
p12
ssVweightList[287].weights
p13
(dp14
g3
I01
sg4
I01
sg7
I00
sg5
VTdataCompound
p15
ssVweightList[71].weights
p16
(dp17
g3
I01
sg4
I01
sg7
I00
sg5
VTdataCompound
p18
ssVweightList[451].weights
p19
(dp20
g3
I01
sg4
I01
sg7
I00
sg5
VTdataCompound
p21
ssVweightList[122].weights
p22
(dp23
g3
I01
sg4
I01
sg7
I00
sg5
VTdataCompound
p24
ssVmatrix[110]
p25
(dp26
g3
I00
sg4
I00
sg5
Vmatrix
p27
sg7
I00
sg8
(lp28
ssVweightList[544].weights
p29
(dp30
g3
I01
sg4
I01
sg7
I00
sg5
VTdataCompound
p31
ssVlockWeights[48]
p32
(dp33
g3
I00
sg5
Vbool
p34
sg4
I00
sS'isCompound'
p35
I00
sg7
I01
sg8
(lp36
ssVlockWeights[59]
p37
(dp38
g3
I00
sg5
Vbool
p39
sg4
I00
sg35
I00
sg7
I01
sg8
(lp40
ssVweightList[546]
p41
(dp42
g3
I00
sg8
(lp43
VweightList[546].weights
p44
assVlockWeights[24]
p45
(dp46
g3
I00
sg5
Vbool
p47
sg4
I00
sg35
I00
sg7
I01
sg8
(lp48
ssVweightList[266]
p49
(dp50
g3
I00
sg4
I00
sg5
VTdataCompound
p51
sg7
I00
sg8
(lp52
VweightList[266].weights
p53
assVweightList[462]
p54
(dp55
g3
I00
sg4
I00
sg5
VTdataCompound
p56
sg7
I00
sg8
(lp57
VweightList[462].weights
p58
assVweightList[450].weights
p59
(dp60
g3
I01
sg4
I01
sg7
I00
sg5
VTdataCompound
p61
ssVweightList[178].weights
p62
(dp63
g3
I01
sg4
I01
sg7
I00
sg5
VTdataCompound
p64
ssVweightList[280]
p65
(dp66
g3
I00
sg4
I00
sg5
VTdataCompound
p67
sg7
I00
sg8
(lp68
VweightList[280].weights
p69
assVweightList[94].weights
p70
(dp71
g3
I01
sg4
I01
sg7
I00
sg5
VTdataCompound
p72
ssVweightList[475].weights
p73
(dp74
g3
I01
sg4
I01
sg7
I00
sg5
VTdataCompound
p75
ssVlockWeights[83]
p76
(dp77
g3
I00
sg5
Vbool
p78
sg4
I00
sg35
I00
sg7
I01
sg8
(lp79
ssVweightList[224]
p80
(dp81
g3
I00
sg4
I00
sg5
VTdataCompound
p82
sg7
I00
sg8
(lp83
VweightList[224].weights
p84
assVdropoff[7]
p85
(dp86
g3
I00
sg5
Vdouble
p87
sg4
I00
sg35
I00
sg7
I01
sg8
(lp88
ssVweightList[248]
p89
(dp90
g3
I00
sg4
I00
sg5
VTdataCompound
p91
sg7
I00
sg8
(lp92
VweightList[248].weights
p93
assVmatrix[200]
p94
(dp95
g3
I00
sg4
I00
sg5
Vmatrix
p96
sg7
I00
sg8
(lp97
ssVmatrix[83]
p98
(dp99
g3
I00
sg4
I00
sg5
Vmatrix
p100
sg7
I00
sg8
(lp101
ssVweightList[526]
p102
(dp103
g3
I00
sg4
I00
sg5
VTdataCompound
p104
sg7
I00
sg8
(lp105
VweightList[526].weights
p106
assVweightList[211]
p107
(dp108
g3
I00
sg4
I00
sg5
VTdataCompound
p109
sg7
I00
sg8
(lp110
VweightList[211].weights
p111
assVmatrix[172]
p112
(dp113
g3
I00
sg4
I00
sg5
Vmatrix
p114
sg7
I00
sg8
(lp115
ssVweightList[70]
p116
(dp117
g3
I00
sg4
I00
sg5
VTdataCompound
p118
sg7
I00
sg8
(lp119
VweightList[70].weights
p120
assVbindPreMatrix[86]
p121
(dp122
g3
I00
sg4
I00
sg5
Vmatrix
p123
sg7
I00
sg8
(lp124
ssVbindPreMatrix[162]
p125
(dp126
g3
I00
sg4
I00
sg5
Vmatrix
p127
sg7
I00
sg8
(lp128
ssVbindPreMatrix[139]
p129
(dp130
g3
I00
sg4
I00
sg5
Vmatrix
p131
sg7
I00
sg8
(lp132
ssVbindPreMatrix[31]
p133
(dp134
g3
I00
sg4
I00
sg5
Vmatrix
p135
sg7
I00
sg8
(lp136
ssVweightList[430].weights
p137
(dp138
g3
I01
sg4
I01
sg7
I00
sg5
VTdataCompound
p139
ssVweightList[282].weights
p140
(dp141
g3
I01
sg4
I01
sg7
I00
sg5
VTdataCompound
p142
ssVweightList[167].weights
p143
(dp144
g3
I01
sg4
I01
sg7
I00
sg5
VTdataCompound
p145
ssVdropoff[108]
p146
(dp147
g3
I00
sg5
Vdouble
p148
sg4
I00
sg35
I00
sg7
I01
sg8
(lp149
ssVweightList[206]
p150
(dp151
g3
I00
sg4
I00
sg5
VTdataCompound
p152
sg7
I00
sg8
(lp153
VweightList[206].weights
p154
assVweightList[525].weights
p155
(dp156
g3
I01
sg4
I01
sg7
I00
sg5
VTdataCompound
p157
ssVbindPreMatrix[113]
p158
(dp159
g3
I00
sg4
I00
sg5
Vmatrix
p160
sg7
I00
sg8
(lp161
ssVmatrix[192]
p162
(dp163
g3
I00
sg4
I00
sg5
Vmatrix
p164
sg7
I00
sg8
(lp165
ssVweightList[106]
p166
(dp167
g3
I00
sg4
I00
sg5
VTdataCompound
p168
sg7
I00
sg8
(lp169
VweightList[106].weights
p170
assVlockWeights
p171
(dp172
g3
I01
sg4
I01
sg7
I00
sg5
VTdataCompound
p173
ssVbindPreMatrix[8]
p174
(dp175
g3
I00
sg4
I00
sg5
Vmatrix
p176
sg7
I00
sg8
(lp177
ssVweightList[63]
p178
(dp179
g3
I00
sg4
I00
sg5
VTdataCompound
p180
sg7
I00
sg8
(lp181
VweightList[63].weights
p182
assVmatrix[161]
p183
(dp184
g3
I00
sg4
I00
sg5
Vmatrix
p185
sg7
I00
sg8
(lp186
ssVweightList[389].weights
p187
(dp188
g3
I01
sg4
I01
sg7
I00
sg5
VTdataCompound
p189
ssVdropoff[46]
p190
(dp191
g3
I00
sg5
Vdouble
p192
sg4
I00
sg35
I00
sg7
I01
sg8
(lp193
ssVdropoff[172]
p194
(dp195
g3
I00
sg5
Vdouble
p196
sg4
I00
sg35
I00
sg7
I01
sg8
(lp197
ssVmatrix[48]
p198
(dp199
g3
I00
sg4
I00
sg5
Vmatrix
p200
sg7
I00
sg8
(lp201
ssVweightList[180]
p202
(dp203
g3
I00
sg4
I00
sg5
VTdataCompound
p204
sg7
I00
sg8
(lp205
VweightList[180].weights
p206
assVweightList[56]
p207
(dp208
g3
I00
sg4
I00
sg5
VTdataCompound
p209
sg7
I00
sg8
(lp210
VweightList[56].weights
p211
assVmatrix[24]
p212
(dp213
g3
I00
sg4
I00
sg5
Vmatrix
p214
sg7
I00
sg8
(lp215
ssVweightList[322]
p216
(dp217
g3
I00
sg4
I00
sg5
VTdataCompound
p218
sg7
I00
sg8
(lp219
VweightList[322].weights
p220
assVweightList[399]
p221
(dp222
g3
I00
sg4
I00
sg5
VTdataCompound
p223
sg7
I00
sg8
(lp224
VweightList[399].weights
p225
assVweightList[12].weights
p226
(dp227
g3
I01
sg4
I01
sg7
I00
sg5
VTdataCompound
p228
ssVweightList[89]
p229
(dp230
g3
I00
sg4
I00
sg5
VTdataCompound
p231
sg7
I00
sg8
(lp232
VweightList[89].weights
p233
assVweightList[26].weights
p234
(dp235
g3
I01
sg4
I01
sg7
I00
sg5
VTdataCompound
p236
ssVweightList[374].weights
p237
(dp238
g3
I01
sg4
I01
sg7
I00
sg5
VTdataCompound
p239
ssVlockWeights[173]
p240
(dp241
g3
I00
sg5
Vbool
p242
sg4
I00
sg35
I00
sg7
I01
sg8
(lp243
ssVweightList[41]
p244
(dp245
g3
I00
sg4
I00
sg5
VTdataCompound
p246
sg7
I00
sg8
(lp247
VweightList[41].weights
p248
assVmatrix[33]
p249
(dp250
g3
I00
sg4
I00
sg5
Vmatrix
p251
sg7
I00
sg8
(lp252
ssVmatrix[143]
p253
(dp254
g3
I00
sg4
I00
sg5
Vmatrix
p255
sg7
I00
sg8
(lp256
ssVweightList[14]
p257
(dp258
g3
I00
sg4
I00
sg5
VTdataCompound
p259
sg7
I00
sg8
(lp260
VweightList[14].weights
p261
assVweightList[0].weights[82]
p262
(dp263
g3
I00
sg5
Vdouble
p264
sg4
I00
sg35
I00
sg7
I01
sg8
(lp265
ssVweightList[455].weights
p266
(dp267
g3
I01
sg4
I01
sg7
I00
sg5
VTdataCompound
p268
ssVbindPreMatrix[124]
p269
(dp270
g3
I00
sg4
I00
sg5
Vmatrix
p271
sg7
I00
sg8
(lp272
ssVbindPreMatrix[6]
p273
(dp274
g3
I00
sg4
I00
sg5
Vmatrix
p275
sg7
I00
sg8
(lp276
ssVweightList[38]
p277
(dp278
g3
I00
sg4
I00
sg5
VTdataCompound
p279
sg7
I00
sg8
(lp280
VweightList[38].weights
p281
assVweightList[304]
p282
(dp283
g3
I00
sg4
I00
sg5
VTdataCompound
p284
sg7
I00
sg8
(lp285
VweightList[304].weights
p286
assVlockWeights[176]
p287
(dp288
g3
I00
sg5
Vbool
p289
sg4
I00
sg35
I00
sg7
I01
sg8
(lp290
ssVweightList[197]
p291
(dp292
g3
I00
sg4
I00
sg5
VTdataCompound
p293
sg7
I00
sg8
(lp294
VweightList[197].weights
p295
assVbindPreMatrix[26]
p296
(dp297
g3
I00
sg4
I00
sg5
Vmatrix
p298
sg7
I00
sg8
(lp299
ssVlockWeights[155]
p300
(dp301
g3
I00
sg5
Vbool
p302
sg4
I00
sg35
I00
sg7
I01
sg8
(lp303
ssVweightList[0].weights[197]
p304
(dp305
g3
I00
sg5
Vdouble
p306
sg4
I00
sg35
I00
sg7
I01
sg8
(lp307
ssVlockWeights[182]
p308
(dp309
g3
I00
sg5
Vbool
p310
sg4
I00
sg35
I00
sg7
I01
sg8
(lp311
ssVweightList[33].weights
p312
(dp313
g3
I01
sg4
I01
sg7
I00
sg5
VTdataCompound
p314
ssVbindPreMatrix[140]
p315
(dp316
g3
I00
sg4
I00
sg5
Vmatrix
p317
sg7
I00
sg8
(lp318
ssVweightList[344]
p319
(dp320
g3
I00
sg4
I00
sg5
VTdataCompound
p321
sg7
I00
sg8
(lp322
VweightList[344].weights
p323
assVweightList[319]
p324
(dp325
g3
I00
sg4
I00
sg5
VTdataCompound
p326
sg7
I00
sg8
(lp327
VweightList[319].weights
p328
assVweightList[325].weights
p329
(dp330
g3
I01
sg4
I01
sg7
I00
sg5
VTdataCompound
p331
ssVweightList[275].weights
p332
(dp333
g3
I01
sg4
I01
sg7
I00
sg5
VTdataCompound
p334
ssVlockWeights[188]
p335
(dp336
g3
I00
sg5
Vbool
p337
sg4
I00
sg35
I00
sg7
I01
sg8
(lp338
ssVlockWeights[104]
p339
(dp340
g3
I00
sg5
Vbool
p341
sg4
I00
sg35
I00
sg7
I01
sg8
(lp342
ssVdropoff[194]
p343
(dp344
g3
I00
sg5
Vdouble
p345
sg4
I00
sg35
I00
sg7
I01
sg8
(lp346
ssVweightList[81].weights
p347
(dp348
g3
I01
sg4
I01
sg7
I00
sg5
VTdataCompound
p349
ssVmatrix[66]
p350
(dp351
g3
I00
sg4
I00
sg5
Vmatrix
p352
sg7
I00
sg8
(lp353
ssVweightList[159]
p354
(dp355
g3
I00
sg4
I00
sg5
VTdataCompound
p356
sg7
I00
sg8
(lp357
VweightList[159].weights
p358
assVweightList[22].weights
p359
(dp360
g3
I01
sg4
I01
sg7
I00
sg5
VTdataCompound
p361
ssVweightList[2].weights[207]
p362
(dp363
g3
I00
sg5
Vdouble
p364
sg4
I00
sg35
I00
sg7
I01
sg8
(lp365
ssVweightList[512]
p366
(dp367
g3
I00
sg4
I00
sg5
VTdataCompound
p368
sg7
I00
sg8
(lp369
VweightList[512].weights
p370
assVweightList[418]
p371
(dp372
g3
I00
sg4
I00
sg5
VTdataCompound
p373
sg7
I00
sg8
(lp374
VweightList[418].weights
p375
assVweightList[76].weights
p376
(dp377
g3
I01
sg4
I01
sg7
I00
sg5
VTdataCompound
p378
ssVweightList[45].weights
p379
(dp380
g3
I01
sg4
I01
sg7
I00
sg5
VTdataCompound
p381
ssVweightList[519].weights
p382
(dp383
g3
I01
sg4
I01
sg7
I00
sg5
VTdataCompound
p384
ssVweightList[488].weights
p385
(dp386
g3
I01
sg4
I01
sg7
I00
sg5
VTdataCompound
p387
ssVdropoff[79]
p388
(dp389
g3
I00
sg5
Vdouble
p390
sg4
I00
sg35
I00
sg7
I01
sg8
(lp391
ssVweightList[0].weights[199]
p392
(dp393
g3
I00
sg8
(lp394
ssVweightList[107].weights
p395
(dp396
g3
I01
sg4
I01
sg7
I00
sg5
VTdataCompound
p397
ssVweightList[489].weights
p398
(dp399
g3
I01
sg4
I01
sg7
I00
sg5
VTdataCompound
p400
ssVweightList[91].weights
p401
(dp402
g3
I01
sg4
I01
sg7
I00
sg5
VTdataCompound
p403
ssVweightList[199].weights
p404
(dp405
g3
I01
sg4
I01
sg7
I00
sg5
VTdataCompound
p406
ssVweightList[516].weights
p407
(dp408
g3
I01
sg4
I01
sg7
I00
sg5
VTdataCompound
p409
ssVdropoff[26]
p410
(dp411
g3
I00
sg5
Vdouble
p412
sg4
I00
sg35
I00
sg7
I01
sg8
(lp413
ssVbindPreMatrix[10]
p414
(dp415
g3
I00
sg4
I00
sg5
Vmatrix
p416
sg7
I00
sg8
(lp417
ssVweightList[142].weights
p418
(dp419
g3
I01
sg4
I01
sg7
I00
sg5
VTdataCompound
p420
ssVmatrix[79]
p421
(dp422
g3
I00
sg4
I00
sg5
Vmatrix
p423
sg7
I00
sg8
(lp424
ssVbindPreMatrix[44]
p425
(dp426
g3
I00
sg4
I00
sg5
Vmatrix
p427
sg7
I00
sg8
(lp428
ssVweightList[96]
p429
(dp430
g3
I00
sg4
I00
sg5
VTdataCompound
p431
sg7
I00
sg8
(lp432
VweightList[96].weights
p433
assVlockWeights[80]
p434
(dp435
g3
I00
sg5
Vbool
p436
sg4
I00
sg35
I00
sg7
I01
sg8
(lp437
ssVbindPreMatrix[68]
p438
(dp439
g3
I00
sg4
I00
sg5
Vmatrix
p440
sg7
I00
sg8
(lp441
ssVweightList[472].weights
p442
(dp443
g3
I01
sg4
I01
sg7
I00
sg5
VTdataCompound
p444
ssVmatrix[46]
p445
(dp446
g3
I00
sg4
I00
sg5
Vmatrix
p447
sg7
I00
sg8
(lp448
ssVweightList[120]
p449
(dp450
g3
I00
sg4
I00
sg5
VTdataCompound
p451
sg7
I00
sg8
(lp452
VweightList[120].weights
p453
assVweightList[175]
p454
(dp455
g3
I00
sg4
I00
sg5
VTdataCompound
p456
sg7
I00
sg8
(lp457
VweightList[175].weights
p458
assVdropoff[86]
p459
(dp460
g3
I00
sg5
Vdouble
p461
sg4
I00
sg35
I00
sg7
I01
sg8
(lp462
ssVdropoff[31]
p463
(dp464
g3
I00
sg5
Vdouble
p465
sg4
I00
sg35
I00
sg7
I01
sg8
(lp466
ssVweightList[124].weights
p467
(dp468
g3
I01
sg4
I01
sg7
I00
sg5
VTdataCompound
p469
ssVdropoff[189]
p470
(dp471
g3
I00
sg5
Vdouble
p472
sg4
I00
sg35
I00
sg7
I01
sg8
(lp473
ssVweightList[353]
p474
(dp475
g3
I00
sg4
I00
sg5
VTdataCompound
p476
sg7
I00
sg8
(lp477
VweightList[353].weights
p478
assVweightList[144].weights
p479
(dp480
g3
I01
sg4
I01
sg7
I00
sg5
VTdataCompound
p481
ssVweightList[461]
p482
(dp483
g3
I00
sg4
I00
sg5
VTdataCompound
p484
sg7
I00
sg8
(lp485
VweightList[461].weights
p486
assVweightList[118].weights
p487
(dp488
g3
I01
sg4
I01
sg7
I00
sg5
VTdataCompound
p489
ssVweightList[257].weights
p490
(dp491
g3
I01
sg4
I01
sg7
I00
sg5
VTdataCompound
p492
ssVweightList[220].weights
p493
(dp494
g3
I01
sg4
I01
sg7
I00
sg5
VTdataCompound
p495
ssVweightList[105].weights
p496
(dp497
g3
I01
sg4
I01
sg7
I00
sg5
VTdataCompound
p498
ssVweightList[287]
p499
(dp500
g3
I00
sg4
I00
sg5
VTdataCompound
p501
sg7
I00
sg8
(lp502
g13
assVweightList[509].weights
p503
(dp504
g3
I01
sg4
I01
sg7
I00
sg5
VTdataCompound
p505
ssVweightList[227]
p506
(dp507
g3
I00
sg4
I00
sg5
VTdataCompound
p508
sg7
I00
sg8
(lp509
VweightList[227].weights
p510
assVweightList[290]
p511
(dp512
g3
I00
sg4
I00
sg5
VTdataCompound
p513
sg7
I00
sg8
(lp514
VweightList[290].weights
p515
assVdropoff[6]
p516
(dp517
g3
I00
sg5
Vdouble
p518
sg4
I00
sg35
I00
sg7
I01
sg8
(lp519
ssVweightList[497].weights
p520
(dp521
g3
I01
sg4
I01
sg7
I00
sg5
VTdataCompound
p522
ssVmatrix[80]
p523
(dp524
g3
I00
sg4
I00
sg5
Vmatrix
p525
sg7
I00
sg8
(lp526
ssVweightList[247]
p527
(dp528
g3
I00
sg4
I00
sg5
VTdataCompound
p529
sg7
I00
sg8
(lp530
VweightList[247].weights
p531
assVweightList[527]
p532
(dp533
g3
I00
sg4
I00
sg5
VTdataCompound
p534
sg7
I00
sg8
(lp535
VweightList[527].weights
p536
assVdropoff[88]
p537
(dp538
g3
I00
sg5
Vdouble
p539
sg4
I00
sg35
I00
sg7
I01
sg8
(lp540
ssVlockWeights[66]
p541
(dp542
g3
I00
sg5
Vbool
p543
sg4
I00
sg35
I00
sg7
I01
sg8
(lp544
ssVweightList[148].weights
p545
(dp546
g3
I01
sg4
I01
sg7
I00
sg5
VTdataCompound
p547
ssVoutputGeometry[1]
p548
(dp549
g3
I00
sg8
(lp550
ssg225
(dp551
g3
I01
sg4
I01
sg7
I00
sg5
VTdataCompound
p552
ssVweightList[137]
p553
(dp554
g3
I00
sg4
I00
sg5
VTdataCompound
p555
sg7
I00
sg8
(lp556
VweightList[137].weights
p557
assVweightList[2]
p558
(dp559
g3
I00
sg4
I00
sg5
VTdataCompound
p560
sg7
I00
sg8
(lp561
VweightList[2].weights
p562
assg206
(dp563
g3
I01
sg4
I01
sg7
I00
sg5
VTdataCompound
p564
ssVdropoff[110]
p565
(dp566
g3
I00
sg5
Vdouble
p567
sg4
I00
sg35
I00
sg7
I01
sg8
(lp568
ssVmatrix[93]
p569
(dp570
g3
I00
sg4
I00
sg5
Vmatrix
p571
sg7
I00
sg8
(lp572
ssVweightList[450]
p573
(dp574
g3
I00
sg4
I00
sg5
VTdataCompound
p575
sg7
I00
sg8
(lp576
g59
assVweightList[157]
p577
(dp578
g3
I00
sg4
I00
sg5
VTdataCompound
p579
sg7
I00
sg8
(lp580
VweightList[157].weights
p581
assVweightList[239].weights
p582
(dp583
g3
I01
sg4
I01
sg7
I00
sg5
VTdataCompound
p584
ssVweightList[505]
p585
(dp586
g3
I00
sg4
I00
sg5
VTdataCompound
p587
sg7
I00
sg8
(lp588
VweightList[505].weights
p589
assVweightList[256].weights
p590
(dp591
g3
I01
sg4
I01
sg7
I00
sg5
VTdataCompound
p592
ssVmatrix[141]
p593
(dp594
g3
I00
sg4
I00
sg5
Vmatrix
p595
sg7
I00
sg8
(lp596
ssVweightList[229]
p597
(dp598
g3
I00
sg4
I00
sg5
VTdataCompound
p599
sg7
I00
sg8
(lp600
VweightList[229].weights
p601
assVdropoff[109]
p602
(dp603
g3
I00
sg5
Vdouble
p604
sg4
I00
sg35
I00
sg7
I01
sg8
(lp605
ssVweightList[269].weights
p606
(dp607
g3
I01
sg4
I01
sg7
I00
sg5
VTdataCompound
p608
ssVmatrix[128]
p609
(dp610
g3
I00
sg4
I00
sg5
Vmatrix
p611
sg7
I00
sg8
(lp612
ssVmatrix[193]
p613
(dp614
g3
I00
sg4
I00
sg5
Vmatrix
p615
sg7
I00
sg8
(lp616
ssVweightList[477].weights
p617
(dp618
g3
I01
sg4
I01
sg7
I00
sg5
VTdataCompound
p619
ssVweightList[104].weights
p620
(dp621
g3
I01
sg4
I01
sg7
I00
sg5
VTdataCompound
p622
ssVbindPreMatrix[9]
p623
(dp624
g3
I00
sg4
I00
sg5
Vmatrix
p625
sg7
I00
sg8
(lp626
ssVweightList[300].weights
p627
(dp628
g3
I01
sg4
I01
sg7
I00
sg5
VTdataCompound
p629
ssVweightList[205]
p630
(dp631
g3
I00
sg4
I00
sg5
VTdataCompound
p632
sg7
I00
sg8
(lp633
VweightList[205].weights
p634
assVweightList[173].weights
p635
(dp636
g3
I01
sg4
I01
sg7
I00
sg5
VTdataCompound
p637
ssVweightList[272]
p638
(dp639
g3
I00
sg4
I00
sg5
VTdataCompound
p640
sg7
I00
sg8
(lp641
VweightList[272].weights
p642
assVmatrix[155]
p643
(dp644
g3
I00
sg4
I00
sg5
Vmatrix
p645
sg7
I00
sg8
(lp646
ssg433
(dp647
g3
I01
sg4
I01
sg7
I00
sg5
VTdataCompound
p648
ssVmatrix[160]
p649
(dp650
g3
I00
sg4
I00
sg5
Vmatrix
p651
sg7
I00
sg8
(lp652
ssVweightList[62]
p653
(dp654
g3
I00
sg4
I00
sg5
VTdataCompound
p655
sg7
I00
sg8
(lp656
VweightList[62].weights
p657
assVweightList[476].weights
p658
(dp659
g3
I01
sg4
I01
sg7
I00
sg5
VTdataCompound
p660
ssVlockWeights[47]
p661
(dp662
g3
I00
sg5
Vbool
p663
sg4
I00
sg35
I00
sg7
I01
sg8
(lp664
ssVweightList[152].weights
p665
(dp666
g3
I01
sg4
I01
sg7
I00
sg5
VTdataCompound
p667
ssVweightList[258]
p668
(dp669
g3
I00
sg4
I00
sg5
VTdataCompound
p670
sg7
I00
sg8
(lp671
VweightList[258].weights
p672
assVweightList[155].weights
p673
(dp674
g3
I01
sg4
I01
sg7
I00
sg5
VTdataCompound
p675
ssVweightList[259].weights
p676
(dp677
g3
I01
sg4
I01
sg7
I00
sg5
VTdataCompound
p678
ssVmatrix[111]
p679
(dp680
g3
I00
sg4
I00
sg5
Vmatrix
p681
sg7
I00
sg8
(lp682
ssVdropoff[209]
p683
(dp684
g3
I00
sg5
Vdouble
p685
sg4
I00
sg35
I00
sg7
I01
sg8
(lp686
ssVlockWeights[209]
p687
(dp688
g3
I00
sg5
Vbool
p689
sg4
I00
sg35
I00
sg7
I01
sg8
(lp690
ssVweightList[164].weights
p691
(dp692
g3
I01
sg4
I01
sg7
I00
sg5
VTdataCompound
p693
ssVweightList[547]
p694
(dp695
g3
I00
sg8
(lp696
VweightList[547].weights
p697
assVlockWeights[27]
p698
(dp699
g3
I00
sg5
Vbool
p700
sg4
I00
sg35
I00
sg7
I01
sg8
(lp701
ssVweightList[261]
p702
(dp703
g3
I00
sg4
I00
sg5
VTdataCompound
p704
sg7
I00
sg8
(lp705
VweightList[261].weights
p706
assVmatrix[32]
p707
(dp708
g3
I00
sg4
I00
sg5
Vmatrix
p709
sg7
I00
sg8
(lp710
ssVweightList[15]
p711
(dp712
g3
I00
sg4
I00
sg5
VTdataCompound
p713
sg7
I00
sg8
(lp714
VweightList[15].weights
p715
assVmatrix[142]
p716
(dp717
g3
I00
sg4
I00
sg5
Vmatrix
p718
sg7
I00
sg8
(lp719
ssVweightList[40]
p720
(dp721
g3
I00
sg4
I00
sg5
VTdataCompound
p722
sg7
I00
sg8
(lp723
VweightList[40].weights
p724
assg634
(dp725
g3
I01
sg4
I01
sg7
I00
sg5
VTdataCompound
p726
ssVbindPreMatrix[7]
p727
(dp728
g3
I00
sg4
I00
sg5
Vmatrix
p729
sg7
I00
sg8
(lp730
ssVlockWeights[12]
p731
(dp732
g3
I00
sg5
Vbool
p733
sg4
I00
sg35
I00
sg7
I01
sg8
(lp734
ssVweightList[39]
p735
(dp736
g3
I00
sg4
I00
sg5
VTdataCompound
p737
sg7
I00
sg8
(lp738
VweightList[39].weights
p739
assVweightList[196]
p740
(dp741
g3
I00
sg4
I00
sg5
VTdataCompound
p742
sg7
I00
sg8
(lp743
VweightList[196].weights
p744
assVweightList[305]
p745
(dp746
g3
I00
sg4
I00
sg5
VTdataCompound
p747
sg7
I00
sg8
(lp748
VweightList[305].weights
p749
assVweightList[345]
p750
(dp751
g3
I00
sg4
I00
sg5
VTdataCompound
p752
sg7
I00
sg8
(lp753
VweightList[345].weights
p754
assVweightList[192].weights
p755
(dp756
g3
I01
sg4
I01
sg7
I00
sg5
VTdataCompound
p757
ssVbindPreMatrix[114]
p758
(dp759
g3
I00
sg4
I00
sg5
Vmatrix
p760
sg7
I00
sg8
(lp761
ssVweightList[144]
p762
(dp763
g3
I00
sg4
I00
sg5
VTdataCompound
p764
sg7
I00
sg8
(lp765
g479
assVlockWeights[5]
p766
(dp767
g3
I00
sg5
Vbool
p768
sg4
I00
sg35
I00
sg7
I01
sg8
(lp769
ssVbindPreMatrix[147]
p770
(dp771
g3
I00
sg4
I00
sg5
Vmatrix
p772
sg7
I00
sg8
(lp773
ssVdropoff[140]
p774
(dp775
g3
I00
sg5
Vdouble
p776
sg4
I00
sg35
I00
sg7
I01
sg8
(lp777
ssVlockWeights[154]
p778
(dp779
g3
I00
sg5
Vbool
p780
sg4
I00
sg35
I00
sg7
I01
sg8
(lp781
ssVweightList[318]
p782
(dp783
g3
I00
sg4
I00
sg5
VTdataCompound
p784
sg7
I00
sg8
(lp785
VweightList[318].weights
p786
assVweightList[212]
p787
(dp788
g3
I00
sg4
I00
sg5
VTdataCompound
p789
sg7
I00
sg8
(lp790
VweightList[212].weights
p791
assVmatrix[173]
p792
(dp793
g3
I00
sg4
I00
sg5
Vmatrix
p794
sg7
I00
sg8
(lp795
ssVbindPreMatrix[109]
p796
(dp797
g3
I00
sg4
I00
sg5
Vmatrix
p798
sg7
I00
sg8
(lp799
ssVdropoff[154]
p800
(dp801
g3
I00
sg5
Vdouble
p802
sg4
I00
sg35
I00
sg7
I01
sg8
(lp803
ssVdropoff[155]
p804
(dp805
g3
I00
sg5
Vdouble
p806
sg4
I00
sg35
I00
sg7
I01
sg8
(lp807
ssVlockWeights[29]
p808
(dp809
g3
I00
sg5
Vbool
p810
sg4
I00
sg35
I00
sg7
I01
sg8
(lp811
ssg106
(dp812
g3
I01
sg4
I01
sg7
I00
sg5
VTdataCompound
p813
ssVbindPreMatrix[87]
p814
(dp815
g3
I00
sg4
I00
sg5
Vmatrix
p816
sg7
I00
sg8
(lp817
ssVweightList[73].weights
p818
(dp819
g3
I01
sg4
I01
sg7
I00
sg5
VTdataCompound
p820
ssVmatrix[3]
p821
(dp822
g3
I00
sg4
I00
sg5
Vmatrix
p823
sg7
I00
sg8
(lp824
ssVlockWeights[109]
p825
(dp826
g3
I00
sg5
Vbool
p827
sg4
I00
sg35
I00
sg7
I01
sg8
(lp828
ssVweightList.weights
p829
(dp830
S'attrParentLongName'
p831
VweightList
p832
ssVweightList[528].weights
p833
(dp834
g3
I01
sg4
I01
sg7
I00
sg5
VTdataCompound
p835
ssVweightList[61].weights
p836
(dp837
g3
I01
sg4
I01
sg7
I00
sg5
VTdataCompound
p838
ssVbindPreMatrix[30]
p839
(dp840
g3
I00
sg4
I00
sg5
Vmatrix
p841
sg7
I00
sg8
(lp842
ssVweightList[71]
p843
(dp844
g3
I00
sg4
I00
sg5
VTdataCompound
p845
sg7
I00
sg8
(lp846
g16
assVweightList[303]
p847
(dp848
g3
I00
sg4
I00
sg5
VTdataCompound
p849
sg7
I00
sg8
(lp850
VweightList[303].weights
p851
assg220
(dp852
g3
I01
sg4
I01
sg7
I00
sg5
VTdataCompound
p853
ssVweightList[169].weights
p854
(dp855
g3
I01
sg4
I01
sg7
I00
sg5
VTdataCompound
p856
ssVweightList[125].weights
p857
(dp858
g3
I01
sg4
I01
sg7
I00
sg5
VTdataCompound
p859
ssVmatrix[78]
p860
(dp861
g3
I00
sg4
I00
sg5
Vmatrix
p862
sg7
I00
sg8
(lp863
ssVweightList[88]
p864
(dp865
g3
I00
sg4
I00
sg5
VTdataCompound
p866
sg7
I00
sg8
(lp867
VweightList[88].weights
p868
assVbindPreMatrix[45]
p869
(dp870
g3
I00
sg4
I00
sg5
Vmatrix
p871
sg7
I00
sg8
(lp872
ssVdropoff[25]
p873
(dp874
g3
I00
sg5
Vdouble
p875
sg4
I00
sg35
I00
sg7
I01
sg8
(lp876
ssVdropoff[52]
p877
(dp878
g3
I00
sg5
Vdouble
p879
sg4
I00
sg35
I00
sg7
I01
sg8
(lp880
ssVmatrix[47]
p881
(dp882
g3
I00
sg4
I00
sg5
Vmatrix
p883
sg7
I00
sg8
(lp884
ssVweightList[97]
p885
(dp886
g3
I00
sg4
I00
sg5
VTdataCompound
p887
sg7
I00
sg8
(lp888
VweightList[97].weights
p889
assVbindPreMatrix[69]
p890
(dp891
g3
I00
sg4
I00
sg5
Vmatrix
p892
sg7
I00
sg8
(lp893
ssVdropoff[32]
p894
(dp895
g3
I00
sg5
Vdouble
p896
sg4
I00
sg35
I00
sg7
I01
sg8
(lp897
ssVweightList[174]
p898
(dp899
g3
I00
sg4
I00
sg5
VTdataCompound
p900
sg7
I00
sg8
(lp901
VweightList[174].weights
p902
assVdropoff[63]
p903
(dp904
g3
I00
sg5
Vdouble
p905
sg4
I00
sg35
I00
sg7
I01
sg8
(lp906
ssVweightList[499]
p907
(dp908
g3
I00
sg4
I00
sg5
VTdataCompound
p909
sg7
I00
sg8
(lp910
VweightList[499].weights
p911
assVweightList[121]
p912
(dp913
g3
I00
sg4
I00
sg5
VTdataCompound
p914
sg7
I00
sg8
(lp915
VweightList[121].weights
p916
assVweightList[352]
p917
(dp918
g3
I00
sg4
I00
sg5
VTdataCompound
p919
sg7
I00
sg8
(lp920
VweightList[352].weights
p921
assVdropoff[41]
p922
(dp923
g3
I00
sg5
Vdouble
p924
sg4
I00
sg35
I00
sg7
I01
sg8
(lp925
ssVweightList[473].weights
p926
(dp927
g3
I01
sg4
I01
sg7
I00
sg5
VTdataCompound
p928
ssVlockWeights[183]
p929
(dp930
g3
I00
sg5
Vbool
p931
sg4
I00
sg35
I00
sg7
I01
sg8
(lp932
ssVdropoff[171]
p933
(dp934
g3
I00
sg5
Vdouble
p935
sg4
I00
sg35
I00
sg7
I01
sg8
(lp936
ssVweightList[181]
p937
(dp938
g3
I00
sg4
I00
sg5
VTdataCompound
p939
sg7
I00
sg8
(lp940
VweightList[181].weights
p941
assVfunction.fchild3
p942
(dp943
g3
I00
sg5
Vlong
p944
sg4
I00
sg35
I00
sg7
I01
sg8
(lp945
ssg111
(dp946
g3
I01
sg4
I01
sg7
I00
sg5
VTdataCompound
p947
ssVweightList[57]
p948
(dp949
g3
I00
sg4
I00
sg5
VTdataCompound
p950
sg7
I00
sg8
(lp951
VweightList[57].weights
p952
assVmatrix[25]
p953
(dp954
g3
I00
sg4
I00
sg5
Vmatrix
p955
sg7
I00
sg8
(lp956
ssVweightList[147].weights
p957
(dp958
g3
I01
sg4
I01
sg7
I00
sg5
VTdataCompound
p959
ssVweightList[204].weights
p960
(dp961
g3
I01
sg4
I01
sg7
I00
sg5
VTdataCompound
p962
ssVweightList[398]
p963
(dp964
g3
I00
sg4
I00
sg5
VTdataCompound
p965
sg7
I00
sg8
(lp966
VweightList[398].weights
p967
assVweightList[323]
p968
(dp969
g3
I00
sg4
I00
sg5
VTdataCompound
p970
sg7
I00
sg8
(lp971
VweightList[323].weights
p972
assg715
(dp973
g3
I01
sg4
I01
sg7
I00
sg5
VTdataCompound
p974
ssVlockWeights[172]
p975
(dp976
g3
I00
sg5
Vbool
p977
sg4
I00
sg35
I00
sg7
I01
sg8
(lp978
ssVoutputGeometry[0]
p979
(dp980
g3
I00
sg4
I00
sg5
Vmesh
p981
sg7
I00
sg8
(lp982
ssVbindPreMatrix[150]
p983
(dp984
g3
I00
sg4
I00
sg5
Vmatrix
p985
sg7
I00
sg8
(lp986
ssVweightList[375].weights
p987
(dp988
g3
I01
sg4
I01
sg7
I00
sg5
VTdataCompound
p989
ssVweightList[286].weights
p990
(dp991
g3
I01
sg4
I01
sg7
I00
sg5
VTdataCompound
p992
ssVweightList[395]
p993
(dp994
g3
I00
sg4
I00
sg5
VTdataCompound
p995
sg7
I00
sg8
(lp996
VweightList[395].weights
p997
assVlockWeights[61]
p998
(dp999
g3
I00
sg5
Vbool
p1000
sg4
I00
sg35
I00
sg7
I01
sg8
(lp1001
ssVweightList[419]
p1002
(dp1003
g3
I00
sg4
I00
sg5
VTdataCompound
p1004
sg7
I00
sg8
(lp1005
VweightList[419].weights
p1006
assVweightList[5]
p1007
(dp1008
g3
I00
sg4
I00
sg5
VTdataCompound
p1009
sg7
I00
sg8
(lp1010
VweightList[5].weights
p1011
assVweightList[136]
p1012
(dp1013
g3
I00
sg4
I00
sg5
VTdataCompound
p1014
sg7
I00
sg8
(lp1015
VweightList[136].weights
p1016
assVmatrix[92]
p1017
(dp1018
g3
I00
sg4
I00
sg5
Vmatrix
p1019
sg7
I00
sg8
(lp1020
ssVweightList[58].weights
p1021
(dp1022
g3
I01
sg4
I01
sg7
I00
sg5
VTdataCompound
p1023
ssVweightList[0].weights[63]
p1024
(dp1025
g3
I00
sg5
Vdouble
p1026
sg4
I00
sg35
I00
sg7
I01
sg8
(lp1027
ssVbinMembership
p1028
(dp1029
g3
I00
sg5
Vstring
p1030
sg4
I00
sg35
I00
sg7
I01
sg8
(lp1031
ssVmatrix[144]
p1032
(dp1033
g3
I00
sg4
I00
sg5
Vmatrix
p1034
sg7
I00
sg8
(lp1035
ssVweightList[23].weights
p1036
(dp1037
g3
I01
sg4
I01
sg7
I00
sg5
VTdataCompound
p1038
ssVweightList[451]
p1039
(dp1040
g3
I00
sg4
I00
sg5
VTdataCompound
p1041
sg7
I00
sg8
(lp1042
g19
assVweightList[506]
p1043
(dp1044
g3
I00
sg4
I00
sg5
VTdataCompound
p1045
sg7
I00
sg8
(lp1046
VweightList[506].weights
p1047
assVweightList[381]
p1048
(dp1049
g3
I00
sg4
I00
sg5
VTdataCompound
p1050
sg7
I00
sg8
(lp1051
VweightList[381].weights
p1052
assVweightList[36].weights
p1053
(dp1054
g3
I01
sg4
I01
sg7
I00
sg5
VTdataCompound
p1055
ssVweightList[330].weights
p1056
(dp1057
g3
I01
sg4
I01
sg7
I00
sg5
VTdataCompound
p1058
ssVmatrix[67]
p1059
(dp1060
g3
I00
sg4
I00
sg5
Vmatrix
p1061
sg7
I00
sg8
(lp1062
ssg328
(dp1063
g3
I01
sg4
I01
sg7
I00
sg5
VTdataCompound
p1064
ssVweightList[158]
p1065
(dp1066
g3
I00
sg4
I00
sg5
VTdataCompound
p1067
sg7
I00
sg8
(lp1068
VweightList[158].weights
p1069
assVdriverPoints[0]
p1070
(dp1071
g3
I00
sg8
(lp1072
ssVweightList[442]
p1073
(dp1074
g3
I00
sg4
I00
sg5
VTdataCompound
p1075
sg7
I00
sg8
(lp1076
VweightList[442].weights
p1077
assVdropoff[74]
p1078
(dp1079
g3
I00
sg5
Vdouble
p1080
sg4
I00
sg35
I00
sg7
I01
sg8
(lp1081
ssg941
(dp1082
g3
I01
sg4
I01
sg7
I00
sg5
VTdataCompound
p1083
ssVweightList[218].weights
p1084
(dp1085
g3
I01
sg4
I01
sg7
I00
sg5
VTdataCompound
p1086
ssVweightList[317].weights
p1087
(dp1088
g3
I01
sg4
I01
sg7
I00
sg5
VTdataCompound
p1089
ssVbindPreMatrix[189]
p1090
(dp1091
g3
I00
sg4
I00
sg5
Vmatrix
p1092
sg7
I00
sg8
(lp1093
ssVlockWeights[90]
p1094
(dp1095
g3
I00
sg5
Vbool
p1096
sg4
I00
sg35
I00
sg7
I01
sg8
(lp1097
ssVbindPreMatrix[63]
p1098
(dp1099
g3
I00
sg4
I00
sg5
Vmatrix
p1100
sg7
I00
sg8
(lp1101
ssVlockWeights[46]
p1102
(dp1103
g3
I00
sg5
Vbool
p1104
sg4
I00
sg35
I00
sg7
I01
sg8
(lp1105
ssVweightList[460].weights
p1106
(dp1107
g3
I01
sg4
I01
sg7
I00
sg5
VTdataCompound
p1108
ssVweightList[414]
p1109
(dp1110
g3
I00
sg4
I00
sg5
VTdataCompound
p1111
sg7
I00
sg8
(lp1112
VweightList[414].weights
p1113
assVweightList[259]
p1114
(dp1115
g3
I00
sg4
I00
sg5
VTdataCompound
p1116
sg7
I00
sg8
(lp1117
g676
assVdropoff[196]
p1118
(dp1119
g3
I00
sg5
Vdouble
p1120
sg4
I00
sg35
I00
sg7
I01
sg8
(lp1121
ssVweightList[537].weights
p1122
(dp1123
g3
I01
sg4
I01
sg7
I00
sg5
VTdataCompound
p1124
ssVlockWeights[208]
p1125
(dp1126
g3
I00
sg5
Vbool
p1127
sg4
I00
sg35
I00
sg7
I01
sg8
(lp1128
ssVdropoff[139]
p1129
(dp1130
g3
I00
sg5
Vdouble
p1131
sg4
I00
sg35
I00
sg7
I01
sg8
(lp1132
ssVmatrix[112]
p1133
(dp1134
g3
I00
sg4
I00
sg5
Vmatrix
p1135
sg7
I00
sg8
(lp1136
ssVmatrix[119]
p1137
(dp1138
g3
I00
sg4
I00
sg5
Vmatrix
p1139
sg7
I00
sg8
(lp1140
ssVdropoff[115]
p1141
(dp1142
g3
I00
sg5
Vdouble
p1143
sg4
I00
sg35
I00
sg7
I01
sg8
(lp1144
ssVweightList[93].weights
p1145
(dp1146
g3
I01
sg4
I01
sg7
I00
sg5
VTdataCompound
p1147
ssVweightList[260]
p1148
(dp1149
g3
I00
sg4
I00
sg5
VTdataCompound
p1150
sg7
I00
sg8
(lp1151
VweightList[260].weights
p1152
assVlockWeights[26]
p1153
(dp1154
g3
I00
sg5
Vbool
p1155
sg4
I00
sg35
I00
sg7
I01
sg8
(lp1156
ssVlockWeights[72]
p1157
(dp1158
g3
I00
sg5
Vbool
p1159
sg4
I00
sg35
I00
sg7
I01
sg8
(lp1160
ssg581
(dp1161
g3
I01
sg4
I01
sg7
I00
sg5
VTdataCompound
p1162
ssVweightList[523].weights
p1163
(dp1164
g3
I01
sg4
I01
sg7
I00
sg5
VTdataCompound
p1165
ssVweightList[460]
p1166
(dp1167
g3
I00
sg4
I00
sg5
VTdataCompound
p1168
sg7
I00
sg8
(lp1169
g1106
assVweightList[286]
p1170
(dp1171
g3
I00
sg4
I00
sg5
VTdataCompound
p1172
sg7
I00
sg8
(lp1173
g990
assVweightList[423].weights
p1174
(dp1175
g3
I01
sg4
I01
sg7
I00
sg5
VTdataCompound
p1176
ssVweightList[524]
p1177
(dp1178
g3
I00
sg4
I00
sg5
VTdataCompound
p1179
sg7
I00
sg8
(lp1180
VweightList[524].weights
p1181
assVweightList[494].weights
p1182
(dp1183
g3
I01
sg4
I01
sg7
I00
sg5
VTdataCompound
p1184
ssVweightList[117]
p1185
(dp1186
g3
I00
sg4
I00
sg5
VTdataCompound
p1187
sg7
I00
sg8
(lp1188
VweightList[117].weights
p1189
assVmatrix[81]
p1190
(dp1191
g3
I00
sg4
I00
sg5
Vmatrix
p1192
sg7
I00
sg8
(lp1193
ssVweightList[291]
p1194
(dp1195
g3
I00
sg4
I00
sg5
VTdataCompound
p1196
sg7
I00
sg8
(lp1197
VweightList[291].weights
p1198
assVmatrix[129]
p1199
(dp1200
g3
I00
sg4
I00
sg5
Vmatrix
p1201
sg7
I00
sg8
(lp1202
ssVweightList[226]
p1203
(dp1204
g3
I00
sg4
I00
sg5
VTdataCompound
p1205
sg7
I00
sg8
(lp1206
VweightList[226].weights
p1207
assVweightList[176].weights
p1208
(dp1209
g3
I01
sg4
I01
sg7
I00
sg5
VTdataCompound
p1210
ssVweightList[401]
p1211
(dp1212
g3
I00
sg4
I00
sg5
VTdataCompound
p1213
sg7
I00
sg8
(lp1214
VweightList[401].weights
p1215
assVweightList[246]
p1216
(dp1217
g3
I00
sg4
I00
sg5
VTdataCompound
p1218
sg7
I00
sg8
(lp1219
VweightList[246].weights
p1220
assVdropoff[5]
p1221
(dp1222
g3
I00
sg5
Vdouble
p1223
sg4
I00
sg35
I00
sg7
I01
sg8
(lp1224
ssVdropoff[137]
p1225
(dp1226
g3
I00
sg5
Vdouble
p1227
sg4
I00
sg35
I00
sg7
I01
sg8
(lp1228
ssVweightList[405].weights
p1229
(dp1230
g3
I01
sg4
I01
sg7
I00
sg5
VTdataCompound
p1231
ssVweightList[447].weights
p1232
(dp1233
g3
I01
sg4
I01
sg7
I00
sg5
VTdataCompound
p1234
ssVbindPreMatrix[108]
p1235
(dp1236
g3
I00
sg4
I00
sg5
Vmatrix
p1237
sg7
I00
sg8
(lp1238
ssVweightList[213]
p1239
(dp1240
g3
I00
sg4
I00
sg5
VTdataCompound
p1241
sg7
I00
sg8
(lp1242
VweightList[213].weights
p1243
assVlockWeights[28]
p1244
(dp1245
g3
I00
sg5
Vbool
p1246
sg4
I00
sg35
I00
sg7
I01
sg8
(lp1247
ssVbindPreMatrix[84]
p1248
(dp1249
g3
I00
sg4
I00
sg5
Vmatrix
p1250
sg7
I00
sg8
(lp1251
ssg248
(dp1252
g3
I01
sg4
I01
sg7
I00
sg5
VTdataCompound
p1253
ssVweightList[107]
p1254
(dp1255
g3
I00
sg4
I00
sg5
VTdataCompound
p1256
sg7
I00
sg8
(lp1257
g395
assVisHistoricallyInteresting
p1258
(dp1259
g3
I00
sg4
I00
sg5
Vbyte
p1260
sg7
I00
sg8
(lp1261
ssVweightList[17].weights[59]
p1262
(dp1263
g3
I00
sg5
Vdouble
p1264
sg4
I00
sg35
I00
sg7
I01
sg8
(lp1265
ssVbindPreMatrix[99]
p1266
(dp1267
g3
I00
sg4
I00
sg5
Vmatrix
p1268
sg7
I00
sg8
(lp1269
ssg358
(dp1270
g3
I01
sg4
I01
sg7
I00
sg5
VTdataCompound
p1271
ssVdropoff[157]
p1272
(dp1273
g3
I00
sg5
Vdouble
p1274
sg4
I00
sg35
I00
sg7
I01
sg8
(lp1275
ssVmatrix[170]
p1276
(dp1277
g3
I00
sg4
I00
sg5
Vmatrix
p1278
sg7
I00
sg8
(lp1279
ssVmatrix[125]
p1280
(dp1281
g3
I00
sg4
I00
sg5
Vmatrix
p1282
sg7
I00
sg8
(lp1283
ssVweightList[76]
p1284
(dp1285
g3
I00
sg4
I00
sg5
VTdataCompound
p1286
sg7
I00
sg8
(lp1287
g376
assVinput[0].groupId
p1288
(dp1289
g3
I00
sg5
Vlong
p1290
sg4
I00
sg35
I00
sg7
I01
sg8
(lp1291
ssVweightList[228]
p1292
(dp1293
g3
I00
sg4
I00
sg5
VTdataCompound
p1294
sg7
I00
sg8
(lp1295
VweightList[228].weights
p1296
assVweightList[507].weights
p1297
(dp1298
g3
I01
sg4
I01
sg7
I00
sg5
VTdataCompound
p1299
ssVweightList[134].weights
p1300
(dp1301
g3
I01
sg4
I01
sg7
I00
sg5
VTdataCompound
p1302
ssVweightList[133].weights
p1303
(dp1304
g3
I01
sg4
I01
sg7
I00
sg5
VTdataCompound
p1305
ssVinput
p1306
(dp1307
g3
I01
sg4
I01
sg7
I00
sg5
VTdataCompound
p1308
ssVweightList[233].weights
p1309
(dp1310
g3
I01
sg4
I01
sg7
I00
sg5
VTdataCompound
p1311
ssg1011
(dp1312
g3
I01
sg4
I01
sg7
I00
sg5
VTdataCompound
p1313
ssVdropoff[122]
p1314
(dp1315
g3
I00
sg5
Vdouble
p1316
sg4
I00
sg35
I00
sg7
I01
sg8
(lp1317
ssVmatrix[138]
p1318
(dp1319
g3
I00
sg4
I00
sg5
Vmatrix
p1320
sg7
I00
sg8
(lp1321
ssVweightList[51].weights
p1322
(dp1323
g3
I01
sg4
I01
sg7
I00
sg5
VTdataCompound
p1324
ssVweightList[273]
p1325
(dp1326
g3
I00
sg4
I00
sg5
VTdataCompound
p1327
sg7
I00
sg8
(lp1328
VweightList[273].weights
p1329
assg601
(dp1330
g3
I01
sg4
I01
sg7
I00
sg5
VTdataCompound
p1331
ssVweightList[204]
p1332
(dp1333
g3
I00
sg4
I00
sg5
VTdataCompound
p1334
sg7
I00
sg8
(lp1335
g960
assVmatrix[163]
p1336
(dp1337
g3
I00
sg4
I00
sg5
Vmatrix
p1338
sg7
I00
sg8
(lp1339
ssVdropoff[40]
p1340
(dp1341
g3
I00
sg5
Vdouble
p1342
sg4
I00
sg35
I00
sg7
I01
sg8
(lp1343
ssVdropoff[200]
p1344
(dp1345
g3
I00
sg5
Vdouble
p1346
sg4
I00
sg35
I00
sg7
I01
sg8
(lp1347
ssg453
(dp1348
g3
I01
sg4
I01
sg7
I00
sg5
VTdataCompound
p1349
ssVbindPreMatrix[19]
p1350
(dp1351
g3
I00
sg4
I00
sg5
Vmatrix
p1352
sg7
I00
sg8
(lp1353
ssVlockWeights[184]
p1354
(dp1355
g3
I00
sg5
Vbool
p1356
sg4
I00
sg35
I00
sg7
I01
sg8
(lp1357
ssVweightList[182]
p1358
(dp1359
g3
I00
sg4
I00
sg5
VTdataCompound
p1360
sg7
I00
sg8
(lp1361
VweightList[182].weights
p1362
assVmatrix[26]
p1363
(dp1364
g3
I00
sg4
I00
sg5
Vmatrix
p1365
sg7
I00
sg8
(lp1366
ssVweightList[50]
p1367
(dp1368
g3
I00
sg4
I00
sg5
VTdataCompound
p1369
sg7
I00
sg8
(lp1370
VweightList[50].weights
p1371
assVweightList[18]
p1372
(dp1373
g3
I00
sg4
I00
sg5
VTdataCompound
p1374
sg7
I00
sg8
(lp1375
VweightList[18].weights
p1376
assVbindPreMatrix[51]
p1377
(dp1378
g3
I00
sg4
I00
sg5
Vmatrix
p1379
sg7
I00
sg8
(lp1380
ssVlockWeights[144]
p1381
(dp1382
g3
I00
sg5
Vbool
p1383
sg4
I00
sg35
I00
sg7
I01
sg8
(lp1384
ssVweightList[504].weights
p1385
(dp1386
g3
I01
sg4
I01
sg7
I00
sg5
VTdataCompound
p1387
ssVdropoff[170]
p1388
(dp1389
g3
I00
sg5
Vdouble
p1390
sg4
I00
sg35
I00
sg7
I01
sg8
(lp1391
ssVweightList[308]
p1392
(dp1393
g3
I00
sg4
I00
sg5
VTdataCompound
p1394
sg7
I00
sg8
(lp1395
VweightList[308].weights
p1396
assVlockWeights[128]
p1397
(dp1398
g3
I00
sg5
Vbool
p1399
sg4
I00
sg35
I00
sg7
I01
sg8
(lp1400
ssg1181
(dp1401
g3
I01
sg4
I01
sg7
I00
sg5
VTdataCompound
p1402
ssVweightList[373]
p1403
(dp1404
g3
I00
sg4
I00
sg5
VTdataCompound
p1405
sg7
I00
sg8
(lp1406
VweightList[373].weights
p1407
assVbindPreMatrix[151]
p1408
(dp1409
g3
I00
sg4
I00
sg5
Vmatrix
p1410
sg7
I00
sg8
(lp1411
ssVweightList[371].weights
p1412
(dp1413
g3
I01
sg4
I01
sg7
I00
sg5
VTdataCompound
p1414
ssVweightList[195]
p1415
(dp1416
g3
I00
sg4
I00
sg5
VTdataCompound
p1417
sg7
I00
sg8
(lp1418
VweightList[195].weights
p1419
assVinput[1].inputGeometry
p1420
(dp1421
g3
I00
sg8
(lp1422
ssVbindPreMatrix[126]
p1423
(dp1424
g3
I00
sg4
I00
sg5
Vmatrix
p1425
sg7
I00
sg8
(lp1426
ssVweightList[16]
p1427
(dp1428
g3
I00
sg4
I00
sg5
VTdataCompound
p1429
sg7
I00
sg8
(lp1430
VweightList[16].weights
p1431
assVmatrix[154]
p1432
(dp1433
g3
I00
sg4
I00
sg5
Vmatrix
p1434
sg7
I00
sg8
(lp1435
ssVbindPreMatrix[4]
p1436
(dp1437
g3
I00
sg4
I00
sg5
Vmatrix
p1438
sg7
I00
sg8
(lp1439
ssVmatrix[31]
p1440
(dp1441
g3
I00
sg4
I00
sg5
Vmatrix
p1442
sg7
I00
sg8
(lp1443
ssVweightList[0].weights[80]
p1444
(dp1445
g3
I00
sg5
Vdouble
p1446
sg4
I00
sg35
I00
sg7
I01
sg8
(lp1447
ssVweightList[186].weights
p1448
(dp1449
g3
I01
sg4
I01
sg7
I00
sg5
VTdataCompound
p1450
ssVweightList[36]
p1451
(dp1452
g3
I00
sg4
I00
sg5
VTdataCompound
p1453
sg7
I00
sg8
(lp1454
g1053
assVmatrix[186]
p1455
(dp1456
g3
I00
sg4
I00
sg5
Vmatrix
p1457
sg7
I00
sg8
(lp1458
ssVweightList[342]
p1459
(dp1460
g3
I00
sg4
I00
sg5
VTdataCompound
p1461
sg7
I00
sg8
(lp1462
VweightList[342].weights
p1463
assVlockWeights[4]
p1464
(dp1465
g3
I00
sg5
Vbool
p1466
sg4
I00
sg35
I00
sg7
I01
sg8
(lp1467
ssVbindPreMatrix[146]
p1468
(dp1469
g3
I00
sg4
I00
sg5
Vmatrix
p1470
sg7
I00
sg8
(lp1471
ssVbindPreMatrix[20]
p1472
(dp1473
g3
I00
sg4
I00
sg5
Vmatrix
p1474
sg7
I00
sg8
(lp1475
ssVlockWeights[153]
p1476
(dp1477
g3
I00
sg5
Vbool
p1478
sg4
I00
sg35
I00
sg7
I01
sg8
(lp1479
ssVweightList[411].weights
p1480
(dp1481
g3
I01
sg4
I01
sg7
I00
sg5
VTdataCompound
p1482
ssVdropoff[141]
p1483
(dp1484
g3
I00
sg5
Vdouble
p1485
sg4
I00
sg35
I00
sg7
I01
sg8
(lp1486
ssVweightList[103].weights
p1487
(dp1488
g3
I01
sg4
I01
sg7
I00
sg5
VTdataCompound
p1489
ssVweightList[87].weights
p1490
(dp1491
g3
I01
sg4
I01
sg7
I00
sg5
VTdataCompound
p1492
ssVdropoff[33]
p1493
(dp1494
g3
I00
sg5
Vdouble
p1495
sg4
I00
sg35
I00
sg7
I01
sg8
(lp1496
ssVweightList[541].weights
p1497
(dp1498
g3
I01
sg4
I01
sg7
I00
sg5
VTdataCompound
p1499
ssVbindPreMatrix[73]
p1500
(dp1501
g3
I00
sg4
I00
sg5
Vmatrix
p1502
sg7
I00
sg8
(lp1503
ssVlockWeights[126]
p1504
(dp1505
g3
I00
sg5
Vbool
p1506
sg4
I00
sg35
I00
sg7
I01
sg8
(lp1507
ssVmatrix[68]
p1508
(dp1509
g3
I00
sg4
I00
sg5
Vmatrix
p1510
sg7
I00
sg8
(lp1511
ssVdropoff[75]
p1512
(dp1513
g3
I00
sg5
Vdouble
p1514
sg4
I00
sg35
I00
sg7
I01
sg8
(lp1515
ssVweightList[445]
p1516
(dp1517
g3
I00
sg4
I00
sg5
VTdataCompound
p1518
sg7
I00
sg8
(lp1519
VweightList[445].weights
p1520
assVweightList[510]
p1521
(dp1522
g3
I00
sg4
I00
sg5
VTdataCompound
p1523
sg7
I00
sg8
(lp1524
VweightList[510].weights
p1525
assVweightList[429]
p1526
(dp1527
g3
I00
sg4
I00
sg5
VTdataCompound
p1528
sg7
I00
sg8
(lp1529
VweightList[429].weights
p1530
assVlockWeights[199]
p1531
(dp1532
g3
I00
sg5
Vbool
p1533
sg4
I00
sg35
I00
sg7
I01
sg8
(lp1534
ssVbindPreMatrix[188]
p1535
(dp1536
g3
I00
sg4
I00
sg5
Vmatrix
p1537
sg7
I00
sg8
(lp1538
ssg868
(dp1539
g3
I01
sg4
I01
sg7
I00
sg5
VTdataCompound
p1540
ssVweightList[420].weights
p1541
(dp1542
g3
I01
sg4
I01
sg7
I00
sg5
VTdataCompound
p1543
ssg295
(dp1544
g3
I01
sg4
I01
sg7
I00
sg5
VTdataCompound
p1545
ssVlockWeights[91]
p1546
(dp1547
g3
I00
sg5
Vbool
p1548
sg4
I00
sg35
I00
sg7
I01
sg8
(lp1549
ssVweightList[72].weights
p1550
(dp1551
g3
I01
sg4
I01
sg7
I00
sg5
VTdataCompound
p1552
ssVweightList[432].weights
p1553
(dp1554
g3
I01
sg4
I01
sg7
I00
sg5
VTdataCompound
p1555
ssVweightList
p1556
(dp1557
g3
I01
sg4
I01
sg7
I00
sg5
VTdataCompound
p1558
ssg657
(dp1559
g3
I01
sg4
I01
sg7
I00
sg5
VTdataCompound
p1560
ssVweightList[277].weights[211]
p1561
(dp1562
g3
I00
sg8
(lp1563
ssVbindPreMatrix[42]
p1564
(dp1565
g3
I00
sg4
I00
sg5
Vmatrix
p1566
sg7
I00
sg8
(lp1567
ssVweightList[21]
p1568
(dp1569
g3
I00
sg4
I00
sg5
VTdataCompound
p1570
sg7
I00
sg8
(lp1571
VweightList[21].weights
p1572
assVweightList[485]
p1573
(dp1574
g3
I00
sg4
I00
sg5
VTdataCompound
p1575
sg7
I00
sg8
(lp1576
VweightList[485].weights
p1577
assVdropoff[24]
p1578
(dp1579
g3
I00
sg5
Vdouble
p1580
sg4
I00
sg35
I00
sg7
I01
sg8
(lp1581
ssVdropoff[53]
p1582
(dp1583
g3
I00
sg5
Vdouble
p1584
sg4
I00
sg35
I00
sg7
I01
sg8
(lp1585
ssVmatrix[44]
p1586
(dp1587
g3
I00
sg4
I00
sg5
Vmatrix
p1588
sg7
I00
sg8
(lp1589
ssVlockWeights[119]
p1590
(dp1591
g3
I00
sg5
Vbool
p1592
sg4
I00
sg35
I00
sg7
I01
sg8
(lp1593
ssVlockWeights[86]
p1594
(dp1595
g3
I00
sg5
Vbool
p1596
sg4
I00
sg35
I00
sg7
I01
sg8
(lp1597
ssVdropoff[62]
p1598
(dp1599
g3
I00
sg5
Vdouble
p1600
sg4
I00
sg35
I00
sg7
I01
sg8
(lp1601
ssVweightList[98]
p1602
(dp1603
g3
I00
sg4
I00
sg5
VTdataCompound
p1604
sg7
I00
sg8
(lp1605
VweightList[98].weights
p1606
assVweightList[177]
p1607
(dp1608
g3
I00
sg4
I00
sg5
VTdataCompound
p1609
sg7
I00
sg8
(lp1610
VweightList[177].weights
p1611
assVlockWeights[121]
p1612
(dp1613
g3
I00
sg5
Vbool
p1614
sg4
I00
sg35
I00
sg7
I01
sg8
(lp1615
ssVweightList[78].weights
p1616
(dp1617
g3
I01
sg4
I01
sg7
I00
sg5
VTdataCompound
p1618
ssVweightList[388]
p1619
(dp1620
g3
I00
sg4
I00
sg5
VTdataCompound
p1621
sg7
I00
sg8
(lp1622
VweightList[388].weights
p1623
assVweightList[355]
p1624
(dp1625
g3
I00
sg4
I00
sg5
VTdataCompound
p1626
sg7
I00
sg8
(lp1627
VweightList[355].weights
p1628
assVlockWeights[73]
p1629
(dp1630
g3
I00
sg5
Vbool
p1631
sg4
I00
sg35
I00
sg7
I01
sg8
(lp1632
ssVweightList[268].weights
p1633
(dp1634
g3
I01
sg4
I01
sg7
I00
sg5
VTdataCompound
p1635
ssVinput[1].groupId
p1636
(dp1637
g3
I00
sg8
(lp1638
ssVweightList[467]
p1639
(dp1640
g3
I00
sg4
I00
sg5
VTdataCompound
p1641
sg7
I00
sg8
(lp1642
VweightList[467].weights
p1643
assVlockWeights[174]
p1644
(dp1645
g3
I00
sg5
Vbool
p1646
sg4
I00
sg35
I00
sg7
I01
sg8
(lp1647
ssVweightList[285]
p1648
(dp1649
g3
I00
sg4
I00
sg5
VTdataCompound
p1650
sg7
I00
sg8
(lp1651
VweightList[285].weights
p1652
assVbindPreMatrix[186]
p1653
(dp1654
g3
I00
sg4
I00
sg5
Vmatrix
p1655
sg7
I00
sg8
(lp1656
ssVmatrix[86]
p1657
(dp1658
g3
I00
sg4
I00
sg5
Vmatrix
p1659
sg7
I00
sg8
(lp1660
ssVweightList[297].weights
p1661
(dp1662
g3
I01
sg4
I01
sg7
I00
sg5
VTdataCompound
p1663
ssVweightList[525]
p1664
(dp1665
g3
I00
sg4
I00
sg5
VTdataCompound
p1666
sg7
I00
sg8
(lp1667
g155
assVweightList[292]
p1668
(dp1669
g3
I00
sg4
I00
sg5
VTdataCompound
p1670
sg7
I00
sg8
(lp1671
VweightList[292].weights
p1672
assVweightList[6].weights
p1673
(dp1674
g3
I01
sg4
I01
sg7
I00
sg5
VTdataCompound
p1675
ssVdropoff[4]
p1676
(dp1677
g3
I00
sg5
Vdouble
p1678
sg4
I00
sg35
I00
sg7
I01
sg8
(lp1679
ssVweightList[245]
p1680
(dp1681
g3
I00
sg4
I00
sg5
VTdataCompound
p1682
sg7
I00
sg8
(lp1683
VweightList[245].weights
p1684
assVmatrix[188]
p1685
(dp1686
g3
I00
sg4
I00
sg5
Vmatrix
p1687
sg7
I00
sg8
(lp1688
ssVweightList[10].weights
p1689
(dp1690
g3
I01
sg4
I01
sg7
I00
sg5
VTdataCompound
p1691
ssVlockWeights[60]
p1692
(dp1693
g3
I00
sg5
Vbool
p1694
sg4
I00
sg35
I00
sg7
I01
sg8
(lp1695
ssVweightList[356].weights
p1696
(dp1697
g3
I01
sg4
I01
sg7
I00
sg5
VTdataCompound
p1698
ssVweightList[368].weights
p1699
(dp1700
g3
I01
sg4
I01
sg7
I00
sg5
VTdataCompound
p1701
ssVweightList[402].weights
p1702
(dp1703
g3
I01
sg4
I01
sg7
I00
sg5
VTdataCompound
p1704
ssVweightList[148]
p1705
(dp1706
g3
I00
sg4
I00
sg5
VTdataCompound
p1707
sg7
I00
sg8
(lp1708
g545
assVweightList[333].weights
p1709
(dp1710
g3
I01
sg4
I01
sg7
I00
sg5
VTdataCompound
p1711
ssVblendWeights
p1712
(dp1713
g3
I01
sg4
I01
sg7
I00
sg5
VTdataCompound
p1714
ssVweightList[507]
p1715
(dp1716
g3
I00
sg4
I00
sg5
VTdataCompound
p1717
sg7
I00
sg8
(lp1718
g1297
assVweightList[234].weights
p1719
(dp1720
g3
I01
sg4
I01
sg7
I00
sg5
VTdataCompound
p1721
ssVweightList[4]
p1722
(dp1723
g3
I00
sg4
I00
sg5
VTdataCompound
p1724
sg7
I00
sg8
(lp1725
VweightList[4].weights
p1726
assVweightList[139]
p1727
(dp1728
g3
I00
sg4
I00
sg5
VTdataCompound
p1729
sg7
I00
sg8
(lp1730
VweightList[139].weights
p1731
assVweightList[407]
p1732
(dp1733
g3
I00
sg4
I00
sg5
VTdataCompound
p1734
sg7
I00
sg8
(lp1735
VweightList[407].weights
p1736
assVweightList[20].weights
p1737
(dp1738
g3
I01
sg4
I01
sg7
I00
sg5
VTdataCompound
p1739
ssVweightList[100]
p1740
(dp1741
g3
I00
sg4
I00
sg5
VTdataCompound
p1742
sg7
I00
sg8
(lp1743
VweightList[100].weights
p1744
assVweightList[298].weights
p1745
(dp1746
g3
I01
sg4
I01
sg7
I00
sg5
VTdataCompound
p1747
ssVweightList[457]
p1748
(dp1749
g3
I00
sg4
I00
sg5
VTdataCompound
p1750
sg7
I00
sg8
(lp1751
VweightList[457].weights
p1752
assVweightList[251].weights
p1753
(dp1754
g3
I01
sg4
I01
sg7
I00
sg5
VTdataCompound
p1755
ssVweightList[545].weights
p1756
(dp1757
g3
I01
sg4
I01
sg7
I00
sg5
VTdataCompound
p1758
ssVweightList[2].weights[2]
p1759
(dp1760
g3
I00
sg5
Vdouble
p1761
sg4
I00
sg35
I00
sg7
I01
sg8
(lp1762
ssVmatrix[162]
p1763
(dp1764
g3
I00
sg4
I00
sg5
Vmatrix
p1765
sg7
I00
sg8
(lp1766
ssVweightList[270]
p1767
(dp1768
g3
I00
sg4
I00
sg5
VTdataCompound
p1769
sg7
I00
sg8
(lp1770
VweightList[270].weights
p1771
assVweightList[470]
p1772
(dp1773
g3
I00
sg4
I00
sg5
VTdataCompound
p1774
sg7
I00
sg8
(lp1775
VweightList[470].weights
p1776
assVweightList[131].weights
p1777
(dp1778
g3
I01
sg4
I01
sg7
I00
sg5
VTdataCompound
p1779
ssVlockWeights[45]
p1780
(dp1781
g3
I00
sg5
Vbool
p1782
sg4
I00
sg35
I00
sg7
I01
sg8
(lp1783
ssVweightList[294].weights
p1784
(dp1785
g3
I01
sg4
I01
sg7
I00
sg5
VTdataCompound
p1786
ssVweightList[501].weights
p1787
(dp1788
g3
I01
sg4
I01
sg7
I00
sg5
VTdataCompound
p1789
ssVweightList[162].weights
p1790
(dp1791
g3
I01
sg4
I01
sg7
I00
sg5
VTdataCompound
p1792
ssg1520
(dp1793
g3
I01
sg4
I01
sg7
I00
sg5
VTdataCompound
p1794
ssVweightList[263]
p1795
(dp1796
g3
I00
sg4
I00
sg5
VTdataCompound
p1797
sg7
I00
sg8
(lp1798
VweightList[263].weights
p1799
assVweightList[486].weights
p1800
(dp1801
g3
I01
sg4
I01
sg7
I00
sg5
VTdataCompound
p1802
ssVmatrix[113]
p1803
(dp1804
g3
I00
sg4
I00
sg5
Vmatrix
p1805
sg7
I00
sg8
(lp1806
ssVdropoff[138]
p1807
(dp1808
g3
I00
sg5
Vdouble
p1809
sg4
I00
sg35
I00
sg7
I01
sg8
(lp1810
ssVbindPreMatrix[190]
p1811
(dp1812
g3
I00
sg4
I00
sg5
Vmatrix
p1813
sg7
I00
sg8
(lp1814
ssVdropoff[114]
p1815
(dp1816
g3
I00
sg5
Vdouble
p1817
sg4
I00
sg35
I00
sg7
I01
sg8
(lp1818
ssVbindPreMatrix[121]
p1819
(dp1820
g3
I00
sg4
I00
sg5
Vmatrix
p1821
sg7
I00
sg8
(lp1822
ssVbindPreMatrix[5]
p1823
(dp1824
g3
I00
sg4
I00
sg5
Vmatrix
p1825
sg7
I00
sg8
(lp1826
ssVweightList[366].weights
p1827
(dp1828
g3
I01
sg4
I01
sg7
I00
sg5
VTdataCompound
p1829
ssVmatrix[30]
p1830
(dp1831
g3
I00
sg4
I00
sg5
Vmatrix
p1832
sg7
I00
sg8
(lp1833
ssVweightList[140].weights
p1834
(dp1835
g3
I01
sg4
I01
sg7
I00
sg5
VTdataCompound
p1836
ssVweightList[86].weights
p1837
(dp1838
g3
I01
sg4
I01
sg7
I00
sg5
VTdataCompound
p1839
ssVweightList[17]
p1840
(dp1841
g3
I00
sg4
I00
sg5
VTdataCompound
p1842
sg7
I00
sg8
(lp1843
VweightList[17].weights
p1844
assVmatrix[140]
p1845
(dp1846
g3
I00
sg4
I00
sg5
Vmatrix
p1847
sg7
I00
sg8
(lp1848
ssVweightList[27].weights
p1849
(dp1850
g3
I01
sg4
I01
sg7
I00
sg5
VTdataCompound
p1851
ssVweightList[231].weights
p1852
(dp1853
g3
I01
sg4
I01
sg7
I00
sg5
VTdataCompound
p1854
ssVweightList[250].weights
p1855
(dp1856
g3
I01
sg4
I01
sg7
I00
sg5
VTdataCompound
p1857
ssVweightList[47].weights
p1858
(dp1859
g3
I01
sg4
I01
sg7
I00
sg5
VTdataCompound
p1860
ssVweightList[343]
p1861
(dp1862
g3
I00
sg4
I00
sg5
VTdataCompound
p1863
sg7
I00
sg8
(lp1864
VweightList[343].weights
p1865
assVlockWeights[195]
p1866
(dp1867
g3
I00
sg5
Vbool
p1868
sg4
I00
sg35
I00
sg7
I01
sg8
(lp1869
ssVweightList[484].weights
p1870
(dp1871
g3
I01
sg4
I01
sg7
I00
sg5
VTdataCompound
p1872
ssVweightList[521].weights
p1873
(dp1874
g3
I01
sg4
I01
sg7
I00
sg5
VTdataCompound
p1875
ssVbindPreMatrix[21]
p1876
(dp1877
g3
I00
sg4
I00
sg5
Vmatrix
p1878
sg7
I00
sg8
(lp1879
ssVbindPreMatrix[171]
p1880
(dp1881
g3
I00
sg4
I00
sg5
Vmatrix
p1882
sg7
I00
sg8
(lp1883
ssVbindPreMatrix[169]
p1884
(dp1885
g3
I00
sg4
I00
sg5
Vmatrix
p1886
sg7
I00
sg8
(lp1887
ssVdropoff[136]
p1888
(dp1889
g3
I00
sg5
Vdouble
p1890
sg4
I00
sg35
I00
sg7
I01
sg8
(lp1891
ssVbindPreMatrix[107]
p1892
(dp1893
g3
I00
sg4
I00
sg5
Vmatrix
p1894
sg7
I00
sg8
(lp1895
ssVweightList[230].weights
p1896
(dp1897
g3
I01
sg4
I01
sg7
I00
sg5
VTdataCompound
p1898
ssVweightList[214]
p1899
(dp1900
g3
I00
sg4
I00
sg5
VTdataCompound
p1901
sg7
I00
sg8
(lp1902
VweightList[214].weights
p1903
assVweightList[347].weights
p1904
(dp1905
g3
I01
sg4
I01
sg7
I00
sg5
VTdataCompound
p1906
ssVbindPreMatrix[85]
p1907
(dp1908
g3
I00
sg4
I00
sg5
Vmatrix
p1909
sg7
I00
sg8
(lp1910
ssVweightList[4].weights[135]
p1911
(dp1912
g3
I00
sg5
Vdouble
p1913
sg4
I00
sg35
I00
sg7
I01
sg8
(lp1914
ssVbindPreMatrix[167]
p1915
(dp1916
g3
I00
sg4
I00
sg5
Vmatrix
p1917
sg7
I00
sg8
(lp1918
ssVmatrix[139]
p1919
(dp1920
g3
I00
sg4
I00
sg5
Vmatrix
p1921
sg7
I00
sg8
(lp1922
ssVweightList[215].weights
p1923
(dp1924
g3
I01
sg4
I01
sg7
I00
sg5
VTdataCompound
p1925
ssVweightList[0].weights[92]
p1926
(dp1927
g3
I00
sg5
Vdouble
p1928
sg4
I00
sg35
I00
sg7
I01
sg8
(lp1929
ssVlockWeights[11]
p1930
(dp1931
g3
I00
sg5
Vbool
p1932
sg4
I00
sg35
I00
sg7
I01
sg8
(lp1933
ssVweightList[458].weights
p1934
(dp1935
g3
I01
sg4
I01
sg7
I00
sg5
VTdataCompound
p1936
ssVbindPreMatrix[118]
p1937
(dp1938
g3
I00
sg4
I00
sg5
Vmatrix
p1939
sg7
I00
sg8
(lp1940
ssVweightList[77]
p1941
(dp1942
g3
I00
sg4
I00
sg5
VTdataCompound
p1943
sg7
I00
sg8
(lp1944
VweightList[77].weights
p1945
assVmatrix[124]
p1946
(dp1947
g3
I00
sg4
I00
sg5
Vmatrix
p1948
sg7
I00
sg8
(lp1949
ssVdropoff[160]
p1950
(dp1951
g3
I00
sg5
Vdouble
p1952
sg4
I00
sg35
I00
sg7
I01
sg8
(lp1953
ssVweightList[277].weights[210]
p1954
(dp1955
g3
I00
sg8
(lp1956
ssVbindPreMatrix[3]
p1957
(dp1958
g3
I00
sg4
I00
sg5
Vmatrix
p1959
sg7
I00
sg8
(lp1960
ssVweightList[20]
p1961
(dp1962
g3
I00
sg4
I00
sg5
VTdataCompound
p1963
sg7
I00
sg8
(lp1964
g1737
assVweightList[237].weights
p1965
(dp1966
g3
I01
sg4
I01
sg7
I00
sg5
VTdataCompound
p1967
ssVbindPreMatrix[43]
p1968
(dp1969
g3
I00
sg4
I00
sg5
Vmatrix
p1970
sg7
I00
sg8
(lp1971
ssg1396
(dp1972
g3
I01
sg4
I01
sg7
I00
sg5
VTdataCompound
p1973
ssVdropoff[50]
p1974
(dp1975
g3
I00
sg5
Vdouble
p1976
sg4
I00
sg35
I00
sg7
I01
sg8
(lp1977
ssVweightList[484]
p1978
(dp1979
g3
I00
sg4
I00
sg5
VTdataCompound
p1980
sg7
I00
sg8
(lp1981
g1870
assVmaxInfluences
p1982
(dp1983
g3
I00
sg5
Vlong
p1984
sg4
I00
sg35
I00
sg7
I01
sg8
(lp1985
ssVlockWeights[167]
p1986
(dp1987
g3
I00
sg5
Vbool
p1988
sg4
I00
sg35
I00
sg7
I01
sg8
(lp1989
ssVweightList[389]
p1990
(dp1991
g3
I00
sg4
I00
sg5
VTdataCompound
p1992
sg7
I00
sg8
(lp1993
g187
assVdropoff[18]
p1994
(dp1995
g3
I00
sg5
Vdouble
p1996
sg4
I00
sg35
I00
sg7
I01
sg8
(lp1997
ssVweightList[99]
p1998
(dp1999
g3
I00
sg4
I00
sg5
VTdataCompound
p2000
sg7
I00
sg8
(lp2001
VweightList[99].weights
p2002
assVmatrix[45]
p2003
(dp2004
g3
I00
sg4
I00
sg5
Vmatrix
p2005
sg7
I00
sg8
(lp2006
ssVlockWeights[118]
p2007
(dp2008
g3
I00
sg5
Vbool
p2009
sg4
I00
sg35
I00
sg7
I01
sg8
(lp2010
ssVweightList[354]
p2011
(dp2012
g3
I00
sg4
I00
sg5
VTdataCompound
p2013
sg7
I00
sg8
(lp2014
VweightList[354].weights
p2015
assVweightList[295].weights
p2016
(dp2017
g3
I01
sg4
I01
sg7
I00
sg5
VTdataCompound
p2018
ssVmatrix[27]
p2019
(dp2020
g3
I00
sg4
I00
sg5
Vmatrix
p2021
sg7
I00
sg8
(lp2022
ssVweightList[336].weights
p2023
(dp2024
g3
I01
sg4
I01
sg7
I00
sg5
VTdataCompound
p2025
ssVlockWeights[185]
p2026
(dp2027
g3
I00
sg5
Vbool
p2028
sg4
I00
sg35
I00
sg7
I01
sg8
(lp2029
ssVbindPreMatrix[18]
p2030
(dp2031
g3
I00
sg4
I00
sg5
Vmatrix
p2032
sg7
I00
sg8
(lp2033
ssVdropoff[43]
p2034
(dp2035
g3
I00
sg5
Vdouble
p2036
sg4
I00
sg35
I00
sg7
I01
sg8
(lp2037
ssVbindPreMatrix[145]
p2038
(dp2039
g3
I00
sg4
I00
sg5
Vmatrix
p2040
sg7
I00
sg8
(lp2041
ssVbindPreMatrix[132]
p2042
(dp2043
g3
I00
sg4
I00
sg5
Vmatrix
p2044
sg7
I00
sg8
(lp2045
ssVlockWeights[7]
p2046
(dp2047
g3
I00
sg5
Vbool
p2048
sg4
I00
sg35
I00
sg7
I01
sg8
(lp2049
ssVweightList[183]
p2050
(dp2051
g3
I00
sg4
I00
sg5
VTdataCompound
p2052
sg7
I00
sg8
(lp2053
VweightList[183].weights
p2054
assVweightList[51]
p2055
(dp2056
g3
I00
sg4
I00
sg5
VTdataCompound
p2057
sg7
I00
sg8
(lp2058
g1322
assVweightList[19]
p2059
(dp2060
g3
I00
sg4
I00
sg5
VTdataCompound
p2061
sg7
I00
sg8
(lp2062
VweightList[19].weights
p2063
assVlockWeights[198]
p2064
(dp2065
g3
I00
sg5
Vbool
p2066
sg4
I00
sg35
I00
sg7
I01
sg8
(lp2067
ssVweightList[60].weights
p2068
(dp2069
g3
I01
sg4
I01
sg7
I00
sg5
VTdataCompound
p2070
ssVlockWeights[145]
p2071
(dp2072
g3
I00
sg5
Vbool
p2073
sg4
I00
sg35
I00
sg7
I01
sg8
(lp2074
ssVbindPreMatrix[50]
p2075
(dp2076
g3
I00
sg4
I00
sg5
Vmatrix
p2077
sg7
I00
sg8
(lp2078
ssVmaintainMaxInfluences
p2079
(dp2080
g3
I00
sg5
Vbool
p2081
sg4
I00
sg35
I00
sg7
I01
sg8
(lp2082
ssVlockWeights[129]
p2083
(dp2084
g3
I00
sg5
Vbool
p2085
sg4
I00
sg35
I00
sg7
I01
sg8
(lp2086
ssVweightList[0].weights[8]
p2087
(dp2088
g3
I00
sg5
Vdouble
p2089
sg4
I00
sg35
I00
sg7
I01
sg8
(lp2090
ssVweightList[531]
p2091
(dp2092
g3
I00
sg4
I00
sg5
VTdataCompound
p2093
sg7
I00
sg8
(lp2094
VweightList[531].weights
p2095
assVweightList[184].weights
p2096
(dp2097
g3
I01
sg4
I01
sg7
I00
sg5
VTdataCompound
p2098
ssVweightList[372]
p2099
(dp2100
g3
I00
sg4
I00
sg5
VTdataCompound
p2101
sg7
I00
sg8
(lp2102
VweightList[372].weights
p2103
assVweightList[309]
p2104
(dp2105
g3
I00
sg4
I00
sg5
VTdataCompound
p2106
sg7
I00
sg8
(lp2107
VweightList[309].weights
p2108
assVlockWeights[2]
p2109
(dp2110
g3
I00
sg5
Vbool
p2111
sg4
I00
sg35
I00
sg7
I01
sg8
(lp2112
ssVdropoff[182]
p2113
(dp2114
g3
I00
sg5
Vdouble
p2115
sg4
I00
sg35
I00
sg7
I01
sg8
(lp2116
ssVweightList[149]
p2117
(dp2118
g3
I00
sg4
I00
sg5
VTdataCompound
p2119
sg7
I00
sg8
(lp2120
VweightList[149].weights
p2121
assVweightList[483].weights
p2122
(dp2123
g3
I01
sg4
I01
sg7
I00
sg5
VTdataCompound
p2124
ssVweightList[491].weights
p2125
(dp2126
g3
I01
sg4
I01
sg7
I00
sg5
VTdataCompound
p2127
ssVweightList[500]
p2128
(dp2129
g3
I00
sg4
I00
sg5
VTdataCompound
p2130
sg7
I00
sg8
(lp2131
VweightList[500].weights
p2132
assVweightList[138]
p2133
(dp2134
g3
I00
sg4
I00
sg5
VTdataCompound
p2135
sg7
I00
sg8
(lp2136
VweightList[138].weights
p2137
assVweightList[7]
p2138
(dp2139
g3
I00
sg4
I00
sg5
VTdataCompound
p2140
sg7
I00
sg8
(lp2141
VweightList[7].weights
p2142
assVblendWeights[0]
p2143
(dp2144
g3
I00
sg8
(lp2145
ssVlockWeights[63]
p2146
(dp2147
g3
I00
sg5
Vbool
p2148
sg4
I00
sg35
I00
sg7
I01
sg8
(lp2149
ssVweightList[114].weights
p2150
(dp2151
g3
I01
sg4
I01
sg7
I00
sg5
VTdataCompound
p2152
ssVweightList[101]
p2153
(dp2154
g3
I00
sg4
I00
sg5
VTdataCompound
p2155
sg7
I00
sg8
(lp2156
VweightList[101].weights
p2157
assVweightList[406]
p2158
(dp2159
g3
I00
sg4
I00
sg5
VTdataCompound
p2160
sg7
I00
sg8
(lp2161
VweightList[406].weights
p2162
assVweightList[394]
p2163
(dp2164
g3
I00
sg4
I00
sg5
VTdataCompound
p2165
sg7
I00
sg8
(lp2166
VweightList[394].weights
p2167
assVdropoff[143]
p2168
(dp2169
g3
I00
sg5
Vdouble
p2170
sg4
I00
sg35
I00
sg7
I01
sg8
(lp2171
ssVweightList[48].weights
p2172
(dp2173
g3
I01
sg4
I01
sg7
I00
sg5
VTdataCompound
p2174
ssVweightList[235].weights
p2175
(dp2176
g3
I01
sg4
I01
sg7
I00
sg5
VTdataCompound
p2177
ssVdropoff[34]
p2178
(dp2179
g3
I00
sg5
Vdouble
p2180
sg4
I00
sg35
I00
sg7
I01
sg8
(lp2181
ssVweightList[176]
p2182
(dp2183
g3
I00
sg4
I00
sg5
VTdataCompound
p2184
sg7
I00
sg8
(lp2185
g1208
assVdropoff[61]
p2186
(dp2187
g3
I00
sg5
Vdouble
p2188
sg4
I00
sg35
I00
sg7
I01
sg8
(lp2189
ssVmatrix[69]
p2190
(dp2191
g3
I00
sg4
I00
sg5
Vmatrix
p2192
sg7
I00
sg8
(lp2193
ssVdropoff[191]
p2194
(dp2195
g3
I00
sg5
Vdouble
p2196
sg4
I00
sg35
I00
sg7
I01
sg8
(lp2197
ssVlockWeights[127]
p2198
(dp2199
g3
I00
sg5
Vbool
p2200
sg4
I00
sg35
I00
sg7
I01
sg8
(lp2201
ssVbindPreMatrix[72]
p2202
(dp2203
g3
I00
sg4
I00
sg5
Vmatrix
p2204
sg7
I00
sg8
(lp2205
ssVdropoff[76]
p2206
(dp2207
g3
I00
sg5
Vdouble
p2208
sg4
I00
sg35
I00
sg7
I01
sg8
(lp2209
ssVweightList[116]
p2210
(dp2211
g3
I00
sg4
I00
sg5
VTdataCompound
p2212
sg7
I00
sg8
(lp2213
VweightList[116].weights
p2214
assVlockWeights[107]
p2215
(dp2216
g3
I00
sg5
Vbool
p2217
sg4
I00
sg35
I00
sg7
I01
sg8
(lp2218
ssVdropoff[98]
p2219
(dp2220
g3
I00
sg5
Vdouble
p2221
sg4
I00
sg35
I00
sg7
I01
sg8
(lp2222
ssVsmoothness[0]
p2223
(dp2224
g3
I00
sg8
(lp2225
ssVdropoff[29]
p2226
(dp2227
g3
I00
sg5
Vdouble
p2228
sg4
I00
sg35
I00
sg7
I01
sg8
(lp2229
ssg211
(dp2230
g3
I01
sg4
I01
sg7
I00
sg5
VTdataCompound
p2231
ssVweightList[428]
p2232
(dp2233
g3
I00
sg4
I00
sg5
VTdataCompound
p2234
sg7
I00
sg8
(lp2235
VweightList[428].weights
p2236
assVlockWeights[92]
p2237
(dp2238
g3
I00
sg5
Vbool
p2239
sg4
I00
sg35
I00
sg7
I01
sg8
(lp2240
ssVweightList[9]
p2241
(dp2242
g3
I00
sg4
I00
sg5
VTdataCompound
p2243
sg7
I00
sg8
(lp2244
VweightList[9].weights
p2245
assVweightList[471]
p2246
(dp2247
g3
I00
sg4
I00
sg5
VTdataCompound
p2248
sg7
I00
sg8
(lp2249
VweightList[471].weights
p2250
assVweightList[145].weights
p2251
(dp2252
g3
I01
sg4
I01
sg7
I00
sg5
VTdataCompound
p2253
ssVweightList[4].weights[200]
p2254
(dp2255
g3
I00
sg5
Vdouble
p2256
sg4
I00
sg35
I00
sg7
I01
sg8
(lp2257
ssVmatrix[189]
p2258
(dp2259
g3
I00
sg4
I00
sg5
Vmatrix
p2260
sg7
I00
sg8
(lp2261
ssVweightList[293]
p2262
(dp2263
g3
I00
sg4
I00
sg5
VTdataCompound
p2264
sg7
I00
sg8
(lp2265
VweightList[293].weights
p2266
assg2095
(dp2267
g3
I01
sg4
I01
sg7
I00
sg5
VTdataCompound
p2268
ssVweightList[262]
p2269
(dp2270
g3
I00
sg4
I00
sg5
VTdataCompound
p2271
sg7
I00
sg8
(lp2272
VweightList[262].weights
p2273
assVlockWeights[44]
p2274
(dp2275
g3
I00
sg5
Vbool
p2276
sg4
I00
sg35
I00
sg7
I01
sg8
(lp2277
ssVweightList[331].weights
p2278
(dp2279
g3
I01
sg4
I01
sg7
I00
sg5
VTdataCompound
p2280
ssVdropoff[117]
p2281
(dp2282
g3
I00
sg5
Vdouble
p2283
sg4
I00
sg35
I00
sg7
I01
sg8
(lp2284
ssVlockWeights[70]
p2285
(dp2286
g3
I00
sg5
Vbool
p2287
sg4
I00
sg35
I00
sg7
I01
sg8
(lp2288
ssVdropoff[96]
p2289
(dp2290
g3
I00
sg5
Vdouble
p2291
sg4
I00
sg35
I00
sg7
I01
sg8
(lp2292
ssVenvelope
p2293
(dp2294
g3
I00
sg5
Vfloat
p2295
sg4
I00
sg35
I00
sg7
I01
sg8
(lp2296
ssVweightList[466]
p2297
(dp2298
g3
I00
sg4
I00
sg5
VTdataCompound
p2299
sg7
I00
sg8
(lp2300
VweightList[466].weights
p2301
assVweightList[468]
p2302
(dp2303
g3
I00
sg4
I00
sg5
VTdataCompound
p2304
sg7
I00
sg8
(lp2305
VweightList[468].weights
p2306
assVweightList[539]
p2307
(dp2308
g3
I00
sg4
I00
sg5
VTdataCompound
p2309
sg7
I00
sg8
(lp2310
VweightList[539].weights
p2311
assg1628
(dp2312
g3
I01
sg4
I01
sg7
I00
sg5
VTdataCompound
p2313
ssVbindPreMatrix[185]
p2314
(dp2315
g3
I00
sg4
I00
sg5
Vmatrix
p2316
sg7
I00
sg8
(lp2317
ssVweightList[284]
p2318
(dp2319
g3
I00
sg4
I00
sg5
VTdataCompound
p2320
sg7
I00
sg8
(lp2321
VweightList[284].weights
p2322
assVmatrix[87]
p2323
(dp2324
g3
I00
sg4
I00
sg5
Vmatrix
p2325
sg7
I00
sg8
(lp2326
ssVweightList[244]
p2327
(dp2328
g3
I00
sg4
I00
sg5
VTdataCompound
p2329
sg7
I00
sg8
(lp2330
VweightList[244].weights
p2331
assg791
(dp2332
g3
I01
sg4
I01
sg7
I00
sg5
VTdataCompound
p2333
ssg2142
(dp2334
g3
I01
sg4
I01
sg7
I00
sg5
VTdataCompound
p2335
ssVbindPreMatrix[106]
p2336
(dp2337
g3
I00
sg4
I00
sg5
Vmatrix
p2338
sg7
I00
sg8
(lp2339
ssVdropoff[135]
p2340
(dp2341
g3
I00
sg5
Vdouble
p2342
sg4
I00
sg35
I00
sg7
I01
sg8
(lp2343
ssVweightList[215]
p2344
(dp2345
g3
I00
sg4
I00
sg5
VTdataCompound
p2346
sg7
I00
sg8
(lp2347
g1923
assVweightList[84].weights
p2348
(dp2349
g3
I01
sg4
I01
sg7
I00
sg5
VTdataCompound
p2350
ssVbindPreMatrix[166]
p2351
(dp2352
g3
I00
sg4
I00
sg5
Vmatrix
p2353
sg7
I00
sg8
(lp2354
ssg2167
(dp2355
g3
I01
sg4
I01
sg7
I00
sg5
VTdataCompound
p2356
ssVbindPreMatrix[119]
p2357
(dp2358
g3
I00
sg4
I00
sg5
Vmatrix
p2359
sg7
I00
sg8
(lp2360
ssVweightList[74]
p2361
(dp2362
g3
I00
sg4
I00
sg5
VTdataCompound
p2363
sg7
I00
sg8
(lp2364
VweightList[74].weights
p2365
assVdropoff[9]
p2366
(dp2367
g3
I00
sg5
Vdouble
p2368
sg4
I00
sg35
I00
sg7
I01
sg8
(lp2369
ssVmatrix[165]
p2370
(dp2371
g3
I00
sg4
I00
sg5
Vmatrix
p2372
sg7
I00
sg8
(lp2373
ssVdropoff[128]
p2374
(dp2375
g3
I00
sg5
Vdouble
p2376
sg4
I00
sg35
I00
sg7
I01
sg8
(lp2377
ssVmatrix[187]
p2378
(dp2379
g3
I00
sg4
I00
sg5
Vmatrix
p2380
sg7
I00
sg8
(lp2381
ssVweightList[402]
p2382
(dp2383
g3
I00
sg4
I00
sg5
VTdataCompound
p2384
sg7
I00
sg8
(lp2385
g1702
assVweightList[141]
p2386
(dp2387
g3
I00
sg4
I00
sg5
VTdataCompound
p2388
sg7
I00
sg8
(lp2389
VweightList[141].weights
p2390
assVmatrix[109]
p2391
(dp2392
g3
I00
sg4
I00
sg5
Vmatrix
p2393
sg7
I00
sg8
(lp2394
ssVweightList[271]
p2395
(dp2396
g3
I00
sg4
I00
sg5
VTdataCompound
p2397
sg7
I00
sg8
(lp2398
VweightList[271].weights
p2399
assVweightList[52]
p2400
(dp2401
g3
I00
sg4
I00
sg5
VTdataCompound
p2402
sg7
I00
sg8
(lp2403
VweightList[52].weights
p2404
assVmatrix[20]
p2405
(dp2406
g3
I00
sg4
I00
sg5
Vmatrix
p2407
sg7
I00
sg8
(lp2408
ssVmatrix[150]
p2409
(dp2410
g3
I00
sg4
I00
sg5
Vmatrix
p2411
sg7
I00
sg8
(lp2412
ssVlockWeights[186]
p2413
(dp2414
g3
I00
sg5
Vbool
p2415
sg4
I00
sg35
I00
sg7
I01
sg8
(lp2416
ssVbindPreMatrix[144]
p2417
(dp2418
g3
I00
sg4
I00
sg5
Vmatrix
p2419
sg7
I00
sg8
(lp2420
ssVdropoff[42]
p2421
(dp2422
g3
I00
sg5
Vdouble
p2423
sg4
I00
sg35
I00
sg7
I01
sg8
(lp2424
ssVbindPreMatrix[133]
p2425
(dp2426
g3
I00
sg4
I00
sg5
Vmatrix
p2427
sg7
I00
sg8
(lp2428
ssg2250
(dp2429
g3
I01
sg4
I01
sg7
I00
sg5
VTdataCompound
p2430
ssVlockWeights[6]
p2431
(dp2432
g3
I00
sg5
Vbool
p2433
sg4
I00
sg35
I00
sg7
I01
sg8
(lp2434
ssVweightList[339]
p2435
(dp2436
g3
I00
sg4
I00
sg5
VTdataCompound
p2437
sg7
I00
sg8
(lp2438
VweightList[339].weights
p2439
assVweightList[184]
p2440
(dp2441
g3
I00
sg4
I00
sg5
VTdataCompound
p2442
sg7
I00
sg8
(lp2443
g2096
assVdropoff
p2444
(dp2445
g3
I01
sg4
I01
sg7
I00
sg5
VTdataCompound
p2446
ssVbindPreMatrix[53]
p2447
(dp2448
g3
I00
sg4
I00
sg5
Vmatrix
p2449
sg7
I00
sg8
(lp2450
ssVlockWeights[146]
p2451
(dp2452
g3
I00
sg5
Vbool
p2453
sg4
I00
sg35
I00
sg7
I01
sg8
(lp2454
ssVweightList[160].weights
p2455
(dp2456
g3
I01
sg4
I01
sg7
I00
sg5
VTdataCompound
p2457
ssg1652
(dp2458
g3
I01
sg4
I01
sg7
I00
sg5
VTdataCompound
p2459
ssVmatrix[19]
p2460
(dp2461
g3
I00
sg4
I00
sg5
Vmatrix
p2462
sg7
I00
sg8
(lp2463
ssVbindPreMatrix[153]
p2464
(dp2465
g3
I00
sg4
I00
sg5
Vmatrix
p2466
sg7
I00
sg8
(lp2467
ssVweightList[371]
p2468
(dp2469
g3
I00
sg4
I00
sg5
VTdataCompound
p2470
sg7
I00
sg8
(lp2471
g1412
assVbindPreMatrix[120]
p2472
(dp2473
g3
I00
sg4
I00
sg5
Vmatrix
p2474
sg7
I00
sg8
(lp2475
ssVbindPreMatrix[2]
p2476
(dp2477
g3
I00
sg4
I00
sg5
Vmatrix
p2478
sg7
I00
sg8
(lp2479
ssVweightList[216].weights
p2480
(dp2481
g3
I01
sg4
I01
sg7
I00
sg5
VTdataCompound
p2482
ssVmatrix[147]
p2483
(dp2484
g3
I00
sg4
I00
sg5
Vmatrix
p2485
sg7
I00
sg8
(lp2486
ssg1152
(dp2487
g3
I01
sg4
I01
sg7
I00
sg5
VTdataCompound
p2488
ssVweightList[233]
p2489
(dp2490
g3
I00
sg4
I00
sg5
VTdataCompound
p2491
sg7
I00
sg8
(lp2492
g1309
assVweightList[361].weights
p2493
(dp2494
g3
I01
sg4
I01
sg7
I00
sg5
VTdataCompound
p2495
ssVweightList[267].weights
p2496
(dp2497
g3
I01
sg4
I01
sg7
I00
sg5
VTdataCompound
p2498
ssVweightList[34]
p2499
(dp2500
g3
I00
sg4
I00
sg5
VTdataCompound
p2501
sg7
I00
sg8
(lp2502
VweightList[34].weights
p2503
assVblendWeights[1]
p2504
(dp2505
g3
I00
sg8
(lp2506
ssVweightList[69]
p2507
(dp2508
g3
I00
sg4
I00
sg5
VTdataCompound
p2509
sg7
I00
sg8
(lp2510
VweightList[69].weights
p2511
assVweightList[340]
p2512
(dp2513
g3
I00
sg4
I00
sg5
VTdataCompound
p2514
sg7
I00
sg8
(lp2515
VweightList[340].weights
p2516
assVweightList[111]
p2517
(dp2518
g3
I00
sg4
I00
sg5
VTdataCompound
p2519
sg7
I00
sg8
(lp2520
VweightList[111].weights
p2521
assVweightList[315]
p2522
(dp2523
g3
I00
sg4
I00
sg5
VTdataCompound
p2524
sg7
I00
sg8
(lp2525
VweightList[315].weights
p2526
assVweightList[517].weights
p2527
(dp2528
g3
I01
sg4
I01
sg7
I00
sg5
VTdataCompound
p2529
ssVweightList[296].weights
p2530
(dp2531
g3
I01
sg4
I01
sg7
I00
sg5
VTdataCompound
p2532
ssVbindPreMatrix[22]
p2533
(dp2534
g3
I00
sg4
I00
sg5
Vmatrix
p2535
sg7
I00
sg8
(lp2536
ssVlockWeights[151]
p2537
(dp2538
g3
I00
sg5
Vbool
p2539
sg4
I00
sg35
I00
sg7
I01
sg8
(lp2540
ssVbindPreMatrix[88]
p2541
(dp2542
g3
I00
sg4
I00
sg5
Vmatrix
p2543
sg7
I00
sg8
(lp2544
ssVbindPreMatrix[168]
p2545
(dp2546
g3
I00
sg4
I00
sg5
Vmatrix
p2547
sg7
I00
sg8
(lp2548
ssVweightList[367]
p2549
(dp2550
g3
I00
sg4
I00
sg5
VTdataCompound
p2551
sg7
I00
sg8
(lp2552
VweightList[367].weights
p2553
assVweightList[481].weights
p2554
(dp2555
g3
I01
sg4
I01
sg7
I00
sg5
VTdataCompound
p2556
ssVweightList[0].weights[131]
p2557
(dp2558
g3
I00
sg5
Vdouble
p2559
sg4
I00
sg35
I00
sg7
I01
sg8
(lp2560
ssVweightList[397]
p2561
(dp2562
g3
I00
sg4
I00
sg5
VTdataCompound
p2563
sg7
I00
sg8
(lp2564
VweightList[397].weights
p2565
assVweightList[530].weights
p2566
(dp2567
g3
I01
sg4
I01
sg7
I00
sg5
VTdataCompound
p2568
ssVinput[2].inputGeometry
p2569
(dp2570
g3
I00
sg8
(lp2571
ssVdropoff[35]
p2572
(dp2573
g3
I00
sg5
Vdouble
p2574
sg4
I00
sg35
I00
sg7
I01
sg8
(lp2575
ssVdropoff[60]
p2576
(dp2577
g3
I00
sg5
Vdouble
p2578
sg4
I00
sg35
I00
sg7
I01
sg8
(lp2579
ssVweightList[326].weights
p2580
(dp2581
g3
I01
sg4
I01
sg7
I00
sg5
VTdataCompound
p2582
ssVweightList[171]
p2583
(dp2584
g3
I00
sg4
I00
sg5
VTdataCompound
p2585
sg7
I00
sg8
(lp2586
VweightList[171].weights
p2587
assVbindPreMatrix[71]
p2588
(dp2589
g3
I00
sg4
I00
sg5
Vmatrix
p2590
sg7
I00
sg8
(lp2591
ssVlockWeights[124]
p2592
(dp2593
g3
I00
sg5
Vbool
p2594
sg4
I00
sg35
I00
sg7
I01
sg8
(lp2595
ssVweightList[390].weights
p2596
(dp2597
g3
I01
sg4
I01
sg7
I00
sg5
VTdataCompound
p2598
ssVdropoff[190]
p2599
(dp2600
g3
I00
sg5
Vdouble
p2601
sg4
I00
sg35
I00
sg7
I01
sg8
(lp2602
ssVlockWeights[93]
p2603
(dp2604
g3
I00
sg5
Vbool
p2605
sg4
I00
sg35
I00
sg7
I01
sg8
(lp2606
ssVweightList[542].weights
p2607
(dp2608
g3
I01
sg4
I01
sg7
I00
sg5
VTdataCompound
p2609
ssVmatrix[73]
p2610
(dp2611
g3
I00
sg4
I00
sg5
Vmatrix
p2612
sg7
I00
sg8
(lp2613
ssVweightList[115]
p2614
(dp2615
g3
I00
sg4
I00
sg5
VTdataCompound
p2616
sg7
I00
sg8
(lp2617
VweightList[115].weights
p2618
assVweightList[162]
p2619
(dp2620
g3
I00
sg4
I00
sg5
VTdataCompound
p2621
sg7
I00
sg8
(lp2622
g1790
assVdropoff[99]
p2623
(dp2624
g3
I00
sg5
Vdouble
p2625
sg4
I00
sg35
I00
sg7
I01
sg8
(lp2626
ssVdropoff[77]
p2627
(dp2628
g3
I00
sg5
Vdouble
p2629
sg4
I00
sg35
I00
sg7
I01
sg8
(lp2630
ssVweightList[83]
p2631
(dp2632
g3
I00
sg4
I00
sg5
VTdataCompound
p2633
sg7
I00
sg8
(lp2634
VweightList[83].weights
p2635
assVweightList[427]
p2636
(dp2637
g3
I00
sg4
I00
sg5
VTdataCompound
p2638
sg7
I00
sg8
(lp2639
VweightList[427].weights
p2640
assVweightList[425].weights
p2641
(dp2642
g3
I01
sg4
I01
sg7
I00
sg5
VTdataCompound
p2643
ssVdropoff[28]
p2644
(dp2645
g3
I00
sg5
Vdouble
p2646
sg4
I00
sg35
I00
sg7
I01
sg8
(lp2647
ssVdropoff[51]
p2648
(dp2649
g3
I00
sg5
Vdouble
p2650
sg4
I00
sg35
I00
sg7
I01
sg8
(lp2651
ssVweightList[350].weights
p2652
(dp2653
g3
I01
sg4
I01
sg7
I00
sg5
VTdataCompound
p2654
ssVdropoff[161]
p2655
(dp2656
g3
I00
sg5
Vdouble
p2657
sg4
I00
sg35
I00
sg7
I01
sg8
(lp2658
ssVweightList[67].weights
p2659
(dp2660
g3
I01
sg4
I01
sg7
I00
sg5
VTdataCompound
p2661
ssVweightList[23]
p2662
(dp2663
g3
I00
sg4
I00
sg5
VTdataCompound
p2664
sg7
I00
sg8
(lp2665
g1036
assVweightList[487]
p2666
(dp2667
g3
I00
sg4
I00
sg5
VTdataCompound
p2668
sg7
I00
sg8
(lp2669
VweightList[487].weights
p2670
assVmatrix[51]
p2671
(dp2672
g3
I00
sg4
I00
sg5
Vmatrix
p2673
sg7
I00
sg8
(lp2674
ssVweightList[357]
p2675
(dp2676
g3
I00
sg4
I00
sg5
VTdataCompound
p2677
sg7
I00
sg8
(lp2678
VweightList[357].weights
p2679
assVdropoff[19]
p2680
(dp2681
g3
I00
sg5
Vdouble
p2682
sg4
I00
sg35
I00
sg7
I01
sg8
(lp2683
ssVweightList[386].weights
p2684
(dp2685
g3
I01
sg4
I01
sg7
I00
sg5
VTdataCompound
p2686
ssVmatrix[42]
p2687
(dp2688
g3
I00
sg4
I00
sg5
Vmatrix
p2689
sg7
I00
sg8
(lp2690
ssVbindPreMatrix[15]
p2691
(dp2692
g3
I00
sg4
I00
sg5
Vmatrix
p2693
sg7
I00
sg8
(lp2694
ssVlockWeights[123]
p2695
(dp2696
g3
I00
sg5
Vbool
p2697
sg4
I00
sg35
I00
sg7
I01
sg8
(lp2698
ssVbindPreMatrix[40]
p2699
(dp2700
g3
I00
sg4
I00
sg5
Vmatrix
p2701
sg7
I00
sg8
(lp2702
ssVlockWeights[84]
p2703
(dp2704
g3
I00
sg5
Vbool
p2705
sg4
I00
sg35
I00
sg7
I01
sg8
(lp2706
ssVweightList[337]
p2707
(dp2708
g3
I00
sg4
I00
sg5
VTdataCompound
p2709
sg7
I00
sg8
(lp2710
VweightList[337].weights
p2711
assg1525
(dp2712
g3
I01
sg4
I01
sg7
I00
sg5
VTdataCompound
p2713
ssg1113
(dp2714
g3
I01
sg4
I01
sg7
I00
sg5
VTdataCompound
p2715
ssVmatrix[126]
p2716
(dp2717
g3
I00
sg4
I00
sg5
Vmatrix
p2718
sg7
I00
sg8
(lp2719
ssVlockWeights[164]
p2720
(dp2721
g3
I00
sg5
Vbool
p2722
sg4
I00
sg35
I00
sg7
I01
sg8
(lp2723
ssVweightList[449]
p2724
(dp2725
g3
I00
sg4
I00
sg5
VTdataCompound
p2726
sg7
I00
sg8
(lp2727
VweightList[449].weights
p2728
assVdropoff[97]
p2729
(dp2730
g3
I00
sg5
Vdouble
p2731
sg4
I00
sg35
I00
sg7
I01
sg8
(lp2732
ssVlockWeights[71]
p2733
(dp2734
g3
I00
sg5
Vbool
p2735
sg4
I00
sg35
I00
sg7
I01
sg8
(lp2736
ssVweightList[538]
p2737
(dp2738
g3
I00
sg4
I00
sg5
VTdataCompound
p2739
sg7
I00
sg8
(lp2740
VweightList[538].weights
p2741
assVbindPreMatrix[184]
p2742
(dp2743
g3
I00
sg4
I00
sg5
Vmatrix
p2744
sg7
I00
sg8
(lp2745
ssVweightList[0].weights[77]
p2746
(dp2747
g3
I00
sg5
Vdouble
p2748
sg4
I00
sg35
I00
sg7
I01
sg8
(lp2749
ssVweightList[243]
p2750
(dp2751
g3
I00
sg4
I00
sg5
VTdataCompound
p2752
sg7
I00
sg8
(lp2753
VweightList[243].weights
p2754
assg1643
(dp2755
g3
I01
sg4
I01
sg7
I00
sg5
VTdataCompound
p2756
ssVmatrix[84]
p2757
(dp2758
g3
I00
sg4
I00
sg5
Vmatrix
p2759
sg7
I00
sg8
(lp2760
ssVweightList[465]
p2761
(dp2762
g3
I00
sg4
I00
sg5
VTdataCompound
p2763
sg7
I00
sg8
(lp2764
VweightList[465].weights
p2765
assVweightList[412]
p2766
(dp2767
g3
I00
sg4
I00
sg5
VTdataCompound
p2768
sg7
I00
sg8
(lp2769
VweightList[412].weights
p2770
assVweightList[334].weights
p2771
(dp2772
g3
I01
sg4
I01
sg7
I00
sg5
VTdataCompound
p2773
ssVweightList[3].weights
p2774
(dp2775
g3
I01
sg4
I01
sg7
I00
sg5
VTdataCompound
p2776
ssVweightList[370].weights
p2777
(dp2778
g3
I01
sg4
I01
sg7
I00
sg5
VTdataCompound
p2779
ssg1243
(dp2780
g3
I01
sg4
I01
sg7
I00
sg5
VTdataCompound
p2781
ssVweightList[438]
p2782
(dp2783
g3
I00
sg4
I00
sg5
VTdataCompound
p2784
sg7
I00
sg8
(lp2785
VweightList[438].weights
p2786
assVsmoothness[1]
p2787
(dp2788
g3
I00
sg8
(lp2789
ssVdropoff[183]
p2790
(dp2791
g3
I00
sg5
Vdouble
p2792
sg4
I00
sg35
I00
sg7
I01
sg8
(lp2793
ssVweightList[498]
p2794
(dp2795
g3
I00
sg4
I00
sg5
VTdataCompound
p2796
sg7
I00
sg8
(lp2797
VweightList[498].weights
p2798
assVweightList[501]
p2799
(dp2800
g3
I00
sg4
I00
sg5
VTdataCompound
p2801
sg7
I00
sg8
(lp2802
g1787
assVlockWeights[78]
p2803
(dp2804
g3
I00
sg5
Vbool
p2805
sg4
I00
sg35
I00
sg7
I01
sg8
(lp2806
ssVweightList[6]
p2807
(dp2808
g3
I00
sg4
I00
sg5
VTdataCompound
p2809
sg7
I00
sg8
(lp2810
g1673
assVweightList[432]
p2811
(dp2812
g3
I00
sg4
I00
sg5
VTdataCompound
p2813
sg7
I00
sg8
(lp2814
g1553
assVlockWeights[62]
p2815
(dp2816
g3
I00
sg5
Vbool
p2817
sg4
I00
sg35
I00
sg7
I01
sg8
(lp2818
ssVbindPreMatrix[199]
p2819
(dp2820
g3
I00
sg4
I00
sg5
Vmatrix
p2821
sg7
I00
sg8
(lp2822
ssVweightList[102]
p2823
(dp2824
g3
I00
sg4
I00
sg5
VTdataCompound
p2825
sg7
I00
sg8
(lp2826
VweightList[102].weights
p2827
assVweightList[153]
p2828
(dp2829
g3
I00
sg4
I00
sg5
VTdataCompound
p2830
sg7
I00
sg8
(lp2831
VweightList[153].weights
p2832
assg2618
(dp2833
g3
I01
sg4
I01
sg7
I00
sg5
VTdataCompound
p2834
ssVlockWeights[160]
p2835
(dp2836
g3
I00
sg5
Vbool
p2837
sg4
I00
sg35
I00
sg7
I01
sg8
(lp2838
ssVlockWeights[54]
p2839
(dp2840
g3
I00
sg5
Vbool
p2841
sg4
I00
sg35
I00
sg7
I01
sg8
(lp2842
ssVweightList[540].weights
p2843
(dp2844
g3
I01
sg4
I01
sg7
I00
sg5
VTdataCompound
p2845
ssVweightList[400]
p2846
(dp2847
g3
I00
sg4
I00
sg5
VTdataCompound
p2848
sg7
I00
sg8
(lp2849
VweightList[400].weights
p2850
assVdropoff[64]
p2851
(dp2852
g3
I00
sg5
Vdouble
p2853
sg4
I00
sg35
I00
sg7
I01
sg8
(lp2854
ssVweightList[22]
p2855
(dp2856
g3
I00
sg4
I00
sg5
VTdataCompound
p2857
sg7
I00
sg8
(lp2858
g359
assVdropoff[8]
p2859
(dp2860
g3
I00
sg5
Vdouble
p2861
sg4
I00
sg35
I00
sg7
I01
sg8
(lp2862
ssVmatrix[164]
p2863
(dp2864
g3
I00
sg4
I00
sg5
Vmatrix
p2865
sg7
I00
sg8
(lp2866
ssVweightList[379].weights
p2867
(dp2868
g3
I01
sg4
I01
sg7
I00
sg5
VTdataCompound
p2869
ssVdropoff[129]
p2870
(dp2871
g3
I00
sg5
Vdouble
p2872
sg4
I00
sg35
I00
sg7
I01
sg8
(lp2873
ssg1407
(dp2874
g3
I01
sg4
I01
sg7
I00
sg5
VTdataCompound
p2875
ssVmatrix[108]
p2876
(dp2877
g3
I00
sg4
I00
sg5
Vmatrix
p2878
sg7
I00
sg8
(lp2879
ssVlockWeights[38]
p2880
(dp2881
g3
I00
sg5
Vbool
p2882
sg4
I00
sg35
I00
sg7
I01
sg8
(lp2883
ssg2679
(dp2884
g3
I01
sg4
I01
sg7
I00
sg5
VTdataCompound
p2885
ssVweightList[209]
p2886
(dp2887
g3
I00
sg4
I00
sg5
VTdataCompound
p2888
sg7
I00
sg8
(lp2889
VweightList[209].weights
p2890
assVweightList[276]
p2891
(dp2892
g3
I00
sg4
I00
sg5
VTdataCompound
p2893
sg7
I00
sg8
(lp2894
VweightList[276].weights
p2895
assVweightList[8]
p2896
(dp2897
g3
I00
sg4
I00
sg5
VTdataCompound
p2898
sg7
I00
sg8
(lp2899
VweightList[8].weights
p2900
assVweightList[472]
p2901
(dp2902
g3
I00
sg4
I00
sg5
VTdataCompound
p2903
sg7
I00
sg8
(lp2904
g442
assVweightList[4].weights[201]
p2905
(dp2906
g3
I00
sg5
Vdouble
p2907
sg4
I00
sg35
I00
sg7
I01
sg8
(lp2908
ssVmatrix[99]
p2909
(dp2910
g3
I00
sg4
I00
sg5
Vmatrix
p2911
sg7
I00
sg8
(lp2912
ssVweightList[150].weights
p2913
(dp2914
g3
I01
sg4
I01
sg7
I00
sg5
VTdataCompound
p2915
ssVweightList[294]
p2916
(dp2917
g3
I00
sg4
I00
sg5
VTdataCompound
p2918
sg7
I00
sg8
(lp2919
g1784
assVweightList[179].weights
p2920
(dp2921
g3
I01
sg4
I01
sg7
I00
sg5
VTdataCompound
p2922
ssVdropoff[3]
p2923
(dp2924
g3
I00
sg5
Vdouble
p2925
sg4
I00
sg35
I00
sg7
I01
sg8
(lp2926
ssVdropoff[116]
p2927
(dp2928
g3
I00
sg5
Vdouble
p2929
sg4
I00
sg35
I00
sg7
I01
sg8
(lp2930
ssVweightList[238]
p2931
(dp2932
g3
I00
sg4
I00
sg5
VTdataCompound
p2933
sg7
I00
sg8
(lp2934
VweightList[238].weights
p2935
assVbindPreMatrix[208]
p2936
(dp2937
g3
I00
sg4
I00
sg5
Vmatrix
p2938
sg7
I00
sg8
(lp2939
ssg1611
(dp2940
g3
I01
sg4
I01
sg7
I00
sg5
VTdataCompound
p2941
ssVweightList[289]
p2942
(dp2943
g3
I00
sg4
I00
sg5
VTdataCompound
p2944
sg7
I00
sg8
(lp2945
VweightList[289].weights
p2946
assVlockWeights[43]
p2947
(dp2948
g3
I00
sg5
Vbool
p2949
sg4
I00
sg35
I00
sg7
I01
sg8
(lp2950
ssVweightList[254]
p2951
(dp2952
g3
I00
sg4
I00
sg5
VTdataCompound
p2953
sg7
I00
sg8
(lp2954
VweightList[254].weights
p2955
assVlockWeights[16]
p2956
(dp2957
g3
I00
sg5
Vbool
p2958
sg4
I00
sg35
I00
sg7
I01
sg8
(lp2959
ssVweightList[35]
p2960
(dp2961
g3
I00
sg4
I00
sg5
VTdataCompound
p2962
sg7
I00
sg8
(lp2963
VweightList[35].weights
p2964
assVmatrix[146]
p2965
(dp2966
g3
I00
sg4
I00
sg5
Vmatrix
p2967
sg7
I00
sg8
(lp2968
ssVweightList[200].weights
p2969
(dp2970
g3
I01
sg4
I01
sg7
I00
sg5
VTdataCompound
p2971
ssVoutputGeometry
p2972
(dp2973
g3
I01
sg4
I01
sg7
I00
sg5
VTdataCompound
p2974
ssVlockWeights[36]
p2975
(dp2976
g3
I00
sg5
Vbool
p2977
sg4
I00
sg35
I00
sg7
I01
sg8
(lp2978
ssg2770
(dp2979
g3
I01
sg4
I01
sg7
I00
sg5
VTdataCompound
p2980
ssVlockWeights[189]
p2981
(dp2982
g3
I00
sg5
Vbool
p2983
sg4
I00
sg35
I00
sg7
I01
sg8
(lp2984
ssVweightList[68]
p2985
(dp2986
g3
I00
sg4
I00
sg5
VTdataCompound
p2987
sg7
I00
sg8
(lp2988
VweightList[68].weights
p2989
assVbindPreMatrix[123]
p2990
(dp2991
g3
I00
sg4
I00
sg5
Vmatrix
p2992
sg7
I00
sg8
(lp2993
ssVweightList[8].weights[203]
p2994
(dp2995
g3
I00
sg8
(lp2996
ssVweightList[314]
p2997
(dp2998
g3
I00
sg4
I00
sg5
VTdataCompound
p2999
sg7
I00
sg8
(lp3000
VweightList[314].weights
p3001
assVweightList[341]
p3002
(dp3003
g3
I00
sg4
I00
sg5
VTdataCompound
p3004
sg7
I00
sg8
(lp3005
VweightList[341].weights
p3006
assVlockWeights[150]
p3007
(dp3008
g3
I00
sg5
Vbool
p3009
sg4
I00
sg35
I00
sg7
I01
sg8
(lp3010
ssVbindPreMatrix[23]
p3011
(dp3012
g3
I00
sg4
I00
sg5
Vmatrix
p3013
sg7
I00
sg8
(lp3014
ssVbindPreMatrix[89]
p3015
(dp3016
g3
I00
sg4
I00
sg5
Vmatrix
p3017
sg7
I00
sg8
(lp3018
ssg1189
(dp3019
g3
I01
sg4
I01
sg7
I00
sg5
VTdataCompound
p3020
ssVbindPreMatrix[105]
p3021
(dp3022
g3
I00
sg4
I00
sg5
Vmatrix
p3023
sg7
I00
sg8
(lp3024
ssVweightList[236]
p3025
(dp3026
g3
I00
sg4
I00
sg5
VTdataCompound
p3027
sg7
I00
sg8
(lp3028
VweightList[236].weights
p3029
assVweightList[265].weights
p3030
(dp3031
g3
I01
sg4
I01
sg7
I00
sg5
VTdataCompound
p3032
ssVdropoff[134]
p3033
(dp3034
g3
I00
sg5
Vdouble
p3035
sg4
I00
sg35
I00
sg7
I01
sg8
(lp3036
ssg2754
(dp3037
g3
I01
sg4
I01
sg7
I00
sg5
VTdataCompound
p3038
ssVweightList[216]
p3039
(dp3040
g3
I00
sg4
I00
sg5
VTdataCompound
p3041
sg7
I00
sg8
(lp3042
g2480
assg69
(dp3043
g3
I01
sg4
I01
sg7
I00
sg5
VTdataCompound
p3044
ssVdropoff[158]
p3045
(dp3046
g3
I00
sg5
Vdouble
p3047
sg4
I00
sg35
I00
sg7
I01
sg8
(lp3048
ssVweightList[75]
p3049
(dp3050
g3
I00
sg4
I00
sg5
VTdataCompound
p3051
sg7
I00
sg8
(lp3052
VweightList[75].weights
p3053
assVweightList[410].weights
p3054
(dp3055
g3
I01
sg4
I01
sg7
I00
sg5
VTdataCompound
p3056
ssVlockWeights[187]
p3057
(dp3058
g3
I00
sg5
Vbool
p3059
sg4
I00
sg35
I00
sg7
I01
sg8
(lp3060
ssVdropoff[56]
p3061
(dp3062
g3
I00
sg5
Vdouble
p3063
sg4
I00
sg35
I00
sg7
I01
sg8
(lp3064
ssVweightList[486]
p3065
(dp3066
g3
I00
sg4
I00
sg5
VTdataCompound
p3067
sg7
I00
sg8
(lp3068
g1800
assVweightList[532].weights
p3069
(dp3070
g3
I01
sg4
I01
sg7
I00
sg5
VTdataCompound
p3071
ssVdropoff[162]
p3072
(dp3073
g3
I00
sg5
Vdouble
p3074
sg4
I00
sg35
I00
sg7
I01
sg8
(lp3075
ssVgeomMatrix
p3076
(dp3077
g3
I00
sg4
I00
sg5
Vmatrix
p3078
sg7
I00
sg8
(lp3079
ssg2900
(dp3080
g3
I01
sg4
I01
sg7
I00
sg5
VTdataCompound
p3081
ssVmatrix[50]
p3082
(dp3083
g3
I00
sg4
I00
sg5
Vmatrix
p3084
sg7
I00
sg8
(lp3085
ssVweightList[356]
p3086
(dp3087
g3
I00
sg4
I00
sg5
VTdataCompound
p3088
sg7
I00
sg8
(lp3089
g1696
assVmatrix[43]
p3090
(dp3091
g3
I00
sg4
I00
sg5
Vmatrix
p3092
sg7
I00
sg8
(lp3093
ssVbindPreMatrix[41]
p3094
(dp3095
g3
I00
sg4
I00
sg5
Vmatrix
p3096
sg7
I00
sg8
(lp3097
ssg375
(dp3098
g3
I01
sg4
I01
sg7
I00
sg5
VTdataCompound
p3099
ssVdropoff[16]
p3100
(dp3101
g3
I00
sg5
Vdouble
p3102
sg4
I00
sg35
I00
sg7
I01
sg8
(lp3103
ssVbindPreMatrix[14]
p3104
(dp3105
g3
I00
sg4
I00
sg5
Vmatrix
p3106
sg7
I00
sg8
(lp3107
ssVweightList[336]
p3108
(dp3109
g3
I00
sg4
I00
sg5
VTdataCompound
p3110
sg7
I00
sg8
(lp3111
g2023
assVweightList[301].weights
p3112
(dp3113
g3
I01
sg4
I01
sg7
I00
sg5
VTdataCompound
p3114
ssVlockWeights[165]
p3115
(dp3116
g3
I00
sg5
Vbool
p3117
sg4
I00
sg35
I00
sg7
I01
sg8
(lp3118
ssVlockWeights[51]
p3119
(dp3120
g3
I00
sg5
Vbool
p3121
sg4
I00
sg35
I00
sg7
I01
sg8
(lp3122
ssVmatrix[21]
p3123
(dp3124
g3
I00
sg4
I00
sg5
Vmatrix
p3125
sg7
I00
sg8
(lp3126
ssVmatrix[151]
p3127
(dp3128
g3
I00
sg4
I00
sg5
Vmatrix
p3129
sg7
I00
sg8
(lp3130
ssVweightList[53]
p3131
(dp3132
g3
I00
sg4
I00
sg5
VTdataCompound
p3133
sg7
I00
sg8
(lp3134
VweightList[53].weights
p3135
assVbindPreMatrix[130]
p3136
(dp3137
g3
I00
sg4
I00
sg5
Vmatrix
p3138
sg7
I00
sg8
(lp3139
ssVlockWeights[9]
p3140
(dp3141
g3
I00
sg5
Vbool
p3142
sg4
I00
sg35
I00
sg7
I01
sg8
(lp3143
ssVweightList[185]
p3144
(dp3145
g3
I00
sg4
I00
sg5
VTdataCompound
p3146
sg7
I00
sg8
(lp3147
VweightList[185].weights
p3148
assVweightList[338]
p3149
(dp3150
g3
I00
sg4
I00
sg5
VTdataCompound
p3151
sg7
I00
sg8
(lp3152
VweightList[338].weights
p3153
assVweightList[370]
p3154
(dp3155
g3
I00
sg4
I00
sg5
VTdataCompound
p3156
sg7
I00
sg8
(lp3157
g2777
assVmatrix[18]
p3158
(dp3159
g3
I00
sg4
I00
sg5
Vmatrix
p3160
sg7
I00
sg8
(lp3161
ssVbindPreMatrix[154]
p3162
(dp3163
g3
I00
sg4
I00
sg5
Vmatrix
p3164
sg7
I00
sg8
(lp3165
ssVweightList[191]
p3166
(dp3167
g3
I00
sg4
I00
sg5
VTdataCompound
p3168
sg7
I00
sg8
(lp3169
VweightList[191].weights
p3170
assVdropoff[175]
p3171
(dp3172
g3
I00
sg5
Vdouble
p3173
sg4
I00
sg35
I00
sg7
I01
sg8
(lp3174
ssVlockWeights[147]
p3175
(dp3176
g3
I00
sg5
Vbool
p3177
sg4
I00
sg35
I00
sg7
I01
sg8
(lp3178
ssVbindPreMatrix[52]
p3179
(dp3180
g3
I00
sg4
I00
sg5
Vmatrix
p3181
sg7
I00
sg8
(lp3182
ssVlockWeights[89]
p3183
(dp3184
g3
I00
sg5
Vbool
p3185
sg4
I00
sg35
I00
sg7
I01
sg8
(lp3186
ssVweightList[439]
p3187
(dp3188
g3
I00
sg4
I00
sg5
VTdataCompound
p3189
sg7
I00
sg8
(lp3190
VweightList[439].weights
p3191
assg589
(dp3192
g3
I01
sg4
I01
sg7
I00
sg5
VTdataCompound
p3193
ssVdropoff[180]
p3194
(dp3195
g3
I00
sg5
Vdouble
p3196
sg4
I00
sg35
I00
sg7
I01
sg8
(lp3197
ssVweightList[103]
p3198
(dp3199
g3
I00
sg4
I00
sg5
VTdataCompound
p3200
sg7
I00
sg8
(lp3201
g1487
assVweightList[502]
p3202
(dp3203
g3
I00
sg4
I00
sg5
VTdataCompound
p3204
sg7
I00
sg8
(lp3205
VweightList[502].weights
p3206
assVweightList[194]
p3207
(dp3208
g3
I00
sg4
I00
sg5
VTdataCompound
p3209
sg7
I00
sg8
(lp3210
VweightList[194].weights
p3211
assVmap64BitIndices
p3212
(dp3213
g3
I00
sg4
I00
sg5
Nsg7
I00
sg8
(lp3214
ssVdropoff[38]
p3215
(dp3216
g3
I00
sg5
Vdouble
p3217
sg4
I00
sg35
I00
sg7
I01
sg8
(lp3218
ssg2521
(dp3219
g3
I01
sg4
I01
sg7
I00
sg5
VTdataCompound
p3220
ssVdropoff[193]
p3221
(dp3222
g3
I00
sg5
Vdouble
p3223
sg4
I00
sg35
I00
sg7
I01
sg8
(lp3224
ssVweightList[396]
p3225
(dp3226
g3
I00
sg4
I00
sg5
VTdataCompound
p3227
sg7
I00
sg8
(lp3228
VweightList[396].weights
p3229
assVpaintWeights
p3230
(dp3231
g3
I00
sg4
I00
sg5
VdoubleArray
p3232
sg7
I00
sg8
(lp3233
ssVweightList[376].weights
p3234
(dp3235
g3
I01
sg4
I01
sg7
I00
sg5
VTdataCompound
p3236
ssVweightList[170]
p3237
(dp3238
g3
I00
sg4
I00
sg5
VTdataCompound
p3239
sg7
I00
sg8
(lp3240
VweightList[170].weights
p3241
assVdropoff[36]
p3242
(dp3243
g3
I00
sg5
Vdouble
p3244
sg4
I00
sg35
I00
sg7
I01
sg8
(lp3245
ssVmatrix[72]
p3246
(dp3247
g3
I00
sg4
I00
sg5
Vmatrix
p3248
sg7
I00
sg8
(lp3249
ssVlockWeights[94]
p3250
(dp3251
g3
I00
sg5
Vbool
p3252
sg4
I00
sg35
I00
sg7
I01
sg8
(lp3253
ssg2786
(dp3254
g3
I01
sg4
I01
sg7
I00
sg5
VTdataCompound
p3255
ssVweightList[163]
p3256
(dp3257
g3
I00
sg4
I00
sg5
VTdataCompound
p3258
sg7
I00
sg8
(lp3259
VweightList[163].weights
p3260
assVdropoff[70]
p3261
(dp3262
g3
I00
sg5
Vdouble
p3263
sg4
I00
sg35
I00
sg7
I01
sg8
(lp3264
ssVweightList[114]
p3265
(dp3266
g3
I00
sg4
I00
sg5
VTdataCompound
p3267
sg7
I00
sg8
(lp3268
g2150
assVweightList[82]
p3269
(dp3270
g3
I00
sg4
I00
sg5
VTdataCompound
p3271
sg7
I00
sg8
(lp3272
VweightList[82].weights
p3273
assg1606
(dp3274
g3
I01
sg4
I01
sg7
I00
sg5
VTdataCompound
p3275
ssVweightList[426]
p3276
(dp3277
g3
I00
sg4
I00
sg5
VTdataCompound
p3278
sg7
I00
sg8
(lp3279
VweightList[426].weights
p3280
assg2399
(dp3281
g3
I01
sg4
I01
sg7
I00
sg5
VTdataCompound
p3282
ssVweightList[515].weights
p3283
(dp3284
g3
I01
sg4
I01
sg7
I00
sg5
VTdataCompound
p3285
ssVmatrix[98]
p3286
(dp3287
g3
I00
sg4
I00
sg5
Vmatrix
p3288
sg7
I00
sg8
(lp3289
ssVweightList[473]
p3290
(dp3291
g3
I00
sg4
I00
sg5
VTdataCompound
p3292
sg7
I00
sg8
(lp3293
g926
assVweightList[37]
p3294
(dp3295
g3
I00
sg4
I00
sg5
VTdataCompound
p3296
sg7
I00
sg8
(lp3297
VweightList[37].weights
p3298
assVweightList[295]
p3299
(dp3300
g3
I00
sg4
I00
sg5
VTdataCompound
p3301
sg7
I00
sg8
(lp3302
g2016
assVbindPreMatrix[194]
p3303
(dp3304
g3
I00
sg4
I00
sg5
Vmatrix
p3305
sg7
I00
sg8
(lp3306
ssVdropoff[111]
p3307
(dp3308
g3
I00
sg5
Vdouble
p3309
sg4
I00
sg35
I00
sg7
I01
sg8
(lp3310
ssVbindPreMatrix[209]
p3311
(dp3312
g3
I00
sg4
I00
sg5
Vmatrix
p3313
sg7
I00
sg8
(lp3314
ssVweightList[239]
p3315
(dp3316
g3
I00
sg4
I00
sg5
VTdataCompound
p3317
sg7
I00
sg8
(lp3318
g582
assg1376
(dp3319
g3
I01
sg4
I01
sg7
I00
sg5
VTdataCompound
p3320
ssVlockWeights[14]
p3321
(dp3322
g3
I00
sg5
Vbool
p3323
sg4
I00
sg35
I00
sg7
I01
sg8
(lp3324
ssVweightList[240].weights
p3325
(dp3326
g3
I01
sg4
I01
sg7
I00
sg5
VTdataCompound
p3327
ssVweightList[255]
p3328
(dp3329
g3
I00
sg4
I00
sg5
VTdataCompound
p3330
sg7
I00
sg8
(lp3331
VweightList[255].weights
p3332
assg921
(dp3333
g3
I01
sg4
I01
sg7
I00
sg5
VTdataCompound
p3334
ssVweightList[288]
p3335
(dp3336
g3
I00
sg4
I00
sg5
VTdataCompound
p3337
sg7
I00
sg8
(lp3338
VweightList[288].weights
p3339
assVdropoff[94]
p3340
(dp3341
g3
I00
sg5
Vdouble
p3342
sg4
I00
sg35
I00
sg7
I01
sg8
(lp3343
ssg2002
(dp3344
g3
I01
sg4
I01
sg7
I00
sg5
VTdataCompound
p3345
ssVlockWeights[76]
p3346
(dp3347
g3
I00
sg5
Vbool
p3348
sg4
I00
sg35
I00
sg7
I01
sg8
(lp3349
ssVlockWeights[177]
p3350
(dp3351
g3
I00
sg5
Vbool
p3352
sg4
I00
sg35
I00
sg7
I01
sg8
(lp3353
ssVbindPreMatrix[183]
p3354
(dp3355
g3
I00
sg4
I00
sg5
Vmatrix
p3356
sg7
I00
sg8
(lp3357
ssVbindMethod
p3358
(dp3359
g3
I00
sg5
Vlong
p3360
sg4
I00
sg35
I00
sg7
I01
sg8
(lp3361
ssVweightList[54].weights
p3362
(dp3363
g3
I01
sg4
I01
sg7
I00
sg5
VTdataCompound
p3364
ssVweightList[242]
p3365
(dp3366
g3
I00
sg4
I00
sg5
VTdataCompound
p3367
sg7
I00
sg8
(lp3368
VweightList[242].weights
p3369
assVweightList[0].weights[76]
p3370
(dp3371
g3
I00
sg5
Vdouble
p3372
sg4
I00
sg35
I00
sg7
I01
sg8
(lp3373
ssVmatrix[85]
p3374
(dp3375
g3
I00
sg4
I00
sg5
Vmatrix
p3376
sg7
I00
sg8
(lp3377
ssVweightList[528]
p3378
(dp3379
g3
I00
sg4
I00
sg5
VTdataCompound
p3380
sg7
I00
sg8
(lp3381
g833
assVweightList[413]
p3382
(dp3383
g3
I00
sg4
I00
sg5
VTdataCompound
p3384
sg7
I00
sg8
(lp3385
VweightList[413].weights
p3386
assVweightList[464]
p3387
(dp3388
g3
I00
sg4
I00
sg5
VTdataCompound
p3389
sg7
I00
sg8
(lp3390
VweightList[464].weights
p3391
assVweightList[237]
p3392
(dp3393
g3
I00
sg4
I00
sg5
VTdataCompound
p3394
sg7
I00
sg8
(lp3395
g1965
assVweightList[299].weights
p3396
(dp3397
g3
I01
sg4
I01
sg7
I00
sg5
VTdataCompound
p3398
ssVmatrix[118]
p3399
(dp3400
g3
I00
sg4
I00
sg5
Vmatrix
p3401
sg7
I00
sg8
(lp3402
ssVdropoff[133]
p3403
(dp3404
g3
I00
sg5
Vdouble
p3405
sg4
I00
sg35
I00
sg7
I01
sg8
(lp3406
ssVbindPreMatrix[104]
p3407
(dp3408
g3
I00
sg4
I00
sg5
Vmatrix
p3409
sg7
I00
sg8
(lp3410
ssVweightList[64].weights
p3411
(dp3412
g3
I01
sg4
I01
sg7
I00
sg5
VTdataCompound
p3413
ssg2565
(dp3414
g3
I01
sg4
I01
sg7
I00
sg5
VTdataCompound
p3415
ssVweightList[217]
p3416
(dp3417
g3
I00
sg4
I00
sg5
VTdataCompound
p3418
sg7
I00
sg8
(lp3419
VweightList[217].weights
p3420
assVweightList[403].weights
p3421
(dp3422
g3
I01
sg4
I01
sg7
I00
sg5
VTdataCompound
p3423
ssVmatrix[121]
p3424
(dp3425
g3
I00
sg4
I00
sg5
Vmatrix
p3426
sg7
I00
sg8
(lp3427
ssVmatrix[198]
p3428
(dp3429
g3
I00
sg4
I00
sg5
Vmatrix
p3430
sg7
I00
sg8
(lp3431
ssVlockWeights[55]
p3432
(dp3433
g3
I00
sg5
Vbool
p3434
sg4
I00
sg35
I00
sg7
I01
sg8
(lp3435
ssg1016
(dp3436
g3
I01
sg4
I01
sg7
I00
sg5
VTdataCompound
p3437
ssVweightList[108].weights
p3438
(dp3439
g3
I01
sg4
I01
sg7
I00
sg5
VTdataCompound
p3440
ssg2832
(dp3441
g3
I01
sg4
I01
sg7
I00
sg5
VTdataCompound
p3442
ssVdropoff[208]
p3443
(dp3444
g3
I00
sg5
Vdouble
p3445
sg4
I00
sg35
I00
sg7
I01
sg8
(lp3446
ssVmatrix[185]
p3447
(dp3448
g3
I00
sg4
I00
sg5
Vmatrix
p3449
sg7
I00
sg8
(lp3450
ssVinput[1]
p3451
(dp3452
g3
I00
sg8
(lp3453
g1420
ag1636
assVweightList[208]
p3454
(dp3455
g3
I00
sg4
I00
sg5
VTdataCompound
p3456
sg7
I00
sg8
(lp3457
VweightList[208].weights
p3458
assVmatrix[167]
p3459
(dp3460
g3
I00
sg4
I00
sg5
Vmatrix
p3461
sg7
I00
sg8
(lp3462
ssVweightList[187].weights
p3463
(dp3464
g3
I01
sg4
I01
sg7
I00
sg5
VTdataCompound
p3465
ssVdropoff[102]
p3466
(dp3467
g3
I00
sg5
Vdouble
p3468
sg4
I00
sg35
I00
sg7
I01
sg8
(lp3469
ssVweightList[277]
p3470
(dp3471
g3
I00
sg4
I00
sg5
VTdataCompound
p3472
sg7
I00
sg8
(lp3473
VweightList[277].weights
p3474
assVmatrix[107]
p3475
(dp3476
g3
I00
sg4
I00
sg5
Vmatrix
p3477
sg7
I00
sg8
(lp3478
ssVlockWeights[39]
p3479
(dp3480
g3
I00
sg5
Vbool
p3481
sg4
I00
sg35
I00
sg7
I01
sg8
(lp3482
ssVweightList[186]
p3483
(dp3484
g3
I00
sg4
I00
sg5
VTdataCompound
p3485
sg7
I00
sg8
(lp3486
g1448
assVbindPreMatrix[131]
p3487
(dp3488
g3
I00
sg4
I00
sg5
Vmatrix
p3489
sg7
I00
sg8
(lp3490
ssVmatrix[22]
p3491
(dp3492
g3
I00
sg4
I00
sg5
Vmatrix
p3493
sg7
I00
sg8
(lp3494
ssVweightList[0].weights[74]
p3495
(dp3496
g3
I00
sg5
Vdouble
p3497
sg4
I00
sg35
I00
sg7
I01
sg8
(lp3498
ssVweightList[78]
p3499
(dp3500
g3
I00
sg4
I00
sg5
VTdataCompound
p3501
sg7
I00
sg8
(lp3502
g1616
assVweightList[448].weights
p3503
(dp3504
g3
I01
sg4
I01
sg7
I00
sg5
VTdataCompound
p3505
ssVlockWeights[74]
p3506
(dp3507
g3
I00
sg5
Vbool
p3508
sg4
I00
sg35
I00
sg7
I01
sg8
(lp3509
ssVlockWeights[102]
p3510
(dp3511
g3
I00
sg5
Vbool
p3512
sg4
I00
sg35
I00
sg7
I01
sg8
(lp3513
ssVweightList[377]
p3514
(dp3515
g3
I00
sg4
I00
sg5
VTdataCompound
p3516
sg7
I00
sg8
(lp3517
VweightList[377].weights
p3518
assVweightList[46].weights
p3519
(dp3520
g3
I01
sg4
I01
sg7
I00
sg5
VTdataCompound
p3521
ssVweightList[405]
p3522
(dp3523
g3
I00
sg4
I00
sg5
VTdataCompound
p3524
sg7
I00
sg8
(lp3525
g1229
assVbindPreMatrix[39]
p3526
(dp3527
g3
I00
sg4
I00
sg5
Vmatrix
p3528
sg7
I00
sg8
(lp3529
ssVbindPreMatrix[155]
p3530
(dp3531
g3
I00
sg4
I00
sg5
Vmatrix
p3532
sg7
I00
sg8
(lp3533
ssVbindPreMatrix[55]
p3534
(dp3535
g3
I00
sg4
I00
sg5
Vmatrix
p3536
sg7
I00
sg8
(lp3537
ssVlockWeights[140]
p3538
(dp3539
g3
I00
sg5
Vbool
p3540
sg4
I00
sg35
I00
sg7
I01
sg8
(lp3541
ssVdropoff[174]
p3542
(dp3543
g3
I00
sg5
Vdouble
p3544
sg4
I00
sg35
I00
sg7
I01
sg8
(lp3545
ssVdropoff[124]
p3546
(dp3547
g3
I00
sg5
Vdouble
p3548
sg4
I00
sg35
I00
sg7
I01
sg8
(lp3549
ssVbindPreMatrix[95]
p3550
(dp3551
g3
I00
sg4
I00
sg5
Vmatrix
p3552
sg7
I00
sg8
(lp3553
ssVmatrix[169]
p3554
(dp3555
g3
I00
sg4
I00
sg5
Vmatrix
p3556
sg7
I00
sg8
(lp3557
ssVweightList[32]
p3558
(dp3559
g3
I00
sg4
I00
sg5
VTdataCompound
p3560
sg7
I00
sg8
(lp3561
VweightList[32].weights
p3562
assVweightList[199]
p3563
(dp3564
g3
I00
sg4
I00
sg5
VTdataCompound
p3565
sg7
I00
sg8
(lp3566
g404
assVdropoff[120]
p3567
(dp3568
g3
I00
sg5
Vdouble
p3569
sg4
I00
sg35
I00
sg7
I01
sg8
(lp3570
ssVlockWeights[37]
p3571
(dp3572
g3
I00
sg5
Vbool
p3573
sg4
I00
sg35
I00
sg7
I01
sg8
(lp3574
ssVlockWeights[79]
p3575
(dp3576
g3
I00
sg5
Vbool
p3577
sg4
I00
sg35
I00
sg7
I01
sg8
(lp3578
ssVbindPreMatrix[122]
p3579
(dp3580
g3
I00
sg4
I00
sg5
Vmatrix
p3581
sg7
I00
sg8
(lp3582
ssg515
(dp3583
g3
I01
sg4
I01
sg7
I00
sg5
VTdataCompound
p3584
ssVbindPreMatrix[0]
p3585
(dp3586
g3
I00
sg4
I00
sg5
Vmatrix
p3587
sg7
I00
sg8
(lp3588
ssVweightList[411]
p3589
(dp3590
g3
I00
sg4
I00
sg5
VTdataCompound
p3591
sg7
I00
sg8
(lp3592
g1480
assVweightList[317]
p3593
(dp3594
g3
I00
sg4
I00
sg5
VTdataCompound
p3595
sg7
I00
sg8
(lp3596
g1087
assVmatrix[145]
p3597
(dp3598
g3
I00
sg4
I00
sg5
Vmatrix
p3599
sg7
I00
sg8
(lp3600
ssVmatrix[132]
p3601
(dp3602
g3
I00
sg4
I00
sg5
Vmatrix
p3603
sg7
I00
sg8
(lp3604
ssg2946
(dp3605
g3
I01
sg4
I01
sg7
I00
sg5
VTdataCompound
p3606
ssVdropoff[192]
p3607
(dp3608
g3
I00
sg5
Vdouble
p3609
sg4
I00
sg35
I00
sg7
I01
sg8
(lp3610
ssVweightList[391]
p3611
(dp3612
g3
I00
sg4
I00
sg5
VTdataCompound
p3613
sg7
I00
sg8
(lp3614
VweightList[391].weights
p3615
assVbindPreMatrix[77]
p3616
(dp3617
g3
I00
sg4
I00
sg5
Vmatrix
p3618
sg7
I00
sg8
(lp3619
ssVlockWeights[122]
p3620
(dp3621
g3
I00
sg5
Vbool
p3622
sg4
I00
sg35
I00
sg7
I01
sg8
(lp3623
ssg997
(dp3624
g3
I01
sg4
I01
sg7
I00
sg5
VTdataCompound
p3625
ssVmatrix[40]
p3626
(dp3627
g3
I00
sg4
I00
sg5
Vmatrix
p3628
sg7
I00
sg8
(lp3629
ssVweightList[320].weights
p3630
(dp3631
g3
I01
sg4
I01
sg7
I00
sg5
VTdataCompound
p3632
ssVweightList[173]
p3633
(dp3634
g3
I00
sg4
I00
sg5
VTdataCompound
p3635
sg7
I00
sg8
(lp3636
g635
assVweightList[492]
p3637
(dp3638
g3
I00
sg4
I00
sg5
VTdataCompound
p3639
sg7
I00
sg8
(lp3640
g10
assVdropoff[37]
p3641
(dp3642
g3
I00
sg5
Vdouble
p3643
sg4
I00
sg35
I00
sg7
I01
sg8
(lp3644
ssVmatrix[71]
p3645
(dp3646
g3
I00
sg4
I00
sg5
Vmatrix
p3647
sg7
I00
sg8
(lp3648
ssVlockWeights[95]
p3649
(dp3650
g3
I00
sg5
Vbool
p3651
sg4
I00
sg35
I00
sg7
I01
sg8
(lp3652
ssVdropoff[71]
p3653
(dp3654
g3
I00
sg5
Vdouble
p3655
sg4
I00
sg35
I00
sg7
I01
sg8
(lp3656
ssVweightList[160]
p3657
(dp3658
g3
I00
sg4
I00
sg5
VTdataCompound
p3659
sg7
I00
sg8
(lp3660
g2455
assVweightList[81]
p3661
(dp3662
g3
I00
sg4
I00
sg5
VTdataCompound
p3663
sg7
I00
sg8
(lp3664
g347
assg2511
(dp3665
g3
I01
sg4
I01
sg7
I00
sg5
VTdataCompound
p3666
ssVweightList[425]
p3667
(dp3668
g3
I00
sg4
I00
sg5
VTdataCompound
p3669
sg7
I00
sg8
(lp3670
g2641
assVdropoff[57]
p3671
(dp3672
g3
I00
sg5
Vdouble
p3673
sg4
I00
sg35
I00
sg7
I01
sg8
(lp3674
ssVweightList[481]
p3675
(dp3676
g3
I00
sg4
I00
sg5
VTdataCompound
p3677
sg7
I00
sg8
(lp3678
g2554
assVlockWeights[179]
p3679
(dp3680
g3
I00
sg5
Vbool
p3681
sg4
I00
sg35
I00
sg7
I01
sg8
(lp3682
ssVweightList[127].weights
p3683
(dp3684
g3
I01
sg4
I01
sg7
I00
sg5
VTdataCompound
p3685
ssVweightList[328]
p3686
(dp3687
g3
I00
sg4
I00
sg5
VTdataCompound
p3688
sg7
I00
sg8
(lp3689
VweightList[328].weights
p3690
assVmatrix[53]
p3691
(dp3692
g3
I00
sg4
I00
sg5
Vmatrix
p3693
sg7
I00
sg8
(lp3694
ssVweightList[441]
p3695
(dp3696
g3
I00
sg4
I00
sg5
VTdataCompound
p3697
sg7
I00
sg8
(lp3698
VweightList[441].weights
p3699
assVweightList[25]
p3700
(dp3701
g3
I00
sg4
I00
sg5
VTdataCompound
p3702
sg7
I00
sg8
(lp3703
VweightList[25].weights
p3704
assVweightList[188].weights
p3705
(dp3706
g3
I01
sg4
I01
sg7
I00
sg5
VTdataCompound
p3707
ssVlockWeights[131]
p3708
(dp3709
g3
I00
sg5
Vbool
p3710
sg4
I00
sg35
I00
sg7
I01
sg8
(lp3711
ssVbindPreMatrix[17]
p3712
(dp3713
g3
I00
sg4
I00
sg5
Vmatrix
p3714
sg7
I00
sg8
(lp3715
ssVdropoff[17]
p3716
(dp3717
g3
I00
sg5
Vdouble
p3718
sg4
I00
sg35
I00
sg7
I01
sg8
(lp3719
ssVweightList[443].weights
p3720
(dp3721
g3
I01
sg4
I01
sg7
I00
sg5
VTdataCompound
p3722
ssVdropoff[163]
p3723
(dp3724
g3
I00
sg5
Vdouble
p3725
sg4
I00
sg35
I00
sg7
I01
sg8
(lp3726
ssVweightList[7].weights[7]
p3727
(dp3728
g3
I00
sg5
Vdouble
p3729
sg4
I00
sg35
I00
sg7
I01
sg8
(lp3730
ssVweightList[335]
p3731
(dp3732
g3
I00
sg4
I00
sg5
VTdataCompound
p3733
sg7
I00
sg8
(lp3734
VweightList[335].weights
p3735
assVweightList[360]
p3736
(dp3737
g3
I00
sg4
I00
sg5
VTdataCompound
p3738
sg7
I00
sg8
(lp3739
VweightList[360].weights
p3740
assVdropoff[210]
p3741
(dp3742
g3
I00
sg8
(lp3743
ssVweightList[126].weights
p3744
(dp3745
g3
I01
sg4
I01
sg7
I00
sg5
VTdataCompound
p3746
ssVweightList[119]
p3747
(dp3748
g3
I00
sg4
I00
sg5
VTdataCompound
p3749
sg7
I00
sg8
(lp3750
VweightList[119].weights
p3751
assVlockWeights[77]
p3752
(dp3753
g3
I00
sg5
Vbool
p3754
sg4
I00
sg35
I00
sg7
I01
sg8
(lp3755
ssVdropoff[95]
p3756
(dp3757
g3
I00
sg5
Vdouble
p3758
sg4
I00
sg35
I00
sg7
I01
sg8
(lp3759
ssVbindPreMatrix[182]
p3760
(dp3761
g3
I00
sg4
I00
sg5
Vmatrix
p3762
sg7
I00
sg8
(lp3763
ssVweightList[152]
p3764
(dp3765
g3
I00
sg4
I00
sg5
VTdataCompound
p3766
sg7
I00
sg8
(lp3767
g665
assVmatrix[8]
p3768
(dp3769
g3
I00
sg4
I00
sg5
Vmatrix
p3770
sg7
I00
sg8
(lp3771
ssVweightList[241]
p3772
(dp3773
g3
I00
sg4
I00
sg5
VTdataCompound
p3774
sg7
I00
sg8
(lp3775
VweightList[241].weights
p3776
assVweightList[31].weights
p3777
(dp3778
g3
I01
sg4
I01
sg7
I00
sg5
VTdataCompound
p3779
ssVbindPreMatrix[200]
p3780
(dp3781
g3
I00
sg4
I00
sg5
Vmatrix
p3782
sg7
I00
sg8
(lp3783
ssVbindPreMatrix[98]
p3784
(dp3785
g3
I00
sg4
I00
sg5
Vmatrix
p3786
sg7
I00
sg8
(lp3787
ssVweightList[410]
p3788
(dp3789
g3
I00
sg4
I00
sg5
VTdataCompound
p3790
sg7
I00
sg8
(lp3791
g3054
assVlockWeights[58]
p3792
(dp3793
g3
I00
sg5
Vbool
p3794
sg4
I00
sg35
I00
sg7
I01
sg8
(lp3795
ssVdropoff[156]
p3796
(dp3797
g3
I00
sg5
Vdouble
p3798
sg4
I00
sg35
I00
sg7
I01
sg8
(lp3799
ssVweightList[469].weights
p3800
(dp3801
g3
I01
sg4
I01
sg7
I00
sg5
VTdataCompound
p3802
ssVweightList[496].weights
p3803
(dp3804
g3
I01
sg4
I01
sg7
I00
sg5
VTdataCompound
p3805
ssVweightList[382]
p3806
(dp3807
g3
I00
sg4
I00
sg5
VTdataCompound
p3808
sg7
I00
sg8
(lp3809
VweightList[382].weights
p3810
assVweightList[404].weights
p3811
(dp3812
g3
I01
sg4
I01
sg7
I00
sg5
VTdataCompound
p3813
ssVlockWeights[88]
p3814
(dp3815
g3
I00
sg5
Vbool
p3816
sg4
I00
sg35
I00
sg7
I01
sg8
(lp3817
ssg967
(dp3818
g3
I01
sg4
I01
sg7
I00
sg5
VTdataCompound
p3819
ssVdropoff[181]
p3820
(dp3821
g3
I00
sg5
Vdouble
p3822
sg4
I00
sg35
I00
sg7
I01
sg8
(lp3823
ssVbindPreMatrix[60]
p3824
(dp3825
g3
I00
sg4
I00
sg5
Vmatrix
p3826
sg7
I00
sg8
(lp3827
ssVlockWeights[113]
p3828
(dp3829
g3
I00
sg5
Vbool
p3830
sg4
I00
sg35
I00
sg7
I01
sg8
(lp3831
ssVweightList[403]
p3832
(dp3833
g3
I00
sg4
I00
sg5
VTdataCompound
p3834
sg7
I00
sg8
(lp3835
g3421
assVweightList[104]
p3836
(dp3837
g3
I00
sg4
I00
sg5
VTdataCompound
p3838
sg7
I00
sg8
(lp3839
g620
assVweightList[452].weights
p3840
(dp3841
g3
I01
sg4
I01
sg7
I00
sg5
VTdataCompound
p3842
ssVweightList[55].weights
p3843
(dp3844
g3
I01
sg4
I01
sg7
I00
sg5
VTdataCompound
p3845
ssVuseComponentsMatrix
p3846
(dp3847
g3
I00
sg5
Vbool
p3848
sg4
I00
sg35
I00
sg7
I01
sg8
(lp3849
ssVweightList[503]
p3850
(dp3851
g3
I00
sg4
I00
sg5
VTdataCompound
p3852
sg7
I00
sg8
(lp3853
VweightList[503].weights
p3854
assVweightList[128]
p3855
(dp3856
g3
I00
sg4
I00
sg5
VTdataCompound
p3857
sg7
I00
sg8
(lp3858
VweightList[128].weights
p3859
assVdropoff[39]
p3860
(dp3861
g3
I00
sg5
Vdouble
p3862
sg4
I00
sg35
I00
sg7
I01
sg8
(lp3863
ssVlockWeights[125]
p3864
(dp3865
g3
I00
sg5
Vbool
p3866
sg4
I00
sg35
I00
sg7
I01
sg8
(lp3867
ssVbindPreMatrix[70]
p3868
(dp3869
g3
I00
sg4
I00
sg5
Vmatrix
p3870
sg7
I00
sg8
(lp3871
ssg851
(dp3872
g3
I01
sg4
I01
sg7
I00
sg5
VTdataCompound
p3873
ssVmatrix[88]
p3874
(dp3875
g3
I00
sg4
I00
sg5
Vmatrix
p3876
sg7
I00
sg8
(lp3877
ssVmatrix[7]
p3878
(dp3879
g3
I00
sg4
I00
sg5
Vmatrix
p3880
sg7
I00
sg8
(lp3881
ssVlockWeights[56]
p3882
(dp3883
g3
I00
sg5
Vbool
p3884
sg4
I00
sg35
I00
sg7
I01
sg8
(lp3885
ssVweightList[518].weights
p3886
(dp3887
g3
I01
sg4
I01
sg7
I00
sg5
VTdataCompound
p3888
ssVweightList[274]
p3889
(dp3890
g3
I00
sg4
I00
sg5
VTdataCompound
p3891
sg7
I00
sg8
(lp3892
VweightList[274].weights
p3893
assVinput[0]
p3894
(dp3895
g3
I00
sg4
I00
sg5
VTdataCompound
p3896
sg7
I00
sg8
(lp3897
Vinput[0].inputGeometry
p3898
ag1288
assVmatrix[166]
p3899
(dp3900
g3
I00
sg4
I00
sg5
Vmatrix
p3901
sg7
I00
sg8
(lp3902
ssVmatrix[184]
p3903
(dp3904
g3
I00
sg4
I00
sg5
Vmatrix
p3905
sg7
I00
sg8
(lp3906
ssVweightList[298]
p3907
(dp3908
g3
I00
sg4
I00
sg5
VTdataCompound
p3909
sg7
I00
sg8
(lp3910
g1745
assg1207
(dp3911
g3
I01
sg4
I01
sg7
I00
sg5
VTdataCompound
p3912
ssVdropoff[103]
p3913
(dp3914
g3
I00
sg5
Vdouble
p3915
sg4
I00
sg35
I00
sg7
I01
sg8
(lp3916
ssVmatrix[106]
p3917
(dp3918
g3
I00
sg4
I00
sg5
Vmatrix
p3919
sg7
I00
sg8
(lp3920
ssg2935
(dp3921
g3
I01
sg4
I01
sg7
I00
sg5
VTdataCompound
p3922
ssVweightList[424].weights
p3923
(dp3924
g3
I01
sg4
I01
sg7
I00
sg5
VTdataCompound
p3925
ssVweightList[417].weights
p3926
(dp3927
g3
I01
sg4
I01
sg7
I00
sg5
VTdataCompound
p3928
ssVweightList[474]
p3929
(dp3930
g3
I00
sg4
I00
sg5
VTdataCompound
p3931
sg7
I00
sg8
(lp3932
VweightList[474].weights
p3933
assVweightList[529]
p3934
(dp3935
g3
I00
sg4
I00
sg5
VTdataCompound
p3936
sg7
I00
sg8
(lp3937
VweightList[529].weights
p3938
assVweightList[296]
p3939
(dp3940
g3
I00
sg4
I00
sg5
VTdataCompound
p3941
sg7
I00
sg8
(lp3942
g2530
assVdropoff[197]
p3943
(dp3944
g3
I00
sg5
Vdouble
p3945
sg4
I00
sg35
I00
sg7
I01
sg8
(lp3946
ssVbindPreMatrix[195]
p3947
(dp3948
g3
I00
sg4
I00
sg5
Vmatrix
p3949
sg7
I00
sg8
(lp3950
ssg2162
(dp3951
g3
I01
sg4
I01
sg7
I00
sg5
VTdataCompound
p3952
ssVweightList[430]
p3953
(dp3954
g3
I00
sg4
I00
sg5
VTdataCompound
p3955
sg7
I00
sg8
(lp3956
g137
assVweightList[312].weights
p3957
(dp3958
g3
I01
sg4
I01
sg7
I00
sg5
VTdataCompound
p3959
ssVweightList[346].weights
p3960
(dp3961
g3
I01
sg4
I01
sg7
I00
sg5
VTdataCompound
p3962
ssVweightList[534]
p3963
(dp3964
g3
I00
sg4
I00
sg5
VTdataCompound
p3965
sg7
I00
sg8
(lp3966
VweightList[534].weights
p3967
assVmatrix[6]
p3968
(dp3969
g3
I00
sg4
I00
sg5
Vmatrix
p3970
sg7
I00
sg8
(lp3971
ssVlockWeights[41]
p3972
(dp3973
g3
I00
sg5
Vbool
p3974
sg4
I00
sg35
I00
sg7
I01
sg8
(lp3975
ssVweightList[256]
p3976
(dp3977
g3
I00
sg4
I00
sg5
VTdataCompound
p3978
sg7
I00
sg8
(lp3979
g590
assg739
(dp3980
g3
I01
sg4
I01
sg7
I00
sg5
VTdataCompound
p3981
ssg3776
(dp3982
g3
I01
sg4
I01
sg7
I00
sg5
VTdataCompound
p3983
ssVdropoff[125]
p3984
(dp3985
g3
I00
sg5
Vdouble
p3986
sg4
I00
sg35
I00
sg7
I01
sg8
(lp3987
ssVweightList[33]
p3988
(dp3989
g3
I00
sg4
I00
sg5
VTdataCompound
p3990
sg7
I00
sg8
(lp3991
g312
assVmatrix[168]
p3992
(dp3993
g3
I00
sg4
I00
sg5
Vmatrix
p3994
sg7
I00
sg8
(lp3995
ssVbindPreMatrix[94]
p3996
(dp3997
g3
I00
sg4
I00
sg5
Vmatrix
p3998
sg7
I00
sg8
(lp3999
ssg1329
(dp4000
g3
I01
sg4
I01
sg7
I00
sg5
VTdataCompound
p4001
ssg44
(dp4002
g3
I01
ssVlockWeights[18]
p4003
(dp4004
g3
I00
sg5
Vbool
p4005
sg4
I00
sg35
I00
sg7
I01
sg8
(lp4006
ssVweightList[321].weights
p4007
(dp4008
g3
I01
sg4
I01
sg7
I00
sg5
VTdataCompound
p4009
ssg1077
(dp4010
g3
I01
sg4
I01
sg7
I00
sg5
VTdataCompound
p4011
ssVlockWeights[34]
p4012
(dp4013
g3
I00
sg5
Vbool
p4014
sg4
I00
sg35
I00
sg7
I01
sg8
(lp4015
ssVbindPreMatrix[178]
p4016
(dp4017
g3
I00
sg4
I00
sg5
Vmatrix
p4018
sg7
I00
sg8
(lp4019
ssVbindPreMatrix[1]
p4020
(dp4021
g3
I00
sg4
I00
sg5
Vmatrix
p4022
sg7
I00
sg8
(lp4023
ssg2526
(dp4024
g3
I01
sg4
I01
sg7
I00
sg5
VTdataCompound
p4025
ssVmatrix[11]
p4026
(dp4027
g3
I00
sg4
I00
sg5
Vmatrix
p4028
sg7
I00
sg8
(lp4029
ssg2640
(dp4030
g3
I01
sg4
I01
sg7
I00
sg5
VTdataCompound
p4031
ssg744
(dp4032
g3
I01
sg4
I01
sg7
I00
sg5
VTdataCompound
p4033
ssVweightList[351]
p4034
(dp4035
g3
I00
sg4
I00
sg5
VTdataCompound
p4036
sg7
I00
sg8
(lp4037
VweightList[351].weights
p4038
assVweightList[198]
p4039
(dp4040
g3
I00
sg4
I00
sg5
VTdataCompound
p4041
sg7
I00
sg8
(lp4042
VweightList[198].weights
p4043
assVmatrix[133]
p4044
(dp4045
g3
I00
sg4
I00
sg5
Vmatrix
p4046
sg7
I00
sg8
(lp4047
ssVweightList[151].weights
p4048
(dp4049
g3
I01
sg4
I01
sg7
I00
sg5
VTdataCompound
p4050
ssg562
(dp4051
g3
I01
sg4
I01
sg7
I00
sg5
VTdataCompound
p4052
ssVweightList[234]
p4053
(dp4054
g3
I00
sg4
I00
sg5
VTdataCompound
p4055
sg7
I00
sg8
(lp4056
g1719
assg2850
(dp4057
g3
I01
sg4
I01
sg7
I00
sg5
VTdataCompound
p4058
ssVdropoff[132]
p4059
(dp4060
g3
I00
sg5
Vdouble
p4061
sg4
I00
sg35
I00
sg7
I01
sg8
(lp4062
ssg1776
(dp4063
g3
I01
sg4
I01
sg7
I00
sg5
VTdataCompound
p4064
ssVweightList[135].weights
p4065
(dp4066
g3
I01
sg4
I01
sg7
I00
sg5
VTdataCompound
p4067
ssVbindPreMatrix[103]
p4068
(dp4069
g3
I00
sg4
I00
sg5
Vmatrix
p4070
sg7
I00
sg8
(lp4071
ssVweightList[6].weights[202]
p4072
(dp4073
g3
I00
sg8
(lp4074
ssVweightList[17].weights[70]
p4075
(dp4076
g3
I00
sg5
Vdouble
p4077
sg4
I00
sg35
I00
sg7
I01
sg8
(lp4078
ssVlockWeights[85]
p4079
(dp4080
g3
I00
sg5
Vbool
p4081
sg4
I00
sg35
I00
sg7
I01
sg8
(lp4082
ssVweightList[156].weights
p4083
(dp4084
g3
I01
sg4
I01
sg7
I00
sg5
VTdataCompound
p4085
ssg3006
(dp4086
g3
I01
sg4
I01
sg7
I00
sg5
VTdataCompound
p4087
ssVmatrix[120]
p4088
(dp4089
g3
I00
sg4
I00
sg5
Vmatrix
p4090
sg7
I00
sg8
(lp4091
ssVweightList[218]
p4092
(dp4093
g3
I00
sg4
I00
sg5
VTdataCompound
p4094
sg7
I00
sg8
(lp4095
g1084
assg1736
(dp4096
g3
I01
sg4
I01
sg7
I00
sg5
VTdataCompound
p4097
ssVdropoff[148]
p4098
(dp4099
g3
I00
sg5
Vdouble
p4100
sg4
I00
sg35
I00
sg7
I01
sg8
(lp4101
ssVweightList[480]
p4102
(dp4103
g3
I00
sg4
I00
sg5
VTdataCompound
p4104
sg7
I00
sg8
(lp4105
VweightList[480].weights
p4106
assVmatrix[52]
p4107
(dp4108
g3
I00
sg4
I00
sg5
Vmatrix
p4109
sg7
I00
sg8
(lp4110
ssVlockWeights[178]
p4111
(dp4112
g3
I00
sg5
Vbool
p4113
sg4
I00
sg35
I00
sg7
I01
sg8
(lp4114
ssVdropoff[54]
p4115
(dp4116
g3
I00
sg5
Vdouble
p4117
sg4
I00
sg35
I00
sg7
I01
sg8
(lp4118
ssVbindPreMatrix[156]
p4119
(dp4120
g3
I00
sg4
I00
sg5
Vmatrix
p4121
sg7
I00
sg8
(lp4122
ssVweightList[311].weights
p4123
(dp4124
g3
I01
sg4
I01
sg7
I00
sg5
VTdataCompound
p4125
ssVweightList[329]
p4126
(dp4127
g3
I00
sg4
I00
sg5
VTdataCompound
p4128
sg7
I00
sg8
(lp4129
VweightList[329].weights
p4130
assg58
(dp4131
g3
I01
sg4
I01
sg7
I00
sg5
VTdataCompound
p4132
ssVweightList[24]
p4133
(dp4134
g3
I00
sg4
I00
sg5
VTdataCompound
p4135
sg7
I00
sg8
(lp4136
VweightList[24].weights
p4137
assVlockWeights[82]
p4138
(dp4139
g3
I00
sg5
Vbool
p4140
sg4
I00
sg35
I00
sg7
I01
sg8
(lp4141
ssVbindPreMatrix[16]
p4142
(dp4143
g3
I00
sg4
I00
sg5
Vmatrix
p4144
sg7
I00
sg8
(lp4145
ssVlockWeights[130]
p4146
(dp4147
g3
I00
sg5
Vbool
p4148
sg4
I00
sg35
I00
sg7
I01
sg8
(lp4149
ssVdropoff[14]
p4150
(dp4151
g3
I00
sg5
Vdouble
p4152
sg4
I00
sg35
I00
sg7
I01
sg8
(lp4153
ssVweightList[358]
p4154
(dp4155
g3
I00
sg4
I00
sg5
VTdataCompound
p4156
sg7
I00
sg8
(lp4157
VweightList[358].weights
p4158
assVdropoff[49]
p4159
(dp4160
g3
I00
sg5
Vdouble
p4161
sg4
I00
sg35
I00
sg7
I01
sg8
(lp4162
ssVdropoff[164]
p4163
(dp4164
g3
I00
sg5
Vdouble
p4165
sg4
I00
sg35
I00
sg7
I01
sg8
(lp4166
ssVweightList[361]
p4167
(dp4168
g3
I00
sg4
I00
sg5
VTdataCompound
p4169
sg7
I00
sg8
(lp4170
g2493
assVweightList[334]
p4171
(dp4172
g3
I00
sg4
I00
sg5
VTdataCompound
p4173
sg7
I00
sg8
(lp4174
g2771
assVdropoff[211]
p4175
(dp4176
g3
I00
sg8
(lp4177
ssVbindPreMatrix[149]
p4178
(dp4179
g3
I00
sg4
I00
sg5
Vmatrix
p4180
sg7
I00
sg8
(lp4181
ssVbindPreMatrix[136]
p4182
(dp4183
g3
I00
sg4
I00
sg5
Vmatrix
p4184
sg7
I00
sg8
(lp4185
ssVweightList[187]
p4186
(dp4187
g3
I00
sg4
I00
sg5
VTdataCompound
p4188
sg7
I00
sg8
(lp4189
g3463
assVmatrix[23]
p4190
(dp4191
g3
I00
sg4
I00
sg5
Vmatrix
p4192
sg7
I00
sg8
(lp4193
ssVmatrix[153]
p4194
(dp4195
g3
I00
sg4
I00
sg5
Vmatrix
p4196
sg7
I00
sg8
(lp4197
ssVweightList[316]
p4198
(dp4199
g3
I00
sg4
I00
sg5
VTdataCompound
p4200
sg7
I00
sg8
(lp4201
VweightList[316].weights
p4202
assg1799
(dp4203
g3
I01
sg4
I01
sg7
I00
sg5
VTdataCompound
p4204
ssg2404
(dp4205
g3
I01
sg4
I01
sg7
I00
sg5
VTdataCompound
p4206
ssVweightList[79]
p4207
(dp4208
g3
I00
sg4
I00
sg5
VTdataCompound
p4209
sg7
I00
sg8
(lp4210
VweightList[79].weights
p4211
assg697
(dp4212
g3
I01
ssVweightList[376]
p4213
(dp4214
g3
I00
sg4
I00
sg5
VTdataCompound
p4215
sg7
I00
sg8
(lp4216
g3234
assVbindPreMatrix[38]
p4217
(dp4218
g3
I00
sg4
I00
sg5
Vmatrix
p4219
sg7
I00
sg8
(lp4220
ssVdropoff[207]
p4221
(dp4222
g3
I00
sg5
Vdouble
p4223
sg4
I00
sg35
I00
sg7
I01
sg8
(lp4224
ssVlockWeights[141]
p4225
(dp4226
g3
I00
sg5
Vbool
p4227
sg4
I00
sg35
I00
sg7
I01
sg8
(lp4228
ssVbindPreMatrix[54]
p4229
(dp4230
g3
I00
sg4
I00
sg5
Vmatrix
p4231
sg7
I00
sg8
(lp4232
ssVbindPreMatrix[176]
p4233
(dp4234
g3
I00
sg4
I00
sg5
Vmatrix
p4235
sg7
I00
sg8
(lp4236
ssVweightList[383]
p4237
(dp4238
g3
I00
sg4
I00
sg5
VTdataCompound
p4239
sg7
I00
sg8
(lp4240
VweightList[383].weights
p4241
assg2635
(dp4242
g3
I01
sg4
I01
sg7
I00
sg5
VTdataCompound
p4243
ssVmatrix[49]
p4244
(dp4245
g3
I00
sg4
I00
sg5
Vmatrix
p4246
sg7
I00
sg8
(lp4247
ssVweightList[161]
p4248
(dp4249
g3
I00
sg4
I00
sg5
VTdataCompound
p4250
sg7
I00
sg8
(lp4251
VweightList[161].weights
p4252
assVdropoff[72]
p4253
(dp4254
g3
I00
sg5
Vdouble
p4255
sg4
I00
sg35
I00
sg7
I01
sg8
(lp4256
ssVdropoff[186]
p4257
(dp4258
g3
I00
sg5
Vdouble
p4259
sg4
I00
sg35
I00
sg7
I01
sg8
(lp4260
ssVlockWeights[112]
p4261
(dp4262
g3
I00
sg5
Vbool
p4263
sg4
I00
sg35
I00
sg7
I01
sg8
(lp4264
ssVbindPreMatrix[61]
p4265
(dp4266
g3
I00
sg4
I00
sg5
Vmatrix
p4267
sg7
I00
sg8
(lp4268
ssVweightList[105]
p4269
(dp4270
g3
I00
sg4
I00
sg5
VTdataCompound
p4271
sg7
I00
sg8
(lp4272
g496
assVweightList[150]
p4273
(dp4274
g3
I00
sg4
I00
sg5
VTdataCompound
p4275
sg7
I00
sg8
(lp4276
g2913
assg1672
(dp4277
g3
I01
sg4
I01
sg7
I00
sg5
VTdataCompound
p4278
ssVweightList[43].weights
p4279
(dp4280
g3
I01
sg4
I01
sg7
I00
sg5
VTdataCompound
p4281
ssVweightList[129]
p4282
(dp4283
g3
I00
sg4
I00
sg5
VTdataCompound
p4284
sg7
I00
sg8
(lp4285
VweightList[129].weights
p4286
assVdropoff[81]
p4287
(dp4288
g3
I00
sg5
Vdouble
p4289
sg4
I00
sg35
I00
sg7
I01
sg8
(lp4290
ssg3001
(dp4291
g3
I01
sg4
I01
sg7
I00
sg5
VTdataCompound
p4292
ssVweightList[390]
p4293
(dp4294
g3
I00
sg4
I00
sg5
VTdataCompound
p4295
sg7
I00
sg8
(lp4296
g2596
assg2157
(dp4297
g3
I01
sg4
I01
sg7
I00
sg5
VTdataCompound
p4298
ssVmatrix[41]
p4299
(dp4300
g3
I00
sg4
I00
sg5
Vmatrix
p4301
sg7
I00
sg8
(lp4302
ssVbindPreMatrix[76]
p4303
(dp4304
g3
I00
sg4
I00
sg5
Vmatrix
p4305
sg7
I00
sg8
(lp4306
ssVmatrix[14]
p4307
(dp4308
g3
I00
sg4
I00
sg5
Vmatrix
p4309
sg7
I00
sg8
(lp4310
ssVdropoff[179]
p4311
(dp4312
g3
I00
sg5
Vdouble
p4313
sg4
I00
sg35
I00
sg7
I01
sg8
(lp4314
ssVweightList[493]
p4315
(dp4316
g3
I00
sg4
I00
sg5
VTdataCompound
p4317
sg7
I00
sg8
(lp4318
VweightList[493].weights
p4319
assg2054
(dp4320
g3
I01
sg4
I01
sg7
I00
sg5
VTdataCompound
p4321
ssVweightList[172]
p4322
(dp4323
g3
I00
sg4
I00
sg5
VTdataCompound
p4324
sg7
I00
sg8
(lp4325
VweightList[172].weights
p4326
assVweightList[424]
p4327
(dp4328
g3
I00
sg4
I00
sg5
VTdataCompound
p4329
sg7
I00
sg8
(lp4330
g3923
assVlockWeights[96]
p4331
(dp4332
g3
I00
sg5
Vbool
p4333
sg4
I00
sg35
I00
sg7
I01
sg8
(lp4334
ssVmatrix[70]
p4335
(dp4336
g3
I00
sg4
I00
sg5
Vmatrix
p4337
sg7
I00
sg8
(lp4338
ssg4319
(dp4339
g3
I01
sg4
I01
sg7
I00
sg5
VTdataCompound
p4340
ssVweightList[415]
p4341
(dp4342
g3
I00
sg4
I00
sg5
VTdataCompound
p4343
sg7
I00
sg8
(lp4344
VweightList[415].weights
p4345
assg4106
(dp4346
g3
I01
sg4
I01
sg7
I00
sg5
VTdataCompound
p4347
ssVweightList[168].weights
p4348
(dp4349
g3
I01
sg4
I01
sg7
I00
sg5
VTdataCompound
p4350
ssVweightList[80]
p4351
(dp4352
g3
I00
sg4
I00
sg5
VTdataCompound
p4353
sg7
I00
sg8
(lp4354
VweightList[80].weights
p4355
assVlockWeights[194]
p4356
(dp4357
g3
I00
sg5
Vbool
p4358
sg4
I00
sg35
I00
sg7
I01
sg8
(lp4359
ssVmatrix[100]
p4360
(dp4361
g3
I00
sg4
I00
sg5
Vmatrix
p4362
sg7
I00
sg8
(lp4363
ssVweightList[475]
p4364
(dp4365
g3
I00
sg4
I00
sg5
VTdataCompound
p4366
sg7
I00
sg8
(lp4367
g73
assg2245
(dp4368
g3
I01
sg4
I01
sg7
I00
sg5
VTdataCompound
p4369
ssVmatrix[208]
p4370
(dp4371
g3
I00
sg4
I00
sg5
Vmatrix
p4372
sg7
I00
sg8
(lp4373
ssg370
(dp4374
g3
I01
sg4
I01
sg7
I00
sg5
VTdataCompound
p4375
ssVweightList[146].weights
p4376
(dp4377
g3
I01
sg4
I01
sg7
I00
sg5
VTdataCompound
p4378
ssVbindPreMatrix[196]
p4379
(dp4380
g3
I00
sg4
I00
sg5
Vmatrix
p4381
sg7
I00
sg8
(lp4382
ssg2301
(dp4383
g3
I01
sg4
I01
sg7
I00
sg5
VTdataCompound
p4384
ssVweightList[297]
p4385
(dp4386
g3
I00
sg4
I00
sg5
VTdataCompound
p4387
sg7
I00
sg8
(lp4388
g1661
assVweightList[2].weights[108]
p4389
(dp4390
g3
I00
sg5
Vdouble
p4391
sg4
I00
sg35
I00
sg7
I01
sg8
(lp4392
ssVweightList[257]
p4393
(dp4394
g3
I00
sg4
I00
sg5
VTdataCompound
p4395
sg7
I00
sg8
(lp4396
g490
assg2503
(dp4397
g3
I01
sg4
I01
sg7
I00
sg5
VTdataCompound
p4398
ssVdropoff[113]
p4399
(dp4400
g3
I00
sg5
Vdouble
p4401
sg4
I00
sg35
I00
sg7
I01
sg8
(lp4402
ssVweightList[535]
p4403
(dp4404
g3
I00
sg4
I00
sg5
VTdataCompound
p4405
sg7
I00
sg8
(lp4406
VweightList[535].weights
p4407
assVweightList[537]
p4408
(dp4409
g3
I00
sg4
I00
sg5
VTdataCompound
p4410
sg7
I00
sg8
(lp4411
g1122
assVbindPreMatrix[198]
p4412
(dp4413
g3
I00
sg4
I00
sg5
Vmatrix
p4414
sg7
I00
sg8
(lp4415
ssVbindPreMatrix[127]
p4416
(dp4417
g3
I00
sg4
I00
sg5
Vmatrix
p4418
sg7
I00
sg8
(lp4419
ssg1684
(dp4420
g3
I01
sg4
I01
sg7
I00
sg5
VTdataCompound
p4421
ssVlockWeights[40]
p4422
(dp4423
g3
I00
sg5
Vbool
p4424
sg4
I00
sg35
I00
sg7
I01
sg8
(lp4425
ssVlockWeights[98]
p4426
(dp4427
g3
I00
sg5
Vbool
p4428
sg4
I00
sg35
I00
sg7
I01
sg8
(lp4429
ssVweightList[130].weights
p4430
(dp4431
g3
I01
sg4
I01
sg7
I00
sg5
VTdataCompound
p4432
ssVdropoff[92]
p4433
(dp4434
g3
I00
sg5
Vdouble
p4435
sg4
I00
sg35
I00
sg7
I01
sg8
(lp4436
ssVweightList[118]
p4437
(dp4438
g3
I00
sg4
I00
sg5
VTdataCompound
p4439
sg7
I00
sg8
(lp4440
g487
assVweightList[422].weights
p4441
(dp4442
g3
I01
sg4
I01
sg7
I00
sg5
VTdataCompound
p4443
ssVweightList[369].weights
p4444
(dp4445
g3
I01
sg4
I01
sg7
I00
sg5
VTdataCompound
p4446
ssVmatrix[9]
p4447
(dp4448
g3
I00
sg4
I00
sg5
Vmatrix
p4449
sg7
I00
sg8
(lp4450
ssVsmoothness
p4451
(dp4452
g3
I01
sg4
I01
sg7
I00
sg5
VTdataCompound
p4453
ssg3933
(dp4454
g3
I01
sg4
I01
sg7
I00
sg5
VTdataCompound
p4455
ssVbindPreMatrix[181]
p4456
(dp4457
g3
I00
sg4
I00
sg5
Vmatrix
p4458
sg7
I00
sg8
(lp4459
ssVweightList[240]
p4460
(dp4461
g3
I00
sg4
I00
sg5
VTdataCompound
p4462
sg7
I00
sg8
(lp4463
g3325
assVweightList[519]
p4464
(dp4465
g3
I00
sg4
I00
sg5
VTdataCompound
p4466
sg7
I00
sg8
(lp4467
g382
assg3893
(dp4468
g3
I01
sg4
I01
sg7
I00
sg5
VTdataCompound
p4469
ssVweightList[147]
p4470
(dp4471
g3
I00
sg4
I00
sg5
VTdataCompound
p4472
sg7
I00
sg8
(lp4473
g957
assVweightList[540]
p4474
(dp4475
g3
I00
sg4
I00
sg5
VTdataCompound
p4476
sg7
I00
sg8
(lp4477
g2843
assVweightList[448]
p4478
(dp4479
g3
I00
sg4
I00
sg5
VTdataCompound
p4480
sg7
I00
sg8
(lp4481
g3503
assVweightList[235]
p4482
(dp4483
g3
I00
sg4
I00
sg5
VTdataCompound
p4484
sg7
I00
sg8
(lp4485
g2175
assg972
(dp4486
g3
I01
sg4
I01
sg7
I00
sg5
VTdataCompound
p4487
ssVbindPreMatrix[102]
p4488
(dp4489
g3
I00
sg4
I00
sg5
Vmatrix
p4490
sg7
I00
sg8
(lp4491
ssVweightList[513].weights
p4492
(dp4493
g3
I01
sg4
I01
sg7
I00
sg5
VTdataCompound
p4494
ssVmatrix[123]
p4495
(dp4496
g3
I00
sg4
I00
sg5
Vmatrix
p4497
sg7
I00
sg8
(lp4498
ssVmatrix[194]
p4499
(dp4500
g3
I00
sg4
I00
sg5
Vmatrix
p4501
sg7
I00
sg8
(lp4502
ssVweightList[207].weights
p4503
(dp4504
g3
I01
sg4
I01
sg7
I00
sg5
VTdataCompound
p4505
ssVdropoff[131]
p4506
(dp4507
g3
I00
sg5
Vdouble
p4508
sg4
I00
sg35
I00
sg7
I01
sg8
(lp4509
ssVweightList[219]
p4510
(dp4511
g3
I00
sg4
I00
sg5
VTdataCompound
p4512
sg7
I00
sg8
(lp4513
VweightList[219].weights
p4514
assVweightList[154].weights
p4515
(dp4516
g3
I01
sg4
I01
sg7
I00
sg5
VTdataCompound
p4517
ssVdropoff[177]
p4518
(dp4519
g3
I00
sg5
Vdouble
p4520
sg4
I00
sg35
I00
sg7
I01
sg8
(lp4521
ssVweightList[110].weights
p4522
(dp4523
g3
I01
sg4
I01
sg7
I00
sg5
VTdataCompound
p4524
ssVweightList[433].weights
p4525
(dp4526
g3
I01
sg4
I01
sg7
I00
sg5
VTdataCompound
p4527
ssVweightList[155]
p4528
(dp4529
g3
I00
sg4
I00
sg5
VTdataCompound
p4530
sg7
I00
sg8
(lp4531
g673
assVmatrix[89]
p4532
(dp4533
g3
I00
sg4
I00
sg5
Vmatrix
p4534
sg7
I00
sg8
(lp4535
ssg1726
(dp4536
g3
I01
sg4
I01
sg7
I00
sg5
VTdataCompound
p4537
ssVbindPreMatrix[152]
p4538
(dp4539
g3
I00
sg4
I00
sg5
Vmatrix
p4540
sg7
I00
sg8
(lp4541
ssg3153
(dp4542
g3
I01
sg4
I01
sg7
I00
sg5
VTdataCompound
p4543
ssVweightList[275]
p4544
(dp4545
g3
I00
sg4
I00
sg5
VTdataCompound
p4546
sg7
I00
sg8
(lp4547
g332
assVmatrix[183]
p4548
(dp4549
g3
I00
sg4
I00
sg5
Vmatrix
p4550
sg7
I00
sg8
(lp4551
ssg3740
(dp4552
g3
I01
sg4
I01
sg7
I00
sg5
VTdataCompound
p4553
ssVweightList[299]
p4554
(dp4555
g3
I00
sg4
I00
sg5
VTdataCompound
p4556
sg7
I00
sg8
(lp4557
g3396
assVlockWeights[57]
p4558
(dp4559
g3
I00
sg5
Vbool
p4560
sg4
I00
sg35
I00
sg7
I01
sg8
(lp4561
ssVmatrix[105]
p4562
(dp4563
g3
I00
sg4
I00
sg5
Vmatrix
p4564
sg7
I00
sg8
(lp4565
ssVdropoff[100]
p4566
(dp4567
g3
I00
sg5
Vdouble
p4568
sg4
I00
sg35
I00
sg7
I01
sg8
(lp4569
ssVbindPreMatrix[137]
p4570
(dp4571
g3
I00
sg4
I00
sg5
Vmatrix
p4572
sg7
I00
sg8
(lp4573
ssg510
(dp4574
g3
I01
sg4
I01
sg7
I00
sg5
VTdataCompound
p4575
ssVbasePoints[1]
p4576
(dp4577
g3
I00
sg8
(lp4578
ssVweightList[113].weights
p4579
(dp4580
g3
I01
sg4
I01
sg7
I00
sg5
VTdataCompound
p4581
ssg2798
(dp4582
g3
I01
sg4
I01
sg7
I00
sg5
VTdataCompound
p4583
ssVweightList[188]
p4584
(dp4585
g3
I00
sg4
I00
sg5
VTdataCompound
p4586
sg7
I00
sg8
(lp4587
g3705
assVlockWeights[152]
p4588
(dp4589
g3
I00
sg5
Vbool
p4590
sg4
I00
sg35
I00
sg7
I01
sg8
(lp4591
ssg2103
(dp4592
g3
I01
sg4
I01
sg7
I00
sg5
VTdataCompound
p4593
ssVweightList[311]
p4594
(dp4595
g3
I00
sg4
I00
sg5
VTdataCompound
p4596
sg7
I00
sg8
(lp4597
g4123
assVbindPreMatrix[148]
p4598
(dp4599
g3
I00
sg4
I00
sg5
Vmatrix
p4600
sg7
I00
sg8
(lp4601
ssVweightList[28].weights
p4602
(dp4603
g3
I01
sg4
I01
sg7
I00
sg5
VTdataCompound
p4604
ssVbindPreMatrix[37]
p4605
(dp4606
g3
I00
sg4
I00
sg5
Vmatrix
p4607
sg7
I00
sg8
(lp4608
ssg3751
(dp4609
g3
I01
sg4
I01
sg7
I00
sg5
VTdataCompound
p4610
ssVweightList[375]
p4611
(dp4612
g3
I00
sg4
I00
sg5
VTdataCompound
p4613
sg7
I00
sg8
(lp4614
g987
assVweightList[302]
p4615
(dp4616
g3
I00
sg4
I00
sg5
VTdataCompound
p4617
sg7
I00
sg8
(lp4618
VweightList[302].weights
p4619
assg3699
(dp4620
g3
I01
sg4
I01
sg7
I00
sg5
VTdataCompound
p4621
ssg3211
(dp4622
g3
I01
sg4
I01
sg7
I00
sg5
VTdataCompound
p4623
ssVlockWeights[108]
p4624
(dp4625
g3
I00
sg5
Vbool
p4626
sg4
I00
sg35
I00
sg7
I01
sg8
(lp4627
ssVlockWeights[193]
p4628
(dp4629
g3
I00
sg5
Vbool
p4630
sg4
I00
sg35
I00
sg7
I01
sg8
(lp4631
ssVbindPreMatrix[57]
p4632
(dp4633
g3
I00
sg4
I00
sg5
Vmatrix
p4634
sg7
I00
sg8
(lp4635
ssVlockWeights[142]
p4636
(dp4637
g3
I00
sg5
Vbool
p4638
sg4
I00
sg35
I00
sg7
I01
sg8
(lp4639
ssg557
(dp4640
g3
I01
sg4
I01
sg7
I00
sg5
VTdataCompound
p4641
ssVbindPreMatrix[177]
p4642
(dp4643
g3
I00
sg4
I00
sg5
Vmatrix
p4644
sg7
I00
sg8
(lp4645
ssVbindPreMatrix[97]
p4646
(dp4647
g3
I00
sg4
I00
sg5
Vmatrix
p4648
sg7
I00
sg8
(lp4649
ssVbindPreMatrix[115]
p4650
(dp4651
g3
I00
sg4
I00
sg5
Vmatrix
p4652
sg7
I00
sg8
(lp4653
ssVdropoff[126]
p4654
(dp4655
g3
I00
sg5
Vdouble
p4656
sg4
I00
sg35
I00
sg7
I01
sg8
(lp4657
ssVweightList[30]
p4658
(dp4659
g3
I00
sg4
I00
sg5
VTdataCompound
p4660
sg7
I00
sg8
(lp4661
VweightList[30].weights
p4662
assVweightList[65]
p4663
(dp4664
g3
I00
sg4
I00
sg5
VTdataCompound
p4665
sg7
I00
sg8
(lp4666
VweightList[65].weights
p4667
assg2273
(dp4668
g3
I01
sg4
I01
sg7
I00
sg5
VTdataCompound
p4669
ssVbindPreMatrix[179]
p4670
(dp4671
g3
I00
sg4
I00
sg5
Vmatrix
p4672
sg7
I00
sg8
(lp4673
ssVmatrix[210]
p4674
(dp4675
g3
I00
sg8
(lp4676
ssVmatrix[207]
p4677
(dp4678
g3
I00
sg4
I00
sg5
Vmatrix
p4679
sg7
I00
sg8
(lp4680
ssVlockWeights[35]
p4681
(dp4682
g3
I00
sg5
Vbool
p4683
sg4
I00
sg35
I00
sg7
I01
sg8
(lp4684
ssVweightList[281].weights
p4685
(dp4686
g3
I01
sg4
I01
sg7
I00
sg5
VTdataCompound
p4687
ssVbindPreMatrix[27]
p4688
(dp4689
g3
I00
sg4
I00
sg5
Vmatrix
p4690
sg7
I00
sg8
(lp4691
ssVmatrix[130]
p4692
(dp4693
g3
I00
sg4
I00
sg5
Vmatrix
p4694
sg7
I00
sg8
(lp4695
ssg2553
(dp4696
g3
I01
sg4
I01
sg7
I00
sg5
VTdataCompound
p4697
ssVbasePoints
p4698
(dp4699
g3
I01
sg4
I01
sg7
I00
sg5
VTdataCompound
p4700
ssVweightList[49]
p4701
(dp4702
g3
I00
sg4
I00
sg5
VTdataCompound
p4703
sg7
I00
sg8
(lp4704
VweightList[49].weights
p4705
assg323
(dp4706
g3
I01
sg4
I01
sg7
I00
sg5
VTdataCompound
p4707
ssg182
(dp4708
g3
I01
sg4
I01
sg7
I00
sg5
VTdataCompound
p4709
ssVmatrix[17]
p4710
(dp4711
g3
I00
sg4
I00
sg5
Vmatrix
p4712
sg7
I00
sg8
(lp4713
ssVdropoff[15]
p4714
(dp4715
g3
I00
sg5
Vdouble
p4716
sg4
I00
sg35
I00
sg7
I01
sg8
(lp4717
ssVdropoff[178]
p4718
(dp4719
g3
I00
sg5
Vdouble
p4720
sg4
I00
sg35
I00
sg7
I01
sg8
(lp4721
ssg2121
(dp4722
g3
I01
sg4
I01
sg7
I00
sg5
VTdataCompound
p4723
ssVweightList[190].weights
p4724
(dp4725
g3
I01
sg4
I01
sg7
I00
sg5
VTdataCompound
p4726
ssVweightList[490]
p4727
(dp4728
g3
I00
sg4
I00
sg5
VTdataCompound
p4729
sg7
I00
sg8
(lp4730
VweightList[490].weights
p4731
assVweightList[423]
p4732
(dp4733
g3
I00
sg4
I00
sg5
VTdataCompound
p4734
sg7
I00
sg8
(lp4735
g1174
assVweightList[145]
p4736
(dp4737
g3
I00
sg4
I00
sg5
VTdataCompound
p4738
sg7
I00
sg8
(lp4739
g2251
assVmatrix[77]
p4740
(dp4741
g3
I00
sg4
I00
sg5
Vmatrix
p4742
sg7
I00
sg8
(lp4743
ssVlockWeights[175]
p4744
(dp4745
g3
I00
sg5
Vbool
p4746
sg4
I00
sg35
I00
sg7
I01
sg8
(lp4747
ssVbindPreMatrix[75]
p4748
(dp4749
g3
I00
sg4
I00
sg5
Vmatrix
p4750
sg7
I00
sg8
(lp4751
ssVlockWeights[97]
p4752
(dp4753
g3
I00
sg5
Vbool
p4754
sg4
I00
sg35
I00
sg7
I01
sg8
(lp4755
ssVweightList[393]
p4756
(dp4757
g3
I00
sg4
I00
sg5
VTdataCompound
p4758
sg7
I00
sg8
(lp4759
VweightList[393].weights
p4760
assVweightList[324]
p4761
(dp4762
g3
I00
sg4
I00
sg5
VTdataCompound
p4763
sg7
I00
sg8
(lp4764
VweightList[324].weights
p4765
assVlockWeights[19]
p4766
(dp4767
g3
I00
sg5
Vbool
p4768
sg4
I00
sg35
I00
sg7
I01
sg8
(lp4769
ssVweightList[87]
p4770
(dp4771
g3
I00
sg4
I00
sg5
VTdataCompound
p4772
sg7
I00
sg8
(lp4773
g1490
assVweightList[27]
p4774
(dp4775
g3
I00
sg4
I00
sg5
VTdataCompound
p4776
sg7
I00
sg8
(lp4777
g1849
assVmatrix[55]
p4778
(dp4779
g3
I00
sg4
I00
sg5
Vmatrix
p4780
sg7
I00
sg8
(lp4781
ssVdropoff[149]
p4782
(dp4783
g3
I00
sg5
Vdouble
p4784
sg4
I00
sg35
I00
sg7
I01
sg8
(lp4785
ssVweightList[483]
p4786
(dp4787
g3
I00
sg4
I00
sg5
VTdataCompound
p4788
sg7
I00
sg8
(lp4789
g2122
assVbindPreMatrix[157]
p4790
(dp4791
g3
I00
sg4
I00
sg5
Vmatrix
p4792
sg7
I00
sg8
(lp4793
ssVdropoff[55]
p4794
(dp4795
g3
I00
sg5
Vdouble
p4796
sg4
I00
sg35
I00
sg7
I01
sg8
(lp4797
ssVbindPreMatrix[28]
p4798
(dp4799
g3
I00
sg4
I00
sg5
Vmatrix
p4800
sg7
I00
sg8
(lp4801
ssVweightList[47]
p4802
(dp4803
g3
I00
sg4
I00
sg5
VTdataCompound
p4804
sg7
I00
sg8
(lp4805
g1858
assVmatrix[39]
p4806
(dp4807
g3
I00
sg4
I00
sg5
Vmatrix
p4808
sg7
I00
sg8
(lp4809
ssVweightList[444].weights
p4810
(dp4811
g3
I01
sg4
I01
sg7
I00
sg5
VTdataCompound
p4812
ssVbindPreMatrix[11]
p4813
(dp4814
g3
I00
sg4
I00
sg5
Vmatrix
p4815
sg7
I00
sg8
(lp4816
ssVlockWeights[133]
p4817
(dp4818
g3
I00
sg5
Vbool
p4819
sg4
I00
sg35
I00
sg7
I01
sg8
(lp4820
ssVweightList[404]
p4821
(dp4822
g3
I00
sg4
I00
sg5
VTdataCompound
p4823
sg7
I00
sg8
(lp4824
g3811
assVdropoff[48]
p4825
(dp4826
g3
I00
sg5
Vdouble
p4827
sg4
I00
sg35
I00
sg7
I01
sg8
(lp4828
ssVlockWeights[168]
p4829
(dp4830
g3
I00
sg5
Vbool
p4831
sg4
I00
sg35
I00
sg7
I01
sg8
(lp4832
ssg1371
(dp4833
g3
I01
sg4
I01
sg7
I00
sg5
VTdataCompound
p4834
ssVcaching
p4835
(dp4836
g3
I00
sg5
Vbool
p4837
sg4
I00
sg35
I00
sg7
I01
sg8
(lp4838
ssVweightList[362]
p4839
(dp4840
g3
I00
sg4
I00
sg5
VTdataCompound
p4841
sg7
I00
sg8
(lp4842
VweightList[362].weights
p4843
assVweightList[333]
p4844
(dp4845
g3
I00
sg4
I00
sg5
VTdataCompound
p4846
sg7
I00
sg8
(lp4847
g1709
assVlockWeights[99]
p4848
(dp4849
g3
I00
sg5
Vbool
p4850
sg4
I00
sg35
I00
sg7
I01
sg8
(lp4851
ssg4760
(dp4852
g3
I01
sg4
I01
sg7
I00
sg5
VTdataCompound
p4853
ssg2728
(dp4854
g3
I01
sg4
I01
sg7
I00
sg5
VTdataCompound
p4855
ssVbindPreMatrix[165]
p4856
(dp4857
g3
I00
sg4
I00
sg5
Vmatrix
p4858
sg7
I00
sg8
(lp4859
ssVbindPreMatrix[180]
p4860
(dp4861
g3
I00
sg4
I00
sg5
Vmatrix
p4862
sg7
I00
sg8
(lp4863
ssVweightList[278].weights
p4864
(dp4865
g3
I01
sg4
I01
sg7
I00
sg5
VTdataCompound
p4866
ssg4252
(dp4867
g3
I01
sg4
I01
sg7
I00
sg5
VTdataCompound
p4868
ssg3704
(dp4869
g3
I01
sg4
I01
sg7
I00
sg5
VTdataCompound
p4870
ssVweightList[518]
p4871
(dp4872
g3
I00
sg4
I00
sg5
VTdataCompound
p4873
sg7
I00
sg8
(lp4874
g3886
assVweightList[469]
p4875
(dp4876
g3
I00
sg4
I00
sg5
VTdataCompound
p4877
sg7
I00
sg8
(lp4878
g3800
assVweightList[416]
p4879
(dp4880
g3
I00
sg4
I00
sg5
VTdataCompound
p4881
sg7
I00
sg8
(lp4882
VweightList[416].weights
p4883
assVweightList[380]
p4884
(dp4885
g3
I00
sg4
I00
sg5
VTdataCompound
p4886
sg7
I00
sg8
(lp4887
VweightList[380].weights
p4888
assVweightList[446].weights
p4889
(dp4890
g3
I01
sg4
I01
sg7
I00
sg5
VTdataCompound
p4891
ssVweightList[479].weights
p4892
(dp4893
g3
I01
sg4
I01
sg7
I00
sg5
VTdataCompound
p4894
ssVdropoff[73]
p4895
(dp4896
g3
I00
sg5
Vdouble
p4897
sg4
I00
sg35
I00
sg7
I01
sg8
(lp4898
ssVweightList[166]
p4899
(dp4900
g3
I00
sg4
I00
sg5
VTdataCompound
p4901
sg7
I00
sg8
(lp4902
VweightList[166].weights
p4903
assVbindPreMatrix[62]
p4904
(dp4905
g3
I00
sg4
I00
sg5
Vmatrix
p4906
sg7
I00
sg8
(lp4907
ssVlockWeights[111]
p4908
(dp4909
g3
I00
sg5
Vbool
p4910
sg4
I00
sg35
I00
sg7
I01
sg8
(lp4911
ssVdropoff[187]
p4912
(dp4913
g3
I00
sg5
Vdouble
p4914
sg4
I00
sg35
I00
sg7
I01
sg8
(lp4915
ssVweightList[154]
p4916
(dp4917
g3
I00
sg4
I00
sg5
VTdataCompound
p4918
sg7
I00
sg8
(lp4919
g4515
assVmatrix[60]
p4920
(dp4921
g3
I00
sg4
I00
sg5
Vmatrix
p4922
sg7
I00
sg8
(lp4923
ssVweightList[458]
p4924
(dp4925
g3
I00
sg4
I00
sg5
VTdataCompound
p4926
sg7
I00
sg8
(lp4927
g1934
assVweightList[90]
p4928
(dp4929
g3
I00
sg4
I00
sg5
VTdataCompound
p4930
sg7
I00
sg8
(lp4931
VweightList[90].weights
p4932
assVweightList[434]
p4933
(dp4934
g3
I00
sg4
I00
sg5
VTdataCompound
p4935
sg7
I00
sg8
(lp4936
VweightList[434].weights
p4937
assVdropoff[80]
p4938
(dp4939
g3
I00
sg5
Vdouble
p4940
sg4
I00
sg35
I00
sg7
I01
sg8
(lp4941
ssVweightList[252].weights
p4942
(dp4943
g3
I01
sg4
I01
sg7
I00
sg5
VTdataCompound
p4944
ssVweightList[10].weights[137]
p4945
(dp4946
g3
I00
sg8
(lp4947
ssg4407
(dp4948
g3
I01
sg4
I01
sg7
I00
sg5
VTdataCompound
p4949
ssg170
(dp4950
g3
I01
sg4
I01
sg7
I00
sg5
VTdataCompound
p4951
ssVweightList[269]
p4952
(dp4953
g3
I00
sg4
I00
sg5
VTdataCompound
p4954
sg7
I00
sg8
(lp4955
g606
assVbindPreMatrix[211]
p4956
(dp4957
g3
I00
sg8
(lp4958
ssVdropoff[101]
p4959
(dp4960
g3
I00
sg5
Vdouble
p4961
sg4
I00
sg35
I00
sg7
I01
sg8
(lp4962
ssVmatrix[104]
p4963
(dp4964
g3
I00
sg4
I00
sg5
Vmatrix
p4965
sg7
I00
sg8
(lp4966
ssVinput[2]
p4967
(dp4968
g3
I00
sg8
(lp4969
g2569
aVinput[2].groupId
p4970
assVmatrix[182]
p4971
(dp4972
g3
I00
sg4
I00
sg5
Vmatrix
p4973
sg7
I00
sg8
(lp4974
ssVweightList[23].weights[133]
p4975
(dp4976
g3
I00
sg8
(lp4977
ssVweightList[221]
p4978
(dp4979
g3
I00
sg4
I00
sg5
VTdataCompound
p4980
sg7
I00
sg8
(lp4981
VweightList[221].weights
p4982
assVweightList[223].weights
p4983
(dp4984
g3
I01
sg4
I01
sg7
I00
sg5
VTdataCompound
p4985
ssVmatrix[171]
p4986
(dp4987
g3
I00
sg4
I00
sg5
Vmatrix
p4988
sg7
I00
sg8
(lp4989
ssVweightList[108]
p4990
(dp4991
g3
I00
sg4
I00
sg5
VTdataCompound
p4992
sg7
I00
sg8
(lp4993
g3438
assg1577
(dp4994
g3
I01
sg4
I01
sg7
I00
sg5
VTdataCompound
p4995
ssVweightList[95].weights
p4996
(dp4997
g3
I01
sg4
I01
sg7
I00
sg5
VTdataCompound
p4998
ssg2311
(dp4999
g3
I01
sg4
I01
sg7
I00
sg5
VTdataCompound
p5000
ssVmatrix[209]
p5001
(dp5002
g3
I00
sg4
I00
sg5
Vmatrix
p5003
sg7
I00
sg8
(lp5004
ssVweightList[92].weights
p5005
(dp5006
g3
I01
sg4
I01
sg7
I00
sg5
VTdataCompound
p5007
ssVbindPreMatrix[197]
p5008
(dp5009
g3
I00
sg4
I00
sg5
Vmatrix
p5010
sg7
I00
sg8
(lp5011
ssg4241
(dp5012
g3
I01
sg4
I01
sg7
I00
sg5
VTdataCompound
p5013
ssVweightList[392].weights
p5014
(dp5015
g3
I01
sg4
I01
sg7
I00
sg5
VTdataCompound
p5016
ssVweightList[250]
p5017
(dp5018
g3
I00
sg4
I00
sg5
VTdataCompound
p5019
sg7
I00
sg8
(lp5020
g1855
assg672
(dp5021
g3
I01
sg4
I01
sg7
I00
sg5
VTdataCompound
p5022
ssVdropoff[112]
p5023
(dp5024
g3
I00
sg5
Vdouble
p5025
sg4
I00
sg35
I00
sg7
I01
sg8
(lp5026
ssVweightList[476]
p5027
(dp5028
g3
I00
sg4
I00
sg5
VTdataCompound
p5029
sg7
I00
sg8
(lp5030
g658
assVweightList[131]
p5031
(dp5032
g3
I00
sg4
I00
sg5
VTdataCompound
p5033
sg7
I00
sg8
(lp5034
g1777
assVweightList[66].weights
p5035
(dp5036
g3
I01
sg4
I01
sg7
I00
sg5
VTdataCompound
p5037
ssg4667
(dp5038
g3
I01
sg4
I01
sg7
I00
sg5
VTdataCompound
p5039
ssVweightList[536]
p5040
(dp5041
g3
I00
sg4
I00
sg5
VTdataCompound
p5042
sg7
I00
sg8
(lp5043
VweightList[536].weights
p5044
assVmatrix[95]
p5045
(dp5046
g3
I00
sg4
I00
sg5
Vmatrix
p5047
sg7
I00
sg8
(lp5048
ssVbindPreMatrix[116]
p5049
(dp5050
g3
I00
sg4
I00
sg5
Vmatrix
p5051
sg7
I00
sg8
(lp5052
ssVweightList[203]
p5053
(dp5054
g3
I00
sg4
I00
sg5
VTdataCompound
p5055
sg7
I00
sg8
(lp5056
VweightList[203].weights
p5057
assVweightList[310].weights
p5058
(dp5059
g3
I01
sg4
I01
sg7
I00
sg5
VTdataCompound
p5060
ssVweightList[64]
p5061
(dp5062
g3
I00
sg4
I00
sg5
VTdataCompound
p5063
sg7
I00
sg8
(lp5064
g3411
assVweightList[437].weights
p5065
(dp5066
g3
I01
sg4
I01
sg7
I00
sg5
VTdataCompound
p5067
ssVweightList[31]
p5068
(dp5069
g3
I00
sg4
I00
sg5
VTdataCompound
p5070
sg7
I00
sg8
(lp5071
g3777
assVbindPreMatrix[96]
p5072
(dp5073
g3
I00
sg4
I00
sg5
Vmatrix
p5074
sg7
I00
sg8
(lp5075
ssVlockWeights[32]
p5076
(dp5077
g3
I00
sg5
Vbool
p5078
sg4
I00
sg35
I00
sg7
I01
sg8
(lp5079
ssVdropoff[123]
p5080
(dp5081
g3
I00
sg5
Vdouble
p5082
sg4
I00
sg35
I00
sg7
I01
sg8
(lp5083
ssVweightList[132].weights
p5084
(dp5085
g3
I01
sg4
I01
sg7
I00
sg5
VTdataCompound
p5086
ssVweightList[48]
p5087
(dp5088
g3
I00
sg4
I00
sg5
VTdataCompound
p5089
sg7
I00
sg8
(lp5090
g2172
assVmatrix[131]
p5091
(dp5092
g3
I00
sg4
I00
sg5
Vmatrix
p5093
sg7
I00
sg8
(lp5094
ssVweightList[541]
p5095
(dp5096
g3
I00
sg4
I00
sg5
VTdataCompound
p5097
sg7
I00
sg8
(lp5098
g1497
assg2306
(dp5099
g3
I01
sg4
I01
sg7
I00
sg5
VTdataCompound
p5100
ssVlockWeights[21]
p5101
(dp5102
g3
I00
sg5
Vbool
p5103
sg4
I00
sg35
I00
sg7
I01
sg8
(lp5104
ssVweightList[232]
p5105
(dp5106
g3
I00
sg4
I00
sg5
VTdataCompound
p5107
sg7
I00
sg8
(lp5108
VweightList[232].weights
p5109
assVbindPreMatrix[101]
p5110
(dp5111
g3
I00
sg4
I00
sg5
Vmatrix
p5112
sg7
I00
sg8
(lp5113
ssVdriverPoints
p5114
(dp5115
g3
I01
sg4
I01
sg7
I00
sg5
VTdataCompound
p5116
ssVdeformUserNormals
p5117
(dp5118
g3
I00
sg5
Vbool
p5119
sg4
I00
sg35
I00
sg7
I01
sg8
(lp5120
ssVweightList[444]
p5121
(dp5122
g3
I00
sg4
I00
sg5
VTdataCompound
p5123
sg7
I00
sg8
(lp5124
g4810
assVmatrix[122]
p5125
(dp5126
g3
I00
sg4
I00
sg5
Vmatrix
p5127
sg7
I00
sg8
(lp5128
ssVmatrix[195]
p5129
(dp5130
g3
I00
sg4
I00
sg5
Vmatrix
p5131
sg7
I00
sg8
(lp5132
ssVdropoff[130]
p5133
(dp5134
g3
I00
sg5
Vdouble
p5135
sg4
I00
sg35
I00
sg7
I01
sg8
(lp5136
ssg4355
(dp5137
g3
I01
sg4
I01
sg7
I00
sg5
VTdataCompound
p5138
ssVmatrix[54]
p5139
(dp5140
g3
I00
sg4
I00
sg5
Vmatrix
p5141
sg7
I00
sg8
(lp5142
ssVlockWeights[49]
p5143
(dp5144
g3
I00
sg5
Vbool
p5145
sg4
I00
sg35
I00
sg7
I01
sg8
(lp5146
ssVweightList[26]
p5147
(dp5148
g3
I00
sg4
I00
sg5
VTdataCompound
p5149
sg7
I00
sg8
(lp5150
g234
assVbindPreMatrix[158]
p5151
(dp5152
g3
I00
sg4
I00
sg5
Vmatrix
p5153
sg7
I00
sg8
(lp5154
ssVdropoff[146]
p5155
(dp5156
g3
I00
sg5
Vdouble
p5157
sg4
I00
sg35
I00
sg7
I01
sg8
(lp5158
ssVweightList[482]
p5159
(dp5160
g3
I00
sg4
I00
sg5
VTdataCompound
p5161
sg7
I00
sg8
(lp5162
VweightList[482].weights
p5163
assVweightList[46]
p5164
(dp5165
g3
I00
sg4
I00
sg5
VTdataCompound
p5166
sg7
I00
sg8
(lp5167
g3519
assVmatrix[38]
p5168
(dp5169
g3
I00
sg4
I00
sg5
Vmatrix
p5170
sg7
I00
sg8
(lp5171
ssVbindPreMatrix[29]
p5172
(dp5173
g3
I00
sg4
I00
sg5
Vmatrix
p5174
sg7
I00
sg8
(lp5175
ssVlockWeights[166]
p5176
(dp5177
g3
I00
sg5
Vbool
p5178
sg4
I00
sg35
I00
sg7
I01
sg8
(lp5179
ssVweightList[359].weights
p5180
(dp5181
g3
I01
sg4
I01
sg7
I00
sg5
VTdataCompound
p5182
ssVweightList[363]
p5183
(dp5184
g3
I00
sg4
I00
sg5
VTdataCompound
p5185
sg7
I00
sg8
(lp5186
VweightList[363].weights
p5187
assg486
(dp5188
g3
I01
sg4
I01
sg7
I00
sg5
VTdataCompound
p5189
ssVnurbsSamples[1]
p5190
(dp5191
g3
I00
sg8
(lp5192
ssg281
(dp5193
g3
I01
sg4
I01
sg7
I00
sg5
VTdataCompound
p5194
ssVbindPreMatrix[59]
p5195
(dp5196
g3
I00
sg4
I00
sg5
Vmatrix
p5197
sg7
I00
sg8
(lp5198
ssVdropoff[166]
p5199
(dp5200
g3
I00
sg5
Vdouble
p5201
sg4
I00
sg35
I00
sg7
I01
sg8
(lp5202
ssVlockWeights[132]
p5203
(dp5204
g3
I00
sg5
Vbool
p5205
sg4
I00
sg35
I00
sg7
I01
sg8
(lp5206
ssVweightList[332]
p5207
(dp5208
g3
I00
sg4
I00
sg5
VTdataCompound
p5209
sg7
I00
sg8
(lp5210
VweightList[332].weights
p5211
assg1844
(dp5212
g3
I01
sg4
I01
sg7
I00
sg5
VTdataCompound
p5213
ssg2741
(dp5214
g3
I01
sg4
I01
sg7
I00
sg5
VTdataCompound
p5215
ssVweightList[2].weights[208]
p5216
(dp5217
g3
I00
sg8
(lp5218
ssVweightList[189]
p5219
(dp5220
g3
I00
sg4
I00
sg5
VTdataCompound
p5221
sg7
I00
sg8
(lp5222
VweightList[189].weights
p5223
assg3029
(dp5224
g3
I01
sg4
I01
sg7
I00
sg5
VTdataCompound
p5225
ssVweightList[310]
p5226
(dp5227
g3
I00
sg4
I00
sg5
VTdataCompound
p5228
sg7
I00
sg8
(lp5229
g5058
assg706
(dp5230
g3
I01
sg4
I01
sg7
I00
sg5
VTdataCompound
p5231
ssVlockWeights[161]
p5232
(dp5233
g3
I00
sg5
Vbool
p5234
sg4
I00
sg35
I00
sg7
I01
sg8
(lp5235
ssVbindPreMatrix[134]
p5236
(dp5237
g3
I00
sg4
I00
sg5
Vmatrix
p5238
sg7
I00
sg8
(lp5239
ssVlockWeights[87]
p5240
(dp5241
g3
I00
sg5
Vbool
p5242
sg4
I00
sg35
I00
sg7
I01
sg8
(lp5243
ssVbindPreMatrix[36]
p5244
(dp5245
g3
I00
sg4
I00
sg5
Vmatrix
p5246
sg7
I00
sg8
(lp5247
ssVweightList[436]
p5248
(dp5249
g3
I00
sg4
I00
sg5
VTdataCompound
p5250
sg7
I00
sg8
(lp5251
VweightList[436].weights
p5252
assg3615
(dp5253
g3
I01
sg4
I01
sg7
I00
sg5
VTdataCompound
p5254
ssVweightList[374]
p5255
(dp5256
g3
I00
sg4
I00
sg5
VTdataCompound
p5257
sg7
I00
sg8
(lp5258
g237
assVlockWeights[143]
p5259
(dp5260
g3
I00
sg5
Vbool
p5261
sg4
I00
sg35
I00
sg7
I01
sg8
(lp5262
ssVbindPreMatrix[56]
p5263
(dp5264
g3
I00
sg4
I00
sg5
Vmatrix
p5265
sg7
I00
sg8
(lp5266
ssVweightList[456].weights
p5267
(dp5268
g3
I01
sg4
I01
sg7
I00
sg5
VTdataCompound
p5269
ssVlockWeights[192]
p5270
(dp5271
g3
I00
sg5
Vbool
p5272
sg4
I00
sg35
I00
sg7
I01
sg8
(lp5273
ssVfunction.fchild2
p5274
(dp5275
g3
I00
sg5
Vlong
p5276
sg4
I00
sg35
I00
sg7
I01
sg8
(lp5277
ssVbindPreMatrix[174]
p5278
(dp5279
g3
I00
sg4
I00
sg5
Vmatrix
p5280
sg7
I00
sg8
(lp5281
ssVfunction.fchild1
p5282
(dp5283
g3
I00
sg5
Vlong
p5284
sg4
I00
sg35
I00
sg7
I01
sg8
(lp5285
ssg4843
(dp5286
g3
I01
sg4
I01
sg7
I00
sg5
VTdataCompound
p5287
ssVweightList[514].weights
p5288
(dp5289
g3
I01
sg4
I01
sg7
I00
sg5
VTdataCompound
p5290
ssVdropoff[184]
p5291
(dp5292
g3
I00
sg5
Vdouble
p5293
sg4
I00
sg35
I00
sg7
I01
sg8
(lp5294
ssVweightList[421].weights
p5295
(dp5296
g3
I01
sg4
I01
sg7
I00
sg5
VTdataCompound
p5297
ssg1215
(dp5298
g3
I01
sg4
I01
sg7
I00
sg5
VTdataCompound
p5299
ssg4705
(dp5300
g3
I01
sg4
I01
sg7
I00
sg5
VTdataCompound
p5301
ssVdropoff[168]
p5302
(dp5303
g3
I00
sg5
Vdouble
p5304
sg4
I00
sg35
I00
sg7
I01
sg8
(lp5305
ssVlockWeights[110]
p5306
(dp5307
g3
I00
sg5
Vbool
p5308
sg4
I00
sg35
I00
sg7
I01
sg8
(lp5309
ssVweightList[167]
p5310
(dp5311
g3
I00
sg4
I00
sg5
VTdataCompound
p5312
sg7
I00
sg8
(lp5313
g143
assg1296
(dp5314
g3
I01
sg4
I01
sg7
I00
sg5
VTdataCompound
p5315
ssVweightList[433]
p5316
(dp5317
g3
I00
sg4
I00
sg5
VTdataCompound
p5318
sg7
I00
sg8
(lp5319
g4525
assVweightList[349].weights
p5320
(dp5321
g3
I01
sg4
I01
sg7
I00
sg5
VTdataCompound
p5322
ssVmatrix[61]
p5323
(dp5324
g3
I00
sg4
I00
sg5
Vmatrix
p5325
sg7
I00
sg8
(lp5326
ssVlockWeights[69]
p5327
(dp5328
g3
I00
sg5
Vbool
p5329
sg4
I00
sg35
I00
sg7
I01
sg8
(lp5330
ssVbasePoints[0]
p5331
(dp5332
g3
I00
sg8
(lp5333
ssVweightList[459]
p5334
(dp5335
g3
I00
sg4
I00
sg5
VTdataCompound
p5336
sg7
I00
sg8
(lp5337
VweightList[459].weights
p5338
assVweightList[91]
p5339
(dp5340
g3
I00
sg4
I00
sg5
VTdataCompound
p5341
sg7
I00
sg8
(lp5342
g401
assg3386
(dp5343
g3
I01
sg4
I01
sg7
I00
sg5
VTdataCompound
p5344
ssg3170
(dp5345
g3
I01
sg4
I01
sg7
I00
sg5
VTdataCompound
p5346
ssVdropoff[83]
p5347
(dp5348
g3
I00
sg5
Vdouble
p5349
sg4
I00
sg35
I00
sg7
I01
sg8
(lp5350
ssVweightList[127]
p5351
(dp5352
g3
I00
sg4
I00
sg5
VTdataCompound
p5353
sg7
I00
sg8
(lp5354
g3683
assVweightList[491]
p5355
(dp5356
g3
I00
sg4
I00
sg5
VTdataCompound
p5357
sg7
I00
sg8
(lp5358
g2125
assVweightList[348].weights
p5359
(dp5360
g3
I01
sg4
I01
sg7
I00
sg5
VTdataCompound
p5361
ssVlockWeights[169]
p5362
(dp5363
g3
I00
sg5
Vbool
p5364
sg4
I00
sg35
I00
sg7
I01
sg8
(lp5365
ssVdropoff[12]
p5366
(dp5367
g3
I00
sg5
Vdouble
p5368
sg4
I00
sg35
I00
sg7
I01
sg8
(lp5369
ssVmatrix[16]
p5370
(dp5371
g3
I00
sg4
I00
sg5
Vmatrix
p5372
sg7
I00
sg8
(lp5373
ssVbindPreMatrix[58]
p5374
(dp5375
g3
I00
sg4
I00
sg5
Vmatrix
p5376
sg7
I00
sg8
(lp5377
ssVdropoff[58]
p5378
(dp5379
g3
I00
sg5
Vdouble
p5380
sg4
I00
sg35
I00
sg7
I01
sg8
(lp5381
ssVweightList[422]
p5382
(dp5383
g3
I00
sg4
I00
sg5
VTdataCompound
p5384
sg7
I00
sg8
(lp5385
g4441
assVmatrix[76]
p5386
(dp5387
g3
I00
sg4
I00
sg5
Vmatrix
p5388
sg7
I00
sg8
(lp5389
ssVbindPreMatrix[74]
p5390
(dp5391
g3
I00
sg4
I00
sg5
Vmatrix
p5392
sg7
I00
sg8
(lp5393
ssVdropoff[23]
p5394
(dp5395
g3
I00
sg5
Vdouble
p5396
sg4
I00
sg35
I00
sg7
I01
sg8
(lp5397
ssVweightList[325]
p5398
(dp5399
g3
I00
sg4
I00
sg5
VTdataCompound
p5400
sg7
I00
sg8
(lp5401
g329
assVweightList[392]
p5402
(dp5403
g3
I00
sg4
I00
sg5
VTdataCompound
p5404
sg7
I00
sg8
(lp5405
g5014
assVweightList[241].weights[83]
p5406
(dp5407
g3
I00
sg8
(lp5408
ssVweightList[86]
p5409
(dp5410
g3
I00
sg4
I00
sg5
VTdataCompound
p5411
sg7
I00
sg8
(lp5412
g1837
assVweightList[109]
p5413
(dp5414
g3
I00
sg4
I00
sg5
VTdataCompound
p5415
sg7
I00
sg8
(lp5416
VweightList[109].weights
p5417
assg1530
(dp5418
g3
I01
sg4
I01
sg7
I00
sg5
VTdataCompound
p5419
ssVweightList[508]
p5420
(dp5421
g3
I00
sg4
I00
sg5
VTdataCompound
p5422
sg7
I00
sg8
(lp5423
VweightList[508].weights
p5424
assVweightList[463].weights
p5425
(dp5426
g3
I01
sg4
I01
sg7
I00
sg5
VTdataCompound
p5427
ssg4883
(dp5428
g3
I01
sg4
I01
sg7
I00
sg5
VTdataCompound
p5429
ssVweightList[251]
p5430
(dp5431
g3
I00
sg4
I00
sg5
VTdataCompound
p5432
sg7
I00
sg8
(lp5433
g1753
assg3898
(dp5434
g3
I00
sg4
I00
sg5
Vmesh
p5435
sg7
I00
sg8
(lp5436
ssVweightList[130]
p5437
(dp5438
g3
I00
sg4
I00
sg5
VTdataCompound
p5439
sg7
I00
sg8
(lp5440
g4430
assg1006
(dp5441
g3
I01
sg4
I01
sg7
I00
sg5
VTdataCompound
p5442
ssVweightList[477]
p5443
(dp5444
g3
I00
sg4
I00
sg5
VTdataCompound
p5445
sg7
I00
sg8
(lp5446
g617
assVmatrix[94]
p5447
(dp5448
g3
I00
sg4
I00
sg5
Vmatrix
p5449
sg7
I00
sg8
(lp5450
ssVmatrix[5]
p5451
(dp5452
g3
I00
sg4
I00
sg5
Vmatrix
p5453
sg7
I00
sg8
(lp5454
ssVweightList[2].weights[60]
p5455
(dp5456
g3
I00
sg5
Vdouble
p5457
sg4
I00
sg35
I00
sg7
I01
sg8
(lp5458
ssg4158
(dp5459
g3
I01
sg4
I01
sg7
I00
sg5
VTdataCompound
p5460
ssg4932
(dp5461
g3
I01
sg4
I01
sg7
I00
sg5
VTdataCompound
p5462
ssg3332
(dp5463
g3
I01
sg4
I01
sg7
I00
sg5
VTdataCompound
p5464
ssg2964
(dp5465
g3
I01
sg4
I01
sg7
I00
sg5
VTdataCompound
p5466
ssVuseComponents
p5467
(dp5468
g3
I00
sg5
Vbool
p5469
sg4
I00
sg35
I00
sg7
I01
sg8
(lp5470
ssVdropoff[90]
p5471
(dp5472
g3
I00
sg5
Vdouble
p5473
sg4
I00
sg35
I00
sg7
I01
sg8
(lp5474
ssVweightList[517]
p5475
(dp5476
g3
I00
sg4
I00
sg5
VTdataCompound
p5477
sg7
I00
sg8
(lp5478
g2527
assVweightList[417]
p5479
(dp5480
g3
I00
sg4
I00
sg5
VTdataCompound
p5481
sg7
I00
sg8
(lp5482
g3926
assVmatrix[152]
p5483
(dp5484
g3
I00
sg4
I00
sg5
Vmatrix
p5485
sg7
I00
sg8
(lp5486
ssVweightList[542]
p5487
(dp5488
g3
I00
sg4
I00
sg5
VTdataCompound
p5489
sg7
I00
sg8
(lp5490
g2607
assVbindPreMatrix[207]
p5491
(dp5492
g3
I00
sg4
I00
sg5
Vmatrix
p5493
sg7
I00
sg8
(lp5494
ssVlockWeights[20]
p5495
(dp5496
g3
I00
sg5
Vbool
p5497
sg4
I00
sg35
I00
sg7
I01
sg8
(lp5498
ssVweightList[13]
p5499
(dp5500
g3
I00
sg4
I00
sg5
VTdataCompound
p5501
sg7
I00
sg8
(lp5502
VweightList[13].weights
p5503
assVbindPreMatrix
p5504
(dp5505
g3
I01
sg4
I01
sg7
I00
sg5
VTdataCompound
p5506
ssVbindPreMatrix[100]
p5507
(dp5508
g3
I00
sg4
I00
sg5
Vmatrix
p5509
sg7
I00
sg8
(lp5510
ssVmatrix[181]
p5511
(dp5512
g3
I00
sg4
I00
sg5
Vmatrix
p5513
sg7
I00
sg8
(lp5514
ssVmatrix[196]
p5515
(dp5516
g3
I00
sg4
I00
sg5
Vmatrix
p5517
sg7
I00
sg8
(lp5518
ssVmatrix[178]
p5519
(dp5520
g3
I00
sg4
I00
sg5
Vmatrix
p5521
sg7
I00
sg8
(lp5522
ssg3298
(dp5523
g3
I01
sg4
I01
sg7
I00
sg5
VTdataCompound
p5524
ssg2890
(dp5525
g3
I01
sg4
I01
sg7
I00
sg5
VTdataCompound
p5526
ssVmatrix[114]
p5527
(dp5528
g3
I00
sg4
I00
sg5
Vmatrix
p5529
sg7
I00
sg8
(lp5530
ssVnurbsSamples[0]
p5531
(dp5532
g3
I00
sg8
(lp5533
ssVweightList[264].weights
p5534
(dp5535
g3
I01
sg4
I01
sg7
I00
sg5
VTdataCompound
p5536
ssVlockWeights[200]
p5537
(dp5538
g3
I00
sg5
Vbool
p5539
sg4
I00
sg35
I00
sg7
I01
sg8
(lp5540
ssVweightList[10].weights[136]
p5541
(dp5542
g3
I00
sg8
(lp5543
ssVweightList[268]
p5544
(dp5545
g3
I00
sg4
I00
sg5
VTdataCompound
p5546
sg7
I00
sg8
(lp5547
g1633
assVbindPreMatrix[210]
p5548
(dp5549
g3
I00
sg8
(lp5550
ssg2236
(dp5551
g3
I01
sg4
I01
sg7
I00
sg5
VTdataCompound
p5552
ssVmatrix[103]
p5553
(dp5554
g3
I00
sg4
I00
sg5
Vmatrix
p5555
sg7
I00
sg8
(lp5556
ssVdropoff[106]
p5557
(dp5558
g3
I00
sg5
Vdouble
p5559
sg4
I00
sg35
I00
sg7
I01
sg8
(lp5560
ssg5109
(dp5561
g3
I01
sg4
I01
sg7
I00
sg5
VTdataCompound
p5562
ssVweightList[522]
p5563
(dp5564
g3
I00
sg4
I00
sg5
VTdataCompound
p5565
sg7
I00
sg8
(lp5566
VweightList[522].weights
p5567
assVweightList[23].weights[132]
p5568
(dp5569
g3
I00
sg8
(lp5570
ssVweightList[220]
p5571
(dp5572
g3
I00
sg4
I00
sg5
VTdataCompound
p5573
sg7
I00
sg8
(lp5574
g493
assg3260
(dp5575
g3
I01
sg4
I01
sg7
I00
sg5
VTdataCompound
p5576
ssVdropoff[151]
p5577
(dp5578
g3
I00
sg5
Vdouble
p5579
sg4
I00
sg35
I00
sg7
I01
sg8
(lp5580
ssVbindPreMatrix[82]
p5581
(dp5582
g3
I00
sg4
I00
sg5
Vmatrix
p5583
sg7
I00
sg8
(lp5584
ssVmatrix[176]
p5585
(dp5586
g3
I00
sg4
I00
sg5
Vmatrix
p5587
sg7
I00
sg8
(lp5588
ssVlockWeights[8]
p5589
(dp5590
g3
I00
sg5
Vbool
p5591
sg4
I00
sg35
I00
sg7
I01
sg8
(lp5592
ssVweightList[313]
p5593
(dp5594
g3
I00
sg4
I00
sg5
VTdataCompound
p5595
sg7
I00
sg8
(lp5596
VweightList[313].weights
p5597
assVweightList[307].weights
p5598
(dp5599
g3
I01
sg4
I01
sg7
I00
sg5
VTdataCompound
p5600
ssVbindPreMatrix[135]
p5601
(dp5602
g3
I00
sg4
I00
sg5
Vmatrix
p5603
sg7
I00
sg8
(lp5604
ssVbindPreMatrix[35]
p5605
(dp5606
g3
I00
sg4
I00
sg5
Vmatrix
p5607
sg7
I00
sg8
(lp5608
ssg749
(dp5609
g3
I01
sg4
I01
sg7
I00
sg5
VTdataCompound
p5610
ssVweightList[300]
p5611
(dp5612
g3
I00
sg4
I00
sg5
VTdataCompound
p5613
sg7
I00
sg8
(lp5614
g627
assVlockWeights[191]
p5615
(dp5616
g3
I00
sg5
Vbool
p5617
sg4
I00
sg35
I00
sg7
I01
sg8
(lp5618
ssVmatrix[156]
p5619
(dp5620
g3
I00
sg4
I00
sg5
Vmatrix
p5621
sg7
I00
sg8
(lp5622
ssVbindPreMatrix[175]
p5623
(dp5624
g3
I00
sg4
I00
sg5
Vmatrix
p5625
sg7
I00
sg8
(lp5626
ssVweightList[58]
p5627
(dp5628
g3
I00
sg4
I00
sg5
VTdataCompound
p5629
sg7
I00
sg8
(lp5630
g1021
assg3339
(dp5631
g3
I01
sg4
I01
sg7
I00
sg5
VTdataCompound
p5632
ssVweightList[202]
p5633
(dp5634
g3
I00
sg4
I00
sg5
VTdataCompound
p5635
sg7
I00
sg8
(lp5636
VweightList[202].weights
p5637
assg2331
(dp5638
g3
I01
sg4
I01
sg7
I00
sg5
VTdataCompound
p5639
ssVdropoff[165]
p5640
(dp5641
g3
I00
sg5
Vdouble
p5642
sg4
I00
sg35
I00
sg7
I01
sg8
(lp5643
ssg536
(dp5644
g3
I01
sg4
I01
sg7
I00
sg5
VTdataCompound
p5645
ssVweightList[67]
p5646
(dp5647
g3
I00
sg4
I00
sg5
VTdataCompound
p5648
sg7
I00
sg8
(lp5649
g2659
assVweightList[520].weights
p5650
(dp5651
g3
I01
sg4
I01
sg7
I00
sg5
VTdataCompound
p5652
ssVbindPreMatrix[91]
p5653
(dp5654
g3
I00
sg4
I00
sg5
Vmatrix
p5655
sg7
I00
sg8
(lp5656
ssVlockWeights[33]
p5657
(dp5658
g3
I00
sg5
Vbool
p5659
sg4
I00
sg35
I00
sg7
I01
sg8
(lp5660
ssVbindPreMatrix[117]
p5661
(dp5662
g3
I00
sg4
I00
sg5
Vmatrix
p5663
sg7
I00
sg8
(lp5664
ssg4326
(dp5665
g3
I01
sg4
I01
sg7
I00
sg5
VTdataCompound
p5666
ssg4937
(dp5667
g3
I01
sg4
I01
sg7
I00
sg5
VTdataCompound
p5668
ssg3810
(dp5669
g3
I01
sg4
I01
sg7
I00
sg5
VTdataCompound
p5670
ssVmatrix[149]
p5671
(dp5672
g3
I00
sg4
I00
sg5
Vmatrix
p5673
sg7
I00
sg8
(lp5674
ssVmatrix[136]
p5675
(dp5676
g3
I00
sg4
I00
sg5
Vmatrix
p5677
sg7
I00
sg8
(lp5678
ssVweightList[379]
p5679
(dp5680
g3
I00
sg4
I00
sg5
VTdataCompound
p5681
sg7
I00
sg8
(lp5682
g2867
assVweightList[496]
p5683
(dp5684
g3
I00
sg4
I00
sg5
VTdataCompound
p5685
sg7
I00
sg8
(lp5686
g3803
assg2390
(dp5687
g3
I01
sg4
I01
sg7
I00
sg5
VTdataCompound
p5688
ssg3280
(dp5689
g3
I01
sg4
I01
sg7
I00
sg5
VTdataCompound
p5690
ssVdropoff[13]
p5691
(dp5692
g3
I00
sg5
Vdouble
p5693
sg4
I00
sg35
I00
sg7
I01
sg8
(lp5694
ssg1865
(dp5695
g3
I01
sg4
I01
sg7
I00
sg5
VTdataCompound
p5696
ssVweightList[495].weights
p5697
(dp5698
g3
I01
sg4
I01
sg7
I00
sg5
VTdataCompound
p5699
ssg458
(dp5700
g3
I01
sg4
I01
sg7
I00
sg5
VTdataCompound
p5701
ssg4662
(dp5702
g3
I01
sg4
I01
sg7
I00
sg5
VTdataCompound
p5703
ssVweightList[85]
p5704
(dp5705
g3
I00
sg4
I00
sg5
VTdataCompound
p5706
sg7
I00
sg8
(lp5707
VweightList[85].weights
p5708
assVmatrix[59]
p5709
(dp5710
g3
I00
sg4
I00
sg5
Vmatrix
p5711
sg7
I00
sg8
(lp5712
ssVweightList[421]
p5713
(dp5714
g3
I00
sg4
I00
sg5
VTdataCompound
p5715
sg7
I00
sg8
(lp5716
g5295
assg531
(dp5717
g3
I01
sg4
I01
sg7
I00
sg5
VTdataCompound
p5718
ssVdropoff[22]
p5719
(dp5720
g3
I00
sg5
Vdouble
p5721
sg4
I00
sg35
I00
sg7
I01
sg8
(lp5722
ssVdropoff[59]
p5723
(dp5724
g3
I00
sg5
Vdouble
p5725
sg4
I00
sg35
I00
sg7
I01
sg8
(lp5726
ssVweightList[326]
p5727
(dp5728
g3
I00
sg4
I00
sg5
VTdataCompound
p5729
sg7
I00
sg8
(lp5730
g2580
assVdropoff[93]
p5731
(dp5732
g3
I00
sg5
Vdouble
p5733
sg4
I00
sg35
I00
sg7
I01
sg8
(lp5734
ssg2063
(dp5735
g3
I01
sg4
I01
sg7
I00
sg5
VTdataCompound
p5736
ssVbindPreMatrix[159]
p5737
(dp5738
g3
I00
sg4
I00
sg5
Vmatrix
p5739
sg7
I00
sg8
(lp5740
ssVdropoff[147]
p5741
(dp5742
g3
I00
sg5
Vdouble
p5743
sg4
I00
sg35
I00
sg7
I01
sg8
(lp5744
ssVweightList[29]
p5745
(dp5746
g3
I00
sg4
I00
sg5
VTdataCompound
p5747
sg7
I00
sg8
(lp5748
VweightList[29].weights
p5749
assVmatrix[57]
p5750
(dp5751
g3
I00
sg4
I00
sg5
Vmatrix
p5752
sg7
I00
sg8
(lp5753
ssVweightList[0].weights[3]
p5754
(dp5755
g3
I00
sg5
Vdouble
p5756
sg4
I00
sg35
I00
sg7
I01
sg8
(lp5757
ssVweightList[306].weights
p5758
(dp5759
g3
I01
sg4
I01
sg7
I00
sg5
VTdataCompound
p5760
ssVweightList[193]
p5761
(dp5762
g3
I00
sg4
I00
sg5
VTdataCompound
p5763
sg7
I00
sg8
(lp5764
VweightList[193].weights
p5765
assVweightList[210].weights
p5766
(dp5767
g3
I01
sg4
I01
sg7
I00
sg5
VTdataCompound
p5768
ssVweightList[45]
p5769
(dp5770
g3
I00
sg4
I00
sg5
VTdataCompound
p5771
sg7
I00
sg8
(lp5772
g379
assVweightList[347]
p5773
(dp5774
g3
I00
sg4
I00
sg5
VTdataCompound
p5775
sg7
I00
sg8
(lp5776
g1904
assVweightList[10]
p5777
(dp5778
g3
I00
sg4
I00
sg5
VTdataCompound
p5779
sg7
I00
sg8
(lp5780
g1689
assVmatrix[37]
p5781
(dp5782
g3
I00
sg4
I00
sg5
Vmatrix
p5783
sg7
I00
sg8
(lp5784
ssVweightList[331]
p5785
(dp5786
g3
I00
sg4
I00
sg5
VTdataCompound
p5787
sg7
I00
sg8
(lp5788
g2278
assVweightList[364]
p5789
(dp5790
g3
I00
sg4
I00
sg5
VTdataCompound
p5791
sg7
I00
sg8
(lp5792
VweightList[364].weights
p5793
assVmatrix[28]
p5794
(dp5795
g3
I00
sg4
I00
sg5
Vmatrix
p5796
sg7
I00
sg8
(lp5797
ssVlockWeights[159]
p5798
(dp5799
g3
I00
sg5
Vbool
p5800
sg4
I00
sg35
I00
sg7
I01
sg8
(lp5801
ssVweightList[348]
p5802
(dp5803
g3
I00
sg4
I00
sg5
VTdataCompound
p5804
sg7
I00
sg8
(lp5805
g5359
assg916
(dp5806
g3
I01
sg4
I01
sg7
I00
sg5
VTdataCompound
p5807
ssVlockWeights[135]
p5808
(dp5809
g3
I00
sg5
Vbool
p5810
sg4
I00
sg35
I00
sg7
I01
sg8
(lp5811
ssg5044
(dp5812
g3
I01
sg4
I01
sg7
I00
sg5
VTdataCompound
p5813
ssVdropoff[167]
p5814
(dp5815
g3
I00
sg5
Vdouble
p5816
sg4
I00
sg35
I00
sg7
I01
sg8
(lp5817
ssg1623
(dp5818
g3
I01
sg4
I01
sg7
I00
sg5
VTdataCompound
p5819
ssVbindPreMatrix[13]
p5820
(dp5821
g3
I00
sg4
I00
sg5
Vmatrix
p5822
sg7
I00
sg8
(lp5823
ssg2516
(dp5824
g3
I01
sg4
I01
sg7
I00
sg5
VTdataCompound
p5825
ssg3273
(dp5826
g3
I01
sg4
I01
sg7
I00
sg5
VTdataCompound
p5827
ssVdropoffRate
p5828
(dp5829
g3
I00
sg5
Vdouble
p5830
sg4
I00
sg35
I00
sg7
I01
sg8
(lp5831
ssg2587
(dp5832
g3
I01
sg4
I01
sg7
I00
sg5
VTdataCompound
p5833
ssVweightList[0].weights
p5834
(dp5835
g3
I01
sg4
I01
sg7
I00
sg5
VTdataCompound
p5836
ssg5637
(dp5837
g3
I01
sg4
I01
sg7
I00
sg5
VTdataCompound
p5838
ssVlockWeights[100]
p5839
(dp5840
g3
I00
sg5
Vbool
p5841
sg4
I00
sg35
I00
sg7
I01
sg8
(lp5842
ssg1463
(dp5843
g3
I01
sg4
I01
sg7
I00
sg5
VTdataCompound
p5844
ssVweightList[142]
p5845
(dp5846
g3
I00
sg4
I00
sg5
VTdataCompound
p5847
sg7
I00
sg8
(lp5848
g418
assVlockWeights[17]
p5849
(dp5850
g3
I00
sg5
Vbool
p5851
sg4
I00
sg35
I00
sg7
I01
sg8
(lp5852
ssVdropoff[152]
p5853
(dp5854
g3
I00
sg5
Vdouble
p5855
sg4
I00
sg35
I00
sg7
I01
sg8
(lp5856
ssVdropoff[91]
p5857
(dp5858
g3
I00
sg5
Vdouble
p5859
sg4
I00
sg35
I00
sg7
I01
sg8
(lp5860
ssVweightList[516]
p5861
(dp5862
g3
I00
sg4
I00
sg5
VTdataCompound
p5863
sg7
I00
sg8
(lp5864
g407
assVweightList[511].weights
p5865
(dp5866
g3
I01
sg4
I01
sg7
I00
sg5
VTdataCompound
p5867
ssVdropoff[185]
p5868
(dp5869
g3
I00
sg5
Vdouble
p5870
sg4
I00
sg35
I00
sg7
I01
sg8
(lp5871
ssg786
(dp5872
g3
I01
sg4
I01
sg7
I00
sg5
VTdataCompound
p5873
ssVweightList[386]
p5874
(dp5875
g3
I00
sg4
I00
sg5
VTdataCompound
p5876
sg7
I00
sg8
(lp5877
g2684
assVbindPreMatrix[64]
p5878
(dp5879
g3
I00
sg4
I00
sg5
Vmatrix
p5880
sg7
I00
sg8
(lp5881
ssVlockWeights[117]
p5882
(dp5883
g3
I00
sg5
Vbool
p5884
sg4
I00
sg35
I00
sg7
I01
sg8
(lp5885
ssVdropoff[169]
p5886
(dp5887
g3
I00
sg5
Vdouble
p5888
sg4
I00
sg35
I00
sg7
I01
sg8
(lp5889
ssVmatrix[75]
p5890
(dp5891
g3
I00
sg4
I00
sg5
Vmatrix
p5892
sg7
I00
sg8
(lp5893
ssVdriverPoints[1]
p5894
(dp5895
g3
I00
sg8
(lp5896
ssVweightList[164]
p5897
(dp5898
g3
I00
sg4
I00
sg5
VTdataCompound
p5899
sg7
I00
sg8
(lp5900
g691
assVweightList[387].weights
p5901
(dp5902
g3
I01
sg4
I01
sg7
I00
sg5
VTdataCompound
p5903
ssg2670
(dp5904
g3
I01
sg4
I01
sg7
I00
sg5
VTdataCompound
p5905
ssVmatrix[62]
p5906
(dp5907
g3
I00
sg4
I00
sg5
Vmatrix
p5908
sg7
I00
sg8
(lp5909
ssVlockWeights[68]
p5910
(dp5911
g3
I00
sg5
Vbool
p5912
sg4
I00
sg35
I00
sg7
I01
sg8
(lp5913
ssVdropoff[82]
p5914
(dp5915
g3
I00
sg5
Vdouble
p5916
sg4
I00
sg35
I00
sg7
I01
sg8
(lp5917
ssVweightList[92]
p5918
(dp5919
g3
I00
sg4
I00
sg5
VTdataCompound
p5920
sg7
I00
sg8
(lp5921
g5005
assVweightList[124]
p5922
(dp5923
g3
I00
sg4
I00
sg5
VTdataCompound
p5924
sg7
I00
sg8
(lp5925
g467
assVweightList[179]
p5926
(dp5927
g3
I00
sg4
I00
sg5
VTdataCompound
p5928
sg7
I00
sg8
(lp5929
g2920
assVlockWeights[207]
p5930
(dp5931
g3
I00
sg5
Vbool
p5932
sg4
I00
sg35
I00
sg7
I01
sg8
(lp5933
ssVdropoff[2]
p5934
(dp5935
g3
I00
sg5
Vdouble
p5936
sg4
I00
sg35
I00
sg7
I01
sg8
(lp5937
ssg642
(dp5938
g3
I01
sg4
I01
sg7
I00
sg5
VTdataCompound
p5939
ssVmatrix[102]
p5940
(dp5941
g3
I00
sg4
I00
sg5
Vmatrix
p5942
sg7
I00
sg8
(lp5943
ssVdropoff[107]
p5944
(dp5945
g3
I00
sg5
Vdouble
p5946
sg4
I00
sg35
I00
sg7
I01
sg8
(lp5947
ssVweightList[156]
p5948
(dp5949
g3
I00
sg4
I00
sg5
VTdataCompound
p5950
sg7
I00
sg8
(lp5951
g4083
assVweightList[278]
p5952
(dp5953
g3
I00
sg4
I00
sg5
VTdataCompound
p5954
sg7
I00
sg8
(lp5955
g4864
assVweightList[523]
p5956
(dp5957
g3
I00
sg4
I00
sg5
VTdataCompound
p5958
sg7
I00
sg8
(lp5959
g1163
assVlockWeights[210]
p5960
(dp5961
g3
I00
sg8
(lp5962
ssVlockWeights[52]
p5963
(dp5964
g3
I00
sg5
Vbool
p5965
sg4
I00
sg35
I00
sg7
I01
sg8
(lp5966
ssVweightList[225].weights
p5967
(dp5968
g3
I01
sg4
I01
sg7
I00
sg5
VTdataCompound
p5969
ssVweightList[223]
p5970
(dp5971
g3
I00
sg4
I00
sg5
VTdataCompound
p5972
sg7
I00
sg8
(lp5973
g4983
assg902
(dp5974
g3
I01
sg4
I01
sg7
I00
sg5
VTdataCompound
p5975
ssVweightList[454]
p5976
(dp5977
g3
I00
sg4
I00
sg5
VTdataCompound
p5978
sg7
I00
sg8
(lp5979
VweightList[454].weights
p5980
assVlockWeights[75]
p5981
(dp5982
g3
I00
sg5
Vbool
p5983
sg4
I00
sg35
I00
sg7
I01
sg8
(lp5984
ssVweightList[509]
p5985
(dp5986
g3
I00
sg4
I00
sg5
VTdataCompound
p5987
sg7
I00
sg8
(lp5988
g503
assVbindPreMatrix[191]
p5989
(dp5990
g3
I00
sg4
I00
sg5
Vmatrix
p5991
sg7
I00
sg8
(lp5992
ssVweightList[123].weights
p5993
(dp5994
g3
I01
sg4
I01
sg7
I00
sg5
VTdataCompound
p5995
ssVweightList[1].weights
p5996
(dp5997
g3
I01
sg4
I01
sg7
I00
sg5
VTdataCompound
p5998
ssg5503
(dp5999
g3
I01
sg4
I01
sg7
I00
sg5
VTdataCompound
p6000
ssVweightList[252]
p6001
(dp6002
g3
I00
sg4
I00
sg5
VTdataCompound
p6003
sg7
I00
sg8
(lp6004
g4942
assVweightList[283]
p6005
(dp6006
g3
I00
sg4
I00
sg5
VTdataCompound
p6007
sg7
I00
sg8
(lp6008
VweightList[283].weights
p6009
assVweightList[133]
p6010
(dp6011
g3
I00
sg4
I00
sg5
VTdataCompound
p6012
sg7
I00
sg8
(lp6013
g1303
assVweightList[140]
p6014
(dp6015
g3
I00
sg4
I00
sg5
VTdataCompound
p6016
sg7
I00
sg8
(lp6017
g1834
assVmatrix[2]
p6018
(dp6019
g3
I00
sg4
I00
sg5
Vmatrix
p6020
sg7
I00
sg8
(lp6021
ssVmatrix[97]
p6022
(dp6023
g3
I00
sg4
I00
sg5
Vmatrix
p6024
sg7
I00
sg8
(lp6025
ssVweightList[478]
p6026
(dp6027
g3
I00
sg4
I00
sg5
VTdataCompound
p6028
sg7
I00
sg8
(lp6029
VweightList[478].weights
p6030
assVweightList[530]
p6031
(dp6032
g3
I00
sg4
I00
sg5
VTdataCompound
p6033
sg7
I00
sg8
(lp6034
g2566
assVlockWeights[30]
p6035
(dp6036
g3
I00
sg5
Vbool
p6037
sg4
I00
sg35
I00
sg7
I01
sg8
(lp6038
ssVweightList[201]
p6039
(dp6040
g3
I00
sg4
I00
sg5
VTdataCompound
p6041
sg7
I00
sg8
(lp6042
VweightList[201].weights
p6043
assVweightList[543].weights
p6044
(dp6045
g3
I01
sg4
I01
sg7
I00
sg5
VTdataCompound
p6046
ssVdropoff[121]
p6047
(dp6048
g3
I00
sg5
Vdouble
p6049
sg4
I00
sg35
I00
sg7
I01
sg8
(lp6050
ssg1771
(dp6051
g3
I01
sg4
I01
sg7
I00
sg5
VTdataCompound
p6052
ssg1419
(dp6053
g3
I01
sg4
I01
sg7
I00
sg5
VTdataCompound
p6054
ssVbindPreMatrix[90]
p6055
(dp6056
g3
I00
sg4
I00
sg5
Vmatrix
p6057
sg7
I00
sg8
(lp6058
ssg154
(dp6059
g3
I01
sg4
I01
sg7
I00
sg5
VTdataCompound
p6060
ssVbindPreMatrix[110]
p6061
(dp6062
g3
I00
sg4
I00
sg5
Vmatrix
p6063
sg7
I00
sg8
(lp6064
ssVmatrix[148]
p6065
(dp6066
g3
I00
sg4
I00
sg5
Vmatrix
p6067
sg7
I00
sg8
(lp6068
ssVbindPreMatrix[129]
p6069
(dp6070
g3
I00
sg4
I00
sg5
Vmatrix
p6071
sg7
I00
sg8
(lp6072
ssg2989
(dp6073
g3
I01
sg4
I01
sg7
I00
sg5
VTdataCompound
p6074
ssVweightList[11].weights
p6075
(dp6076
g3
I01
sg4
I01
sg7
I00
sg5
VTdataCompound
p6077
ssVweightList[66]
p6078
(dp6079
g3
I00
sg4
I00
sg5
VTdataCompound
p6080
sg7
I00
sg8
(lp6081
g5035
assVmatrix[137]
p6082
(dp6083
g3
I00
sg4
I00
sg5
Vmatrix
p6084
sg7
I00
sg8
(lp6085
ssVnodeState
p6086
(dp6087
g3
I00
sg5
Venum
p6088
sg4
I00
sg35
I00
sg7
I01
sg8
(lp6089
ssg5567
(dp6090
g3
I01
sg4
I01
sg7
I00
sg5
VTdataCompound
p6091
ssVweightList[543]
p6092
(dp6093
g3
I00
sg4
I00
sg5
VTdataCompound
p6094
sg7
I00
sg8
(lp6095
g6044
assVlockWeights[23]
p6096
(dp6097
g3
I00
sg5
Vbool
p6098
sg4
I00
sg35
I00
sg7
I01
sg8
(lp6099
ssVmatrix[180]
p6100
(dp6101
g3
I00
sg4
I00
sg5
Vmatrix
p6102
sg7
I00
sg8
(lp6103
ssg3369
(dp6104
g3
I01
sg4
I01
sg7
I00
sg5
VTdataCompound
p6105
ssg5417
(dp6106
g3
I01
sg4
I01
sg7
I00
sg5
VTdataCompound
p6107
ssg2132
(dp6108
g3
I01
sg4
I01
sg7
I00
sg5
VTdataCompound
p6109
ssg1903
(dp6110
g3
I01
sg4
I01
sg7
I00
sg5
VTdataCompound
p6111
ssVmatrix[179]
p6112
(dp6113
g3
I00
sg4
I00
sg5
Vmatrix
p6114
sg7
I00
sg8
(lp6115
ssg3148
(dp6116
g3
I01
sg4
I01
sg7
I00
sg5
VTdataCompound
p6117
ssVlockWeights[105]
p6118
(dp6119
g3
I00
sg5
Vbool
p6120
sg4
I00
sg35
I00
sg7
I01
sg8
(lp6121
ssg3135
(dp6122
g3
I01
sg4
I01
sg7
I00
sg5
VTdataCompound
p6123
ssVweightList[230]
p6124
(dp6125
g3
I00
sg4
I00
sg5
VTdataCompound
p6126
sg7
I00
sg8
(lp6127
g1896
assVweightList[265]
p6128
(dp6129
g3
I00
sg4
I00
sg5
VTdataCompound
p6130
sg7
I00
sg8
(lp6131
g3030
assg5749
(dp6132
g3
I01
sg4
I01
sg7
I00
sg5
VTdataCompound
p6133
ssVmatrix[115]
p6134
(dp6135
g3
I00
sg4
I00
sg5
Vmatrix
p6136
sg7
I00
sg8
(lp6137
ssg3562
(dp6138
g3
I01
sg4
I01
sg7
I00
sg5
VTdataCompound
p6139
ssVweightList[28]
p6140
(dp6141
g3
I00
sg4
I00
sg5
VTdataCompound
p6142
sg7
I00
sg8
(lp6143
g4602
assVmatrix[56]
p6144
(dp6145
g3
I00
sg4
I00
sg5
Vmatrix
p6146
sg7
I00
sg8
(lp6147
ssVweightList[0].weights[0]
p6148
(dp6149
g3
I00
sg8
(lp6150
ssg120
(dp6151
g3
I01
sg4
I01
sg7
I00
sg5
VTdataCompound
p6152
ssVweightList[143].weights
p6153
(dp6154
g3
I01
sg4
I01
sg7
I00
sg5
VTdataCompound
p6155
ssVdropoff[144]
p6156
(dp6157
g3
I00
sg5
Vdouble
p6158
sg4
I00
sg35
I00
sg7
I01
sg8
(lp6159
ssVweightList[192]
p6160
(dp6161
g3
I00
sg4
I00
sg5
VTdataCompound
p6162
sg7
I00
sg8
(lp6163
g755
assVweightList[301]
p6164
(dp6165
g3
I00
sg4
I00
sg5
VTdataCompound
p6166
sg7
I00
sg8
(lp6167
g3112
assVweightList[11]
p6168
(dp6169
g3
I00
sg4
I00
sg5
VTdataCompound
p6170
sg7
I00
sg8
(lp6171
g6075
assVweightList[44]
p6172
(dp6173
g3
I00
sg4
I00
sg5
VTdataCompound
p6174
sg7
I00
sg8
(lp6175
VweightList[44].weights
p6176
assVmatrix[36]
p6177
(dp6178
g3
I00
sg4
I00
sg5
Vmatrix
p6179
sg7
I00
sg8
(lp6180
ssVmatrix[127]
p6181
(dp6182
g3
I00
sg4
I00
sg5
Vmatrix
p6183
sg7
I00
sg8
(lp6184
ssVlockWeights[1]
p6185
(dp6186
g3
I00
sg5
Vbool
p6187
sg4
I00
sg35
I00
sg7
I01
sg8
(lp6188
ssVweightList[365]
p6189
(dp6190
g3
I00
sg4
I00
sg5
VTdataCompound
p6191
sg7
I00
sg8
(lp6192
VweightList[365].weights
p6193
assVweightList[330]
p6194
(dp6195
g3
I00
sg4
I00
sg5
VTdataCompound
p6196
sg7
I00
sg8
(lp6197
g1056
assVmatrix[29]
p6198
(dp6199
g3
I00
sg4
I00
sg5
Vmatrix
p6200
sg7
I00
sg8
(lp6201
ssVweightList[349]
p6202
(dp6203
g3
I00
sg4
I00
sg5
VTdataCompound
p6204
sg7
I00
sg8
(lp6205
g5320
assVbindPreMatrix[12]
p6206
(dp6207
g3
I00
sg4
I00
sg5
Vmatrix
p6208
sg7
I00
sg8
(lp6209
ssg53
(dp6210
g3
I01
sg4
I01
sg7
I00
sg5
VTdataCompound
p6211
ssVbindPreMatrix[143]
p6212
(dp6213
g3
I00
sg4
I00
sg5
Vmatrix
p6214
sg7
I00
sg8
(lp6215
ssVweightList[222].weights
p6216
(dp6217
g3
I01
sg4
I01
sg7
I00
sg5
VTdataCompound
p6218
ssVmatrix[177]
p6219
(dp6220
g3
I00
sg4
I00
sg5
Vmatrix
p6221
sg7
I00
sg8
(lp6222
ssVbindPreMatrix[83]
p6223
(dp6224
g3
I00
sg4
I00
sg5
Vmatrix
p6225
sg7
I00
sg8
(lp6226
ssVweightList[110]
p6227
(dp6228
g3
I00
sg4
I00
sg5
VTdataCompound
p6229
sg7
I00
sg8
(lp6230
g4522
assVdropoff[159]
p6231
(dp6232
g3
I00
sg5
Vdouble
p6233
sg4
I00
sg35
I00
sg7
I01
sg8
(lp6234
ssVweightList[312]
p6235
(dp6236
g3
I00
sg4
I00
sg5
VTdataCompound
p6237
sg7
I00
sg8
(lp6238
g3957
assg5223
(dp6239
g3
I01
sg4
I01
sg7
I00
sg5
VTdataCompound
p6240
ssg4888
(dp6241
g3
I01
sg4
I01
sg7
I00
sg5
VTdataCompound
p6242
ssg1069
(dp6243
g3
I01
sg4
I01
sg7
I00
sg5
VTdataCompound
p6244
ssg1744
(dp6245
g3
I01
sg4
I01
sg7
I00
sg5
VTdataCompound
p6246
ssVweightList[511]
p6247
(dp6248
g3
I00
sg4
I00
sg5
VTdataCompound
p6249
sg7
I00
sg8
(lp6250
g5865
assVbindPreMatrix[172]
p6251
(dp6252
g3
I00
sg4
I00
sg5
Vmatrix
p6253
sg7
I00
sg8
(lp6254
ssVweightList[59]
p6255
(dp6256
g3
I00
sg4
I00
sg5
VTdataCompound
p6257
sg7
I00
sg8
(lp6258
VweightList[59].weights
p6259
assg5708
(dp6260
g3
I01
sg4
I01
sg7
I00
sg5
VTdataCompound
p6261
ssVbindPreMatrix[34]
p6262
(dp6263
g3
I00
sg4
I00
sg5
Vmatrix
p6264
sg7
I00
sg8
(lp6265
ssg4765
(dp6266
g3
I01
sg4
I01
sg7
I00
sg5
VTdataCompound
p6267
ssVweightList[378].weights
p6268
(dp6269
g3
I01
sg4
I01
sg7
I00
sg5
VTdataCompound
p6270
ssVmatrix[15]
p6271
(dp6272
g3
I00
sg4
I00
sg5
Vmatrix
p6273
sg7
I00
sg8
(lp6274
ssVweightList[387]
p6275
(dp6276
g3
I00
sg4
I00
sg5
VTdataCompound
p6277
sg7
I00
sg8
(lp6278
g5901
assVweightList[440].weights
p6279
(dp6280
g3
I01
sg4
I01
sg7
I00
sg5
VTdataCompound
p6281
ssVmatrix[74]
p6282
(dp6283
g3
I00
sg4
I00
sg5
Vmatrix
p6284
sg7
I00
sg8
(lp6285
ssVbindPreMatrix[65]
p6286
(dp6287
g3
I00
sg4
I00
sg5
Vmatrix
p6288
sg7
I00
sg8
(lp6289
ssg6193
(dp6290
g3
I01
sg4
I01
sg7
I00
sg5
VTdataCompound
p6291
ssVweightList[165]
p6292
(dp6293
g3
I00
sg4
I00
sg5
VTdataCompound
p6294
sg7
I00
sg8
(lp6295
VweightList[165].weights
p6296
assg1431
(dp6297
g3
I01
sg4
I01
sg7
I00
sg5
VTdataCompound
p6298
ssVdropoff[85]
p6299
(dp6300
g3
I00
sg5
Vdouble
p6301
sg4
I00
sg35
I00
sg7
I01
sg8
(lp6302
ssVweightList[125]
p6303
(dp6304
g3
I00
sg4
I00
sg5
VTdataCompound
p6305
sg7
I00
sg8
(lp6306
g857
assVmatrix
p6307
(dp6308
g3
I01
sg4
I01
sg7
I00
sg5
VTdataCompound
p6309
ssVdropoff[67]
p6310
(dp6311
g3
I00
sg5
Vdouble
p6312
sg4
I00
sg35
I00
sg7
I01
sg8
(lp6313
ssg4982
(dp6314
g3
I01
sg4
I01
sg7
I00
sg5
VTdataCompound
p6315
ssVmatrix[63]
p6316
(dp6317
g3
I00
sg4
I00
sg5
Vmatrix
p6318
sg7
I00
sg8
(lp6319
ssVweightList[93]
p6320
(dp6321
g3
I00
sg4
I00
sg5
VTdataCompound
p6322
sg7
I00
sg8
(lp6323
g1145
assVweightList[178]
p6324
(dp6325
g3
I00
sg4
I00
sg5
VTdataCompound
p6326
sg7
I00
sg8
(lp6327
g62
assVweightList[497]
p6328
(dp6329
g3
I00
sg4
I00
sg5
VTdataCompound
p6330
sg7
I00
sg8
(lp6331
g520
assVweightList[378]
p6332
(dp6333
g3
I00
sg4
I00
sg5
VTdataCompound
p6334
sg7
I00
sg8
(lp6335
g6268
assVdropoff[69]
p6336
(dp6337
g3
I00
sg5
Vdouble
p6338
sg4
I00
sg35
I00
sg7
I01
sg8
(lp6339
ssg3690
(dp6340
g3
I01
sg4
I01
sg7
I00
sg5
VTdataCompound
p6341
ssVmatrix[10]
p6342
(dp6343
g3
I00
sg4
I00
sg5
Vmatrix
p6344
sg7
I00
sg8
(lp6345
ssg4211
(dp6346
g3
I01
sg4
I01
sg7
I00
sg5
VTdataCompound
p6347
ssVdropoff[10]
p6348
(dp6349
g3
I00
sg5
Vdouble
p6350
sg4
I00
sg35
I00
sg7
I01
sg8
(lp6351
ssVweightList[126]
p6352
(dp6353
g3
I00
sg4
I00
sg5
VTdataCompound
p6354
sg7
I00
sg8
(lp6355
g3744
assVdropoff[45]
p6356
(dp6357
g3
I00
sg5
Vdouble
p6358
sg4
I00
sg35
I00
sg7
I01
sg8
(lp6359
ssVweightList[123]
p6360
(dp6361
g3
I00
sg4
I00
sg5
VTdataCompound
p6362
sg7
I00
sg8
(lp6363
g5993
assVmatrix[58]
p6364
(dp6365
g3
I00
sg4
I00
sg5
Vmatrix
p6366
sg7
I00
sg8
(lp6367
ssVweightList[84]
p6368
(dp6369
g3
I00
sg4
I00
sg5
VTdataCompound
p6370
sg7
I00
sg8
(lp6371
g2348
assVdropoff[21]
p6372
(dp6373
g3
I00
sg5
Vdouble
p6374
sg4
I00
sg35
I00
sg7
I01
sg8
(lp6375
ssVweightList[420]
p6376
(dp6377
g3
I00
sg4
I00
sg5
VTdataCompound
p6378
sg7
I00
sg8
(lp6379
g1541
assVlockWeights[114]
p6380
(dp6381
g3
I00
sg5
Vbool
p6382
sg4
I00
sg35
I00
sg7
I01
sg8
(lp6383
ssVdropoff[199]
p6384
(dp6385
g3
I00
sg5
Vdouble
p6386
sg4
I00
sg35
I00
sg7
I01
sg8
(lp6387
ssg5338
(dp6388
g3
I01
sg4
I01
sg7
I00
sg5
VTdataCompound
p6389
ssVweightList[327]
p6390
(dp6391
g3
I00
sg4
I00
sg5
VTdataCompound
p6392
sg7
I00
sg8
(lp6393
VweightList[327].weights
p6394
assg5252
(dp6395
g3
I01
sg4
I01
sg7
I00
sg5
VTdataCompound
p6396
ssVlockWeights[65]
p6397
(dp6398
g3
I00
sg5
Vbool
p6399
sg4
I00
sg35
I00
sg7
I01
sg8
(lp6400
ssVweightList[455]
p6401
(dp6402
g3
I00
sg4
I00
sg5
VTdataCompound
p6403
sg7
I00
sg8
(lp6404
g266
assVweightList[409].weights
p6405
(dp6406
g3
I01
sg4
I01
sg7
I00
sg5
VTdataCompound
p6407
ssg1752
(dp6408
g3
I01
sg4
I01
sg7
I00
sg5
VTdataCompound
p6409
ssVlockWeights[163]
p6410
(dp6411
g3
I00
sg5
Vbool
p6412
sg4
I00
sg35
I00
sg7
I01
sg8
(lp6413
ssVweightList[443]
p6414
(dp6415
g3
I00
sg4
I00
sg5
VTdataCompound
p6416
sg7
I00
sg8
(lp6417
g3720
assg4731
(dp6418
g3
I01
sg4
I01
sg7
I00
sg5
VTdataCompound
p6419
ssVweightList[385].weights
p6420
(dp6421
g3
I01
sg4
I01
sg7
I00
sg5
VTdataCompound
p6422
ssg5793
(dp6423
g3
I01
sg4
I01
sg7
I00
sg5
VTdataCompound
p6424
ssVweightList[533]
p6425
(dp6426
g3
I00
sg4
I00
sg5
VTdataCompound
p6427
sg7
I00
sg8
(lp6428
VweightList[533].weights
p6429
assVmatrix[211]
p6430
(dp6431
g3
I00
sg8
(lp6432
ssVmatrix[96]
p6433
(dp6434
g3
I00
sg4
I00
sg5
Vmatrix
p6435
sg7
I00
sg8
(lp6436
ssg5424
(dp6437
g3
I01
sg4
I01
sg7
I00
sg5
VTdataCompound
p6438
ssVweightList[282]
p6439
(dp6440
g3
I00
sg4
I00
sg5
VTdataCompound
p6441
sg7
I00
sg8
(lp6442
g140
assVbindPreMatrix[192]
p6443
(dp6444
g3
I00
sg4
I00
sg5
Vmatrix
p6445
sg7
I00
sg8
(lp6446
ssVweightList[253]
p6447
(dp6448
g3
I00
sg4
I00
sg5
VTdataCompound
p6449
sg7
I00
sg8
(lp6450
VweightList[253].weights
p6451
assg5597
(dp6452
g3
I01
sg4
I01
sg7
I00
sg5
VTdataCompound
p6453
ssg3854
(dp6454
g3
I01
sg4
I01
sg7
I00
sg5
VTdataCompound
p6455
ssVweightList[1]
p6456
(dp6457
g3
I00
sg4
I00
sg5
VTdataCompound
p6458
sg7
I00
sg8
(lp6459
g5996
assVweightList[479]
p6460
(dp6461
g3
I00
sg4
I00
sg5
VTdataCompound
p6462
sg7
I00
sg8
(lp6463
g4892
assVweightList[132]
p6464
(dp6465
g3
I00
sg4
I00
sg5
VTdataCompound
p6466
sg7
I00
sg8
(lp6467
g5084
assVweightList[384].weights
p6468
(dp6469
g3
I01
sg4
I01
sg7
I00
sg5
VTdataCompound
p6470
ssg5211
(dp6471
g3
I01
sg4
I01
sg7
I00
sg5
VTdataCompound
p6472
ssg3735
(dp6473
g3
I01
sg4
I01
sg7
I00
sg5
VTdataCompound
p6474
ssg3191
(dp6475
g3
I01
sg4
I01
sg7
I00
sg5
VTdataCompound
p6476
ssVlockWeights[101]
p6477
(dp6478
g3
I00
sg5
Vbool
p6479
sg4
I00
sg35
I00
sg7
I01
sg8
(lp6480
ssVweightList[143]
p6481
(dp6482
g3
I00
sg4
I00
sg5
VTdataCompound
p6483
sg7
I00
sg8
(lp6484
g6153
assVlockWeights[81]
p6485
(dp6486
g3
I00
sg5
Vbool
p6487
sg4
I00
sg35
I00
sg7
I01
sg8
(lp6488
ssg286
(dp6489
g3
I01
sg4
I01
sg7
I00
sg5
VTdataCompound
p6490
ssVweightList[515]
p6491
(dp6492
g3
I00
sg4
I00
sg5
VTdataCompound
p6493
sg7
I00
sg8
(lp6494
g3283
assg3967
(dp6495
g3
I01
sg4
I01
sg7
I00
sg5
VTdataCompound
p6496
ssg2765
(dp6497
g3
I01
sg4
I01
sg7
I00
sg5
VTdataCompound
p6498
ssVdropoff[119]
p6499
(dp6500
g3
I00
sg5
Vdouble
p6501
sg4
I00
sg35
I00
sg7
I01
sg8
(lp6502
ssVweightList[544]
p6503
(dp6504
g3
I00
sg4
I00
sg5
VTdataCompound
p6505
sg7
I00
sg8
(lp6506
g29
assVweightList[279]
p6507
(dp6508
g3
I00
sg4
I00
sg5
VTdataCompound
p6509
sg7
I00
sg8
(lp6510
VweightList[279].weights
p6511
assVmatrix[197]
p6512
(dp6513
g3
I00
sg4
I00
sg5
Vmatrix
p6514
sg7
I00
sg8
(lp6515
ssg1945
(dp6516
g3
I01
sg4
I01
sg7
I00
sg5
VTdataCompound
p6517
ssVmatrix[190]
p6518
(dp6519
g3
I00
sg4
I00
sg5
Vmatrix
p6520
sg7
I00
sg8
(lp6521
ssVweightList[264]
p6522
(dp6523
g3
I00
sg4
I00
sg5
VTdataCompound
p6524
sg7
I00
sg8
(lp6525
g5534
assg2266
(dp6526
g3
I01
sg4
I01
sg7
I00
sg5
VTdataCompound
p6527
ssVlockWeights[22]
p6528
(dp6529
g3
I00
sg5
Vbool
p6530
sg4
I00
sg35
I00
sg7
I01
sg8
(lp6531
ssVweightList[231]
p6532
(dp6533
g3
I00
sg4
I00
sg5
VTdataCompound
p6534
sg7
I00
sg8
(lp6535
g1852
assVmatrix[116]
p6536
(dp6537
g3
I00
sg4
I00
sg5
Vmatrix
p6538
sg7
I00
sg8
(lp6539
ssg4130
(dp6540
g3
I01
sg4
I01
sg7
I00
sg5
VTdataCompound
p6541
ssVdropoff[1]
p6542
(dp6543
g3
I00
sg5
Vdouble
p6544
sg4
I00
sg35
I00
sg7
I01
sg8
(lp6545
ssVlockWeights[116]
p6546
(dp6547
g3
I00
sg5
Vbool
p6548
sg4
I00
sg35
I00
sg7
I01
sg8
(lp6549
ssg4514
(dp6550
g3
I01
sg4
I01
sg7
I00
sg5
VTdataCompound
p6551
ssVlockWeights[139]
p6552
(dp6553
g3
I00
sg5
Vbool
p6554
sg4
I00
sg35
I00
sg7
I01
sg8
(lp6555
ssVlockWeights[13]
p6556
(dp6557
g3
I00
sg5
Vbool
p6558
sg4
I00
sg35
I00
sg7
I01
sg8
(lp6559
ssVweightList[435].weights
p6560
(dp6561
g3
I01
sg4
I01
sg7
I00
sg5
VTdataCompound
p6562
ssVweightList[222]
p6563
(dp6564
g3
I00
sg4
I00
sg5
VTdataCompound
p6565
sg7
I00
sg8
(lp6566
g6216
assVdropoff[104]
p6567
(dp6568
g3
I00
sg5
Vdouble
p6569
sg4
I00
sg35
I00
sg7
I01
sg8
(lp6570
ssVmatrix[101]
p6571
(dp6572
g3
I00
sg4
I00
sg5
Vmatrix
p6573
sg7
I00
sg8
(lp6574
ssVweightList[520]
p6575
(dp6576
g3
I00
sg4
I00
sg5
VTdataCompound
p6577
sg7
I00
sg8
(lp6578
g5650
assVlockWeights[211]
p6579
(dp6580
g3
I00
sg8
(lp6581
ssg2108
(dp6582
g3
I01
sg4
I01
sg7
I00
sg5
VTdataCompound
p6583
ssVlockWeights[53]
p6584
(dp6585
g3
I00
sg5
Vbool
p6586
sg4
I00
sg35
I00
sg7
I01
sg8
(lp6587
ssVmatrix[174]
p6588
(dp6589
g3
I00
sg4
I00
sg5
Vmatrix
p6590
sg7
I00
sg8
(lp6591
ssg754
(dp6592
g3
I01
sg4
I01
sg7
I00
sg5
VTdataCompound
p6593
ssVbindPreMatrix[160]
p6594
(dp6595
g3
I00
sg4
I00
sg5
Vmatrix
p6596
sg7
I00
sg8
(lp6597
ssVdropoff[153]
p6598
(dp6599
g3
I00
sg5
Vdouble
p6600
sg4
I00
sg35
I00
sg7
I01
sg8
(lp6601
ssVweightList[72]
p6602
(dp6603
g3
I00
sg4
I00
sg5
VTdataCompound
p6604
sg7
I00
sg8
(lp6605
g1550
assg5765
(dp6606
g3
I01
sg4
I01
sg7
I00
sg5
VTdataCompound
p6607
ssg233
(dp6608
g3
I01
sg4
I01
sg7
I00
sg5
VTdataCompound
p6609
ssVweightList[42].weights
p6610
(dp6611
g3
I01
sg4
I01
sg7
I00
sg5
VTdataCompound
p6612
ssVbindPreMatrix[173]
p6613
(dp6614
g3
I00
sg4
I00
sg5
Vmatrix
p6615
sg7
I00
sg8
(lp6616
ssVbindPreMatrix[33]
p6617
(dp6618
g3
I00
sg4
I00
sg5
Vmatrix
p6619
sg7
I00
sg8
(lp6620
ssVmatrix[158]
p6621
(dp6622
g3
I00
sg4
I00
sg5
Vmatrix
p6623
sg7
I00
sg8
(lp6624
ssVlockWeights[50]
p6625
(dp6626
g3
I00
sg5
Vbool
p6627
sg4
I00
sg35
I00
sg7
I01
sg8
(lp6628
ssVlockWeights[31]
p6629
(dp6630
g3
I00
sg5
Vbool
p6631
sg4
I00
sg35
I00
sg7
I01
sg8
(lp6632
ssVlockWeights[190]
p6633
(dp6634
g3
I00
sg5
Vbool
p6635
sg4
I00
sg35
I00
sg7
I01
sg8
(lp6636
ssg1052
(dp6637
g3
I01
sg4
I01
sg7
I00
sg5
VTdataCompound
p6638
ssVweightList[200]
p6639
(dp6640
g3
I00
sg4
I00
sg5
VTdataCompound
p6641
sg7
I00
sg8
(lp6642
g2969
assg84
(dp6643
g3
I01
sg4
I01
sg7
I00
sg5
VTdataCompound
p6644
ssg4345
(dp6645
g3
I01
sg4
I01
sg7
I00
sg5
VTdataCompound
p6646
ssVbindPreMatrix[93]
p6647
(dp6648
g3
I00
sg4
I00
sg5
Vmatrix
p6649
sg7
I00
sg8
(lp6650
ssVbindPreMatrix[111]
p6651
(dp6652
g3
I00
sg4
I00
sg5
Vmatrix
p6653
sg7
I00
sg8
(lp6654
ssg3391
(dp6655
g3
I01
sg4
I01
sg7
I00
sg5
VTdataCompound
p6656
ssVmatrix[134]
p6657
(dp6658
g3
I00
sg4
I00
sg5
Vmatrix
p6659
sg7
I00
sg8
(lp6660
ssVbindPreMatrix[128]
p6661
(dp6662
g3
I00
sg4
I00
sg5
Vmatrix
p6663
sg7
I00
sg8
(lp6664
ssg911
(dp6665
g3
I01
sg4
I01
sg7
I00
sg5
VTdataCompound
p6666
ssg3938
(dp6667
g3
I01
sg4
I01
sg7
I00
sg5
VTdataCompound
p6668
ssVweightList[446]
p6669
(dp6670
g3
I00
sg4
I00
sg5
VTdataCompound
p6671
sg7
I00
sg8
(lp6672
g4889
assVweightList[61]
p6673
(dp6674
g3
I00
sg4
I00
sg5
VTdataCompound
p6675
sg7
I00
sg8
(lp6676
g836
assVweightList[359]
p6677
(dp6678
g3
I00
sg4
I00
sg5
VTdataCompound
p6679
sg7
I00
sg8
(lp6680
g5180
assg261
(dp6681
g3
I01
sg4
I01
sg7
I00
sg5
VTdataCompound
p6682
ssg3241
(dp6683
g3
I01
sg4
I01
sg7
I00
sg5
VTdataCompound
p6684
ssVmatrix[13]
p6685
(dp6686
g3
I00
sg4
I00
sg5
Vmatrix
p6687
sg7
I00
sg8
(lp6688
ssVweightList[494]
p6689
(dp6690
g3
I00
sg4
I00
sg5
VTdataCompound
p6691
sg7
I00
sg8
(lp6692
g1182
assVdropoff[68]
p6693
(dp6694
g3
I00
sg5
Vdouble
p6695
sg4
I00
sg35
I00
sg7
I01
sg8
(lp6696
ssVweightList[456]
p6697
(dp6698
g3
I00
sg4
I00
sg5
VTdataCompound
p6699
sg7
I00
sg8
(lp6700
g5267
assVlockWeights[148]
p6701
(dp6702
g3
I00
sg5
Vbool
p6703
sg4
I00
sg35
I00
sg7
I01
sg8
(lp6704
ssVweightList[54]
p6705
(dp6706
g3
I00
sg4
I00
sg5
VTdataCompound
p6707
sg7
I00
sg8
(lp6708
g3362
assVdropoff[11]
p6709
(dp6710
g3
I00
sg5
Vdouble
p6711
sg4
I00
sg35
I00
sg7
I01
sg8
(lp6712
ssVdropoff[44]
p6713
(dp6714
g3
I00
sg5
Vdouble
p6715
sg4
I00
sg35
I00
sg7
I01
sg8
(lp6716
ssVlockWeights[171]
p6717
(dp6718
g3
I00
sg5
Vbool
p6719
sg4
I00
sg35
I00
sg7
I01
sg8
(lp6720
ssVbindPreMatrix[79]
p6721
(dp6722
g3
I00
sg4
I00
sg5
Vmatrix
p6723
sg7
I00
sg8
(lp6724
ssVweightList[489]
p6725
(dp6726
g3
I00
sg4
I00
sg5
VTdataCompound
p6727
sg7
I00
sg8
(lp6728
g398
assVnurbsSamples
p6729
(dp6730
g3
I01
sg4
I01
sg7
I00
sg5
VTdataCompound
p6731
ssg3420
(dp6732
g3
I01
sg4
I01
sg7
I00
sg5
VTdataCompound
p6733
ssVdropoff[198]
p6734
(dp6735
g3
I00
sg5
Vdouble
p6736
sg4
I00
sg35
I00
sg7
I01
sg8
(lp6737
ssVlockWeights[106]
p6738
(dp6739
g3
I00
sg5
Vbool
p6740
sg4
I00
sg35
I00
sg7
I01
sg8
(lp6741
ssVweightList[320]
p6742
(dp6743
g3
I00
sg4
I00
sg5
VTdataCompound
p6744
sg7
I00
sg8
(lp6745
g3630
assg3458
(dp6746
g3
I01
sg4
I01
sg7
I00
sg5
VTdataCompound
p6747
ssVlockWeights[197]
p6748
(dp6749
g3
I00
sg5
Vbool
p6750
sg4
I00
sg35
I00
sg7
I01
sg8
(lp6751
ssg1572
(dp6752
g3
I01
sg4
I01
sg7
I00
sg5
VTdataCompound
p6753
ssVweightList[0].weights[1]
p6754
(dp6755
g3
I00
sg8
(lp6756
ssVweightList[306]
p6757
(dp6758
g3
I00
sg4
I00
sg5
VTdataCompound
p6759
sg7
I00
sg8
(lp6760
g5758
assVmatrix[35]
p6761
(dp6762
g3
I00
sg4
I00
sg5
Vmatrix
p6763
sg7
I00
sg8
(lp6764
ssVweightList[12]
p6765
(dp6766
g3
I00
sg4
I00
sg5
VTdataCompound
p6767
sg7
I00
sg8
(lp6768
g226
assVweightList[43]
p6769
(dp6770
g3
I00
sg4
I00
sg5
VTdataCompound
p6771
sg7
I00
sg8
(lp6772
g4279
assVlockWeights[0]
p6773
(dp6774
g3
I00
sg5
Vbool
p6775
sg4
I00
sg35
I00
sg7
I01
sg8
(lp6776
ssVbindPreMatrix[24]
p6777
(dp6778
g3
I00
sg4
I00
sg5
Vmatrix
p6779
sg7
I00
sg8
(lp6780
ssVlockWeights[157]
p6781
(dp6782
g3
I00
sg5
Vbool
p6783
sg4
I00
sg35
I00
sg7
I01
sg8
(lp6784
ssVweightList[366]
p6785
(dp6786
g3
I00
sg4
I00
sg5
VTdataCompound
p6787
sg7
I00
sg8
(lp6788
g1827
assg6030
(dp6789
g3
I01
sg4
I01
sg7
I00
sg5
VTdataCompound
p6790
ssVbindPreMatrix[78]
p6791
(dp6792
g3
I00
sg4
I00
sg5
Vmatrix
p6793
sg7
I00
sg8
(lp6794
ssVdropoff[145]
p6795
(dp6796
g3
I00
sg5
Vdouble
p6797
sg4
I00
sg35
I00
sg7
I01
sg8
(lp6798
ssVlockWeights[158]
p6799
(dp6800
g3
I00
sg5
Vbool
p6801
sg4
I00
sg35
I00
sg7
I01
sg8
(lp6802
ssVlockWeights[180]
p6803
(dp6804
g3
I00
sg5
Vbool
p6805
sg4
I00
sg35
I00
sg7
I01
sg8
(lp6806
ssVbindPreMatrix[48]
p6807
(dp6808
g3
I00
sg4
I00
sg5
Vmatrix
p6809
sg7
I00
sg8
(lp6810
ssVlockWeights[137]
p6811
(dp6812
g3
I00
sg5
Vbool
p6813
sg4
I00
sg35
I00
sg7
I01
sg8
(lp6814
ssg2214
(dp6815
g3
I01
sg4
I01
sg7
I00
sg5
VTdataCompound
p6816
ssVweightList[346]
p6817
(dp6818
g3
I00
sg4
I00
sg5
VTdataCompound
p6819
sg7
I00
sg8
(lp6820
g3960
assVbindPreMatrix[142]
p6821
(dp6822
g3
I00
sg4
I00
sg5
Vmatrix
p6823
sg7
I00
sg8
(lp6824
ssg3229
(dp6825
g3
I01
sg4
I01
sg7
I00
sg5
VTdataCompound
p6826
ssVweightList[2].weights[209]
p6827
(dp6828
g3
I00
sg8
(lp6829
ssVweightList[409]
p6830
(dp6831
g3
I00
sg4
I00
sg5
VTdataCompound
p6832
sg7
I00
sg8
(lp6833
g6405
assg1731
(dp6834
g3
I01
sg4
I01
sg7
I00
sg5
VTdataCompound
p6835
ssVweightList[514]
p6836
(dp6837
g3
I00
sg4
I00
sg5
VTdataCompound
p6838
sg7
I00
sg8
(lp6839
g5288
assg6043
(dp6840
g3
I01
sg4
I01
sg7
I00
sg5
VTdataCompound
p6841
ssVweightList[168]
p6842
(dp6843
g3
I00
sg4
I00
sg5
VTdataCompound
p6844
sg7
I00
sg8
(lp6845
g4348
assVweightList[113]
p6846
(dp6847
g3
I00
sg4
I00
sg5
VTdataCompound
p6848
sg7
I00
sg8
(lp6849
g4579
assVbindPreMatrix[187]
p6850
(dp6851
g3
I00
sg4
I00
sg5
Vmatrix
p6852
sg7
I00
sg8
(lp6853
ssVweightList[241].weights[84]
p6854
(dp6855
g3
I00
sg8
(lp6856
ssVweightList[368]
p6857
(dp6858
g3
I00
sg4
I00
sg5
VTdataCompound
p6859
sg7
I00
sg8
(lp6860
g1699
assg2711
(dp6861
g3
I01
sg4
I01
sg7
I00
sg5
VTdataCompound
p6862
ssVdropoff[176]
p6863
(dp6864
g3
I00
sg5
Vdouble
p6865
sg4
I00
sg35
I00
sg7
I01
sg8
(lp6866
ssVdropoff[20]
p6867
(dp6868
g3
I00
sg5
Vdouble
p6869
sg4
I00
sg35
I00
sg7
I01
sg8
(lp6870
ssg952
(dp6871
g3
I01
sg4
I01
sg7
I00
sg5
VTdataCompound
p6872
ssVbindPreMatrix[46]
p6873
(dp6874
g3
I00
sg4
I00
sg5
Vmatrix
p6875
sg7
I00
sg8
(lp6876
ssVlockWeights[134]
p6877
(dp6878
g3
I00
sg5
Vbool
p6879
sg4
I00
sg35
I00
sg7
I01
sg8
(lp6880
ssVdropoff[84]
p6881
(dp6882
g3
I00
sg5
Vdouble
p6883
sg4
I00
sg35
I00
sg7
I01
sg8
(lp6884
ssVdropoff[66]
p6885
(dp6886
g3
I00
sg5
Vdouble
p6887
sg4
I00
sg35
I00
sg7
I01
sg8
(lp6888
ssVweightList[122]
p6889
(dp6890
g3
I00
sg4
I00
sg5
VTdataCompound
p6891
sg7
I00
sg8
(lp6892
g22
assVmatrix[64]
p6893
(dp6894
g3
I00
sg4
I00
sg5
Vmatrix
p6895
sg7
I00
sg8
(lp6896
ssVlockWeights[162]
p6897
(dp6898
g3
I00
sg5
Vbool
p6899
sg4
I00
sg35
I00
sg7
I01
sg8
(lp6900
ssVbindPreMatrix[66]
p6901
(dp6902
g3
I00
sg4
I00
sg5
Vmatrix
p6903
sg7
I00
sg8
(lp6904
ssVlockWeights[115]
p6905
(dp6906
g3
I00
sg5
Vbool
p6907
sg4
I00
sg35
I00
sg7
I01
sg8
(lp6908
ssVweightList[384]
p6909
(dp6910
g3
I00
sg4
I00
sg5
VTdataCompound
p6911
sg7
I00
sg8
(lp6912
g6468
assg4202
(dp6913
g3
I01
sg4
I01
sg7
I00
sg5
VTdataCompound
p6914
ssg1362
(dp6915
g3
I01
sg4
I01
sg7
I00
sg5
VTdataCompound
p6916
ssg6429
(dp6917
g3
I01
sg4
I01
sg7
I00
sg5
VTdataCompound
p6918
ssg2827
(dp6919
g3
I01
sg4
I01
sg7
I00
sg5
VTdataCompound
p6920
ssVweightList[94]
p6921
(dp6922
g3
I00
sg4
I00
sg5
VTdataCompound
p6923
sg7
I00
sg8
(lp6924
g70
assVweightList[463]
p6925
(dp6926
g3
I00
sg4
I00
sg5
VTdataCompound
p6927
sg7
I00
sg8
(lp6928
g5425
assg3053
(dp6929
g3
I01
sg4
I01
sg7
I00
sg5
VTdataCompound
p6930
ssVdropoff[150]
p6931
(dp6932
g3
I00
sg5
Vdouble
p6933
sg4
I00
sg35
I00
sg7
I01
sg8
(lp6934
ssg4286
(dp6935
g3
I01
sg4
I01
sg7
I00
sg5
VTdataCompound
p6936
ssVweightList[225]
p6937
(dp6938
g3
I00
sg4
I00
sg5
VTdataCompound
p6939
sg7
I00
sg8
(lp6940
g5967
assg4970
(dp6941
g3
I00
sg8
(lp6942
ssVlockWeights[42]
p6943
(dp6944
g3
I00
sg5
Vbool
p6945
sg4
I00
sg35
I00
sg7
I01
sg8
(lp6946
ssVbindPreMatrix[161]
p6947
(dp6948
g3
I00
sg4
I00
sg5
Vmatrix
p6949
sg7
I00
sg8
(lp6950
ssVdropoff[105]
p6951
(dp6952
g3
I00
sg5
Vdouble
p6953
sg4
I00
sg35
I00
sg7
I01
sg8
(lp6954
ssVmatrix[4]
p6955
(dp6956
g3
I00
sg4
I00
sg5
Vmatrix
p6957
sg7
I00
sg8
(lp6958
ssVweightList[249]
p6959
(dp6960
g3
I00
sg4
I00
sg5
VTdataCompound
p6961
sg7
I00
sg8
(lp6962
VweightList[249].weights
p6963
assg2439
(dp6964
g3
I01
sg4
I01
sg7
I00
sg5
VTdataCompound
p6965
ssVdropoff[0]
p6966
(dp6967
g3
I00
sg5
Vdouble
p6968
sg4
I00
sg35
I00
sg7
I01
sg8
(lp6969
ssVbindPreMatrix[80]
p6970
(dp6971
g3
I00
sg4
I00
sg5
Vmatrix
p6972
sg7
I00
sg8
(lp6973
ssVweightList[521]
p6974
(dp6975
g3
I00
sg4
I00
sg5
VTdataCompound
p6976
sg7
I00
sg8
(lp6977
g1873
assVmatrix[82]
p6978
(dp6979
g3
I00
sg4
I00
sg5
Vmatrix
p6980
sg7
I00
sg8
(lp6981
ssVlockWeights[64]
p6982
(dp6983
g3
I00
sg5
Vbool
p6984
sg4
I00
sg35
I00
sg7
I01
sg8
(lp6985
ssg3859
(dp6986
g3
I01
sg4
I01
sg7
I00
sg5
VTdataCompound
p6987
ssg2015
(dp6988
g3
I01
sg4
I01
sg7
I00
sg5
VTdataCompound
p6989
ssVweightList[452]
p6990
(dp6991
g3
I00
sg4
I00
sg5
VTdataCompound
p6992
sg7
I00
sg8
(lp6993
g3840
assg889
(dp6994
g3
I01
sg4
I01
sg7
I00
sg5
VTdataCompound
p6995
ssg478
(dp6996
g3
I01
sg4
I01
sg7
I00
sg5
VTdataCompound
p6997
ssVweightList[453].weights
p6998
(dp6999
g3
I01
sg4
I01
sg7
I00
sg5
VTdataCompound
p7000
ssVmatrix[91]
p7001
(dp7002
g3
I00
sg4
I00
sg5
Vmatrix
p7003
sg7
I00
sg8
(lp7004
ssVmatrix[0]
p7005
(dp7006
g3
I00
sg4
I00
sg5
Vmatrix
p7007
sg7
I00
sg8
(lp7008
ssVweightList[532]
p7009
(dp7010
g3
I00
sg4
I00
sg5
VTdataCompound
p7011
sg7
I00
sg8
(lp7012
g3069
assVbindPreMatrix[193]
p7013
(dp7014
g3
I00
sg4
I00
sg5
Vmatrix
p7015
sg7
I00
sg8
(lp7016
ssVweightList[281]
p7017
(dp7018
g3
I00
sg4
I00
sg5
VTdataCompound
p7019
sg7
I00
sg8
(lp7020
g4685
assVweightList[0]
p7021
(dp7022
g3
I00
sg4
I00
sg5
VTdataCompound
p7023
sg7
I00
sg8
(lp7024
g5834
assVweightList[135]
p7025
(dp7026
g3
I00
sg4
I00
sg5
VTdataCompound
p7027
sg7
I00
sg8
(lp7028
g4065
assg3206
(dp7029
g3
I01
sg4
I01
sg7
I00
sg5
VTdataCompound
p7030
ssg6963
(dp7031
g3
I01
sg4
I01
sg7
I00
sg5
VTdataCompound
p7032
ssVweightList[207]
p7033
(dp7034
g3
I00
sg4
I00
sg5
VTdataCompound
p7035
sg7
I00
sg8
(lp7036
g4503
assVbindPreMatrix[92]
p7037
(dp7038
g3
I00
sg4
I00
sg5
Vmatrix
p7039
sg7
I00
sg8
(lp7040
ssg5057
(dp7041
g3
I01
sg4
I01
sg7
I00
sg5
VTdataCompound
p7042
ssVnormalizeWeights
p7043
(dp7044
g3
I00
sg5
Venum
p7045
sg4
I00
sg35
I00
sg7
I01
sg8
(lp7046
ssVbindPreMatrix[112]
p7047
(dp7048
g3
I00
sg4
I00
sg5
Vmatrix
p7049
sg7
I00
sg8
(lp7050
ssg2895
(dp7051
g3
I01
sg4
I01
sg7
I00
sg5
VTdataCompound
p7052
ssVmatrix[135]
p7053
(dp7054
g3
I00
sg4
I00
sg5
Vmatrix
p7055
sg7
I00
sg8
(lp7056
ssg6259
(dp7057
g3
I01
sg4
I01
sg7
I00
sg5
VTdataCompound
p7058
ssVlockWeights[15]
p7059
(dp7060
g3
I00
sg5
Vbool
p7061
sg4
I00
sg35
I00
sg7
I01
sg8
(lp7062
ssVdropoff[127]
p7063
(dp7064
g3
I00
sg5
Vdouble
p7065
sg4
I00
sg35
I00
sg7
I01
sg8
(lp7066
ssg6511
(dp7067
g3
I01
sg4
I01
sg7
I00
sg5
VTdataCompound
p7068
ssVweightList[60]
p7069
(dp7070
g3
I00
sg4
I00
sg5
VTdataCompound
p7071
sg7
I00
sg8
(lp7072
g2068
assVweightList[146]
p7073
(dp7074
g3
I00
sg4
I00
sg5
VTdataCompound
p7075
sg7
I00
sg8
(lp7076
g4376
assg2137
(dp7077
g3
I01
sg4
I01
sg7
I00
sg5
VTdataCompound
p7078
ssVweightList[545]
p7079
(dp7080
g3
I00
sg4
I00
sg5
VTdataCompound
p7081
sg7
I00
sg8
(lp7082
g1756
assVdropoff[118]
p7083
(dp7084
g3
I00
sg5
Vdouble
p7085
sg4
I00
sg35
I00
sg7
I01
sg8
(lp7086
ssVweightList[435]
p7087
(dp7088
g3
I00
sg4
I00
sg5
VTdataCompound
p7089
sg7
I00
sg8
(lp7090
g6560
assVmatrix[117]
p7091
(dp7092
g3
I00
sg4
I00
sg5
Vmatrix
p7093
sg7
I00
sg8
(lp7094
ssVmatrix[191]
p7095
(dp7096
g3
I00
sg4
I00
sg5
Vmatrix
p7097
sg7
I00
sg8
(lp7098
ssVweightList[134]
p7099
(dp7100
g3
I00
sg4
I00
sg5
VTdataCompound
p7101
sg7
I00
sg8
(lp7102
g1300
assVweightList[267]
p7103
(dp7104
g3
I00
sg4
I00
sg5
VTdataCompound
p7105
sg7
I00
sg8
(lp7106
g2496
assVlockWeights[25]
p7107
(dp7108
g3
I00
sg5
Vbool
p7109
sg4
I00
sg35
I00
sg7
I01
sg8
(lp7110
ssg6394
(dp7111
g3
I01
sg4
I01
sg7
I00
sg5
VTdataCompound
p7112
ssVweightList[2].weights[78]
p7113
(dp7114
g3
I00
sg5
Vdouble
p7115
sg4
I00
sg35
I00
sg7
I01
sg8
(lp7116
ssg5187
(dp7117
g3
I01
sg4
I01
sg7
I00
sg5
VTdataCompound
p7118
ssVmatrix[34]
p7119
(dp7120
g3
I00
sg4
I00
sg5
Vmatrix
p7121
sg7
I00
sg8
(lp7122
ssVlockWeights[196]
p7123
(dp7124
g3
I00
sg5
Vbool
p7125
sg4
I00
sg35
I00
sg7
I01
sg8
(lp7126
ssVbindPreMatrix[170]
p7127
(dp7128
g3
I00
sg4
I00
sg5
Vmatrix
p7129
sg7
I00
sg8
(lp7130
ssVbindPreMatrix[125]
p7131
(dp7132
g3
I00
sg4
I00
sg5
Vmatrix
p7133
sg7
I00
sg8
(lp7134
ssVbindPreMatrix[164]
p7135
(dp7136
g3
I00
sg4
I00
sg5
Vmatrix
p7137
sg7
I00
sg8
(lp7138
ssVlockWeights[10]
p7139
(dp7140
g3
I00
sg5
Vbool
p7141
sg4
I00
sg35
I00
sg7
I01
sg8
(lp7142
ssVweightList[307]
p7143
(dp7144
g3
I00
sg4
I00
sg5
VTdataCompound
p7145
sg7
I00
sg8
(lp7146
g5598
assVweightList[190]
p7147
(dp7148
g3
I00
sg4
I00
sg5
VTdataCompound
p7149
sg7
I00
sg8
(lp7150
g4724
assVweightList[42]
p7151
(dp7152
g3
I00
sg4
I00
sg5
VTdataCompound
p7153
sg7
I00
sg8
(lp7154
g6610
assVlockWeights[3]
p7155
(dp7156
g3
I00
sg5
Vbool
p7157
sg4
I00
sg35
I00
sg7
I01
sg8
(lp7158
ssVlockWeights[156]
p7159
(dp7160
g3
I00
sg5
Vbool
p7161
sg4
I00
sg35
I00
sg7
I01
sg8
(lp7162
ssVbindPreMatrix[25]
p7163
(dp7164
g3
I00
sg4
I00
sg5
Vmatrix
p7165
sg7
I00
sg8
(lp7166
ssg4137
(dp7167
g3
I01
sg4
I01
sg7
I00
sg5
VTdataCompound
p7168
ssg724
(dp7169
g3
I01
sg4
I01
sg7
I00
sg5
VTdataCompound
p7170
ssVlockWeights[136]
p7171
(dp7172
g3
I00
sg5
Vbool
p7173
sg4
I00
sg35
I00
sg7
I01
sg8
(lp7174
ssVbindPreMatrix[49]
p7175
(dp7176
g3
I00
sg4
I00
sg5
Vmatrix
p7177
sg7
I00
sg8
(lp7178
ssVmatrix[157]
p7179
(dp7180
g3
I00
sg4
I00
sg5
Vmatrix
p7181
sg7
I00
sg8
(lp7182
ssVdropoff[142]
p7183
(dp7184
g3
I00
sg5
Vdouble
p7185
sg4
I00
sg35
I00
sg7
I01
sg8
(lp7186
ssVlockWeights[181]
p7187
(dp7188
g3
I00
sg5
Vbool
p7189
sg4
I00
sg35
I00
sg7
I01
sg8
(lp7190
ssVbindPreMatrix[141]
p7191
(dp7192
g3
I00
sg4
I00
sg5
Vmatrix
p7193
sg7
I00
sg8
(lp7194
ssVbindPreMatrix[163]
p7195
(dp7196
g3
I00
sg4
I00
sg5
Vmatrix
p7197
sg7
I00
sg8
(lp7198
ssVweightList[210]
p7199
(dp7200
g3
I00
sg4
I00
sg5
VTdataCompound
p7201
sg7
I00
sg8
(lp7202
g5766
assVweightList[73]
p7203
(dp7204
g3
I00
sg4
I00
sg5
VTdataCompound
p7205
sg7
I00
sg8
(lp7206
g818
assVmatrix[175]
p7207
(dp7208
g3
I00
sg4
I00
sg5
Vmatrix
p7209
sg7
I00
sg8
(lp7210
ssg2365
(dp7211
g3
I01
sg4
I01
sg7
I00
sg5
VTdataCompound
p7212
ssVbindPreMatrix[138]
p7213
(dp7214
g3
I00
sg4
I00
sg5
Vmatrix
p7215
sg7
I00
sg8
(lp7216
ssg5163
(dp7217
g3
I01
sg4
I01
sg7
I00
sg5
VTdataCompound
p7218
ssVbindPreMatrix[81]
p7219
(dp7220
g3
I00
sg4
I00
sg5
Vmatrix
p7221
sg7
I00
sg8
(lp7222
ssg93
(dp7223
g3
I01
sg4
I01
sg7
I00
sg5
VTdataCompound
p7224
ssVbindPreMatrix[32]
p7225
(dp7226
g3
I00
sg4
I00
sg5
Vmatrix
p7227
sg7
I00
sg8
(lp7228
ssVmatrix[159]
p7229
(dp7230
g3
I00
sg4
I00
sg5
Vmatrix
p7231
sg7
I00
sg8
(lp7232
ssg1198
(dp7233
g3
I01
sg4
I01
sg7
I00
sg5
VTdataCompound
p7234
ssVweightList[369]
p7235
(dp7236
g3
I00
sg4
I00
sg5
VTdataCompound
p7237
sg7
I00
sg8
(lp7238
g4444
assVdropoff[78]
p7239
(dp7240
g3
I00
sg5
Vdouble
p7241
sg4
I00
sg35
I00
sg7
I01
sg8
(lp7242
ssVweightList[408].weights
p7243
(dp7244
g3
I01
sg4
I01
sg7
I00
sg5
VTdataCompound
p7245
ssVweightList[0].weights[198]
p7246
(dp7247
g3
I00
sg8
(lp7248
ssVdropoff[188]
p7249
(dp7250
g3
I00
sg5
Vdouble
p7251
sg4
I00
sg35
I00
sg7
I01
sg8
(lp7252
ssVskinningMethod
p7253
(dp7254
g3
I00
sg5
Venum
p7255
sg4
I00
sg35
I00
sg7
I01
sg8
(lp7256
ssVdropoff[27]
p7257
(dp7258
g3
I00
sg5
Vdouble
p7259
sg4
I00
sg35
I00
sg7
I01
sg8
(lp7260
ssg6176
(dp7261
g3
I01
sg4
I01
sg7
I00
sg5
VTdataCompound
p7262
ssVlockWeights[138]
p7263
(dp7264
g3
I00
sg5
Vbool
p7265
sg4
I00
sg35
I00
sg7
I01
sg8
(lp7266
ssVbindPreMatrix[47]
p7267
(dp7268
g3
I00
sg4
I00
sg5
Vmatrix
p7269
sg7
I00
sg8
(lp7270
ssVdropoff[65]
p7271
(dp7272
g3
I00
sg5
Vdouble
p7273
sg4
I00
sg35
I00
sg7
I01
sg8
(lp7274
ssVweightList[431]
p7275
(dp7276
g3
I00
sg4
I00
sg5
VTdataCompound
p7277
sg7
I00
sg8
(lp7278
VweightList[431].weights
p7279
assg6296
(dp7280
g3
I01
sg4
I01
sg7
I00
sg5
VTdataCompound
p7281
ssVmatrix[65]
p7282
(dp7283
g3
I00
sg4
I00
sg5
Vmatrix
p7284
sg7
I00
sg8
(lp7285
ssVbindPreMatrix[67]
p7286
(dp7287
g3
I00
sg4
I00
sg5
Vmatrix
p7288
sg7
I00
sg8
(lp7289
ssVdropoff[87]
p7290
(dp7291
g3
I00
sg5
Vdouble
p7292
sg4
I00
sg35
I00
sg7
I01
sg8
(lp7293
ssVdropoff[30]
p7294
(dp7295
g3
I00
sg5
Vdouble
p7296
sg4
I00
sg35
I00
sg7
I01
sg8
(lp7297
ssVweightList[350]
p7298
(dp7299
g3
I00
sg4
I00
sg5
VTdataCompound
p7300
sg7
I00
sg8
(lp7301
g2652
assVweightList[385]
p7302
(dp7303
g3
I00
sg4
I00
sg5
VTdataCompound
p7304
sg7
I00
sg8
(lp7305
g6420
assVweightList[95]
p7306
(dp7307
g3
I00
sg4
I00
sg5
VTdataCompound
p7308
sg7
I00
sg8
(lp7309
g4996
assVlockWeights[120]
p7310
(dp7311
g3
I00
sg5
Vbool
p7312
sg4
I00
sg35
I00
sg7
I01
sg8
(lp7313
ssVfunction
p7314
(dp7315
g3
I00
sg5
Vlong3
p7316
sg4
I00
sg35
I01
sg7
I01
sg8
(lp7317
g5282
ag5274
ag942
assVweightList[151]
p7318
(dp7319
g3
I00
sg4
I00
sg5
VTdataCompound
p7320
sg7
I00
sg8
(lp7321
g4048
assVmatrix[12]
p7322
(dp7323
g3
I00
sg4
I00
sg5
Vmatrix
p7324
sg7
I00
sg8
(lp7325
ssVdropoff[173]
p7326
(dp7327
g3
I00
sg5
Vdouble
p7328
sg4
I00
sg35
I00
sg7
I01
sg8
(lp7329
ssVweightList[495]
p7330
(dp7331
g3
I00
sg4
I00
sg5
VTdataCompound
p7332
sg7
I00
sg8
(lp7333
g5697
assVweightList[55]
p7334
(dp7335
g3
I00
sg4
I00
sg5
VTdataCompound
p7336
sg7
I00
sg8
(lp7337
g3843
assVlockWeights[149]
p7338
(dp7339
g3
I00
sg5
Vbool
p7340
sg4
I00
sg35
I00
sg7
I01
sg8
(lp7341
ssVdropoff[47]
p7342
(dp7343
g3
I00
sg5
Vdouble
p7344
sg4
I00
sg35
I00
sg7
I01
sg8
(lp7345
ssVoutputGeometry[2]
p7346
(dp7347
g3
I00
sg8
(lp7348
ssVweightList[112].weights
p7349
(dp7350
g3
I01
sg4
I01
sg7
I00
sg5
VTdataCompound
p7351
ssVlockWeights[170]
p7352
(dp7353
g3
I00
sg5
Vbool
p7354
sg4
I00
sg35
I00
sg7
I01
sg8
(lp7355
ssg5980
(dp7356
g3
I01
sg4
I01
sg7
I00
sg5
VTdataCompound
p7357
ssg2322
(dp7358
g3
I01
sg4
I01
sg7
I00
sg5
VTdataCompound
p7359
ssg2955
(dp7360
g3
I01
sg4
I01
sg7
I00
sg5
VTdataCompound
p7361
ssVweightList[488]
p7362
(dp7363
g3
I00
sg4
I00
sg5
VTdataCompound
p7364
sg7
I00
sg8
(lp7365
g385
assVweightList[321]
p7366
(dp7367
g3
I00
sg4
I00
sg5
VTdataCompound
p7368
sg7
I00
sg8
(lp7369
g4007
assVlockWeights[67]
p7370
(dp7371
g3
I00
sg5
Vbool
p7372
sg4
I00
sg35
I00
sg7
I01
sg8
(lp7373
ssVdropoff[89]
p7374
(dp7375
g3
I00
sg5
Vdouble
p7376
sg4
I00
sg35
I00
sg7
I01
sg8
(lp7377
ssg3474
(dp7378
g3
I01
sg4
I01
sg7
I00
sg5
VTdataCompound
p7379
ssVweightList[453]
p7380
(dp7381
g3
I00
sg4
I00
sg5
VTdataCompound
p7382
sg7
I00
sg8
(lp7383
g6998
assg1220
(dp7384
g3
I01
sg4
I01
sg7
I00
sg5
VTdataCompound
p7385
ssg7279
(dp7386
g3
I01
sg4
I01
sg7
I00
sg5
VTdataCompound
p7387
ssg6009
(dp7388
g3
I01
sg4
I01
sg7
I00
sg5
VTdataCompound
p7389
ssVmatrix[90]
p7390
(dp7391
g3
I00
sg4
I00
sg5
Vmatrix
p7392
sg7
I00
sg8
(lp7393
ssVmatrix[1]
p7394
(dp7395
g3
I00
sg4
I00
sg5
Vmatrix
p7396
sg7
I00
sg8
(lp7397
ssVweightList[504]
p7398
(dp7399
g3
I00
sg4
I00
sg5
VTdataCompound
p7400
sg7
I00
sg8
(lp7401
g1385
assg1047
(dp7402
g3
I01
sg4
I01
sg7
I00
sg5
VTdataCompound
p7403
ssVweightList[3]
p7404
(dp7405
g3
I00
sg4
I00
sg5
VTdataCompound
p7406
sg7
I00
sg8
(lp7407
g2774
assg4038
(dp7408
g3
I01
sg4
I01
sg7
I00
sg5
VTdataCompound
p7409
ssg4903
(dp7410
g3
I01
sg4
I01
sg7
I00
sg5
VTdataCompound
p7411
ssVdropoff[195]
p7412
(dp7413
g3
I00
sg5
Vdouble
p7414
sg4
I00
sg35
I00
sg7
I01
sg8
(lp7415
ssg4043
(dp7416
g3
I01
sg4
I01
sg7
I00
sg5
VTdataCompound
p7417
ssVweightList[437]
p7418
(dp7419
g3
I00
sg4
I00
sg5
VTdataCompound
p7420
sg7
I00
sg8
(lp7421
g5065
assVlockWeights[103]
p7422
(dp7423
g3
I00
sg5
Vbool
p7424
sg4
I00
sg35
I00
sg7
I01
sg8
(lp7425
ssVweightList[408]
p7426
(dp7427
g3
I00
sg4
I00
sg5
VTdataCompound
p7428
sg7
I00
sg8
(lp7429
g7243
assVweightList[112]
p7430
(dp7431
g3
I00
sg4
I00
sg5
VTdataCompound
p7432
sg7
I00
sg8
(lp7433
g7349
assg4619
(dp7434
g3
I01
sg4
I01
sg7
I00
sg5
VTdataCompound
p7435
ssg3518
(dp7436
g3
I01
sg4
I01
sg7
I00
sg5
VTdataCompound
p7437
ssVweightList[513]
p7438
(dp7439
g3
I00
sg4
I00
sg5
VTdataCompound
p7440
sg7
I00
sg8
(lp7441
g4492
assVweightList[447]
p7442
(dp7443
g3
I00
sg4
I00
sg5
VTdataCompound
p7444
sg7
I00
sg8
(lp7445
g1232
assg6451
(dp7446
g3
I01
sg4
I01
sg7
I00
sg5
VTdataCompound
p7447
ssVweightList[440]
p7448
(dp7449
g3
I00
sg4
I00
sg5
VTdataCompound
p7450
sg7
I00
sg8
(lp7451
g6279
assVweightList[169]
p7452
(dp7453
g3
I00
sg4
I00
sg5
VTdataCompound
p7454
sg7
I00
sg8
(lp7455
g854
ass.