(dp0
VisHistoricallyInteresting
p1
(dp2
S'isArray'
p3
I00
sS'isMulti'
p4
I00
sS'attrType'
p5
Vbyte
p6
sS'isSimple'
p7
I00
sS'attrChildrenLongNames'
p8
(lp9
ssVnodeState
p10
(dp11
g3
I00
sg5
Venum
p12
sg4
I00
sS'isCompound'
p13
I00
sg7
I01
sg8
(lp14
ssVbinMembership
p15
(dp16
g3
I00
sg5
Vstring
p17
sg4
I00
sg13
I00
sg7
I01
sg8
(lp18
ssVinput
p19
(dp20
g3
I00
sg5
Vdouble3
p21
sg4
I00
sg13
I00
sg7
I01
sg8
(lp22
ssVcaching
p23
(dp24
g3
I00
sg5
Vbool
p25
sg4
I00
sg13
I00
sg7
I01
sg8
(lp26
ssVoutput
p27
(dp28
g3
I00
sg5
Vdouble3
p29
sg4
I00
sS'isWritable'
p30
Nsg13
I00
sg7
I01
sg8
(lp31
sS'isSettable'
p32
I01
ssVconversionFactor
p33
(dp34
g3
I00
sg5
Vdouble
p35
sg4
I00
sS'isWritable'
p36
Nsg13
I00
sg7
I01
sg8
(lp37
sg32
I01
ss.