(dp0
VvertexUvThree
p1
(dp2
S'isArray'
p3
I00
sS'isElement'
p4
I00
sS'attrChildrenNames'
p5
(lp6
VvertexUvThree.vertexUvThreeU
p7
aVvertexUvThree.vertexUvThreeV
p8
asS'isCompound'
p9
I01
sS'isMulti'
p10
I00
ssVoutVertexCameraOne.outVertexCameraOneZ
p11
(dp12
S'isArray'
p13
I00
sS'attrParentLongName'
p14
VoutVertexCameraOne
p15
sS'attrChildrenNames'
p16
(lp17
sS'isMulti'
p18
I00
sS'isCompound'
p19
I00
sS'isElement'
p20
I00
ssVoutVertexCameraOne.outVertexCameraOneX
p21
(dp22
S'isArray'
p23
I00
sS'attrParentLongName'
p24
VoutVertexCameraOne
p25
sS'attrChildrenNames'
p26
(lp27
sS'isMulti'
p28
I00
sS'isCompound'
p29
I00
sS'isElement'
p30
I00
ssVoutVertexCameraOne.outVertexCameraOneY
p31
(dp32
S'isArray'
p33
I00
sS'attrParentLongName'
p34
VoutVertexCameraOne
p35
sS'attrChildrenNames'
p36
(lp37
sS'isMulti'
p38
I00
sS'isCompound'
p39
I00
sS'isElement'
p40
I00
ssVuvCoord.vCoord
p41
(dp42
S'isArray'
p43
I00
sS'attrParentLongName'
p44
VuvCoord
p45
sS'attrChildrenNames'
p46
(lp47
sS'isMulti'
p48
I00
sS'isCompound'
p49
I00
sS'isElement'
p50
I00
ssVuvSets
p51
(dp52
S'isArray'
p53
I01
sS'isElement'
p54
I00
sS'isMulti'
p55
I01
ssVoutVertexUvOne
p56
(dp57
S'isArray'
p58
I00
sS'isElement'
p59
I00
sS'isMulti'
p60
I00
sS'isCompound'
p61
I01
sS'attrChildrenNames'
p62
(lp63
VoutVertexUvOne.outVertexUvOneU
p64
aVoutVertexUvOne.outVertexUvOneV
p65
assVisHistoricallyInteresting
p66
(dp67
S'isArray'
p68
I00
sS'isElement'
p69
I00
sS'isMulti'
p70
I00
sS'attrChildrenNames'
p71
(lp72
sS'isCompound'
p73
I00
ssVoutVertexUvOne.outVertexUvOneV
p74
(dp75
S'isArray'
p76
I00
sS'attrParentLongName'
p77
VoutVertexUvOne
p78
sS'attrChildrenNames'
p79
(lp80
sS'isMulti'
p81
I00
sS'isCompound'
p82
I00
sS'isElement'
p83
I00
ssVvertexCameraOne.vertexCameraOneZ
p84
(dp85
S'isArray'
p86
I00
sS'attrParentLongName'
p87
VvertexCameraOne
p88
sS'attrChildrenNames'
p89
(lp90
sS'isMulti'
p91
I00
sS'isCompound'
p92
I00
sS'isElement'
p93
I00
ssVvertexCameraOne.vertexCameraOneX
p94
(dp95
S'isArray'
p96
I00
sS'attrParentLongName'
p97
VvertexCameraOne
p98
sS'attrChildrenNames'
p99
(lp100
sS'isMulti'
p101
I00
sS'isCompound'
p102
I00
sS'isElement'
p103
I00
ssVvertexCameraOne.vertexCameraOneY
p104
(dp105
S'isArray'
p106
I00
sS'attrParentLongName'
p107
VvertexCameraOne
p108
sS'attrChildrenNames'
p109
(lp110
sS'isMulti'
p111
I00
sS'isCompound'
p112
I00
sS'isElement'
p113
I00
ssVvertexUvTwo
p114
(dp115
S'isArray'
p116
I00
sS'isElement'
p117
I00
sS'attrChildrenNames'
p118
(lp119
VvertexUvTwo.vertexUvTwoU
p120
aVvertexUvTwo.vertexUvTwoV
p121
asS'isCompound'
p122
I01
sS'isMulti'
p123
I00
ssVoutVertexUvThree.outVertexUvThreeU
p124
(dp125
S'isArray'
p126
I00
sS'attrParentLongName'
p127
VoutVertexUvThree
p128
sS'attrChildrenNames'
p129
(lp130
sS'isMulti'
p131
I00
sS'isCompound'
p132
I00
sS'isElement'
p133
I00
ssVinfoBits
p134
(dp135
S'isArray'
p136
I00
sS'isElement'
p137
I00
sS'isMulti'
p138
I00
sS'attrChildrenNames'
p139
(lp140
sS'isCompound'
p141
I00
ssVoutVertexUvThree
p142
(dp143
S'isArray'
p144
I00
sS'isElement'
p145
I00
sS'isMulti'
p146
I00
sS'isCompound'
p147
I01
sS'attrChildrenNames'
p148
(lp149
VoutVertexUvThree.outVertexUvThreeU
p150
aVoutVertexUvThree.outVertexUvThreeV
p151
assVoutUv
p152
(dp153
S'isArray'
p154
I00
sS'isElement'
p155
I00
sS'isMulti'
p156
I00
sS'isCompound'
p157
I01
sS'attrChildrenNames'
p158
(lp159
VoutUv.outU
p160
aVoutUv.outV
p161
assVoutVertexUvOne.outVertexUvOneU
p162
(dp163
S'isArray'
p164
I00
sS'attrParentLongName'
p165
VoutVertexUvOne
p166
sS'attrChildrenNames'
p167
(lp168
sS'isMulti'
p169
I00
sS'isCompound'
p170
I00
sS'isElement'
p171
I00
ssVvertexUvOne.vertexUvOneV
p172
(dp173
S'isArray'
p174
I00
sS'attrParentLongName'
p175
VvertexUvOne
p176
sS'attrChildrenNames'
p177
(lp178
sS'isMulti'
p179
I00
sS'isCompound'
p180
I00
sS'isElement'
p181
I00
ssVuvCoord
p182
(dp183
S'isArray'
p184
I00
sS'isElement'
p185
I00
sS'attrChildrenNames'
p186
(lp187
VuvCoord.uCoord
p188
aVuvCoord.vCoord
p189
asS'isCompound'
p190
I01
sS'isMulti'
p191
I00
ssVoutUv.outV
p192
(dp193
S'isArray'
p194
I00
sS'attrParentLongName'
p195
VoutUv
p196
sS'attrChildrenNames'
p197
(lp198
sS'isMulti'
p199
I00
sS'isCompound'
p200
I00
sS'isElement'
p201
I00
ssVoutUv.outU
p202
(dp203
S'isArray'
p204
I00
sS'attrParentLongName'
p205
VoutUv
p206
sS'attrChildrenNames'
p207
(lp208
sS'isMulti'
p209
I00
sS'isCompound'
p210
I00
sS'isElement'
p211
I00
ssVoutVertexUvTwo
p212
(dp213
S'isArray'
p214
I00
sS'isElement'
p215
I00
sS'isMulti'
p216
I00
sS'isCompound'
p217
I01
sS'attrChildrenNames'
p218
(lp219
VoutVertexUvTwo.outVertexUvTwoU
p220
aVoutVertexUvTwo.outVertexUvTwoV
p221
assVnodeState
p222
(dp223
S'isArray'
p224
I00
sS'isElement'
p225
I00
sS'isMulti'
p226
I00
sS'isCompound'
p227
I00
sS'attrChildrenNames'
p228
(lp229
ssVvertexUvOne.vertexUvOneU
p230
(dp231
S'isArray'
p232
I00
sS'attrParentLongName'
p233
VvertexUvOne
p234
sS'attrChildrenNames'
p235
(lp236
sS'isMulti'
p237
I00
sS'isCompound'
p238
I00
sS'isElement'
p239
I00
ssVvertexUvTwo.vertexUvTwoV
p240
(dp241
S'isArray'
p242
I00
sS'attrParentLongName'
p243
VvertexUvTwo
p244
sS'attrChildrenNames'
p245
(lp246
sS'isMulti'
p247
I00
sS'isCompound'
p248
I00
sS'isElement'
p249
I00
ssVoutVertexCameraOne
p250
(dp251
S'isArray'
p252
I00
sS'isElement'
p253
I00
sS'isMulti'
p254
I00
sS'isCompound'
p255
I01
sS'attrChildrenNames'
p256
(lp257
VoutVertexCameraOne.outVertexCameraOneX
p258
aVoutVertexCameraOne.outVertexCameraOneY
p259
aVoutVertexCameraOne.outVertexCameraOneZ
p260
assVvertexCameraOne
p261
(dp262
S'isArray'
p263
I00
sS'isElement'
p264
I00
sS'attrChildrenNames'
p265
(lp266
VvertexCameraOne.vertexCameraOneX
p267
aVvertexCameraOne.vertexCameraOneY
p268
aVvertexCameraOne.vertexCameraOneZ
p269
asS'isCompound'
p270
I01
sS'isMulti'
p271
I00
ssVoutVertexUvThree.outVertexUvThreeV
p272
(dp273
S'isArray'
p274
I00
sS'attrParentLongName'
p275
VoutVertexUvThree
p276
sS'attrChildrenNames'
p277
(lp278
sS'isMulti'
p279
I00
sS'isCompound'
p280
I00
sS'isElement'
p281
I00
ssVvertexUvTwo.vertexUvTwoU
p282
(dp283
S'isArray'
p284
I00
sS'attrParentLongName'
p285
VvertexUvTwo
p286
sS'attrChildrenNames'
p287
(lp288
sS'isMulti'
p289
I00
sS'isCompound'
p290
I00
sS'isElement'
p291
I00
ssVoutVertexUvTwo.outVertexUvTwoV
p292
(dp293
S'isArray'
p294
I00
sS'attrParentLongName'
p295
VoutVertexUvTwo
p296
sS'attrChildrenNames'
p297
(lp298
sS'isMulti'
p299
I00
sS'isCompound'
p300
I00
sS'isElement'
p301
I00
ssVvertexUvThree.vertexUvThreeV
p302
(dp303
S'isArray'
p304
I00
sS'attrParentLongName'
p305
VvertexUvThree
p306
sS'attrChildrenNames'
p307
(lp308
sS'isMulti'
p309
I00
sS'isCompound'
p310
I00
sS'isElement'
p311
I00
ssVoutVertexUvTwo.outVertexUvTwoU
p312
(dp313
S'isArray'
p314
I00
sS'attrParentLongName'
p315
VoutVertexUvTwo
p316
sS'attrChildrenNames'
p317
(lp318
sS'isMulti'
p319
I00
sS'isCompound'
p320
I00
sS'isElement'
p321
I00
ssVcaching
p322
(dp323
S'isArray'
p324
I00
sS'isElement'
p325
I00
sS'isMulti'
p326
I00
sS'isCompound'
p327
I00
sS'attrChildrenNames'
p328
(lp329
ssVuvCoord.uCoord
p330
(dp331
S'isArray'
p332
I00
sS'attrParentLongName'
p333
VuvCoord
p334
sS'attrChildrenNames'
p335
(lp336
sS'isMulti'
p337
I00
sS'isCompound'
p338
I00
sS'isElement'
p339
I00
ssVvertexUvOne
p340
(dp341
S'isArray'
p342
I00
sS'isElement'
p343
I00
sS'attrChildrenNames'
p344
(lp345
VvertexUvOne.vertexUvOneU
p346
aVvertexUvOne.vertexUvOneV
p347
asS'isCompound'
p348
I01
sS'isMulti'
p349
I00
ssVvertexUvThree.vertexUvThreeU
p350
(dp351
S'isArray'
p352
I00
sS'attrParentLongName'
p353
VvertexUvThree
p354
sS'attrChildrenNames'
p355
(lp356
sS'isMulti'
p357
I00
sS'isCompound'
p358
I00
sS'isElement'
p359
I00
ss.