(dp0
S'snap_aim__secondaryAxis__setting'
p1
I4
sS'pasteSkinWeightsAlongStrand__falloff__setting'
p2
I0
sS'stopwatchTool_recordingRangeEnd'
p3
I2
sS'ka_attrTool_displayInputs'
p4
I00
sS'tweakManipState'
p5
I00
sS'hyperShade_graphInputs__depthLimit__setting'
p6
I2
sS'snap_aim__primaryAxis__setting'
p7
I0
sS'ka_attrTool_displayAliasNames'
p8
I01
sS'stopwatchTool_defaultSaveDirectory'
p9
VC:\u005cUsers\u005cadmin\u005cDocuments\u005cmaya\u005c2014-x64\u005cscripts\u005ctimers\u005ctimerA\u005cstopwatchFile.txt
p10
sS'constrain_surfaceConstraint__maintainOffset__setting'
p11
I00
sS'attrTool_expandedItems'
p12
(dp13
VpointConstraint.target
p14
I01
sVjoint.jointOrient
p15
I01
sVtransform.parentMatrix
p16
I01
sVpointConstraint.target[1]
p17
I01
sVanimCurveUU.keyTimeValue
p18
I01
sVplusMinusAverage.input3D
p19
I01
sVcondition.outColor
p20
I01
sVpointConstraint.target[0].targetTranslate
p21
I01
sVaimConstraint.upVector
p22
I01
sVtransform.rotatePivot
p23
I01
sVtransform.worldInverseMatrix
p24
I01
sVorientConstraint.target[0].targetRotate
p25
I01
sVparentConstraint.constraintTranslate
p26
I01
sVorientConstraint.target[0].targetJointOrient
p27
I01
sVorientConstraint.target[1].targetJointOrient
p28
I01
sVorientConstraint.target[1]
p29
I01
sVplusMinusAverage.input3D[0]
p30
I01
sVorientConstraint.target
p31
I01
sVtransform.rotate
p32
I01
sVmultiplyDivide.output
p33
I01
sVplusMinusAverage.output3D
p34
I01
sVjoint.rotate
p35
I01
sVjoint.worldMatrix
p36
I01
sVparentConstraint.target
p37
I01
sVcondition.colorIfFalse
p38
I01
sVramp.colorEntryList[5]
p39
I01
sVanimCurveUA.keyBreakdown
p40
I01
sVplusMinusAverage.input2D[1]
p41
I01
sVramp.colorEntryList
p42
I01
sVtransform.translate
p43
I01
sVramp.outColor
p44
I01
sVcondition.colorIfTrue
p45
I01
sVaimConstraint.worldUpVector
p46
I01
sVvectorProduct.input2
p47
I01
sVramp.defaultColor
p48
I01
sVplusMinusAverage.input2D
p49
I01
sVvectorProduct.input1
p50
I01
sVblendShape.weight
p51
I01
sVramp.colorEntryList[5].color
p52
I01
sVpointConstraint.target[0]
p53
I01
sVramp.colorEntryList[4].color
p54
I01
sVpointConstraint.target[2]
p55
I01
sVorientConstraint.target[1].targetRotateCached
p56
I01
sVblendColors.output
p57
I01
sVorientConstraint.target[1].targetRotate
p58
I01
sVorientConstraint.target[2]
p59
I01
sVmultiplyDivide.input2
p60
I01
sVblendColors.color1
p61
I01
sVblendColors.color2
p62
I01
sVmultiplyDivide.input1
p63
I01
sVparentConstraint.target[0].targetOffsetTranslate
p64
I01
sVplusMinusAverage.input1D
p65
I01
sVtransform.rotatePivotTranslate
p66
I01
sVplusMinusAverage.input3D[1]
p67
I01
sVorientConstraint.target[0]
p68
I01
sVtransform.drawOverride
p69
I01
sVjoint.parentInverseMatrix
p70
I01
sVplusMinusAverage.output2D
p71
I01
sVtransform.scale
p72
I01
sVjoint.scale
p73
I01
sVramp.colorOffset
p74
I01
sVaimConstraint.target[0]
p75
I01
sVpointConstraint.target[1].targetTranslate
p76
I01
sVjoint.translate
p77
I01
sVramp.colorEntryList[4]
p78
I01
sVtransform.worldMatrix
p79
I01
sVplusMinusAverage.input2D[0]
p80
I01
sVparentConstraint.target[0]
p81
I01
sVvectorProduct.output
p82
I01
sVaimConstraint.target
p83
I01
ssS'stopwatchTool_openFiles'
p84
(lp85
VC:\u005cUsers\u005cadmin\u005cDocuments\u005cmaya\u005c2014-x64\u005cscripts\u005ctimers\u005ctimerA\u005cstopwatchFile.txt
p86
asS'hyperShade_graphOutputs__depthLimit__setting'
p87
I2
sS'strandBlendDefaultValues'
p88
(lp89
I0
aI40
aI100
aI100
asS'hypherShade_graphDepthInputsAndOutputs'
p90
I1
sS'ka_attrTool_pinSelected'
p91
I01
sS'stopwatchTool_recordingRangeStart'
p92
I1
sS'ka_attrTool_displayValues'
p93
I01
sS'dummyConstraint__maintainOffset__setting'
p94
I00
sS'attrFavorites'
p95
(dp96
VfourByFourMatrix
p97
(lp98
Vin00
p99
aVin01
p100
aVin02
p101
aVin03
p102
aVin10
p103
aVin11
p104
aVin12
p105
aVin13
p106
aVin20
p107
aVin21
p108
aVin22
p109
aVin23
p110
aVin30
p111
aVin31
p112
aVin32
p113
aVin33
p114
aVoutput
p115
asVcondition
p116
(lp117
VcolorIfFalse
p118
aVcolorIfTrue
p119
aVfirstTerm
p120
aVoperation
p121
aVoutColor
p122
aVsecondTerm
p123
asVquatProd
p124
(lp125
Vinput1Quat
p126
aVinput2Quat
p127
aVoutputQuat
p128
asVnearestPointOnCurve
p129
(lp130
VinPosition
p131
aVinputCurve
p132
aVresult
p133
asVtransposeMatrix
p134
(lp135
VinputMatrix
p136
aVoutputMatrix
p137
asVquatToEuler
p138
(lp139
VinputQuat
p140
aVinputRotateOrder
p141
aVoutputRotate
p142
asVquatNormalize
p143
(lp144
VinputQuat
p145
aVoutputQuat
p146
asVmultiplyDivide
p147
(lp148
Vinput1
p149
aVinput2
p150
aVoperation
p151
aVoutput
p152
asVpointConstraint
p153
(lp154
VconstraintOffsetPolarity
p155
aVconstraintParentInverseMatrix
p156
aVconstraintRotatePivot
p157
aVconstraintRotateTranslate
p158
aVconstraintTranslate
p159
aVtarget
p160
asVffd
p161
(lp162
Venvelope
p163
asVvectorProduct
p164
(lp165
Vinput1
p166
aVinput2
p167
aVmatrix
p168
aVnodeState
p169
aVoperation
p170
aVoutput
p171
asVquatConjugate
p172
(lp173
VinputQuat
p174
aVoutputQuat
p175
asVanimCurveUA
p176
(lp177
Vinput
p178
aVoutput
p179
asVwtAddMatrix
p180
(lp181
VmatrixSum
p182
aVwtMatrix
p183
asVtransform
p184
(lp185
VdrawOverride
p186
aVinverseMatrix
p187
aVmatrix
p188
aVparentInverseMatrix
p189
aVparentMatrix
p190
aVrotate
p191
aVscale
p192
aVtranslate
p193
aVviewName
p194
aVvisibility
p195
aVworldInverseMatrix
p196
aVworldMatrix
p197
asVparentConstraint
p198
(lp199
VconstraintJointOrient
p200
aVconstraintParentInverseMatrix
p201
aVconstraintRotate
p202
aVconstraintRotateOrder
p203
aVconstraintRotatePivot
p204
aVconstraintRotateTranslate
p205
aVconstraintTranslate
p206
aVtarget
p207
asVremapValue
p208
(lp209
Vcolor
p210
aVinputMax
p211
aVinputMin
p212
aVinputValue
p213
aVoutColor
p214
aVoutValue
p215
aVoutputMax
p216
aVoutputMin
p217
aVvalue
p218
asVplusMinusAverage
p219
(lp220
Vinput1D
p221
aVinput2D
p222
aVinput3D
p223
aVoperation
p224
aVoutput1D
p225
aVoutput2D
p226
aVoutput3D
p227
asVanimCurveUT
p228
(lp229
Vinput
p230
aVoutput
p231
asVanimCurveUU
p232
(lp233
Vinput
p234
aVoutput
p235
asVarcLengthDimension
p236
(lp237
VarcLength
p238
aVarcLengthInV
p239
aVvParamValue
p240
asVclosestPointOnMesh
p241
(lp242
VinMesh
p243
aVinPosition
p244
aVinputMatrix
p245
aVresult
p246
asVlambert
p247
(lp248
VambientColor
p249
aVcolor
p250
aVdiffuse
p251
aVoutColor
p252
aVoutTransparency
p253
aVtransparencyDepth
p254
asVcurveInfo
p255
(lp256
VarcLength
p257
aVcontrolPoints
p258
aVinputCurve
p259
aVknots
p260
aVweights
p261
asVquatNegate
p262
(lp263
VinputQuat
p264
aVoutputQuat
p265
asVmesh
p266
(lp267
VdrawOverride
p268
asVchoice
p269
(lp270
Vinput
p271
aVoutput
p272
aVselector
p273
asVjoint
p274
(lp275
VinverseMatrix
p276
aVjointOrient
p277
aVmatrix
p278
aVparentInverseMatrix
p279
aVparentMatrix
p280
aVrotate
p281
aVrotateOrder
p282
aVrotatePivot
p283
aVrotatePivotTranslate
p284
aVscale
p285
aVscalePivot
p286
aVscalePivotTranslate
p287
aVshear
p288
aVtranslate
p289
aVworldInverseMatrix
p290
aVworldMatrix
p291
asVclosestPointOnSurface
p292
(lp293
VinPosition
p294
aVinputSurface
p295
aVresult
p296
asVarrayMapper
p297
(lp298
VcomputeNodeColor
p299
aVmaxValue
p300
aVminValue
p301
aVoutColorPP
p302
aVoutValuePP
p303
aVtime
p304
aVuCoordPP
p305
aVvCoordPP
p306
asVorientConstraint
p307
(lp308
VconstraintJointOrient
p309
aVconstraintParentInverseMatrix
p310
aVconstraintRotate
p311
aVconstraintRotateOrder
p312
aVtarget
p313
asVinverseMatrix
p314
(lp315
VinputMatrix
p316
aVoutputMatrix
p317
asVquatSub
p318
(lp319
Vinput1Quat
p320
aVinput2Quat
p321
aVoutputQuat
p322
asVsetRange
p323
(lp324
Vmax
p325
aVmin
p326
aVoldMax
p327
aVoldMin
p328
aVoutValue
p329
aVvalue
p330
asVquatAdd
p331
(lp332
Vinput1Quat
p333
aVinput2Quat
p334
aVoutputQuat
p335
asVeulerToQuat
p336
(lp337
VinputRotate
p338
aVinputRotateOrder
p339
aVoutputQuat
p340
asVdistanceBetween
p341
(lp342
Vdistance
p343
aVinMatrix1
p344
aVinMatrix2
p345
aVpoint1
p346
aVpoint2
p347
asVquatInvert
p348
(lp349
VinputQuat
p350
aVoutputQuat
p351
asVramp
p352
(lp353
ValphaGain
p354
aValphaIsLuminance
p355
aValphaOffset
p356
aVcolorEntryList
p357
aVcolorGain
p358
aVcolorOffset
p359
aVdefaultColor
p360
aVhueNoise
p361
aVhueNoiseFreq
p362
aVinvert
p363
aVoutAlpha
p364
aVoutColor
p365
aVtype
p366
aVuWave
p367
asVblendColors
p368
(lp369
Vblender
p370
aVcolor1
p371
aVcolor2
p372
aVoutput
p373
asVaimConstraint
p374
(lp375
VaimVector
p376
aVconstraintJointOrient
p377
aVconstraintParentInverseMatrix
p378
aVconstraintRotate
p379
aVconstraintRotateOrder
p380
aVconstraintRotatePivot
p381
aVconstraintRotateTranslate
p382
aVconstraintTranslate
p383
aVconstraintVector
p384
aVtarget
p385
aVupVector
p386
aVworldUpMatrix
p387
aVworldUpType
p388
aVworldUpVector
p389
asVblendTwoAttr
p390
(lp391
VattributesBlender
p392
aVcurrent
p393
aVinput
p394
aVoutput
p395
asVphong
p396
(lp397
VambientColor
p398
aVcolor
p399
aVdiffuse
p400
aVoutColor
p401
aVoutGlowColor
p402
aVoutMatteOpacity
p403
aVoutTransparency
p404
asVcomposeMatrix
p405
(lp406
VinputQuat
p407
aVinputRotate
p408
aVinputRotateOrder
p409
aVinputScale
p410
aVinputShear
p411
aVinputTranslate
p412
aVoutputMatrix
p413
aVuseEulerRotation
p414
asVdecomposeMatrix
p415
(lp416
VinputMatrix
p417
aVinputRotateOrder
p418
aVoutputQuat
p419
aVoutputRotate
p420
aVoutputScale
p421
aVoutputShear
p422
aVoutputTranslate
p423
ass.